///////////////////////////////////////////////////////////////////////////////
//                                                                            /
// IAR C/C++ Compiler V8.10.3.10338/W32 for 8051        07/Jun/2017  11:00:14 /
// Copyright 2004-2011 IAR Systems AB.                                        /
//                                                                            /
//    Core               =  plain                                             /
//    Code model         =  banked                                            /
//    Data model         =  large                                             /
//    Calling convention =  xdata reentrant                                   /
//    Constant location  =  data_rom                                          /
//    Dptr setup         =  1,16                                              /
//    Source file        =  F:\zigbee\zigbee\ZIGBEE_EB2530\µÚ6ÕÂ              /
//                          Êµ¼ùÏîÄ¿\WSN_ZigBee\Components\zmac\f8w\zmac.c    /
//    Command line       =  -f "F:\zigbee\zigbee\ZIGBEE_EB2530\µÚ6ÕÂ          /
//                          Êµ¼ùÏîÄ¿\WSN_ZigBee\Projects\zstack\Utilities\Ser /
//                          ialApp\CC2530DB\..\..\..\Tools\CC2530DB\f8wEndev. /
//                          cfg" (-DCPU32MHZ -DROOT=__near_func               /
//                          -DBLINK_LEDS) -f "F:\zigbee\zigbee\ZIGBEE_EB2530\ /
//                          µÚ6ÕÂ Êµ¼ùÏîÄ¿\WSN_ZigBee\Projects\zstack\Utiliti /
//                          es\SerialApp\CC2530DB\..\..\..\Tools\CC2530DB\f8w /
//                          Config.cfg" (-DSECURE=0 -DZG_SECURE_DYNAMIC=0     /
//                          -DREFLECTOR -DDEFAULT_CHANLIST=0x00000800         /
//                          -DZDAPP_CONFIG_PAN_ID=0xFFF1                      /
//                          -DNWK_START_DELAY=100 -DEXTENDED_JOINING_RANDOM_M /
//                          ASK=0x007F -DBEACON_REQUEST_DELAY=100             /
//                          -DBEACON_REQ_DELAY_MASK=0x00FF                    /
//                          -DROUTE_EXPIRY_TIME=30 -DAPSC_ACK_WAIT_DURATION_P /
//                          OLLED=3000 -DNWK_INDIRECT_MSG_TIMEOUT=7           /
//                          -DMAX_RREQ_ENTRIES=8 -DAPSC_MAX_FRAME_RETRIES=3   /
//                          -DNWK_MAX_DATA_RETRIES=2                          /
//                          -DMAX_POLL_FAILURE_RETRIES=2 -DMAX_BCAST=9        /
//                          -DAPS_MAX_GROUPS=16 -DMAX_RTG_ENTRIES=40          /
//                          -DNWK_MAX_BINDING_ENTRIES=4                       /
//                          -DMAX_BINDING_CLUSTER_IDS=4                       /
//                          "-DDEFAULT_KEY={0x01, 0x03, 0x05, 0x07, 0x09,     /
//                          0x0B, 0x0D, 0x0F, 0x00, 0x02, 0x04, 0x06, 0x08,   /
//                          0x0A, 0x0C, 0x0D}" -DMAC_MAX_FRAME_SIZE=116       /
//                          "-DCONST=const __code" -DGENERIC=__generic        /
//                          -DRFD_RCVC_ALWAYS_ON=FALSE -DPOLL_RATE=1000       /
//                          -DQUEUED_POLL_RATE=100 -DRESPONSE_POLL_RATE=100)  /
//                          -DREJOIN_POLL_RATE=440 "F:\zigbee\zigbee\ZIGBEE_E /
//                          B2530\µÚ6ÕÂ Êµ¼ùÏîÄ¿\WSN_ZigBee\Components\zmac\f /
//                          8w\zmac.c" -D ZIGBEEPRO -D NWK_AUTO_POLL -D       /
//                          HAL_UART=TRUE -D SERIAL_APP_PORT=0 -D             /
//                          LCD_SUPPORTED -D xPOWER_SAVING -lC                /
//                          "F:\zigbee\zigbee\ZIGBEE_EB2530\µÚ6ÕÂ             /
//                          Êµ¼ùÏîÄ¿\WSN_ZigBee\Projects\zstack\Utilities\Ser /
//                          ialApp\CC2530DB\EndDeviceEB-Pro\List\" -lA        /
//                          "F:\zigbee\zigbee\ZIGBEE_EB2530\µÚ6ÕÂ             /
//                          Êµ¼ùÏîÄ¿\WSN_ZigBee\Projects\zstack\Utilities\Ser /
//                          ialApp\CC2530DB\EndDeviceEB-Pro\List\"            /
//                          --diag_suppress Pe001,Pa010 -o                    /
//                          "F:\zigbee\zigbee\ZIGBEE_EB2530\µÚ6ÕÂ             /
//                          Êµ¼ùÏîÄ¿\WSN_ZigBee\Projects\zstack\Utilities\Ser /
//                          ialApp\CC2530DB\EndDeviceEB-Pro\Obj\" -e --debug  /
//                          --core=plain --dptr=16,1 --data_model=large       /
//                          --code_model=banked --calling_convention=xdata_re /
//                          entrant --place_constants=data_rom                /
//                          --nr_virtual_regs 8 -I "F:\zigbee\zigbee\ZIGBEE_E /
//                          B2530\µÚ6ÕÂ Êµ¼ùÏîÄ¿\WSN_ZigBee\Projects\zstack\U /
//                          tilities\SerialApp\CC2530DB\" -I                  /
//                          "F:\zigbee\zigbee\ZIGBEE_EB2530\µÚ6ÕÂ             /
//                          Êµ¼ùÏîÄ¿\WSN_ZigBee\Projects\zstack\Utilities\Ser /
//                          ialApp\CC2530DB\..\SOURCE\" -I                    /
//                          "F:\zigbee\zigbee\ZIGBEE_EB2530\µÚ6ÕÂ             /
//                          Êµ¼ùÏîÄ¿\WSN_ZigBee\Projects\zstack\Utilities\Ser /
//                          ialApp\CC2530DB\..\..\..\ZMAIN\TI2530DB\" -I      /
//                          "F:\zigbee\zigbee\ZIGBEE_EB2530\µÚ6ÕÂ             /
//                          Êµ¼ùÏîÄ¿\WSN_ZigBee\Projects\zstack\Utilities\Ser /
//                          ialApp\CC2530DB\..\..\..\..\..\COMPONENTS\MT\"    /
//                          -I "F:\zigbee\zigbee\ZIGBEE_EB2530\µÚ6ÕÂ          /
//                          Êµ¼ùÏîÄ¿\WSN_ZigBee\Projects\zstack\Utilities\Ser /
//                          ialApp\CC2530DB\..\..\..\..\..\COMPONENTS\HAL\INC /
//                          LUDE\" -I "F:\zigbee\zigbee\ZIGBEE_EB2530\µÚ6ÕÂ   /
//                          Êµ¼ùÏîÄ¿\WSN_ZigBee\Projects\zstack\Utilities\Ser /
//                          ialApp\CC2530DB\..\..\..\..\..\COMPONENTS\HAL\TAR /
//                          GET\CC2530EB\" -I "F:\zigbee\zigbee\ZIGBEE_EB2530 /
//                          \µÚ6ÕÂ Êµ¼ùÏîÄ¿\WSN_ZigBee\Projects\zstack\Utilit /
//                          ies\SerialApp\CC2530DB\..\..\..\..\..\COMPONENTS\ /
//                          OSAL\MCU\CCSOC\" -I "F:\zigbee\zigbee\ZIGBEE_EB25 /
//                          30\µÚ6ÕÂ Êµ¼ùÏîÄ¿\WSN_ZigBee\Projects\zstack\Util /
//                          ities\SerialApp\CC2530DB\..\..\..\..\..\COMPONENT /
//                          S\OSAL\INCLUDE\" -I "F:\zigbee\zigbee\ZIGBEE_EB25 /
//                          30\µÚ6ÕÂ Êµ¼ùÏîÄ¿\WSN_ZigBee\Projects\zstack\Util /
//                          ities\SerialApp\CC2530DB\..\..\..\..\..\COMPONENT /
//                          S\STACK\AF\" -I "F:\zigbee\zigbee\ZIGBEE_EB2530\µ /
//                          Ú6ÕÂ Êµ¼ùÏîÄ¿\WSN_ZigBee\Projects\zstack\Utilitie /
//                          s\SerialApp\CC2530DB\..\..\..\..\..\COMPONENTS\ST /
//                          ACK\NWK\" -I "F:\zigbee\zigbee\ZIGBEE_EB2530\µÚ6Õ /
//                          Â Êµ¼ùÏîÄ¿\WSN_ZigBee\Projects\zstack\Utilities\S /
//                          erialApp\CC2530DB\..\..\..\..\..\COMPONENTS\STACK /
//                          \SEC\" -I "F:\zigbee\zigbee\ZIGBEE_EB2530\µÚ6ÕÂ   /
//                          Êµ¼ùÏîÄ¿\WSN_ZigBee\Projects\zstack\Utilities\Ser /
//                          ialApp\CC2530DB\..\..\..\..\..\COMPONENTS\STACK\S /
//                          API\" -I "F:\zigbee\zigbee\ZIGBEE_EB2530\µÚ6ÕÂ    /
//                          Êµ¼ùÏîÄ¿\WSN_ZigBee\Projects\zstack\Utilities\Ser /
//                          ialApp\CC2530DB\..\..\..\..\..\COMPONENTS\STACK\S /
//                          YS\" -I "F:\zigbee\zigbee\ZIGBEE_EB2530\µÚ6ÕÂ     /
//                          Êµ¼ùÏîÄ¿\WSN_ZigBee\Projects\zstack\Utilities\Ser /
//                          ialApp\CC2530DB\..\..\..\..\..\COMPONENTS\STACK\Z /
//                          DO\" -I "F:\zigbee\zigbee\ZIGBEE_EB2530\µÚ6ÕÂ     /
//                          Êµ¼ùÏîÄ¿\WSN_ZigBee\Projects\zstack\Utilities\Ser /
//                          ialApp\CC2530DB\..\..\..\..\..\COMPONENTS\ZMAC\F8 /
//                          W\" -I "F:\zigbee\zigbee\ZIGBEE_EB2530\µÚ6ÕÂ      /
//                          Êµ¼ùÏîÄ¿\WSN_ZigBee\Projects\zstack\Utilities\Ser /
//                          ialApp\CC2530DB\..\..\..\..\..\COMPONENTS\ZMAC\"  /
//                          -I "F:\zigbee\zigbee\ZIGBEE_EB2530\µÚ6ÕÂ          /
//                          Êµ¼ùÏîÄ¿\WSN_ZigBee\Projects\zstack\Utilities\Ser /
//                          ialApp\CC2530DB\..\..\..\..\..\COMPONENTS\SERVICE /
//                          S\SADDR\" -I "F:\zigbee\zigbee\ZIGBEE_EB2530\µÚ6Õ /
//                          Â Êµ¼ùÏîÄ¿\WSN_ZigBee\Projects\zstack\Utilities\S /
//                          erialApp\CC2530DB\..\..\..\..\..\COMPONENTS\SERVI /
//                          CES\SDATA\" -I "F:\zigbee\zigbee\ZIGBEE_EB2530\µÚ /
//                          6ÕÂ Êµ¼ùÏîÄ¿\WSN_ZigBee\Projects\zstack\Utilities /
//                          \SerialApp\CC2530DB\..\..\..\..\..\COMPONENTS\MAC /
//                          \INCLUDE\" -I "F:\zigbee\zigbee\ZIGBEE_EB2530\µÚ6 /
//                          ÕÂ Êµ¼ùÏîÄ¿\WSN_ZigBee\Projects\zstack\Utilities\ /
//                          SerialApp\CC2530DB\..\..\..\..\..\COMPONENTS\MAC\ /
//                          HIGH_LEVEL\" -I "F:\zigbee\zigbee\ZIGBEE_EB2530\µ /
//                          Ú6ÕÂ Êµ¼ùÏîÄ¿\WSN_ZigBee\Projects\zstack\Utilitie /
//                          s\SerialApp\CC2530DB\..\..\..\..\..\COMPONENTS\MA /
//                          C\LOW_LEVEL\srf04\" -I "F:\zigbee\zigbee\ZIGBEE_E /
//                          B2530\µÚ6ÕÂ Êµ¼ùÏîÄ¿\WSN_ZigBee\Projects\zstack\U /
//                          tilities\SerialApp\CC2530DB\..\..\..\..\..\COMPON /
//                          ENTS\MAC\LOW_LEVEL\srf04\SINGLE_CHIP\" -Ohz       /
//                          --require_prototypes                              /
//    List file          =  F:\zigbee\zigbee\ZIGBEE_EB2530\µÚ6ÕÂ              /
//                          Êµ¼ùÏîÄ¿\WSN_ZigBee\Projects\zstack\Utilities\Ser /
//                          ialApp\CC2530DB\EndDeviceEB-Pro\List\zmac.s51     /
//                                                                            /
//                                                                            /
///////////////////////////////////////////////////////////////////////////////

        NAME zmac

        RTMODEL "__SystemLibrary", "CLib"
        RTMODEL "__calling_convention", "xdata_reentrant"
        RTMODEL "__code_model", "banked"
        RTMODEL "__core", "plain"
        RTMODEL "__data_model", "large"
        RTMODEL "__dptr_size", "16"
        RTMODEL "__extended_stack", "disabled"
        RTMODEL "__location_for_constants", "data"
        RTMODEL "__number_of_dptrs", "1"
        RTMODEL "__rt_version", "1"

        RSEG DOVERLAY:DATA:NOROOT(0)
        RSEG IOVERLAY:IDATA:NOROOT(0)
        RSEG ISTACK:IDATA:NOROOT(0)
        RSEG PSTACK:XDATA:NOROOT(0)
        RSEG XSTACK:XDATA:NOROOT(0)

        EXTERN ?ALLOC_XSTACK8
        EXTERN ?BANKED_ENTER_XDATA
        EXTERN ?BANKED_LEAVE_XDATA
        EXTERN ?BDISPATCH
        EXTERN ?BRET
        EXTERN ?DEALLOC_XSTACK8
        EXTERN ?PUSH_XSTACK_I_THREE
        EXTERN ?V0
        EXTERN ?XLOAD_R2345
        EXTERN ?XSP
        EXTERN ?XSTORE_R2345
        EXTERN __INIT_XDATA_Z

        PUBLIC ??ZMacAssociateReq?relay
        FUNCTION ??ZMacAssociateReq?relay,0203H
        PUBLIC ??ZMacAssociateRsp?relay
        FUNCTION ??ZMacAssociateRsp?relay,0203H
        PUBLIC ??ZMacDataReq?relay
        FUNCTION ??ZMacDataReq?relay,0203H
        PUBLIC ??ZMacDisassociateReq?relay
        FUNCTION ??ZMacDisassociateReq?relay,0203H
        PUBLIC ??ZMacGetReq?relay
        FUNCTION ??ZMacGetReq?relay,0203H
        PUBLIC ??ZMacInit?relay
        FUNCTION ??ZMacInit?relay,0203H
        PUBLIC ??ZMacOrphanRsp?relay
        FUNCTION ??ZMacOrphanRsp?relay,0203H
        PUBLIC ??ZMacPollReq?relay
        FUNCTION ??ZMacPollReq?relay,0203H
        PUBLIC ??ZMacPurgeReq?relay
        FUNCTION ??ZMacPurgeReq?relay,0203H
        PUBLIC ??ZMacPwrOnReq?relay
        FUNCTION ??ZMacPwrOnReq?relay,0203H
        PUBLIC ??ZMacReset?relay
        FUNCTION ??ZMacReset?relay,0203H
        PUBLIC ??ZMacScanReq?relay
        FUNCTION ??ZMacScanReq?relay,0203H
        PUBLIC ??ZMacSendNoData?relay
        FUNCTION ??ZMacSendNoData?relay,0203H
        PUBLIC ??ZMacSetReq?relay
        FUNCTION ??ZMacSetReq?relay,0203H
        PUBLIC ??ZMacSetTransmitPower?relay
        FUNCTION ??ZMacSetTransmitPower?relay,0203H
        PUBLIC ??ZMacSrcMatchAckAllPending?relay
        FUNCTION ??ZMacSrcMatchAckAllPending?relay,0203H
        PUBLIC ??ZMacSrcMatchAddEntry?relay
        FUNCTION ??ZMacSrcMatchAddEntry?relay,0203H
        PUBLIC ??ZMacSrcMatchCheckAllPending?relay
        FUNCTION ??ZMacSrcMatchCheckAllPending?relay,0203H
        PUBLIC ??ZMacSrcMatchDeleteEntry?relay
        FUNCTION ??ZMacSrcMatchDeleteEntry?relay,0203H
        PUBLIC ??ZMacSrcMatchEnable?relay
        FUNCTION ??ZMacSrcMatchEnable?relay,0203H
        PUBLIC ??ZMacStartReq?relay
        FUNCTION ??ZMacStartReq?relay,0203H
        PUBLIC ??ZMacStateIdle?relay
        FUNCTION ??ZMacStateIdle?relay,0203H
        PUBLIC ??ZMacSyncReq?relay
        FUNCTION ??ZMacSyncReq?relay,0203H
        PUBLIC ??ZMac_PwrMode?relay
        FUNCTION ??ZMac_PwrMode?relay,0203H
        PUBLIC ZMacAssociateReq
        FUNCTION ZMacAssociateReq,021203H
        ARGFRAME XSTACK, 0, STACK
        LOCFRAME ISTACK, 2, STACK
        PUBLIC ZMacAssociateRsp
        FUNCTION ZMacAssociateRsp,021203H
        ARGFRAME XSTACK, 0, STACK
        LOCFRAME ISTACK, 2, STACK
        PUBLIC ZMacDataReq
        FUNCTION ZMacDataReq,021203H
        ARGFRAME XSTACK, 0, STACK
        LOCFRAME ISTACK, 1, STACK
        LOCFRAME XSTACK, 19, STACK
        PUBLIC ZMacDisassociateReq
        FUNCTION ZMacDisassociateReq,021203H
        ARGFRAME XSTACK, 0, STACK
        LOCFRAME ISTACK, 2, STACK
        PUBLIC ZMacGetReq
        FUNCTION ZMacGetReq,021203H
        ARGFRAME XSTACK, 0, STACK
        LOCFRAME XSTACK, 9, STACK
        PUBLIC ZMacInit
        FUNCTION ZMacInit,021203H
        ARGFRAME XSTACK, 0, STACK
        LOCFRAME XSTACK, 9, STACK
        PUBLIC ZMacOrphanRsp
        FUNCTION ZMacOrphanRsp,021203H
        ARGFRAME XSTACK, 0, STACK
        LOCFRAME ISTACK, 2, STACK
        PUBLIC ZMacPollReq
        FUNCTION ZMacPollReq,021203H
        ARGFRAME XSTACK, 0, STACK
        LOCFRAME ISTACK, 2, STACK
        PUBLIC ZMacPurgeReq
        FUNCTION ZMacPurgeReq,021203H
        ARGFRAME XSTACK, 0, STACK
        LOCFRAME XSTACK, 9, STACK
        PUBLIC ZMacPwrOnReq
        FUNCTION ZMacPwrOnReq,021203H
        ARGFRAME XSTACK, 0, STACK
        LOCFRAME ISTACK, 2, STACK
        PUBLIC ZMacReset
        FUNCTION ZMacReset,021203H
        ARGFRAME XSTACK, 9, STACK
        ARGFRAME IOVERLAY, 0, STATIC
        ARGFRAME DOVERLAY, 0, STATIC
        LOCFRAME XSTACK, 10, STACK
        PUBLIC ZMacScanReq
        FUNCTION ZMacScanReq,021203H
        ARGFRAME XSTACK, 0, STACK
        LOCFRAME XSTACK, 12, STACK
        PUBLIC ZMacSendNoData
        FUNCTION ZMacSendNoData,021203H
        ARGFRAME XSTACK, 0, STACK
        LOCFRAME XSTACK, 12, STACK
        PUBLIC ZMacSetReq
        FUNCTION ZMacSetReq,021203H
        ARGFRAME XSTACK, 0, STACK
        LOCFRAME XSTACK, 9, STACK
        PUBLIC ZMacSetTransmitPower
        FUNCTION ZMacSetTransmitPower,021203H
        ARGFRAME XSTACK, 0, STACK
        LOCFRAME ISTACK, 3, STACK
        LOCFRAME XSTACK, 1, STACK
        PUBLIC ZMacSrcMatchAckAllPending
        FUNCTION ZMacSrcMatchAckAllPending,021203H
        ARGFRAME XSTACK, 0, STACK
        LOCFRAME XSTACK, 9, STACK
        PUBLIC ZMacSrcMatchAddEntry
        FUNCTION ZMacSrcMatchAddEntry,021203H
        ARGFRAME XSTACK, 0, STACK
        LOCFRAME ISTACK, 2, STACK
        PUBLIC ZMacSrcMatchCheckAllPending
        FUNCTION ZMacSrcMatchCheckAllPending,021203H
        ARGFRAME XSTACK, 0, STACK
        LOCFRAME ISTACK, 2, STACK
        PUBLIC ZMacSrcMatchDeleteEntry
        FUNCTION ZMacSrcMatchDeleteEntry,021203H
        ARGFRAME XSTACK, 0, STACK
        LOCFRAME ISTACK, 2, STACK
        PUBLIC ZMacSrcMatchEnable
        FUNCTION ZMacSrcMatchEnable,021203H
        ARGFRAME XSTACK, 0, STACK
        LOCFRAME XSTACK, 9, STACK
        PUBLIC ZMacStartReq
        FUNCTION ZMacStartReq,021203H
        ARGFRAME XSTACK, 0, STACK
        LOCFRAME XSTACK, 10, STACK
        PUBLIC ZMacStateIdle
        FUNCTION ZMacStateIdle,021203H
        ARGFRAME XSTACK, 0, STACK
        LOCFRAME ISTACK, 2, STACK
        PUBLIC ZMacSyncReq
        FUNCTION ZMacSyncReq,021203H
        ARGFRAME XSTACK, 0, STACK
        LOCFRAME ISTACK, 2, STACK
        PUBLIC ZMac_PwrMode
        FUNCTION ZMac_PwrMode,021203H
        ARGFRAME XSTACK, 0, STACK
        LOCFRAME ISTACK, 2, STACK
        PUBLIC ZMac_ScanBuf
        PUBLIC _ScanChannels
        
        CFI Names cfiNames0
        CFI StackFrame CFA_SP SP IDATA
        CFI StackFrame CFA_PSP16 PSP16 XDATA
        CFI StackFrame CFA_XSP16 XSP16 XDATA
        CFI StaticOverlayFrame CFA_IOVERLAY IOVERLAY
        CFI StaticOverlayFrame CFA_DOVERLAY DOVERLAY
        CFI Resource `PSW.CY`:1, `B.BR0`:1, `B.BR1`:1, `B.BR2`:1, `B.BR3`:1
        CFI Resource `B.BR4`:1, `B.BR5`:1, `B.BR6`:1, `B.BR7`:1, `VB.BR8`:1
        CFI Resource `VB.BR9`:1, `VB.BR10`:1, `VB.BR11`:1, `VB.BR12`:1
        CFI Resource `VB.BR13`:1, `VB.BR14`:1, `VB.BR15`:1, VB:8, B:8, A:8
        CFI Resource PSW:8, DPL0:8, DPH0:8, R0:8, R1:8, R2:8, R3:8, R4:8, R5:8
        CFI Resource R6:8, R7:8, V0:8, V1:8, V2:8, V3:8, V4:8, V5:8, V6:8, V7:8
        CFI Resource SP:8, PSPH:8, PSPL:8, PSP16:16, XSPH:8, XSPL:8, XSP16:16
        CFI VirtualResource ?RET:24
        CFI Resource ?BRET_EXT:8
        CFI VirtualResource ?RET_HIGH:8, ?RET_LOW:8
        CFI ResourceParts PSP16 PSPH, PSPL
        CFI ResourceParts XSP16 XSPH, XSPL
        CFI ResourceParts ?RET ?BRET_EXT, ?RET_HIGH, ?RET_LOW
        CFI EndNames cfiNames0
        
        CFI Common cfiCommon0 Using cfiNames0
        CFI CodeAlign 1
        CFI DataAlign -1
        CFI ReturnAddress ?RET CODE
        CFI CFA_DOVERLAY Used
        CFI CFA_IOVERLAY Used
        CFI CFA_SP SP+-3
        CFI CFA_PSP16 PSP16+0
        CFI CFA_XSP16 XSP16+0
        CFI `PSW.CY` SameValue
        CFI `B.BR0` SameValue
        CFI `B.BR1` SameValue
        CFI `B.BR2` SameValue
        CFI `B.BR3` SameValue
        CFI `B.BR4` SameValue
        CFI `B.BR5` SameValue
        CFI `B.BR6` SameValue
        CFI `B.BR7` SameValue
        CFI `VB.BR8` SameValue
        CFI `VB.BR9` SameValue
        CFI `VB.BR10` SameValue
        CFI `VB.BR11` SameValue
        CFI `VB.BR12` SameValue
        CFI `VB.BR13` SameValue
        CFI `VB.BR14` SameValue
        CFI `VB.BR15` SameValue
        CFI VB SameValue
        CFI B Undefined
        CFI A Undefined
        CFI PSW SameValue
        CFI DPL0 SameValue
        CFI DPH0 SameValue
        CFI R0 Undefined
        CFI R1 Undefined
        CFI R2 Undefined
        CFI R3 Undefined
        CFI R4 Undefined
        CFI R5 Undefined
        CFI R6 SameValue
        CFI R7 SameValue
        CFI V0 SameValue
        CFI V1 SameValue
        CFI V2 SameValue
        CFI V3 SameValue
        CFI V4 SameValue
        CFI V5 SameValue
        CFI V6 SameValue
        CFI V7 SameValue
        CFI PSPH Undefined
        CFI PSPL Undefined
        CFI XSPH Undefined
        CFI XSPL Undefined
        CFI ?RET Concat
        CFI ?BRET_EXT Frame(CFA_SP, 3)
        CFI ?RET_HIGH Frame(CFA_SP, 2)
        CFI ?RET_LOW Frame(CFA_SP, 1)
        CFI EndCommon cfiCommon0
        
        
        CFI Common cfiCommon1 Using cfiNames0
        CFI CodeAlign 1
        CFI DataAlign -1
        CFI ReturnAddress ?RET CODE
        CFI CFA_DOVERLAY Used
        CFI CFA_IOVERLAY Used
        CFI CFA_SP SP+-2
        CFI CFA_PSP16 PSP16+0
        CFI CFA_XSP16 XSP16+0
        CFI `PSW.CY` SameValue
        CFI `B.BR0` SameValue
        CFI `B.BR1` SameValue
        CFI `B.BR2` SameValue
        CFI `B.BR3` SameValue
        CFI `B.BR4` SameValue
        CFI `B.BR5` SameValue
        CFI `B.BR6` SameValue
        CFI `B.BR7` SameValue
        CFI `VB.BR8` SameValue
        CFI `VB.BR9` SameValue
        CFI `VB.BR10` SameValue
        CFI `VB.BR11` SameValue
        CFI `VB.BR12` SameValue
        CFI `VB.BR13` SameValue
        CFI `VB.BR14` SameValue
        CFI `VB.BR15` SameValue
        CFI VB SameValue
        CFI B SameValue
        CFI A SameValue
        CFI PSW SameValue
        CFI DPL0 SameValue
        CFI DPH0 SameValue
        CFI R0 SameValue
        CFI R1 SameValue
        CFI R2 SameValue
        CFI R3 SameValue
        CFI R4 SameValue
        CFI R5 SameValue
        CFI R6 SameValue
        CFI R7 SameValue
        CFI V0 SameValue
        CFI V1 SameValue
        CFI V2 SameValue
        CFI V3 SameValue
        CFI V4 SameValue
        CFI V5 SameValue
        CFI V6 SameValue
        CFI V7 SameValue
        CFI PSPH Undefined
        CFI PSPL Undefined
        CFI XSPH Undefined
        CFI XSPL Undefined
        CFI ?RET Concat
        CFI ?BRET_EXT SameValue
        CFI ?RET_HIGH Frame(CFA_SP, 2)
        CFI ?RET_LOW Frame(CFA_SP, 1)
        CFI EndCommon cfiCommon1
        
MAC_Init            SYMBOL "MAC_Init"
MAC_InitDevice      SYMBOL "MAC_InitDevice"
osal_int_disable    SYMBOL "osal_int_disable"
MAC_MlmeResetReq    SYMBOL "MAC_MlmeResetReq"
MAC_MlmeSetReq      SYMBOL "MAC_MlmeSetReq"
osal_mem_free       SYMBOL "osal_mem_free"
sAddrExtCpy         SYMBOL "sAddrExtCpy"
MAC_MlmeGetReq      SYMBOL "MAC_MlmeGetReq"
MAC_MlmeAssociateReq SYMBOL "MAC_MlmeAssociateReq"
MAC_MlmeAssociateRsp SYMBOL "MAC_MlmeAssociateRsp"
MAC_MlmeDisassociateReq SYMBOL "MAC_MlmeDisassociateReq"
MAC_MlmeOrphanRsp   SYMBOL "MAC_MlmeOrphanRsp"
osal_mem_alloc      SYMBOL "osal_mem_alloc"
osal_memset         SYMBOL "osal_memset"
MAC_MlmeScanReq     SYMBOL "MAC_MlmeScanReq"
MAC_MlmeStartReq    SYMBOL "MAC_MlmeStartReq"
MAC_MlmeSyncReq     SYMBOL "MAC_MlmeSyncReq"
MAC_MlmePollReq     SYMBOL "MAC_MlmePollReq"
MAC_McpsDataAlloc   SYMBOL "MAC_McpsDataAlloc"
osal_memcpy         SYMBOL "osal_memcpy"
MAC_McpsDataReq     SYMBOL "MAC_McpsDataReq"
MAC_McpsPurgeReq    SYMBOL "MAC_McpsPurgeReq"
MAC_SrcMatchEnable  SYMBOL "MAC_SrcMatchEnable"
MAC_SrcMatchAddEntry SYMBOL "MAC_SrcMatchAddEntry"
MAC_SrcMatchDeleteEntry SYMBOL "MAC_SrcMatchDeleteEntry"
MAC_SrcMatchAckAllPending SYMBOL "MAC_SrcMatchAckAllPending"
MAC_SrcMatchCheckAllPending SYMBOL "MAC_SrcMatchCheckAllPending"
MAC_PwrOnReq        SYMBOL "MAC_PwrOnReq"
MAC_PwrMode         SYMBOL "MAC_PwrMode"
macStateIdle        SYMBOL "macStateIdle"
??MAC_Init?relay    SYMBOL "?relay", MAC_Init
??MAC_InitDevice?relay SYMBOL "?relay", MAC_InitDevice
??MAC_McpsDataAlloc?relay SYMBOL "?relay", MAC_McpsDataAlloc
??MAC_McpsDataReq?relay SYMBOL "?relay", MAC_McpsDataReq
??MAC_McpsPurgeReq?relay SYMBOL "?relay", MAC_McpsPurgeReq
??MAC_MlmeAssociateReq?relay SYMBOL "?relay", MAC_MlmeAssociateReq
??MAC_MlmeAssociateRsp?relay SYMBOL "?relay", MAC_MlmeAssociateRsp
??MAC_MlmeDisassociateReq?relay SYMBOL "?relay", MAC_MlmeDisassociateReq
??MAC_MlmeGetReq?relay SYMBOL "?relay", MAC_MlmeGetReq
??MAC_MlmeOrphanRsp?relay SYMBOL "?relay", MAC_MlmeOrphanRsp
??MAC_MlmePollReq?relay SYMBOL "?relay", MAC_MlmePollReq
??MAC_MlmeResetReq?relay SYMBOL "?relay", MAC_MlmeResetReq
??MAC_MlmeScanReq?relay SYMBOL "?relay", MAC_MlmeScanReq
??MAC_MlmeSetReq?relay SYMBOL "?relay", MAC_MlmeSetReq
??MAC_MlmeStartReq?relay SYMBOL "?relay", MAC_MlmeStartReq
??MAC_MlmeSyncReq?relay SYMBOL "?relay", MAC_MlmeSyncReq
??MAC_PwrMode?relay SYMBOL "?relay", MAC_PwrMode
??MAC_PwrOnReq?relay SYMBOL "?relay", MAC_PwrOnReq
??MAC_SrcMatchAckAllPending?relay SYMBOL "?relay", MAC_SrcMatchAckAllPending
??MAC_SrcMatchAddEntry?relay SYMBOL "?relay", MAC_SrcMatchAddEntry
??MAC_SrcMatchCheckAllPending?relay SYMBOL "?relay", MAC_SrcMatchCheckAllPending
??MAC_SrcMatchDeleteEntry?relay SYMBOL "?relay", MAC_SrcMatchDeleteEntry
??MAC_SrcMatchEnable?relay SYMBOL "?relay", MAC_SrcMatchEnable
??macStateIdle?relay SYMBOL "?relay", macStateIdle
??osal_int_disable?relay SYMBOL "?relay", osal_int_disable
??osal_mem_alloc?relay SYMBOL "?relay", osal_mem_alloc
??osal_mem_free?relay SYMBOL "?relay", osal_mem_free
??osal_memcpy?relay SYMBOL "?relay", osal_memcpy
??osal_memset?relay SYMBOL "?relay", osal_memset
??sAddrExtCpy?relay SYMBOL "?relay", sAddrExtCpy
ZMacAssociateReq    SYMBOL "ZMacAssociateReq"
??ZMacAssociateReq?relay SYMBOL "?relay", ZMacAssociateReq
ZMacAssociateRsp    SYMBOL "ZMacAssociateRsp"
??ZMacAssociateRsp?relay SYMBOL "?relay", ZMacAssociateRsp
ZMacDataReq         SYMBOL "ZMacDataReq"
??ZMacDataReq?relay SYMBOL "?relay", ZMacDataReq
ZMacDisassociateReq SYMBOL "ZMacDisassociateReq"
??ZMacDisassociateReq?relay SYMBOL "?relay", ZMacDisassociateReq
ZMacGetReq          SYMBOL "ZMacGetReq"
??ZMacGetReq?relay  SYMBOL "?relay", ZMacGetReq
ZMacInit            SYMBOL "ZMacInit"
??ZMacInit?relay    SYMBOL "?relay", ZMacInit
ZMacOrphanRsp       SYMBOL "ZMacOrphanRsp"
??ZMacOrphanRsp?relay SYMBOL "?relay", ZMacOrphanRsp
ZMacPollReq         SYMBOL "ZMacPollReq"
??ZMacPollReq?relay SYMBOL "?relay", ZMacPollReq
ZMacPurgeReq        SYMBOL "ZMacPurgeReq"
??ZMacPurgeReq?relay SYMBOL "?relay", ZMacPurgeReq
ZMacPwrOnReq        SYMBOL "ZMacPwrOnReq"
??ZMacPwrOnReq?relay SYMBOL "?relay", ZMacPwrOnReq
ZMacReset           SYMBOL "ZMacReset"
??ZMacReset?relay   SYMBOL "?relay", ZMacReset
ZMacScanReq         SYMBOL "ZMacScanReq"
??ZMacScanReq?relay SYMBOL "?relay", ZMacScanReq
ZMacSendNoData      SYMBOL "ZMacSendNoData"
??ZMacSendNoData?relay SYMBOL "?relay", ZMacSendNoData
ZMacSetReq          SYMBOL "ZMacSetReq"
??ZMacSetReq?relay  SYMBOL "?relay", ZMacSetReq
ZMacSetTransmitPower SYMBOL "ZMacSetTransmitPower"
??ZMacSetTransmitPower?relay SYMBOL "?relay", ZMacSetTransmitPower
ZMacSrcMatchAckAllPending SYMBOL "ZMacSrcMatchAckAllPending"
??ZMacSrcMatchAckAllPending?relay SYMBOL "?relay", ZMacSrcMatchAckAllPending
ZMacSrcMatchAddEntry SYMBOL "ZMacSrcMatchAddEntry"
??ZMacSrcMatchAddEntry?relay SYMBOL "?relay", ZMacSrcMatchAddEntry
ZMacSrcMatchCheckAllPending SYMBOL "ZMacSrcMatchCheckAllPending"
??ZMacSrcMatchCheckAllPending?relay SYMBOL "?relay", ZMacSrcMatchCheckAllPending
ZMacSrcMatchDeleteEntry SYMBOL "ZMacSrcMatchDeleteEntry"
??ZMacSrcMatchDeleteEntry?relay SYMBOL "?relay", ZMacSrcMatchDeleteEntry
ZMacSrcMatchEnable  SYMBOL "ZMacSrcMatchEnable"
??ZMacSrcMatchEnable?relay SYMBOL "?relay", ZMacSrcMatchEnable
ZMacStartReq        SYMBOL "ZMacStartReq"
??ZMacStartReq?relay SYMBOL "?relay", ZMacStartReq
ZMacStateIdle       SYMBOL "ZMacStateIdle"
??ZMacStateIdle?relay SYMBOL "?relay", ZMacStateIdle
ZMacSyncReq         SYMBOL "ZMacSyncReq"
??ZMacSyncReq?relay SYMBOL "?relay", ZMacSyncReq
ZMac_PwrMode        SYMBOL "ZMac_PwrMode"
??ZMac_PwrMode?relay SYMBOL "?relay", ZMac_PwrMode

        EXTERN MAC_Init
        FUNCTION MAC_Init,0202H
        ARGFRAME ISTACK, 0, STACK
        ARGFRAME PSTACK, 0, STACK
        ARGFRAME XSTACK, 9, STACK
        ARGFRAME IOVERLAY, 0, STATIC
        ARGFRAME DOVERLAY, 0, STATIC
        EXTERN MAC_InitDevice
        FUNCTION MAC_InitDevice,0202H
        ARGFRAME ISTACK, 0, STACK
        ARGFRAME PSTACK, 0, STACK
        ARGFRAME XSTACK, 9, STACK
        ARGFRAME IOVERLAY, 0, STATIC
        ARGFRAME DOVERLAY, 0, STATIC
        EXTERN osal_int_disable
        FUNCTION osal_int_disable,0202H
        ARGFRAME ISTACK, 0, STACK
        ARGFRAME PSTACK, 0, STACK
        ARGFRAME XSTACK, 9, STACK
        ARGFRAME IOVERLAY, 0, STATIC
        ARGFRAME DOVERLAY, 0, STATIC
        EXTERN MAC_MlmeResetReq
        FUNCTION MAC_MlmeResetReq,0202H
        ARGFRAME ISTACK, 0, STACK
        ARGFRAME PSTACK, 0, STACK
        ARGFRAME XSTACK, 10, STACK
        ARGFRAME IOVERLAY, 0, STATIC
        ARGFRAME DOVERLAY, 0, STATIC
        EXTERN MAC_MlmeSetReq
        FUNCTION MAC_MlmeSetReq,0202H
        ARGFRAME ISTACK, 2, STACK
        ARGFRAME PSTACK, 0, STACK
        ARGFRAME XSTACK, 10, STACK
        ARGFRAME IOVERLAY, 0, STATIC
        ARGFRAME DOVERLAY, 0, STATIC
        EXTERN osal_mem_free
        FUNCTION osal_mem_free,0202H
        ARGFRAME ISTACK, 0, STACK
        ARGFRAME PSTACK, 0, STACK
        ARGFRAME XSTACK, 10, STACK
        ARGFRAME IOVERLAY, 0, STATIC
        ARGFRAME DOVERLAY, 0, STATIC
        EXTERN sAddrExtCpy
        FUNCTION sAddrExtCpy,0202H
        ARGFRAME ISTACK, 0, STACK
        ARGFRAME PSTACK, 0, STACK
        ARGFRAME XSTACK, 9, STACK
        ARGFRAME IOVERLAY, 0, STATIC
        ARGFRAME DOVERLAY, 0, STATIC
        EXTERN MAC_MlmeGetReq
        FUNCTION MAC_MlmeGetReq,0202H
        ARGFRAME ISTACK, 0, STACK
        ARGFRAME PSTACK, 0, STACK
        ARGFRAME XSTACK, 9, STACK
        ARGFRAME IOVERLAY, 0, STATIC
        ARGFRAME DOVERLAY, 0, STATIC
        EXTERN MAC_MlmeAssociateReq
        FUNCTION MAC_MlmeAssociateReq,0202H
        ARGFRAME ISTACK, 2, STACK
        ARGFRAME PSTACK, 0, STACK
        ARGFRAME XSTACK, 0, STACK
        ARGFRAME IOVERLAY, 0, STATIC
        ARGFRAME DOVERLAY, 0, STATIC
        EXTERN MAC_MlmeAssociateRsp
        FUNCTION MAC_MlmeAssociateRsp,0202H
        ARGFRAME ISTACK, 2, STACK
        ARGFRAME PSTACK, 0, STACK
        ARGFRAME XSTACK, 0, STACK
        ARGFRAME IOVERLAY, 0, STATIC
        ARGFRAME DOVERLAY, 0, STATIC
        EXTERN MAC_MlmeDisassociateReq
        FUNCTION MAC_MlmeDisassociateReq,0202H
        ARGFRAME ISTACK, 2, STACK
        ARGFRAME PSTACK, 0, STACK
        ARGFRAME XSTACK, 0, STACK
        ARGFRAME IOVERLAY, 0, STATIC
        ARGFRAME DOVERLAY, 0, STATIC
        EXTERN MAC_MlmeOrphanRsp
        FUNCTION MAC_MlmeOrphanRsp,0202H
        ARGFRAME ISTACK, 2, STACK
        ARGFRAME PSTACK, 0, STACK
        ARGFRAME XSTACK, 0, STACK
        ARGFRAME IOVERLAY, 0, STATIC
        ARGFRAME DOVERLAY, 0, STATIC
        EXTERN osal_mem_alloc
        FUNCTION osal_mem_alloc,0202H
        ARGFRAME ISTACK, 0, STACK
        ARGFRAME PSTACK, 0, STACK
        ARGFRAME XSTACK, 12, STACK
        ARGFRAME IOVERLAY, 0, STATIC
        ARGFRAME DOVERLAY, 0, STATIC
        EXTERN osal_memset
        FUNCTION osal_memset,0202H
        ARGFRAME ISTACK, 0, STACK
        ARGFRAME PSTACK, 0, STACK
        ARGFRAME XSTACK, 12, STACK
        ARGFRAME IOVERLAY, 0, STATIC
        ARGFRAME DOVERLAY, 0, STATIC
        EXTERN MAC_MlmeScanReq
        FUNCTION MAC_MlmeScanReq,0202H
        ARGFRAME ISTACK, 0, STACK
        ARGFRAME PSTACK, 0, STACK
        ARGFRAME XSTACK, 12, STACK
        ARGFRAME IOVERLAY, 0, STATIC
        ARGFRAME DOVERLAY, 0, STATIC
        EXTERN MAC_MlmeStartReq
        FUNCTION MAC_MlmeStartReq,0202H
        ARGFRAME ISTACK, 0, STACK
        ARGFRAME PSTACK, 0, STACK
        ARGFRAME XSTACK, 10, STACK
        ARGFRAME IOVERLAY, 0, STATIC
        ARGFRAME DOVERLAY, 0, STATIC
        EXTERN MAC_MlmeSyncReq
        FUNCTION MAC_MlmeSyncReq,0202H
        ARGFRAME ISTACK, 2, STACK
        ARGFRAME PSTACK, 0, STACK
        ARGFRAME XSTACK, 0, STACK
        ARGFRAME IOVERLAY, 0, STATIC
        ARGFRAME DOVERLAY, 0, STATIC
        EXTERN MAC_MlmePollReq
        FUNCTION MAC_MlmePollReq,0202H
        ARGFRAME ISTACK, 2, STACK
        ARGFRAME PSTACK, 0, STACK
        ARGFRAME XSTACK, 0, STACK
        ARGFRAME IOVERLAY, 0, STATIC
        ARGFRAME DOVERLAY, 0, STATIC
        EXTERN MAC_McpsDataAlloc
        FUNCTION MAC_McpsDataAlloc,0202H
        ARGFRAME ISTACK, 0, STACK
        ARGFRAME PSTACK, 0, STACK
        ARGFRAME XSTACK, 16, STACK
        ARGFRAME IOVERLAY, 0, STATIC
        ARGFRAME DOVERLAY, 0, STATIC
        EXTERN osal_memcpy
        FUNCTION osal_memcpy,0202H
        ARGFRAME ISTACK, 0, STACK
        ARGFRAME PSTACK, 0, STACK
        ARGFRAME XSTACK, 19, STACK
        ARGFRAME IOVERLAY, 0, STATIC
        ARGFRAME DOVERLAY, 0, STATIC
        EXTERN MAC_McpsDataReq
        FUNCTION MAC_McpsDataReq,0202H
        ARGFRAME ISTACK, 0, STACK
        ARGFRAME PSTACK, 0, STACK
        ARGFRAME XSTACK, 16, STACK
        ARGFRAME IOVERLAY, 0, STATIC
        ARGFRAME DOVERLAY, 0, STATIC
        EXTERN MAC_McpsPurgeReq
        FUNCTION MAC_McpsPurgeReq,0202H
        ARGFRAME ISTACK, 0, STACK
        ARGFRAME PSTACK, 0, STACK
        ARGFRAME XSTACK, 9, STACK
        ARGFRAME IOVERLAY, 0, STATIC
        ARGFRAME DOVERLAY, 0, STATIC
        EXTERN MAC_SrcMatchEnable
        FUNCTION MAC_SrcMatchEnable,0202H
        ARGFRAME ISTACK, 0, STACK
        ARGFRAME PSTACK, 0, STACK
        ARGFRAME XSTACK, 9, STACK
        ARGFRAME IOVERLAY, 0, STATIC
        ARGFRAME DOVERLAY, 0, STATIC
        EXTERN MAC_SrcMatchAddEntry
        FUNCTION MAC_SrcMatchAddEntry,0202H
        ARGFRAME ISTACK, 2, STACK
        ARGFRAME PSTACK, 0, STACK
        ARGFRAME XSTACK, 0, STACK
        ARGFRAME IOVERLAY, 0, STATIC
        ARGFRAME DOVERLAY, 0, STATIC
        EXTERN MAC_SrcMatchDeleteEntry
        FUNCTION MAC_SrcMatchDeleteEntry,0202H
        ARGFRAME ISTACK, 2, STACK
        ARGFRAME PSTACK, 0, STACK
        ARGFRAME XSTACK, 0, STACK
        ARGFRAME IOVERLAY, 0, STATIC
        ARGFRAME DOVERLAY, 0, STATIC
        EXTERN MAC_SrcMatchAckAllPending
        FUNCTION MAC_SrcMatchAckAllPending,0202H
        ARGFRAME ISTACK, 0, STACK
        ARGFRAME PSTACK, 0, STACK
        ARGFRAME XSTACK, 9, STACK
        ARGFRAME IOVERLAY, 0, STATIC
        ARGFRAME DOVERLAY, 0, STATIC
        EXTERN MAC_SrcMatchCheckAllPending
        FUNCTION MAC_SrcMatchCheckAllPending,0202H
        ARGFRAME ISTACK, 2, STACK
        ARGFRAME PSTACK, 0, STACK
        ARGFRAME XSTACK, 0, STACK
        ARGFRAME IOVERLAY, 0, STATIC
        ARGFRAME DOVERLAY, 0, STATIC
        EXTERN MAC_PwrOnReq
        FUNCTION MAC_PwrOnReq,0202H
        ARGFRAME ISTACK, 2, STACK
        ARGFRAME PSTACK, 0, STACK
        ARGFRAME XSTACK, 0, STACK
        ARGFRAME IOVERLAY, 0, STATIC
        ARGFRAME DOVERLAY, 0, STATIC
        EXTERN MAC_PwrMode
        FUNCTION MAC_PwrMode,0202H
        ARGFRAME ISTACK, 2, STACK
        ARGFRAME PSTACK, 0, STACK
        ARGFRAME XSTACK, 0, STACK
        ARGFRAME IOVERLAY, 0, STATIC
        ARGFRAME DOVERLAY, 0, STATIC
        EXTERN macStateIdle
        FUNCTION macStateIdle,0202H
        ARGFRAME ISTACK, 2, STACK
        ARGFRAME PSTACK, 0, STACK
        ARGFRAME XSTACK, 0, STACK
        ARGFRAME IOVERLAY, 0, STATIC
        ARGFRAME DOVERLAY, 0, STATIC
        EXTERN ??MAC_Init?relay
        FUNCTION ??MAC_Init?relay,00H
        EXTERN ??MAC_InitDevice?relay
        FUNCTION ??MAC_InitDevice?relay,00H
        EXTERN ??MAC_McpsDataAlloc?relay
        FUNCTION ??MAC_McpsDataAlloc?relay,00H
        EXTERN ??MAC_McpsDataReq?relay
        FUNCTION ??MAC_McpsDataReq?relay,00H
        EXTERN ??MAC_McpsPurgeReq?relay
        FUNCTION ??MAC_McpsPurgeReq?relay,00H
        EXTERN ??MAC_MlmeAssociateReq?relay
        FUNCTION ??MAC_MlmeAssociateReq?relay,00H
        EXTERN ??MAC_MlmeAssociateRsp?relay
        FUNCTION ??MAC_MlmeAssociateRsp?relay,00H
        EXTERN ??MAC_MlmeDisassociateReq?relay
        FUNCTION ??MAC_MlmeDisassociateReq?relay,00H
        EXTERN ??MAC_MlmeGetReq?relay
        FUNCTION ??MAC_MlmeGetReq?relay,00H
        EXTERN ??MAC_MlmeOrphanRsp?relay
        FUNCTION ??MAC_MlmeOrphanRsp?relay,00H
        EXTERN ??MAC_MlmePollReq?relay
        FUNCTION ??MAC_MlmePollReq?relay,00H
        EXTERN ??MAC_MlmeResetReq?relay
        FUNCTION ??MAC_MlmeResetReq?relay,00H
        EXTERN ??MAC_MlmeScanReq?relay
        FUNCTION ??MAC_MlmeScanReq?relay,00H
        EXTERN ??MAC_MlmeSetReq?relay
        FUNCTION ??MAC_MlmeSetReq?relay,00H
        EXTERN ??MAC_MlmeStartReq?relay
        FUNCTION ??MAC_MlmeStartReq?relay,00H
        EXTERN ??MAC_MlmeSyncReq?relay
        FUNCTION ??MAC_MlmeSyncReq?relay,00H
        EXTERN ??MAC_PwrMode?relay
        FUNCTION ??MAC_PwrMode?relay,00H
        EXTERN ??MAC_PwrOnReq?relay
        FUNCTION ??MAC_PwrOnReq?relay,00H
        EXTERN ??MAC_SrcMatchAckAllPending?relay
        FUNCTION ??MAC_SrcMatchAckAllPending?relay,00H
        EXTERN ??MAC_SrcMatchAddEntry?relay
        FUNCTION ??MAC_SrcMatchAddEntry?relay,00H
        EXTERN ??MAC_SrcMatchCheckAllPending?relay
        FUNCTION ??MAC_SrcMatchCheckAllPending?relay,00H
        EXTERN ??MAC_SrcMatchDeleteEntry?relay
        FUNCTION ??MAC_SrcMatchDeleteEntry?relay,00H
        EXTERN ??MAC_SrcMatchEnable?relay
        FUNCTION ??MAC_SrcMatchEnable?relay,00H
        EXTERN ??macStateIdle?relay
        FUNCTION ??macStateIdle?relay,00H
        EXTERN ??osal_int_disable?relay
        FUNCTION ??osal_int_disable?relay,00H
        EXTERN ??osal_mem_alloc?relay
        FUNCTION ??osal_mem_alloc?relay,00H
        EXTERN ??osal_mem_free?relay
        FUNCTION ??osal_mem_free?relay,00H
        EXTERN ??osal_memcpy?relay
        FUNCTION ??osal_memcpy?relay,00H
        EXTERN ??osal_memset?relay
        FUNCTION ??osal_memset?relay,00H
        EXTERN ??sAddrExtCpy?relay
        FUNCTION ??sAddrExtCpy?relay,00H
        EXTERN aExtendedAddress

// F:\zigbee\zigbee\ZIGBEE_EB2530\µÚ6ÕÂ Êµ¼ùÏîÄ¿\WSN_ZigBee\Components\zmac\f8w\zmac.c
//    1 /**************************************************************************************************
//    2   Filename:       zmac.c
//    3   Revised:        $Date: 2009-03-31 11:40:58 -0700 (Tue, 31 Mar 2009) $
//    4   Revision:       $Revision: 19611 $
//    5 
//    6 
//    7   Description:    This file contains the ZStack MAC Porting Layer
//    8 
//    9 
//   10   Copyright 2005-2007 Texas Instruments Incorporated. All rights reserved.
//   11 
//   12   IMPORTANT: Your use of this Software is limited to those specific rights
//   13   granted under the terms of a software license agreement between the user
//   14   who downloaded the software, his/her employer (which must be your employer)
//   15   and Texas Instruments Incorporated (the "License").  You may not use this
//   16   Software unless you agree to abide by the terms of the License. The License
//   17   limits your use, and you acknowledge, that the Software may not be modified,
//   18   copied or distributed unless embedded on a Texas Instruments microcontroller
//   19   or used solely and exclusively in conjunction with a Texas Instruments radio
//   20   frequency transceiver, which is integrated into your product.  Other than for
//   21   the foregoing purpose, you may not use, reproduce, copy, prepare derivative
//   22   works of, modify, distribute, perform, display or sell this Software and/or
//   23   its documentation for any purpose.
//   24 
//   25   YOU FURTHER ACKNOWLEDGE AND AGREE THAT THE SOFTWARE AND DOCUMENTATION ARE
//   26   PROVIDED “AS IS?WITHOUT WARRANTY OF ANY KIND, EITHER EXPRESS OR IMPLIED,
//   27   INCLUDING WITHOUT LIMITATION, ANY WARRANTY OF MERCHANTABILITY, TITLE,
//   28   NON-INFRINGEMENT AND FITNESS FOR A PARTICULAR PURPOSE. IN NO EVENT SHALL
//   29   TEXAS INSTRUMENTS OR ITS LICENSORS BE LIABLE OR OBLIGATED UNDER CONTRACT,
//   30   NEGLIGENCE, STRICT LIABILITY, CONTRIBUTION, BREACH OF WARRANTY, OR OTHER
//   31   LEGAL EQUITABLE THEORY ANY DIRECT OR INDIRECT DAMAGES OR EXPENSES
//   32   INCLUDING BUT NOT LIMITED TO ANY INCIDENTAL, SPECIAL, INDIRECT, PUNITIVE
//   33   OR CONSEQUENTIAL DAMAGES, LOST PROFITS OR LOST DATA, COST OF PROCUREMENT
//   34   OF SUBSTITUTE GOODS, TECHNOLOGY, SERVICES, OR ANY CLAIMS BY THIRD PARTIES
//   35   (INCLUDING BUT NOT LIMITED TO ANY DEFENSE THEREOF), OR OTHER SIMILAR COSTS.
//   36 
//   37   Should you have any questions regarding your right to use this Software,
//   38   contact Texas Instruments Incorporated at www.TI.com.
//   39 **************************************************************************************************/
//   40 
//   41 /********************************************************************************************************
//   42  *                                               INCLUDES
//   43  ********************************************************************************************************/
//   44 
//   45 #include "ZComDef.h"
//   46 #include "OSAL.h"
//   47 #include "ZMAC.h"
//   48 #include "mac_main.h"
//   49 
//   50 #if !defined NONWK
//   51   #include "ZGlobals.h"
//   52 #endif
//   53 
//   54 /********************************************************************************************************
//   55  *                                                 MACROS
//   56  ********************************************************************************************************/
//   57 
//   58 /********************************************************************************************************
//   59  *                                               CONSTANTS
//   60  ********************************************************************************************************/
//   61 
//   62 /********************************************************************************************************
//   63  *                                               GLOBALS
//   64  ********************************************************************************************************/

        RSEG XDATA_Z:XDATA:NOROOT(0)
        DATA32
//   65 uint32 _ScanChannels;
_ScanChannels:
        DS 4
        REQUIRE __INIT_XDATA_Z
//   66 
//   67 extern uint8 aExtendedAddress[];
//   68 
//   69 /********************************************************************************************************
//   70  *                                               LOCALS
//   71  ********************************************************************************************************/
//   72 
//   73 /* Pointer to scan result buffer */

        RSEG XDATA_Z:XDATA:NOROOT(0)
        DATA16
//   74 void *ZMac_ScanBuf = NULL;
ZMac_ScanBuf:
        DS 2
        REQUIRE __INIT_XDATA_Z
//   75 
//   76 /********************************************************************************************************
//   77  * LOCAL FUNCTION PROTOTYPES
//   78  ********************************************************************************************************/
//   79 
//   80 /********************************************************************************************************
//   81  *                                                TYPEDEFS
//   82  ********************************************************************************************************/
//   83 
//   84 
//   85 /********************************************************************************************************
//   86  *                                                FUNCTIONS
//   87  ********************************************************************************************************/
//   88 
//   89 /********************************************************************************************************
//   90  * @fn      ZMacInit
//   91  *
//   92  * @brief   Initialize MAC.
//   93  *
//   94  * @param   none.
//   95  *
//   96  * @return  status.
//   97  ********************************************************************************************************/

        RSEG BANKED_CODE:CODE:NOROOT(0)
//   98 uint8 ZMacInit( void )
ZMacInit:
        CFI Block cfiBlock0 Using cfiCommon0
        CFI Function ZMacInit
        CODE
//   99 {
        FUNCALL ZMacInit, MAC_Init
        LOCFRAME ISTACK, 0, STACK
        LOCFRAME PSTACK, 0, STACK
        LOCFRAME XSTACK, 9, STACK
        LOCFRAME IOVERLAY, 0, STATIC
        LOCFRAME DOVERLAY, 0, STATIC
        ARGFRAME ISTACK, 0, STACK
        ARGFRAME PSTACK, 0, STACK
        ARGFRAME XSTACK, 9, STACK
        ARGFRAME IOVERLAY, 0, STATIC
        ARGFRAME DOVERLAY, 0, STATIC
        FUNCALL ZMacInit, MAC_InitDevice
        LOCFRAME ISTACK, 0, STACK
        LOCFRAME PSTACK, 0, STACK
        LOCFRAME XSTACK, 9, STACK
        LOCFRAME IOVERLAY, 0, STATIC
        LOCFRAME DOVERLAY, 0, STATIC
        ARGFRAME ISTACK, 0, STACK
        ARGFRAME PSTACK, 0, STACK
        ARGFRAME XSTACK, 9, STACK
        ARGFRAME IOVERLAY, 0, STATIC
        ARGFRAME DOVERLAY, 0, STATIC
        FUNCALL ZMacInit, ZMacReset
        LOCFRAME ISTACK, 0, STACK
        LOCFRAME PSTACK, 0, STACK
        LOCFRAME XSTACK, 9, STACK
        LOCFRAME IOVERLAY, 0, STATIC
        LOCFRAME DOVERLAY, 0, STATIC
        ARGFRAME ISTACK, 0, STACK
        ARGFRAME PSTACK, 0, STACK
        ARGFRAME XSTACK, 9, STACK
        ARGFRAME IOVERLAY, 0, STATIC
        ARGFRAME DOVERLAY, 0, STATIC
        FUNCALL ZMacInit, osal_int_disable
        LOCFRAME ISTACK, 0, STACK
        LOCFRAME PSTACK, 0, STACK
        LOCFRAME XSTACK, 9, STACK
        LOCFRAME IOVERLAY, 0, STATIC
        LOCFRAME DOVERLAY, 0, STATIC
        ARGFRAME ISTACK, 0, STACK
        ARGFRAME PSTACK, 0, STACK
        ARGFRAME XSTACK, 9, STACK
        ARGFRAME IOVERLAY, 0, STATIC
        ARGFRAME DOVERLAY, 0, STATIC
        MOV     A,#-0x9
        LCALL   ?BANKED_ENTER_XDATA
        CFI DPH0 load(1, XDATA, add(CFA_XSP16, literal(-1)))
        CFI DPL0 load(1, XDATA, add(CFA_XSP16, literal(-2)))
        CFI ?BRET_EXT load(1, XDATA, add(CFA_XSP16, literal(-3)))
        CFI ?RET_HIGH load(1, XDATA, add(CFA_XSP16, literal(-4)))
        CFI ?RET_LOW load(1, XDATA, add(CFA_XSP16, literal(-5)))
        CFI R7 load(1, XDATA, add(CFA_XSP16, literal(-6)))
        CFI V0 load(1, XDATA, add(CFA_XSP16, literal(-7)))
        CFI VB load(1, XDATA, add(CFA_XSP16, literal(-8)))
        CFI R6 load(1, XDATA, add(CFA_XSP16, literal(-9)))
        CFI CFA_SP SP+0
        CFI CFA_XSP16 add(XSP16, 9)
        ; Saved register size: 9
        ; Auto size: 0
//  100   uint8 stat;
//  101 
//  102   MAC_Init();
        ; Setup parameters for call to function MAC_Init
        LCALL   ??MAC_Init?relay
//  103   MAC_InitDevice();
        ; Setup parameters for call to function MAC_InitDevice
        LCALL   ??MAC_InitDevice?relay
//  104 
//  105 #if !defined NONWK
//  106   if ( ZG_BUILD_RTR_TYPE )
//  107   {
//  108     MAC_InitCoord();
//  109   }
//  110 #endif
//  111 
//  112   // If OK, initialize the MAC
//  113   stat = ZMacReset( TRUE );
        ; Setup parameters for call to function ZMacReset
        MOV     R1,#0x1
        LCALL   ??ZMacReset?relay
        MOV     A,R1
        MOV     R6,A
//  114 
//  115   // Turn off interrupts
//  116   osal_int_disable( INTS_ALL );
        ; Setup parameters for call to function osal_int_disable
        MOV     R1,#-0x1
        LCALL   ??osal_int_disable?relay
//  117 
//  118   return ( stat );
        MOV     A,R6
        MOV     R1,A
        LJMP    ??Subroutine10_0 & 0xFFFF
        CFI EndBlock cfiBlock0
//  119 }
//  120 
//  121 /********************************************************************************************************
//  122  * @fn      ZMacReset
//  123  *
//  124  * @brief   Reset the MAC.
//  125  *
//  126  * @param   Default to PIB defaults.
//  127  *
//  128  * @return  status.
//  129  ********************************************************************************************************/

        RSEG BANKED_CODE:CODE:NOROOT(0)
//  130 uint8 ZMacReset( bool SetDefaultPIB )
ZMacReset:
        CFI Block cfiBlock1 Using cfiCommon0
        CFI Function ZMacReset
        CODE
//  131 {
        FUNCALL ZMacReset, MAC_MlmeResetReq
        LOCFRAME ISTACK, 0, STACK
        LOCFRAME PSTACK, 0, STACK
        LOCFRAME XSTACK, 10, STACK
        LOCFRAME IOVERLAY, 0, STATIC
        LOCFRAME DOVERLAY, 0, STATIC
        ARGFRAME ISTACK, 0, STACK
        ARGFRAME PSTACK, 0, STACK
        ARGFRAME XSTACK, 10, STACK
        ARGFRAME IOVERLAY, 0, STATIC
        ARGFRAME DOVERLAY, 0, STATIC
        FUNCALL ZMacReset, MAC_MlmeSetReq
        LOCFRAME ISTACK, 0, STACK
        LOCFRAME PSTACK, 0, STACK
        LOCFRAME XSTACK, 10, STACK
        LOCFRAME IOVERLAY, 0, STATIC
        LOCFRAME DOVERLAY, 0, STATIC
        ARGFRAME ISTACK, 0, STACK
        ARGFRAME PSTACK, 0, STACK
        ARGFRAME XSTACK, 10, STACK
        ARGFRAME IOVERLAY, 0, STATIC
        ARGFRAME DOVERLAY, 0, STATIC
        FUNCALL ZMacReset, MAC_MlmeSetReq
        LOCFRAME ISTACK, 0, STACK
        LOCFRAME PSTACK, 0, STACK
        LOCFRAME XSTACK, 10, STACK
        LOCFRAME IOVERLAY, 0, STATIC
        LOCFRAME DOVERLAY, 0, STATIC
        ARGFRAME ISTACK, 0, STACK
        ARGFRAME PSTACK, 0, STACK
        ARGFRAME XSTACK, 10, STACK
        ARGFRAME IOVERLAY, 0, STATIC
        ARGFRAME DOVERLAY, 0, STATIC
        FUNCALL ZMacReset, osal_mem_free
        LOCFRAME ISTACK, 0, STACK
        LOCFRAME PSTACK, 0, STACK
        LOCFRAME XSTACK, 10, STACK
        LOCFRAME IOVERLAY, 0, STATIC
        LOCFRAME DOVERLAY, 0, STATIC
        ARGFRAME ISTACK, 0, STACK
        ARGFRAME PSTACK, 0, STACK
        ARGFRAME XSTACK, 10, STACK
        ARGFRAME IOVERLAY, 0, STATIC
        ARGFRAME DOVERLAY, 0, STATIC
        MOV     A,#-0x9
        LCALL   ?BANKED_ENTER_XDATA
        CFI DPH0 load(1, XDATA, add(CFA_XSP16, literal(-1)))
        CFI DPL0 load(1, XDATA, add(CFA_XSP16, literal(-2)))
        CFI ?BRET_EXT load(1, XDATA, add(CFA_XSP16, literal(-3)))
        CFI ?RET_HIGH load(1, XDATA, add(CFA_XSP16, literal(-4)))
        CFI ?RET_LOW load(1, XDATA, add(CFA_XSP16, literal(-5)))
        CFI R7 load(1, XDATA, add(CFA_XSP16, literal(-6)))
        CFI V0 load(1, XDATA, add(CFA_XSP16, literal(-7)))
        CFI VB load(1, XDATA, add(CFA_XSP16, literal(-8)))
        CFI R6 load(1, XDATA, add(CFA_XSP16, literal(-9)))
        CFI CFA_SP SP+0
        CFI CFA_XSP16 add(XSP16, 9)
        ; Saved register size: 9
        ; Auto size: 1
        MOV     A,#-0x1
        LCALL   ?ALLOC_XSTACK8
        CFI CFA_XSP16 add(XSP16, 10)
//  132   byte stat;
//  133   byte value;
//  134 
//  135   stat = MAC_MlmeResetReq( SetDefaultPIB );
        ; Setup parameters for call to function MAC_MlmeResetReq
        LCALL   ??MAC_MlmeResetReq?relay
        MOV     A,R1
        MOV     R6,A
//  136 
//  137   // Don't send PAN ID conflict
//  138   value = FALSE;
        MOV     DPL,?XSP + 0
        MOV     DPH,?XSP + 1
        CLR     A
        MOVX    @DPTR,A
//  139   MAC_MlmeSetReq( MAC_ASSOCIATED_PAN_COORD, &value );
        ; Setup parameters for call to function MAC_MlmeSetReq
        MOV     R2,DPL
        MOV     R3,DPH
        MOV     R1,#0x56
        LCALL   ??MAC_MlmeSetReq?relay
//  140   MAC_MlmeSetReq( MAC_EXTENDED_ADDRESS, &aExtendedAddress );
        ; Setup parameters for call to function MAC_MlmeSetReq
        MOV     R2,#aExtendedAddress & 0xff
        MOV     R3,#(aExtendedAddress >> 8) & 0xff
        MOV     R1,#-0x1e
        LCALL   ??MAC_MlmeSetReq?relay
//  141 
//  142   if (ZMac_ScanBuf)
        MOV     DPTR,#ZMac_ScanBuf
        MOVX    A,@DPTR
        MOV     R0,A
        INC     DPTR
        MOVX    A,@DPTR
        MOV     R1,A
        MOV     A,R0
        ORL     A,R1
        JZ      ??ZMacReset_0
//  143   {
//  144     osal_mem_free(ZMac_ScanBuf);
        ; Setup parameters for call to function osal_mem_free
        MOV     DPTR,#ZMac_ScanBuf
        MOVX    A,@DPTR
        MOV     R2,A
        INC     DPTR
        MOVX    A,@DPTR
        MOV     R3,A
        LCALL   ??osal_mem_free?relay
//  145     ZMac_ScanBuf = NULL;
        MOV     DPTR,#ZMac_ScanBuf
        CLR     A
        MOVX    @DPTR,A
        INC     DPTR
        MOVX    @DPTR,A
//  146   }
//  147 
//  148   return ( stat );
??ZMacReset_0:
        MOV     A,R6
        MOV     R1,A
        SJMP    ?Subroutine0
        CFI EndBlock cfiBlock1
//  149 }
//  150 
//  151 
//  152 /********************************************************************************************************
//  153  * @fn      ZMacGetReq
//  154  *
//  155  * @brief   Read a MAC PIB attribute.
//  156  *
//  157  * @param   attr - PIB attribute to get
//  158  * @param   value - pointer to the buffer to store the attribute
//  159  *
//  160  * @return  status
//  161  ********************************************************************************************************/

        RSEG BANKED_CODE:CODE:NOROOT(0)
//  162 uint8 ZMacGetReq( uint8 attr, uint8 *value )
ZMacGetReq:
        CFI Block cfiBlock2 Using cfiCommon0
        CFI Function ZMacGetReq
        CODE
//  163 {
        FUNCALL ZMacGetReq, sAddrExtCpy
        LOCFRAME ISTACK, 0, STACK
        LOCFRAME PSTACK, 0, STACK
        LOCFRAME XSTACK, 9, STACK
        LOCFRAME IOVERLAY, 0, STATIC
        LOCFRAME DOVERLAY, 0, STATIC
        ARGFRAME ISTACK, 0, STACK
        ARGFRAME PSTACK, 0, STACK
        ARGFRAME XSTACK, 9, STACK
        ARGFRAME IOVERLAY, 0, STATIC
        ARGFRAME DOVERLAY, 0, STATIC
        FUNCALL ZMacGetReq, MAC_MlmeGetReq
        LOCFRAME ISTACK, 0, STACK
        LOCFRAME PSTACK, 0, STACK
        LOCFRAME XSTACK, 9, STACK
        LOCFRAME IOVERLAY, 0, STATIC
        LOCFRAME DOVERLAY, 0, STATIC
        ARGFRAME ISTACK, 0, STACK
        ARGFRAME PSTACK, 0, STACK
        ARGFRAME XSTACK, 9, STACK
        ARGFRAME IOVERLAY, 0, STATIC
        ARGFRAME DOVERLAY, 0, STATIC
        MOV     A,#-0x9
        LCALL   ?BANKED_ENTER_XDATA
        CFI DPH0 load(1, XDATA, add(CFA_XSP16, literal(-1)))
        CFI DPL0 load(1, XDATA, add(CFA_XSP16, literal(-2)))
        CFI ?BRET_EXT load(1, XDATA, add(CFA_XSP16, literal(-3)))
        CFI ?RET_HIGH load(1, XDATA, add(CFA_XSP16, literal(-4)))
        CFI ?RET_LOW load(1, XDATA, add(CFA_XSP16, literal(-5)))
        CFI R7 load(1, XDATA, add(CFA_XSP16, literal(-6)))
        CFI V0 load(1, XDATA, add(CFA_XSP16, literal(-7)))
        CFI VB load(1, XDATA, add(CFA_XSP16, literal(-8)))
        CFI R6 load(1, XDATA, add(CFA_XSP16, literal(-9)))
        CFI CFA_SP SP+0
        CFI CFA_XSP16 add(XSP16, 9)
        ; Saved register size: 9
        ; Auto size: 0
        MOV     A,R1
        MOV     R6,A
//  164   if ( attr == ZMacExtAddr )
        MOV     A,#-0x1e
        XRL     A,R6
        JNZ     ??ZMacGetReq_0
//  165   {
//  166     osal_cpyExtAddr( value, &aExtendedAddress );
        ; Setup parameters for call to function sAddrExtCpy
        MOV     R4,#aExtendedAddress & 0xff
        MOV     R5,#(aExtendedAddress >> 8) & 0xff
        LCALL   ??sAddrExtCpy?relay
//  167     return ZMacSuccess;
        MOV     R1,#0x0
        SJMP    ??ZMacGetReq_1
//  168   }
//  169 
//  170   return (ZMacStatus_t) MAC_MlmeGetReq( attr, value );
??ZMacGetReq_0:
        ; Setup parameters for call to function MAC_MlmeGetReq
        LCALL   ??MAC_MlmeGetReq?relay
??ZMacGetReq_1:
        SJMP    ??Subroutine10_0
        CFI EndBlock cfiBlock2
//  171 }
//  172 
//  173 
//  174 /********************************************************************************************************
//  175  * @fn      ZMacSetReq
//  176  *
//  177  * @brief   Write a MAC PIB attribute.
//  178  *
//  179  * @param   attr - PIB attribute to Set
//  180  * @param   value - pointer to the data
//  181  *
//  182  * @return  status
//  183  ********************************************************************************************************/

        RSEG BANKED_CODE:CODE:NOROOT(0)
//  184 uint8 ZMacSetReq( uint8 attr, byte *value )
ZMacSetReq:
        CFI Block cfiBlock3 Using cfiCommon0
        CFI Function ZMacSetReq
        CODE
//  185 {
        FUNCALL ZMacSetReq, sAddrExtCpy
        LOCFRAME ISTACK, 0, STACK
        LOCFRAME PSTACK, 0, STACK
        LOCFRAME XSTACK, 9, STACK
        LOCFRAME IOVERLAY, 0, STATIC
        LOCFRAME DOVERLAY, 0, STATIC
        ARGFRAME ISTACK, 0, STACK
        ARGFRAME PSTACK, 0, STACK
        ARGFRAME XSTACK, 9, STACK
        ARGFRAME IOVERLAY, 0, STATIC
        ARGFRAME DOVERLAY, 0, STATIC
        FUNCALL ZMacSetReq, MAC_MlmeSetReq
        LOCFRAME ISTACK, 0, STACK
        LOCFRAME PSTACK, 0, STACK
        LOCFRAME XSTACK, 9, STACK
        LOCFRAME IOVERLAY, 0, STATIC
        LOCFRAME DOVERLAY, 0, STATIC
        ARGFRAME ISTACK, 0, STACK
        ARGFRAME PSTACK, 0, STACK
        ARGFRAME XSTACK, 9, STACK
        ARGFRAME IOVERLAY, 0, STATIC
        ARGFRAME DOVERLAY, 0, STATIC
        MOV     A,#-0x9
        LCALL   ?BANKED_ENTER_XDATA
        CFI DPH0 load(1, XDATA, add(CFA_XSP16, literal(-1)))
        CFI DPL0 load(1, XDATA, add(CFA_XSP16, literal(-2)))
        CFI ?BRET_EXT load(1, XDATA, add(CFA_XSP16, literal(-3)))
        CFI ?RET_HIGH load(1, XDATA, add(CFA_XSP16, literal(-4)))
        CFI ?RET_LOW load(1, XDATA, add(CFA_XSP16, literal(-5)))
        CFI R7 load(1, XDATA, add(CFA_XSP16, literal(-6)))
        CFI V0 load(1, XDATA, add(CFA_XSP16, literal(-7)))
        CFI VB load(1, XDATA, add(CFA_XSP16, literal(-8)))
        CFI R6 load(1, XDATA, add(CFA_XSP16, literal(-9)))
        CFI CFA_SP SP+0
        CFI CFA_XSP16 add(XSP16, 9)
        ; Saved register size: 9
        ; Auto size: 0
        MOV     ?V0 + 0,R1
        MOV     A,R2
        MOV     R6,A
        MOV     A,R3
        MOV     R7,A
//  186   if ( attr == ZMacExtAddr )
        MOV     A,#-0x1e
        XRL     A,?V0 + 0
        JNZ     ??ZMacSetReq_0
//  187   {
//  188     osal_cpyExtAddr( aExtendedAddress, value );
        ; Setup parameters for call to function sAddrExtCpy
        MOV     A,R6
        MOV     R4,A
        MOV     A,R7
        MOV     R5,A
        MOV     R2,#aExtendedAddress & 0xff
        MOV     R3,#(aExtendedAddress >> 8) & 0xff
        LCALL   ??sAddrExtCpy?relay
//  189   }
//  190 
//  191   return (ZMacStatus_t) MAC_MlmeSetReq( attr, value );
??ZMacSetReq_0:
        ; Setup parameters for call to function MAC_MlmeSetReq
        MOV     A,R6
        MOV     R2,A
        MOV     A,R7
        MOV     R3,A
        MOV     R1,?V0 + 0
        LCALL   ??MAC_MlmeSetReq?relay
        SJMP    ??Subroutine10_0
        CFI EndBlock cfiBlock3
//  192 }

        RSEG BANKED_CODE:CODE:NOROOT(0)
?Subroutine0:
        CFI Block cfiBlock4 Using cfiCommon0
        CFI NoFunction
        CFI CFA_SP SP+0
        CFI CFA_XSP16 add(XSP16, 10)
        CFI VB load(1, XDATA, add(CFA_XSP16, literal(-8)))
        CFI DPL0 load(1, XDATA, add(CFA_XSP16, literal(-2)))
        CFI DPH0 load(1, XDATA, add(CFA_XSP16, literal(-1)))
        CFI R6 load(1, XDATA, add(CFA_XSP16, literal(-9)))
        CFI R7 load(1, XDATA, add(CFA_XSP16, literal(-6)))
        CFI V0 load(1, XDATA, add(CFA_XSP16, literal(-7)))
        CFI ?BRET_EXT load(1, XDATA, add(CFA_XSP16, literal(-3)))
        CFI ?RET_HIGH load(1, XDATA, add(CFA_XSP16, literal(-4)))
        CFI ?RET_LOW load(1, XDATA, add(CFA_XSP16, literal(-5)))
        MOV     A,#0x1
        LCALL   ?DEALLOC_XSTACK8
        CFI EndBlock cfiBlock4
        REQUIRE ??Subroutine10_0
        ; // Fall through to label ??Subroutine10_0

        RSEG BANKED_CODE:CODE:NOROOT(0)
??Subroutine10_0:
        CFI Block cfiBlock5 Using cfiCommon0
        CFI NoFunction
        CFI CFA_SP SP+0
        CFI CFA_XSP16 add(XSP16, 9)
        CFI VB load(1, XDATA, add(CFA_XSP16, literal(-8)))
        CFI DPL0 load(1, XDATA, add(CFA_XSP16, literal(-2)))
        CFI DPH0 load(1, XDATA, add(CFA_XSP16, literal(-1)))
        CFI R6 load(1, XDATA, add(CFA_XSP16, literal(-9)))
        CFI R7 load(1, XDATA, add(CFA_XSP16, literal(-6)))
        CFI V0 load(1, XDATA, add(CFA_XSP16, literal(-7)))
        CFI ?BRET_EXT load(1, XDATA, add(CFA_XSP16, literal(-3)))
        CFI ?RET_HIGH load(1, XDATA, add(CFA_XSP16, literal(-4)))
        CFI ?RET_LOW load(1, XDATA, add(CFA_XSP16, literal(-5)))
        MOV     R7,#0x1
        LJMP    ?BANKED_LEAVE_XDATA
        CFI EndBlock cfiBlock5
//  193 
//  194 /********************************************************************************************************
//  195  * @fn      ZMacAssociateReq
//  196  *
//  197  * @brief   Request an association with a coordinator.
//  198  *
//  199  * @param   structure with info need to associate.
//  200  *
//  201  * @return  status
//  202  ********************************************************************************************************/

        RSEG BANKED_CODE:CODE:NOROOT(0)
//  203 uint8 ZMacAssociateReq( ZMacAssociateReq_t *pData )
ZMacAssociateReq:
        CFI Block cfiBlock6 Using cfiCommon0
        CFI Function ZMacAssociateReq
        CODE
//  204 {
        FUNCALL ZMacAssociateReq, MAC_MlmeAssociateReq
        LOCFRAME ISTACK, 2, STACK
        LOCFRAME PSTACK, 0, STACK
        LOCFRAME XSTACK, 0, STACK
        LOCFRAME IOVERLAY, 0, STATIC
        LOCFRAME DOVERLAY, 0, STATIC
        ARGFRAME ISTACK, 2, STACK
        ARGFRAME PSTACK, 0, STACK
        ARGFRAME XSTACK, 0, STACK
        ARGFRAME IOVERLAY, 0, STATIC
        ARGFRAME DOVERLAY, 0, STATIC
        PUSH    DPL
        CFI DPL0 Frame(CFA_SP, 4)
        CFI CFA_SP SP+-4
        PUSH    DPH
        CFI DPH0 Frame(CFA_SP, 5)
        CFI CFA_SP SP+-5
        ; Saved register size: 2
        ; Auto size: 0
//  205   /* Right now, set security to zero */
//  206   pData->Sec.SecurityLevel = false;
        MOV     A,R2
        ADD     A,#0x16
        LCALL   ?Subroutine6 & 0xFFFF
//  207 
//  208   MAC_MlmeAssociateReq ( (macMlmeAssociateReq_t *)pData);
??CrossCallReturnLabel_9:
        ; Setup parameters for call to function MAC_MlmeAssociateReq
        LCALL   ??MAC_MlmeAssociateReq?relay
//  209   return ( ZMacSuccess );
        LJMP    ?Subroutine1 & 0xFFFF
        CFI EndBlock cfiBlock6
//  210 }

        RSEG BANKED_CODE:CODE:NOROOT(0)
?Subroutine6:
        CFI Block cfiCond7 Using cfiCommon0
        CFI NoFunction
        CFI Conditional ??CrossCallReturnLabel_9
        CFI DPL0 Frame(CFA_SP, 4)
        CFI DPH0 Frame(CFA_SP, 5)
        CFI CFA_SP SP+-5
        CFI Block cfiCond8 Using cfiCommon0
        CFI (cfiCond8) NoFunction
        CFI (cfiCond8) Conditional ??CrossCallReturnLabel_10
        CFI (cfiCond8) DPL0 Frame(CFA_SP, 4)
        CFI (cfiCond8) DPH0 Frame(CFA_SP, 5)
        CFI (cfiCond8) CFA_SP SP+-5
        CFI Block cfiCond9 Using cfiCommon0
        CFI (cfiCond9) NoFunction
        CFI (cfiCond9) Conditional ??CrossCallReturnLabel_11
        CFI (cfiCond9) R6 load(1, XDATA, add(CFA_XSP16, literal(-12)))
        CFI (cfiCond9) VB load(1, XDATA, add(CFA_XSP16, literal(-11)))
        CFI (cfiCond9) V0 load(1, XDATA, add(CFA_XSP16, literal(-10)))
        CFI (cfiCond9) V1 load(1, XDATA, add(CFA_XSP16, literal(-9)))
        CFI (cfiCond9) V2 load(1, XDATA, add(CFA_XSP16, literal(-8)))
        CFI (cfiCond9) V3 load(1, XDATA, add(CFA_XSP16, literal(-7)))
        CFI (cfiCond9) R7 load(1, XDATA, add(CFA_XSP16, literal(-6)))
        CFI (cfiCond9) ?RET_LOW load(1, XDATA, add(CFA_XSP16, literal(-5)))
        CFI (cfiCond9) ?RET_HIGH load(1, XDATA, add(CFA_XSP16, literal(-4)))
        CFI (cfiCond9) ?BRET_EXT load(1, XDATA, add(CFA_XSP16, literal(-3)))
        CFI (cfiCond9) DPL0 load(1, XDATA, add(CFA_XSP16, literal(-2)))
        CFI (cfiCond9) DPH0 load(1, XDATA, add(CFA_XSP16, literal(-1)))
        CFI (cfiCond9) CFA_SP SP+0
        CFI (cfiCond9) CFA_XSP16 add(XSP16, 12)
        CFI Block cfiCond10 Using cfiCommon0
        CFI (cfiCond10) NoFunction
        CFI (cfiCond10) Conditional ??CrossCallReturnLabel_12
        CFI (cfiCond10) R6 load(1, XDATA, add(CFA_XSP16, literal(-12)))
        CFI (cfiCond10) VB load(1, XDATA, add(CFA_XSP16, literal(-11)))
        CFI (cfiCond10) V0 load(1, XDATA, add(CFA_XSP16, literal(-10)))
        CFI (cfiCond10) V1 load(1, XDATA, add(CFA_XSP16, literal(-9)))
        CFI (cfiCond10) V2 load(1, XDATA, add(CFA_XSP16, literal(-8)))
        CFI (cfiCond10) V3 load(1, XDATA, add(CFA_XSP16, literal(-7)))
        CFI (cfiCond10) R7 load(1, XDATA, add(CFA_XSP16, literal(-6)))
        CFI (cfiCond10) ?RET_LOW load(1, XDATA, add(CFA_XSP16, literal(-5)))
        CFI (cfiCond10) ?RET_HIGH load(1, XDATA, add(CFA_XSP16, literal(-4)))
        CFI (cfiCond10) ?BRET_EXT load(1, XDATA, add(CFA_XSP16, literal(-3)))
        CFI (cfiCond10) DPL0 load(1, XDATA, add(CFA_XSP16, literal(-2)))
        CFI (cfiCond10) DPH0 load(1, XDATA, add(CFA_XSP16, literal(-1)))
        CFI (cfiCond10) CFA_SP SP+0
        CFI (cfiCond10) CFA_XSP16 add(XSP16, 12)
        CFI Block cfiPicker11 Using cfiCommon1
        CFI (cfiPicker11) NoFunction
        CFI (cfiPicker11) Picker
        MOV     DPL,A
        MOV     A,R3
        CFI EndBlock cfiCond7
        CFI EndBlock cfiCond8
        CFI EndBlock cfiCond9
        CFI EndBlock cfiCond10
        CFI EndBlock cfiPicker11
        REQUIRE ??Subroutine11_0
        ; // Fall through to label ??Subroutine11_0

        RSEG BANKED_CODE:CODE:NOROOT(0)
??Subroutine11_0:
        CFI Block cfiCond12 Using cfiCommon0
        CFI NoFunction
        CFI Conditional ??CrossCallReturnLabel_7
        CFI R6 load(1, XDATA, add(CFA_XSP16, literal(-12)))
        CFI VB load(1, XDATA, add(CFA_XSP16, literal(-11)))
        CFI V0 load(1, XDATA, add(CFA_XSP16, literal(-10)))
        CFI V1 load(1, XDATA, add(CFA_XSP16, literal(-9)))
        CFI V2 load(1, XDATA, add(CFA_XSP16, literal(-8)))
        CFI V3 load(1, XDATA, add(CFA_XSP16, literal(-7)))
        CFI R7 load(1, XDATA, add(CFA_XSP16, literal(-6)))
        CFI ?RET_LOW load(1, XDATA, add(CFA_XSP16, literal(-5)))
        CFI ?RET_HIGH load(1, XDATA, add(CFA_XSP16, literal(-4)))
        CFI ?BRET_EXT load(1, XDATA, add(CFA_XSP16, literal(-3)))
        CFI DPL0 load(1, XDATA, add(CFA_XSP16, literal(-2)))
        CFI DPH0 load(1, XDATA, add(CFA_XSP16, literal(-1)))
        CFI CFA_SP SP+0
        CFI CFA_XSP16 add(XSP16, 12)
        CFI Block cfiCond13 Using cfiCommon0
        CFI (cfiCond13) NoFunction
        CFI (cfiCond13) Conditional ??CrossCallReturnLabel_8
        CFI (cfiCond13) R6 load(1, XDATA, add(CFA_XSP16, literal(-9)))
        CFI (cfiCond13) VB load(1, XDATA, add(CFA_XSP16, literal(-8)))
        CFI (cfiCond13) V0 load(1, XDATA, add(CFA_XSP16, literal(-7)))
        CFI (cfiCond13) R7 load(1, XDATA, add(CFA_XSP16, literal(-6)))
        CFI (cfiCond13) ?RET_LOW load(1, XDATA, add(CFA_XSP16, literal(-5)))
        CFI (cfiCond13) ?RET_HIGH load(1, XDATA, add(CFA_XSP16, literal(-4)))
        CFI (cfiCond13) ?BRET_EXT load(1, XDATA, add(CFA_XSP16, literal(-3)))
        CFI (cfiCond13) DPL0 load(1, XDATA, add(CFA_XSP16, literal(-2)))
        CFI (cfiCond13) DPH0 load(1, XDATA, add(CFA_XSP16, literal(-1)))
        CFI (cfiCond13) CFA_SP SP+0
        CFI (cfiCond13) CFA_XSP16 add(XSP16, 10)
        CFI Block cfiCond14 Using cfiCommon0
        CFI (cfiCond14) NoFunction
        CFI (cfiCond14) Conditional ??CrossCallReturnLabel_9
        CFI (cfiCond14) DPL0 Frame(CFA_SP, 4)
        CFI (cfiCond14) DPH0 Frame(CFA_SP, 5)
        CFI (cfiCond14) CFA_SP SP+-5
        CFI Block cfiCond15 Using cfiCommon0
        CFI (cfiCond15) NoFunction
        CFI (cfiCond15) Conditional ??CrossCallReturnLabel_10
        CFI (cfiCond15) DPL0 Frame(CFA_SP, 4)
        CFI (cfiCond15) DPH0 Frame(CFA_SP, 5)
        CFI (cfiCond15) CFA_SP SP+-5
        CFI Block cfiCond16 Using cfiCommon0
        CFI (cfiCond16) NoFunction
        CFI (cfiCond16) Conditional ??CrossCallReturnLabel_11
        CFI (cfiCond16) R6 load(1, XDATA, add(CFA_XSP16, literal(-12)))
        CFI (cfiCond16) VB load(1, XDATA, add(CFA_XSP16, literal(-11)))
        CFI (cfiCond16) V0 load(1, XDATA, add(CFA_XSP16, literal(-10)))
        CFI (cfiCond16) V1 load(1, XDATA, add(CFA_XSP16, literal(-9)))
        CFI (cfiCond16) V2 load(1, XDATA, add(CFA_XSP16, literal(-8)))
        CFI (cfiCond16) V3 load(1, XDATA, add(CFA_XSP16, literal(-7)))
        CFI (cfiCond16) R7 load(1, XDATA, add(CFA_XSP16, literal(-6)))
        CFI (cfiCond16) ?RET_LOW load(1, XDATA, add(CFA_XSP16, literal(-5)))
        CFI (cfiCond16) ?RET_HIGH load(1, XDATA, add(CFA_XSP16, literal(-4)))
        CFI (cfiCond16) ?BRET_EXT load(1, XDATA, add(CFA_XSP16, literal(-3)))
        CFI (cfiCond16) DPL0 load(1, XDATA, add(CFA_XSP16, literal(-2)))
        CFI (cfiCond16) DPH0 load(1, XDATA, add(CFA_XSP16, literal(-1)))
        CFI (cfiCond16) CFA_SP SP+0
        CFI (cfiCond16) CFA_XSP16 add(XSP16, 12)
        CFI Block cfiCond17 Using cfiCommon0
        CFI (cfiCond17) NoFunction
        CFI (cfiCond17) Conditional ??CrossCallReturnLabel_12
        CFI (cfiCond17) R6 load(1, XDATA, add(CFA_XSP16, literal(-12)))
        CFI (cfiCond17) VB load(1, XDATA, add(CFA_XSP16, literal(-11)))
        CFI (cfiCond17) V0 load(1, XDATA, add(CFA_XSP16, literal(-10)))
        CFI (cfiCond17) V1 load(1, XDATA, add(CFA_XSP16, literal(-9)))
        CFI (cfiCond17) V2 load(1, XDATA, add(CFA_XSP16, literal(-8)))
        CFI (cfiCond17) V3 load(1, XDATA, add(CFA_XSP16, literal(-7)))
        CFI (cfiCond17) R7 load(1, XDATA, add(CFA_XSP16, literal(-6)))
        CFI (cfiCond17) ?RET_LOW load(1, XDATA, add(CFA_XSP16, literal(-5)))
        CFI (cfiCond17) ?RET_HIGH load(1, XDATA, add(CFA_XSP16, literal(-4)))
        CFI (cfiCond17) ?BRET_EXT load(1, XDATA, add(CFA_XSP16, literal(-3)))
        CFI (cfiCond17) DPL0 load(1, XDATA, add(CFA_XSP16, literal(-2)))
        CFI (cfiCond17) DPH0 load(1, XDATA, add(CFA_XSP16, literal(-1)))
        CFI (cfiCond17) CFA_SP SP+0
        CFI (cfiCond17) CFA_XSP16 add(XSP16, 12)
        CFI Block cfiPicker18 Using cfiCommon1
        CFI (cfiPicker18) NoFunction
        CFI (cfiPicker18) Picker
        LCALL   ?Subroutine8 & 0xFFFF
??CrossCallReturnLabel_15:
        RET
        CFI EndBlock cfiCond12
        CFI EndBlock cfiCond13
        CFI EndBlock cfiCond14
        CFI EndBlock cfiCond15
        CFI EndBlock cfiCond16
        CFI EndBlock cfiCond17
        CFI EndBlock cfiPicker18
//  211 
//  212 /********************************************************************************************************
//  213  * @fn      ZMacAssociateRsp
//  214  *
//  215  * @brief   Request to send an association response message.
//  216  *
//  217  * @param   structure with associate response and info needed to send it.
//  218  *
//  219  * @return  status
//  220  ********************************************************************************************************/

        RSEG BANKED_CODE:CODE:NOROOT(0)
//  221 uint8 ZMacAssociateRsp( ZMacAssociateRsp_t *pData )
ZMacAssociateRsp:
        CFI Block cfiBlock19 Using cfiCommon0
        CFI Function ZMacAssociateRsp
        CODE
//  222 {
        FUNCALL ZMacAssociateRsp, MAC_MlmeAssociateRsp
        LOCFRAME ISTACK, 2, STACK
        LOCFRAME PSTACK, 0, STACK
        LOCFRAME XSTACK, 0, STACK
        LOCFRAME IOVERLAY, 0, STATIC
        LOCFRAME DOVERLAY, 0, STATIC
        ARGFRAME ISTACK, 2, STACK
        ARGFRAME PSTACK, 0, STACK
        ARGFRAME XSTACK, 0, STACK
        ARGFRAME IOVERLAY, 0, STATIC
        ARGFRAME DOVERLAY, 0, STATIC
        PUSH    DPL
        CFI DPL0 Frame(CFA_SP, 4)
        CFI CFA_SP SP+-4
        PUSH    DPH
        CFI DPH0 Frame(CFA_SP, 5)
        CFI CFA_SP SP+-5
        ; Saved register size: 2
        ; Auto size: 0
//  223   /* Right now, set security to zero */
//  224   pData->Sec.SecurityLevel = false;
        LCALL   ?Subroutine4 & 0xFFFF
//  225 
//  226   MAC_MlmeAssociateRsp( (macMlmeAssociateRsp_t *) pData );
??CrossCallReturnLabel_0:
        ; Setup parameters for call to function MAC_MlmeAssociateRsp
        LCALL   ??MAC_MlmeAssociateRsp?relay
//  227   return ( ZMacSuccess );
        LJMP    ?Subroutine1 & 0xFFFF
        CFI EndBlock cfiBlock19
//  228 }
//  229 
//  230 /********************************************************************************************************
//  231  * @fn      ZMacDisassociateReq
//  232  *
//  233  * @brief   Request to send a disassociate request message.
//  234  *
//  235  * @param   structure with info need send it.
//  236  *
//  237  * @return  status
//  238  ********************************************************************************************************/

        RSEG BANKED_CODE:CODE:NOROOT(0)
//  239 uint8 ZMacDisassociateReq( ZMacDisassociateReq_t *pData )
ZMacDisassociateReq:
        CFI Block cfiBlock20 Using cfiCommon0
        CFI Function ZMacDisassociateReq
        CODE
//  240 {
        FUNCALL ZMacDisassociateReq, MAC_MlmeDisassociateReq
        LOCFRAME ISTACK, 2, STACK
        LOCFRAME PSTACK, 0, STACK
        LOCFRAME XSTACK, 0, STACK
        LOCFRAME IOVERLAY, 0, STATIC
        LOCFRAME DOVERLAY, 0, STATIC
        ARGFRAME ISTACK, 2, STACK
        ARGFRAME PSTACK, 0, STACK
        ARGFRAME XSTACK, 0, STACK
        ARGFRAME IOVERLAY, 0, STATIC
        ARGFRAME DOVERLAY, 0, STATIC
        PUSH    DPL
        CFI DPL0 Frame(CFA_SP, 4)
        CFI CFA_SP SP+-4
        PUSH    DPH
        CFI DPH0 Frame(CFA_SP, 5)
        CFI CFA_SP SP+-5
        ; Saved register size: 2
        ; Auto size: 0
//  241   /* Right now, set security to zero */
//  242   pData->Sec.SecurityLevel = false;
        MOV     A,R2
        ADD     A,#0x15
        LCALL   ?Subroutine6 & 0xFFFF
//  243 
//  244   MAC_MlmeDisassociateReq( (macMlmeDisassociateReq_t *)pData);
??CrossCallReturnLabel_10:
        ; Setup parameters for call to function MAC_MlmeDisassociateReq
        LCALL   ??MAC_MlmeDisassociateReq?relay
//  245   return ( ZMacSuccess );
        LJMP    ?Subroutine1 & 0xFFFF
        CFI EndBlock cfiBlock20
//  246 }
//  247 
//  248 /********************************************************************************************************
//  249  * @fn      ZMacOrphanRsp
//  250  *
//  251  * @brief   Allows next higher layer to respond to an orphan indication message.
//  252  *
//  253  * @param   structure with info need send it.
//  254  *
//  255  * @return  status
//  256  ********************************************************************************************************/

        RSEG BANKED_CODE:CODE:NOROOT(0)
//  257 uint8 ZMacOrphanRsp( ZMacOrphanRsp_t *pData )
ZMacOrphanRsp:
        CFI Block cfiBlock21 Using cfiCommon0
        CFI Function ZMacOrphanRsp
        CODE
//  258 {
        FUNCALL ZMacOrphanRsp, MAC_MlmeOrphanRsp
        LOCFRAME ISTACK, 2, STACK
        LOCFRAME PSTACK, 0, STACK
        LOCFRAME XSTACK, 0, STACK
        LOCFRAME IOVERLAY, 0, STATIC
        LOCFRAME DOVERLAY, 0, STATIC
        ARGFRAME ISTACK, 2, STACK
        ARGFRAME PSTACK, 0, STACK
        ARGFRAME XSTACK, 0, STACK
        ARGFRAME IOVERLAY, 0, STATIC
        ARGFRAME DOVERLAY, 0, STATIC
        PUSH    DPL
        CFI DPL0 Frame(CFA_SP, 4)
        CFI CFA_SP SP+-4
        PUSH    DPH
        CFI DPH0 Frame(CFA_SP, 5)
        CFI CFA_SP SP+-5
        ; Saved register size: 2
        ; Auto size: 0
//  259   /* Right now, set security to zero */
//  260   pData->Sec.SecurityLevel = false;
        LCALL   ?Subroutine4 & 0xFFFF
//  261 
//  262   MAC_MlmeOrphanRsp( (macMlmeOrphanRsp_t *)pData);
??CrossCallReturnLabel_1:
        ; Setup parameters for call to function MAC_MlmeOrphanRsp
        LCALL   ??MAC_MlmeOrphanRsp?relay
//  263   return ( ZMacSuccess );
        LJMP    ?Subroutine1 & 0xFFFF
        CFI EndBlock cfiBlock21
//  264 }

        RSEG BANKED_CODE:CODE:NOROOT(0)
?Subroutine4:
        CFI Block cfiCond22 Using cfiCommon0
        CFI NoFunction
        CFI Conditional ??CrossCallReturnLabel_0
        CFI DPL0 Frame(CFA_SP, 4)
        CFI DPH0 Frame(CFA_SP, 5)
        CFI CFA_SP SP+-5
        CFI Block cfiCond23 Using cfiCommon0
        CFI (cfiCond23) NoFunction
        CFI (cfiCond23) Conditional ??CrossCallReturnLabel_1
        CFI (cfiCond23) DPL0 Frame(CFA_SP, 4)
        CFI (cfiCond23) DPH0 Frame(CFA_SP, 5)
        CFI (cfiCond23) CFA_SP SP+-5
        CFI Block cfiCond24 Using cfiCommon0
        CFI (cfiCond24) NoFunction
        CFI (cfiCond24) Conditional ??CrossCallReturnLabel_2
        CFI (cfiCond24) DPL0 Frame(CFA_SP, 4)
        CFI (cfiCond24) DPH0 Frame(CFA_SP, 5)
        CFI (cfiCond24) CFA_SP SP+-5
        CFI Block cfiPicker25 Using cfiCommon1
        CFI (cfiPicker25) NoFunction
        CFI (cfiPicker25) Picker
        MOV     A,R2
        ADD     A,#0x13
        MOV     DPL,A
        MOV     A,R3
        LCALL   ?Subroutine8 & 0xFFFF
??CrossCallReturnLabel_13:
        RET
        CFI EndBlock cfiCond22
        CFI EndBlock cfiCond23
        CFI EndBlock cfiCond24
        CFI EndBlock cfiPicker25

        RSEG BANKED_CODE:CODE:NOROOT(0)
?Subroutine8:
        CFI Block cfiCond26 Using cfiCommon0
        CFI NoFunction
        CFI Conditional ??CrossCallReturnLabel_15, ??CrossCallReturnLabel_9
        CFI DPL0 Frame(CFA_SP, 4)
        CFI DPH0 Frame(CFA_SP, 5)
        CFI CFA_SP SP+-5
        CFI Block cfiCond27 Using cfiCommon0
        CFI (cfiCond27) NoFunction
        CFI (cfiCond27) Conditional ??CrossCallReturnLabel_15, ??CrossCallReturnLabel_10
        CFI (cfiCond27) DPL0 Frame(CFA_SP, 4)
        CFI (cfiCond27) DPH0 Frame(CFA_SP, 5)
        CFI (cfiCond27) CFA_SP SP+-5
        CFI Block cfiCond28 Using cfiCommon0
        CFI (cfiCond28) NoFunction
        CFI (cfiCond28) Conditional ??CrossCallReturnLabel_15, ??CrossCallReturnLabel_11
        CFI (cfiCond28) R6 load(1, XDATA, add(CFA_XSP16, literal(-12)))
        CFI (cfiCond28) VB load(1, XDATA, add(CFA_XSP16, literal(-11)))
        CFI (cfiCond28) V0 load(1, XDATA, add(CFA_XSP16, literal(-10)))
        CFI (cfiCond28) V1 load(1, XDATA, add(CFA_XSP16, literal(-9)))
        CFI (cfiCond28) V2 load(1, XDATA, add(CFA_XSP16, literal(-8)))
        CFI (cfiCond28) V3 load(1, XDATA, add(CFA_XSP16, literal(-7)))
        CFI (cfiCond28) R7 load(1, XDATA, add(CFA_XSP16, literal(-6)))
        CFI (cfiCond28) ?RET_LOW load(1, XDATA, add(CFA_XSP16, literal(-5)))
        CFI (cfiCond28) ?RET_HIGH load(1, XDATA, add(CFA_XSP16, literal(-4)))
        CFI (cfiCond28) ?BRET_EXT load(1, XDATA, add(CFA_XSP16, literal(-3)))
        CFI (cfiCond28) DPL0 load(1, XDATA, add(CFA_XSP16, literal(-2)))
        CFI (cfiCond28) DPH0 load(1, XDATA, add(CFA_XSP16, literal(-1)))
        CFI (cfiCond28) CFA_SP SP+0
        CFI (cfiCond28) CFA_XSP16 add(XSP16, 12)
        CFI Block cfiCond29 Using cfiCommon0
        CFI (cfiCond29) NoFunction
        CFI (cfiCond29) Conditional ??CrossCallReturnLabel_15, ??CrossCallReturnLabel_12
        CFI (cfiCond29) R6 load(1, XDATA, add(CFA_XSP16, literal(-12)))
        CFI (cfiCond29) VB load(1, XDATA, add(CFA_XSP16, literal(-11)))
        CFI (cfiCond29) V0 load(1, XDATA, add(CFA_XSP16, literal(-10)))
        CFI (cfiCond29) V1 load(1, XDATA, add(CFA_XSP16, literal(-9)))
        CFI (cfiCond29) V2 load(1, XDATA, add(CFA_XSP16, literal(-8)))
        CFI (cfiCond29) V3 load(1, XDATA, add(CFA_XSP16, literal(-7)))
        CFI (cfiCond29) R7 load(1, XDATA, add(CFA_XSP16, literal(-6)))
        CFI (cfiCond29) ?RET_LOW load(1, XDATA, add(CFA_XSP16, literal(-5)))
        CFI (cfiCond29) ?RET_HIGH load(1, XDATA, add(CFA_XSP16, literal(-4)))
        CFI (cfiCond29) ?BRET_EXT load(1, XDATA, add(CFA_XSP16, literal(-3)))
        CFI (cfiCond29) DPL0 load(1, XDATA, add(CFA_XSP16, literal(-2)))
        CFI (cfiCond29) DPH0 load(1, XDATA, add(CFA_XSP16, literal(-1)))
        CFI (cfiCond29) CFA_SP SP+0
        CFI (cfiCond29) CFA_XSP16 add(XSP16, 12)
        CFI Block cfiCond30 Using cfiCommon0
        CFI (cfiCond30) NoFunction
        CFI (cfiCond30) Conditional ??CrossCallReturnLabel_15, ??CrossCallReturnLabel_7
        CFI (cfiCond30) R6 load(1, XDATA, add(CFA_XSP16, literal(-12)))
        CFI (cfiCond30) VB load(1, XDATA, add(CFA_XSP16, literal(-11)))
        CFI (cfiCond30) V0 load(1, XDATA, add(CFA_XSP16, literal(-10)))
        CFI (cfiCond30) V1 load(1, XDATA, add(CFA_XSP16, literal(-9)))
        CFI (cfiCond30) V2 load(1, XDATA, add(CFA_XSP16, literal(-8)))
        CFI (cfiCond30) V3 load(1, XDATA, add(CFA_XSP16, literal(-7)))
        CFI (cfiCond30) R7 load(1, XDATA, add(CFA_XSP16, literal(-6)))
        CFI (cfiCond30) ?RET_LOW load(1, XDATA, add(CFA_XSP16, literal(-5)))
        CFI (cfiCond30) ?RET_HIGH load(1, XDATA, add(CFA_XSP16, literal(-4)))
        CFI (cfiCond30) ?BRET_EXT load(1, XDATA, add(CFA_XSP16, literal(-3)))
        CFI (cfiCond30) DPL0 load(1, XDATA, add(CFA_XSP16, literal(-2)))
        CFI (cfiCond30) DPH0 load(1, XDATA, add(CFA_XSP16, literal(-1)))
        CFI (cfiCond30) CFA_SP SP+0
        CFI (cfiCond30) CFA_XSP16 add(XSP16, 12)
        CFI Block cfiCond31 Using cfiCommon0
        CFI (cfiCond31) NoFunction
        CFI (cfiCond31) Conditional ??CrossCallReturnLabel_15, ??CrossCallReturnLabel_8
        CFI (cfiCond31) R6 load(1, XDATA, add(CFA_XSP16, literal(-9)))
        CFI (cfiCond31) VB load(1, XDATA, add(CFA_XSP16, literal(-8)))
        CFI (cfiCond31) V0 load(1, XDATA, add(CFA_XSP16, literal(-7)))
        CFI (cfiCond31) R7 load(1, XDATA, add(CFA_XSP16, literal(-6)))
        CFI (cfiCond31) ?RET_LOW load(1, XDATA, add(CFA_XSP16, literal(-5)))
        CFI (cfiCond31) ?RET_HIGH load(1, XDATA, add(CFA_XSP16, literal(-4)))
        CFI (cfiCond31) ?BRET_EXT load(1, XDATA, add(CFA_XSP16, literal(-3)))
        CFI (cfiCond31) DPL0 load(1, XDATA, add(CFA_XSP16, literal(-2)))
        CFI (cfiCond31) DPH0 load(1, XDATA, add(CFA_XSP16, literal(-1)))
        CFI (cfiCond31) CFA_SP SP+0
        CFI (cfiCond31) CFA_XSP16 add(XSP16, 10)
        CFI Block cfiCond32 Using cfiCommon0
        CFI (cfiCond32) NoFunction
        CFI (cfiCond32) Conditional ??CrossCallReturnLabel_13, ??CrossCallReturnLabel_0
        CFI (cfiCond32) DPL0 Frame(CFA_SP, 4)
        CFI (cfiCond32) DPH0 Frame(CFA_SP, 5)
        CFI (cfiCond32) CFA_SP SP+-5
        CFI Block cfiCond33 Using cfiCommon0
        CFI (cfiCond33) NoFunction
        CFI (cfiCond33) Conditional ??CrossCallReturnLabel_13, ??CrossCallReturnLabel_1
        CFI (cfiCond33) DPL0 Frame(CFA_SP, 4)
        CFI (cfiCond33) DPH0 Frame(CFA_SP, 5)
        CFI (cfiCond33) CFA_SP SP+-5
        CFI Block cfiCond34 Using cfiCommon0
        CFI (cfiCond34) NoFunction
        CFI (cfiCond34) Conditional ??CrossCallReturnLabel_13, ??CrossCallReturnLabel_2
        CFI (cfiCond34) DPL0 Frame(CFA_SP, 4)
        CFI (cfiCond34) DPH0 Frame(CFA_SP, 5)
        CFI (cfiCond34) CFA_SP SP+-5
        CFI Block cfiCond35 Using cfiCommon0
        CFI (cfiCond35) NoFunction
        CFI (cfiCond35) Conditional ??CrossCallReturnLabel_14, ??CrossCallReturnLabel_3
        CFI (cfiCond35) R6 load(1, XDATA, add(CFA_XSP16, literal(-9)))
        CFI (cfiCond35) VB load(1, XDATA, add(CFA_XSP16, literal(-8)))
        CFI (cfiCond35) V0 load(1, XDATA, add(CFA_XSP16, literal(-7)))
        CFI (cfiCond35) R7 load(1, XDATA, add(CFA_XSP16, literal(-6)))
        CFI (cfiCond35) ?RET_LOW load(1, XDATA, add(CFA_XSP16, literal(-5)))
        CFI (cfiCond35) ?RET_HIGH load(1, XDATA, add(CFA_XSP16, literal(-4)))
        CFI (cfiCond35) ?BRET_EXT load(1, XDATA, add(CFA_XSP16, literal(-3)))
        CFI (cfiCond35) DPL0 load(1, XDATA, add(CFA_XSP16, literal(-2)))
        CFI (cfiCond35) DPH0 load(1, XDATA, add(CFA_XSP16, literal(-1)))
        CFI (cfiCond35) CFA_SP SP+0
        CFI (cfiCond35) CFA_XSP16 add(XSP16, 10)
        CFI Block cfiCond36 Using cfiCommon0
        CFI (cfiCond36) NoFunction
        CFI (cfiCond36) Conditional ??CrossCallReturnLabel_14, ??CrossCallReturnLabel_4
        CFI (cfiCond36) R6 load(1, XDATA, add(CFA_XSP16, literal(-16)))
        CFI (cfiCond36) VB load(1, XDATA, add(CFA_XSP16, literal(-15)))
        CFI (cfiCond36) V0 load(1, XDATA, add(CFA_XSP16, literal(-14)))
        CFI (cfiCond36) V1 load(1, XDATA, add(CFA_XSP16, literal(-13)))
        CFI (cfiCond36) V2 load(1, XDATA, add(CFA_XSP16, literal(-12)))
        CFI (cfiCond36) V3 load(1, XDATA, add(CFA_XSP16, literal(-11)))
        CFI (cfiCond36) V4 load(1, XDATA, add(CFA_XSP16, literal(-10)))
        CFI (cfiCond36) V5 load(1, XDATA, add(CFA_XSP16, literal(-9)))
        CFI (cfiCond36) V6 load(1, XDATA, add(CFA_XSP16, literal(-8)))
        CFI (cfiCond36) V7 load(1, XDATA, add(CFA_XSP16, literal(-7)))
        CFI (cfiCond36) R7 load(1, XDATA, add(CFA_XSP16, literal(-6)))
        CFI (cfiCond36) ?RET_LOW load(1, XDATA, add(CFA_XSP16, literal(-5)))
        CFI (cfiCond36) ?RET_HIGH load(1, XDATA, add(CFA_XSP16, literal(-4)))
        CFI (cfiCond36) ?BRET_EXT load(1, XDATA, add(CFA_XSP16, literal(-3)))
        CFI (cfiCond36) DPL0 load(1, XDATA, add(CFA_XSP16, literal(-2)))
        CFI (cfiCond36) DPH0 load(1, XDATA, add(CFA_XSP16, literal(-1)))
        CFI (cfiCond36) CFA_SP SP+0
        CFI (cfiCond36) CFA_XSP16 add(XSP16, 16)
        CFI Block cfiPicker37 Using cfiCommon1
        CFI (cfiPicker37) NoFunction
        CFI (cfiPicker37) Picker
        LCALL   ??Subroutine13_0 & 0xFFFF
??CrossCallReturnLabel_21:
        CLR     A
        MOVX    @DPTR,A
        RET
        CFI EndBlock cfiCond26
        CFI EndBlock cfiCond27
        CFI EndBlock cfiCond28
        CFI EndBlock cfiCond29
        CFI EndBlock cfiCond30
        CFI EndBlock cfiCond31
        CFI EndBlock cfiCond32
        CFI EndBlock cfiCond33
        CFI EndBlock cfiCond34
        CFI EndBlock cfiCond35
        CFI EndBlock cfiCond36
        CFI EndBlock cfiPicker37
//  265 
//  266 /********************************************************************************************************
//  267  * @fn      ZMacScanReq
//  268  *
//  269  * @brief   This function is called to perform a network scan.
//  270  *
//  271  * @param   param - structure with info need send it.
//  272  *
//  273  * @return  status
//  274  ********************************************************************************************************/

        RSEG BANKED_CODE:CODE:NOROOT(0)
//  275 uint8 ZMacScanReq( ZMacScanReq_t *pData )
ZMacScanReq:
        CFI Block cfiBlock38 Using cfiCommon0
        CFI Function ZMacScanReq
        CODE
//  276 {
        FUNCALL ZMacScanReq, osal_mem_alloc
        LOCFRAME ISTACK, 0, STACK
        LOCFRAME PSTACK, 0, STACK
        LOCFRAME XSTACK, 12, STACK
        LOCFRAME IOVERLAY, 0, STATIC
        LOCFRAME DOVERLAY, 0, STATIC
        ARGFRAME ISTACK, 0, STACK
        ARGFRAME PSTACK, 0, STACK
        ARGFRAME XSTACK, 12, STACK
        ARGFRAME IOVERLAY, 0, STATIC
        ARGFRAME DOVERLAY, 0, STATIC
        FUNCALL ZMacScanReq, osal_memset
        LOCFRAME ISTACK, 0, STACK
        LOCFRAME PSTACK, 0, STACK
        LOCFRAME XSTACK, 12, STACK
        LOCFRAME IOVERLAY, 0, STATIC
        LOCFRAME DOVERLAY, 0, STATIC
        ARGFRAME ISTACK, 0, STACK
        ARGFRAME PSTACK, 0, STACK
        ARGFRAME XSTACK, 12, STACK
        ARGFRAME IOVERLAY, 0, STATIC
        ARGFRAME DOVERLAY, 0, STATIC
        FUNCALL ZMacScanReq, osal_mem_alloc
        LOCFRAME ISTACK, 0, STACK
        LOCFRAME PSTACK, 0, STACK
        LOCFRAME XSTACK, 12, STACK
        LOCFRAME IOVERLAY, 0, STATIC
        LOCFRAME DOVERLAY, 0, STATIC
        ARGFRAME ISTACK, 0, STACK
        ARGFRAME PSTACK, 0, STACK
        ARGFRAME XSTACK, 12, STACK
        ARGFRAME IOVERLAY, 0, STATIC
        ARGFRAME DOVERLAY, 0, STATIC
        FUNCALL ZMacScanReq, MAC_MlmeScanReq
        LOCFRAME ISTACK, 0, STACK
        LOCFRAME PSTACK, 0, STACK
        LOCFRAME XSTACK, 12, STACK
        LOCFRAME IOVERLAY, 0, STATIC
        LOCFRAME DOVERLAY, 0, STATIC
        ARGFRAME ISTACK, 0, STACK
        ARGFRAME PSTACK, 0, STACK
        ARGFRAME XSTACK, 12, STACK
        ARGFRAME IOVERLAY, 0, STATIC
        ARGFRAME DOVERLAY, 0, STATIC
        MOV     A,#-0xc
        LCALL   ?BANKED_ENTER_XDATA
        CFI DPH0 load(1, XDATA, add(CFA_XSP16, literal(-1)))
        CFI DPL0 load(1, XDATA, add(CFA_XSP16, literal(-2)))
        CFI ?BRET_EXT load(1, XDATA, add(CFA_XSP16, literal(-3)))
        CFI ?RET_HIGH load(1, XDATA, add(CFA_XSP16, literal(-4)))
        CFI ?RET_LOW load(1, XDATA, add(CFA_XSP16, literal(-5)))
        CFI R7 load(1, XDATA, add(CFA_XSP16, literal(-6)))
        CFI V3 load(1, XDATA, add(CFA_XSP16, literal(-7)))
        CFI V2 load(1, XDATA, add(CFA_XSP16, literal(-8)))
        CFI V1 load(1, XDATA, add(CFA_XSP16, literal(-9)))
        CFI V0 load(1, XDATA, add(CFA_XSP16, literal(-10)))
        CFI VB load(1, XDATA, add(CFA_XSP16, literal(-11)))
        CFI R6 load(1, XDATA, add(CFA_XSP16, literal(-12)))
        CFI CFA_SP SP+0
        CFI CFA_XSP16 add(XSP16, 12)
        ; Saved register size: 12
        ; Auto size: 0
        MOV     A,R2
        MOV     R6,A
        MOV     A,R3
        MOV     R7,A
//  277   _ScanChannels = pData->ScanChannels;
        MOV     DPL,R6
        MOV     DPH,R7
        LCALL   ?XLOAD_R2345
        MOV     DPTR,#_ScanChannels
        LCALL   ?XSTORE_R2345
//  278 
//  279   /* scan in progress */
//  280   if (ZMac_ScanBuf != NULL)
        MOV     DPTR,#ZMac_ScanBuf
        MOVX    A,@DPTR
        MOV     R0,A
        INC     DPTR
        MOVX    A,@DPTR
        MOV     R1,A
        MOV     A,R0
        ORL     A,R1
        JZ      ??ZMacScanReq_0
//  281   {
//  282     return MAC_SCAN_IN_PROGRESS;
        MOV     R1,#-0x4
        LJMP    ??ZMacScanReq_1 & 0xFFFF
//  283   }
//  284 
//  285   if (pData->ScanType != ZMAC_ORPHAN_SCAN)
??ZMacScanReq_0:
        MOV     DPL,R6
        MOV     DPH,R7
        INC     DPTR
        INC     DPTR
        INC     DPTR
        INC     DPTR
        MOVX    A,@DPTR
        MOV     R0,A
        MOV     A,#0x3
        XRL     A,R0
        JNZ     $+5
        LJMP    ??ZMacScanReq_2 & 0xFFFF
//  286   {
//  287     /* Allocate memory depends on the scan type */
//  288     if (pData->ScanType == ZMAC_ED_SCAN)
        MOV     A,R6
        ADD     A,#0x13
        MOV     ?V0 + 0,A
        MOV     A,R7
        ADDC    A,#0x0
        MOV     ?V0 + 1,A
        MOV     A,R0
        JNZ     ??ZMacScanReq_3
//  289     {
//  290       if ((ZMac_ScanBuf = osal_mem_alloc(ZMAC_ED_SCAN_MAXCHANNELS)) == NULL)
        ; Setup parameters for call to function osal_mem_alloc
        MOV     R2,#0x1b
        MOV     R3,#0x0
        LCALL   ??osal_mem_alloc?relay
        MOV     ?V0 + 2,R2
        MOV     ?V0 + 3,R3
        MOV     R0,?V0 + 2
        MOV     R1,?V0 + 3
        MOV     DPTR,#ZMac_ScanBuf
        MOV     A,R0
        MOVX    @DPTR,A
        INC     DPTR
        MOV     A,R1
        MOVX    @DPTR,A
        MOV     A,R0
        ORL     A,R1
        JNZ     ??ZMacScanReq_4
//  291       {
//  292         return MAC_NO_RESOURCES;
??ZMacScanReq_5:
        MOV     R1,#0x1a
        SJMP    ??ZMacScanReq_1
//  293       }
//  294       osal_memset(ZMac_ScanBuf, 0, ZMAC_ED_SCAN_MAXCHANNELS);
??ZMacScanReq_4:
        ; Setup parameters for call to function osal_memset
        MOV     R4,#0x1b
        MOV     R5,#0x0
        MOV     R1,#0x0
        LCALL   ??osal_memset?relay
//  295       pData->Result.pEnergyDetect = ((uint8*)ZMac_ScanBuf) + MAC_CHAN_11;
        MOV     DPTR,#ZMac_ScanBuf
        MOVX    A,@DPTR
        ADD     A,#0xb
        MOV     R0,A
        INC     DPTR
        MOVX    A,@DPTR
        ADDC    A,#0x0
        MOV     R1,A
        MOV     DPL,?V0 + 0
        MOV     DPH,?V0 + 1
        MOV     A,R0
        MOVX    @DPTR,A
        INC     DPTR
        MOV     A,R1
        MOVX    @DPTR,A
        SJMP    ??ZMacScanReq_2
//  296     }
//  297     else if (pData->MaxResults > 0)
??ZMacScanReq_3:
        MOV     DPL,R6
        MOV     DPH,R7
        INC     DPTR
        INC     DPTR
        INC     DPTR
        INC     DPTR
        INC     DPTR
        INC     DPTR
        INC     DPTR
        MOVX    A,@DPTR
        JZ      ??ZMacScanReq_2
//  298     {
//  299       if ((ZMac_ScanBuf = pData->Result.pPanDescriptor =
//  300            osal_mem_alloc( sizeof( ZMacPanDesc_t ) * pData->MaxResults )) == NULL)
        ; Setup parameters for call to function osal_mem_alloc
        MOV     B,#0x21
        MUL     AB
        MOV     R2,A
        MOV     R3,B
        LCALL   ??osal_mem_alloc?relay
        MOV     DPL,?V0 + 0
        MOV     DPH,?V0 + 1
        MOV     A,R2
        MOVX    @DPTR,A
        INC     DPTR
        MOV     A,R3
        MOVX    @DPTR,A
        MOV     DPL,?V0 + 0
        MOV     DPH,?V0 + 1
        MOVX    A,@DPTR
        MOV     R0,A
        INC     DPTR
        MOVX    A,@DPTR
        MOV     R1,A
        MOV     DPTR,#ZMac_ScanBuf
        MOV     A,R0
        MOVX    @DPTR,A
        INC     DPTR
        MOV     A,R1
        MOVX    @DPTR,A
        MOV     A,R0
        ORL     A,R1
        JZ      ??ZMacScanReq_5
//  301       {
//  302         return MAC_NO_RESOURCES;
//  303       }
//  304     }
//  305   }
//  306 
//  307   /* Right now, set security to zero */
//  308   pData->Sec.SecurityLevel = false;
??ZMacScanReq_2:
        MOV     A,R6
        ADD     A,#0x10
        MOV     DPL,A
        MOV     A,R7
        LCALL   ??Subroutine11_0 & 0xFFFF
//  309 
//  310   /* Channel Page */
//  311   pData->ChannelPage = 0x00;
??CrossCallReturnLabel_7:
        MOV     DPL,R6
        MOV     DPH,R7
        INC     DPTR
        INC     DPTR
        INC     DPTR
        INC     DPTR
        INC     DPTR
        INC     DPTR
        MOVX    @DPTR,A
//  312 
//  313   MAC_MlmeScanReq ((macMlmeScanReq_t *)pData);
        ; Setup parameters for call to function MAC_MlmeScanReq
        MOV     A,R6
        MOV     R2,A
        MOV     A,R7
        MOV     R3,A
        LCALL   ??MAC_MlmeScanReq?relay
//  314 
//  315   return ZMacSuccess;
        MOV     R1,#0x0
        CFI EndBlock cfiBlock38
??ZMacScanReq_1:
        REQUIRE ?Subroutine2
        ; // Fall through to label ?Subroutine2
//  316 }

        RSEG BANKED_CODE:CODE:NOROOT(0)
?Subroutine2:
        CFI Block cfiBlock39 Using cfiCommon0
        CFI NoFunction
        CFI CFA_SP SP+0
        CFI CFA_XSP16 add(XSP16, 12)
        CFI VB load(1, XDATA, add(CFA_XSP16, literal(-11)))
        CFI DPL0 load(1, XDATA, add(CFA_XSP16, literal(-2)))
        CFI DPH0 load(1, XDATA, add(CFA_XSP16, literal(-1)))
        CFI R6 load(1, XDATA, add(CFA_XSP16, literal(-12)))
        CFI R7 load(1, XDATA, add(CFA_XSP16, literal(-6)))
        CFI V0 load(1, XDATA, add(CFA_XSP16, literal(-10)))
        CFI V1 load(1, XDATA, add(CFA_XSP16, literal(-9)))
        CFI V2 load(1, XDATA, add(CFA_XSP16, literal(-8)))
        CFI V3 load(1, XDATA, add(CFA_XSP16, literal(-7)))
        CFI ?BRET_EXT load(1, XDATA, add(CFA_XSP16, literal(-3)))
        CFI ?RET_HIGH load(1, XDATA, add(CFA_XSP16, literal(-4)))
        CFI ?RET_LOW load(1, XDATA, add(CFA_XSP16, literal(-5)))
        MOV     R7,#0x4
        LJMP    ?BANKED_LEAVE_XDATA
        CFI EndBlock cfiBlock39
//  317 
//  318 
//  319 /********************************************************************************************************
//  320  * @fn      ZMacStartReq
//  321  *
//  322  * @brief   This function is called to tell the MAC to transmit beacons
//  323  *          and become a coordinator.
//  324  *
//  325  * @param   structure with info need send it.
//  326  *
//  327  * @return  status
//  328  ********************************************************************************************************/

        RSEG BANKED_CODE:CODE:NOROOT(0)
//  329 uint8 ZMacStartReq( ZMacStartReq_t *pData )
ZMacStartReq:
        CFI Block cfiBlock40 Using cfiCommon0
        CFI Function ZMacStartReq
        CODE
//  330 {
        FUNCALL ZMacStartReq, MAC_MlmeSetReq
        LOCFRAME ISTACK, 0, STACK
        LOCFRAME PSTACK, 0, STACK
        LOCFRAME XSTACK, 10, STACK
        LOCFRAME IOVERLAY, 0, STATIC
        LOCFRAME DOVERLAY, 0, STATIC
        ARGFRAME ISTACK, 0, STACK
        ARGFRAME PSTACK, 0, STACK
        ARGFRAME XSTACK, 10, STACK
        ARGFRAME IOVERLAY, 0, STATIC
        ARGFRAME DOVERLAY, 0, STATIC
        FUNCALL ZMacStartReq, MAC_MlmeStartReq
        LOCFRAME ISTACK, 0, STACK
        LOCFRAME PSTACK, 0, STACK
        LOCFRAME XSTACK, 10, STACK
        LOCFRAME IOVERLAY, 0, STATIC
        LOCFRAME DOVERLAY, 0, STATIC
        ARGFRAME ISTACK, 0, STACK
        ARGFRAME PSTACK, 0, STACK
        ARGFRAME XSTACK, 10, STACK
        ARGFRAME IOVERLAY, 0, STATIC
        ARGFRAME DOVERLAY, 0, STATIC
        MOV     A,#-0x9
        LCALL   ?BANKED_ENTER_XDATA
        CFI DPH0 load(1, XDATA, add(CFA_XSP16, literal(-1)))
        CFI DPL0 load(1, XDATA, add(CFA_XSP16, literal(-2)))
        CFI ?BRET_EXT load(1, XDATA, add(CFA_XSP16, literal(-3)))
        CFI ?RET_HIGH load(1, XDATA, add(CFA_XSP16, literal(-4)))
        CFI ?RET_LOW load(1, XDATA, add(CFA_XSP16, literal(-5)))
        CFI R7 load(1, XDATA, add(CFA_XSP16, literal(-6)))
        CFI V0 load(1, XDATA, add(CFA_XSP16, literal(-7)))
        CFI VB load(1, XDATA, add(CFA_XSP16, literal(-8)))
        CFI R6 load(1, XDATA, add(CFA_XSP16, literal(-9)))
        CFI CFA_SP SP+0
        CFI CFA_XSP16 add(XSP16, 9)
        ; Saved register size: 9
        ; Auto size: 1
        MOV     A,#-0x1
        LCALL   ?ALLOC_XSTACK8
        CFI CFA_XSP16 add(XSP16, 10)
        MOV     A,R2
        MOV     R6,A
        MOV     A,R3
        MOV     R7,A
//  331   uint8 stat;
//  332 
//  333   // Probably want to keep the receiver on
//  334   stat = true;
        MOV     DPL,?XSP + 0
        MOV     DPH,?XSP + 1
        MOV     A,#0x1
        MOVX    @DPTR,A
//  335   MAC_MlmeSetReq( MAC_RX_ON_WHEN_IDLE, &stat );
        ; Setup parameters for call to function MAC_MlmeSetReq
        MOV     R2,DPL
        MOV     R3,DPH
        MOV     R1,#0x52
        LCALL   ??MAC_MlmeSetReq?relay
//  336 
//  337   /* Right now, set security to zero */
//  338   pData->RealignSec.SecurityLevel = false;
        MOV     A,R6
        ADD     A,#0x15
        MOV     DPL,A
        MOV     A,R7
        LCALL   ??Subroutine11_0 & 0xFFFF
//  339   pData->BeaconSec.SecurityLevel = false;
??CrossCallReturnLabel_8:
        MOV     A,R6
        ADD     A,#0x20
        LCALL   ?Subroutine5 & 0xFFFF
//  340 
//  341 
//  342   MAC_MlmeStartReq((macMlmeStartReq_t *) pData);
??CrossCallReturnLabel_3:
        LCALL   ??MAC_MlmeStartReq?relay
//  343 
//  344   // MAC does not issue mlmeStartConfirm(), so we have to
//  345   // mlmeStartConfirm( stat );  This needs to be addressed some how
//  346 
//  347   return ZMacSuccess;
        MOV     R1,#0x0
        LJMP    ?Subroutine0 & 0xFFFF
        CFI EndBlock cfiBlock40
//  348 }
//  349 
//  350 /********************************************************************************************************
//  351  * @fn      ZMacSyncReq
//  352  *
//  353  * @brief   This function is called to request a sync to the current
//  354  *          networks beacons.
//  355  *
//  356  * @param   LogicalChannel -
//  357  * @param   TrackBeacon - true/false
//  358  *
//  359  * @return  status
//  360  ********************************************************************************************************/

        RSEG BANKED_CODE:CODE:NOROOT(0)
//  361 uint8 ZMacSyncReq( ZMacSyncReq_t *pData )
ZMacSyncReq:
        CFI Block cfiBlock41 Using cfiCommon0
        CFI Function ZMacSyncReq
        CODE
//  362 {
        FUNCALL ZMacSyncReq, MAC_MlmeSyncReq
        LOCFRAME ISTACK, 2, STACK
        LOCFRAME PSTACK, 0, STACK
        LOCFRAME XSTACK, 0, STACK
        LOCFRAME IOVERLAY, 0, STATIC
        LOCFRAME DOVERLAY, 0, STATIC
        ARGFRAME ISTACK, 2, STACK
        ARGFRAME PSTACK, 0, STACK
        ARGFRAME XSTACK, 0, STACK
        ARGFRAME IOVERLAY, 0, STATIC
        ARGFRAME DOVERLAY, 0, STATIC
        PUSH    DPL
        CFI DPL0 Frame(CFA_SP, 4)
        CFI CFA_SP SP+-4
        PUSH    DPH
        CFI DPH0 Frame(CFA_SP, 5)
        CFI CFA_SP SP+-5
        ; Saved register size: 2
        ; Auto size: 0
//  363   MAC_MlmeSyncReq( (macMlmeSyncReq_t *)pData);
        ; Setup parameters for call to function MAC_MlmeSyncReq
        LCALL   ??MAC_MlmeSyncReq?relay
//  364   return ZMacSuccess;
        LJMP    ?Subroutine1 & 0xFFFF
        CFI EndBlock cfiBlock41
//  365 }
//  366 
//  367 /********************************************************************************************************
//  368  * @fn      ZMacPollReq
//  369  *
//  370  * @brief   This function is called to request MAC data request poll.
//  371  *
//  372  * @param   coordAddr -
//  373  * @param   coordPanId -
//  374  * @param   SecurityEnable - true or false.
//  375  *
//  376  * @return  status
//  377  ********************************************************************************************************/

        RSEG BANKED_CODE:CODE:NOROOT(0)
//  378 uint8 ZMacPollReq( ZMacPollReq_t *pData )
ZMacPollReq:
        CFI Block cfiBlock42 Using cfiCommon0
        CFI Function ZMacPollReq
        CODE
//  379 {
        FUNCALL ZMacPollReq, MAC_MlmePollReq
        LOCFRAME ISTACK, 2, STACK
        LOCFRAME PSTACK, 0, STACK
        LOCFRAME XSTACK, 0, STACK
        LOCFRAME IOVERLAY, 0, STATIC
        LOCFRAME DOVERLAY, 0, STATIC
        ARGFRAME ISTACK, 2, STACK
        ARGFRAME PSTACK, 0, STACK
        ARGFRAME XSTACK, 0, STACK
        ARGFRAME IOVERLAY, 0, STATIC
        ARGFRAME DOVERLAY, 0, STATIC
        PUSH    DPL
        CFI DPL0 Frame(CFA_SP, 4)
        CFI CFA_SP SP+-4
        PUSH    DPH
        CFI DPH0 Frame(CFA_SP, 5)
        CFI CFA_SP SP+-5
        ; Saved register size: 2
        ; Auto size: 0
//  380   /* Right now, set security to zero */
//  381   pData->Sec.SecurityLevel = false;
        LCALL   ?Subroutine4 & 0xFFFF
//  382 
//  383   MAC_MlmePollReq ((macMlmePollReq_t *)pData);
??CrossCallReturnLabel_2:
        ; Setup parameters for call to function MAC_MlmePollReq
        LCALL   ??MAC_MlmePollReq?relay
//  384   return ( ZMacSuccess );
        LJMP    ?Subroutine1 & 0xFFFF
        CFI EndBlock cfiBlock42
//  385 }
//  386 
//  387 /********************************************************************************************************
//  388  * @fn      ZMacDataReq
//  389  *
//  390  * @brief   Send a MAC Data Frame packet.
//  391  *
//  392  * @param   structure containing data and where to send it.
//  393  *
//  394  * @return  status
//  395  ********************************************************************************************************/

        RSEG BANKED_CODE:CODE:NOROOT(0)
//  396 uint8 ZMacDataReq( ZMacDataReq_t *pData )
ZMacDataReq:
        CFI Block cfiBlock43 Using cfiCommon0
        CFI Function ZMacDataReq
        CODE
//  397 {
        FUNCALL ZMacDataReq, MAC_McpsDataAlloc
        LOCFRAME ISTACK, 0, STACK
        LOCFRAME PSTACK, 0, STACK
        LOCFRAME XSTACK, 16, STACK
        LOCFRAME IOVERLAY, 0, STATIC
        LOCFRAME DOVERLAY, 0, STATIC
        ARGFRAME ISTACK, 0, STACK
        ARGFRAME PSTACK, 0, STACK
        ARGFRAME XSTACK, 16, STACK
        ARGFRAME IOVERLAY, 0, STATIC
        ARGFRAME DOVERLAY, 0, STATIC
        FUNCALL ZMacDataReq, osal_memcpy
        LOCFRAME ISTACK, 0, STACK
        LOCFRAME PSTACK, 0, STACK
        LOCFRAME XSTACK, 19, STACK
        LOCFRAME IOVERLAY, 0, STATIC
        LOCFRAME DOVERLAY, 0, STATIC
        ARGFRAME ISTACK, 0, STACK
        ARGFRAME PSTACK, 0, STACK
        ARGFRAME XSTACK, 19, STACK
        ARGFRAME IOVERLAY, 0, STATIC
        ARGFRAME DOVERLAY, 0, STATIC
        FUNCALL ZMacDataReq, osal_memcpy
        LOCFRAME ISTACK, 0, STACK
        LOCFRAME PSTACK, 0, STACK
        LOCFRAME XSTACK, 19, STACK
        LOCFRAME IOVERLAY, 0, STATIC
        LOCFRAME DOVERLAY, 0, STATIC
        ARGFRAME ISTACK, 0, STACK
        ARGFRAME PSTACK, 0, STACK
        ARGFRAME XSTACK, 19, STACK
        ARGFRAME IOVERLAY, 0, STATIC
        ARGFRAME DOVERLAY, 0, STATIC
        FUNCALL ZMacDataReq, MAC_McpsDataReq
        LOCFRAME ISTACK, 0, STACK
        LOCFRAME PSTACK, 0, STACK
        LOCFRAME XSTACK, 16, STACK
        LOCFRAME IOVERLAY, 0, STATIC
        LOCFRAME DOVERLAY, 0, STATIC
        ARGFRAME ISTACK, 0, STACK
        ARGFRAME PSTACK, 0, STACK
        ARGFRAME XSTACK, 16, STACK
        ARGFRAME IOVERLAY, 0, STATIC
        ARGFRAME DOVERLAY, 0, STATIC
        MOV     A,#-0x10
        LCALL   ?BANKED_ENTER_XDATA
        CFI DPH0 load(1, XDATA, add(CFA_XSP16, literal(-1)))
        CFI DPL0 load(1, XDATA, add(CFA_XSP16, literal(-2)))
        CFI ?BRET_EXT load(1, XDATA, add(CFA_XSP16, literal(-3)))
        CFI ?RET_HIGH load(1, XDATA, add(CFA_XSP16, literal(-4)))
        CFI ?RET_LOW load(1, XDATA, add(CFA_XSP16, literal(-5)))
        CFI R7 load(1, XDATA, add(CFA_XSP16, literal(-6)))
        CFI V7 load(1, XDATA, add(CFA_XSP16, literal(-7)))
        CFI V6 load(1, XDATA, add(CFA_XSP16, literal(-8)))
        CFI V5 load(1, XDATA, add(CFA_XSP16, literal(-9)))
        CFI V4 load(1, XDATA, add(CFA_XSP16, literal(-10)))
        CFI V3 load(1, XDATA, add(CFA_XSP16, literal(-11)))
        CFI V2 load(1, XDATA, add(CFA_XSP16, literal(-12)))
        CFI V1 load(1, XDATA, add(CFA_XSP16, literal(-13)))
        CFI V0 load(1, XDATA, add(CFA_XSP16, literal(-14)))
        CFI VB load(1, XDATA, add(CFA_XSP16, literal(-15)))
        CFI R6 load(1, XDATA, add(CFA_XSP16, literal(-16)))
        CFI CFA_SP SP+0
        CFI CFA_XSP16 add(XSP16, 16)
        ; Saved register size: 16
        ; Auto size: 0
        MOV     ?V0 + 4,R2
        MOV     ?V0 + 5,R3
//  398   macMcpsDataReq_t *pBuf;
//  399 
//  400   /* Allocate memory */
//  401   pBuf = MAC_McpsDataAlloc(pData->msduLength, MAC_SEC_LEVEL_NONE, MAC_KEY_ID_MODE_NONE);
        MOV     A,R2
        ADD     A,#0x1b
        MOV     ?V0 + 6,A
        MOV     A,R3
        ADDC    A,#0x0
        MOV     ?V0 + 7,A
        ; Setup parameters for call to function MAC_McpsDataAlloc
        MOV     R3,#0x0
        MOV     R2,#0x0
        MOV     DPL,?V0 + 6
        MOV     DPH,A
        MOVX    A,@DPTR
        MOV     R1,A
        LCALL   ??MAC_McpsDataAlloc?relay
        MOV     ?V0 + 0,R2
        MOV     ?V0 + 1,R3
        MOV     R6,?V0 + 0
        MOV     R7,?V0 + 1
//  402 
//  403   if (pBuf)
        MOV     A,R6
        ORL     A,R7
        JZ      ??ZMacDataReq_0
//  404   {
//  405     /* Copy the addresses */
//  406     osal_memcpy (&pBuf->mac, pData, sizeof (macDataReq_t));
        ; Setup parameters for call to function osal_memcpy
        MOV     ?V0 + 0,?V0 + 4
        MOV     ?V0 + 1,?V0 + 5
        MOV     ?V0 + 2,#0x0
        MOV     R0,#?V0 + 0
        LCALL   ?PUSH_XSTACK_I_THREE
        CFI CFA_XSP16 add(XSP16, 19)
        MOV     R4,#0x10
        MOV     R5,#0x0
        MOV     A,R6
        ADD     A,#0x22
        MOV     R2,A
        MOV     A,R7
        ADDC    A,#0x0
        MOV     R3,A
        LCALL   ??osal_memcpy?relay
        MOV     A,#0x3
        LCALL   ?DEALLOC_XSTACK8
        CFI CFA_XSP16 add(XSP16, 16)
//  407 
//  408     /* Copy data */
//  409     pBuf->msdu.len = pData->msduLength;
        MOV     DPL,?V0 + 6
        MOV     DPH,?V0 + 7
        MOVX    A,@DPTR
        MOV     DPL,R6
        MOV     DPH,R7
        INC     DPTR
        INC     DPTR
        INC     DPTR
        INC     DPTR
        MOVX    @DPTR,A
//  410     osal_memcpy (pBuf->msdu.p, pData->msdu, pData->msduLength);
        ; Setup parameters for call to function osal_memcpy
        MOV     A,?V0 + 4
        ADD     A,#0x1c
        MOV     DPL,A
        MOV     A,?V0 + 5
        LCALL   ??Subroutine13_0 & 0xFFFF
??CrossCallReturnLabel_16:
        MOVX    A,@DPTR
        MOV     ?V0 + 0,A
        INC     DPTR
        MOVX    A,@DPTR
        MOV     ?V0 + 1,A
        MOV     R0,#?V0 + 0
        LCALL   ?PUSH_XSTACK_I_THREE
        CFI CFA_XSP16 add(XSP16, 19)
        MOV     DPL,?V0 + 6
        MOV     DPH,?V0 + 7
        MOVX    A,@DPTR
        MOV     R4,A
        MOV     R5,#0x0
        MOV     DPL,R6
        MOV     DPH,R7
        INC     DPTR
        INC     DPTR
        MOVX    A,@DPTR
        MOV     R2,A
        INC     DPTR
        MOVX    A,@DPTR
        MOV     R3,A
        LCALL   ??osal_memcpy?relay
        MOV     A,#0x3
        LCALL   ?DEALLOC_XSTACK8
        CFI CFA_XSP16 add(XSP16, 16)
//  411 
//  412     /* Right now, set security to zero */
//  413     pBuf->sec.securityLevel = false;
        MOV     A,R6
        ADD     A,#0x1f
        LCALL   ?Subroutine5 & 0xFFFF
//  414 
//  415     /* Call Mac Data Request */
//  416     MAC_McpsDataReq(pBuf);
??CrossCallReturnLabel_4:
        LCALL   ??MAC_McpsDataReq?relay
//  417 
//  418     return ( ZMacSuccess );
        MOV     R1,#0x0
        SJMP    ??ZMacDataReq_1
//  419   }
//  420 
//  421   return MAC_NO_RESOURCES;
??ZMacDataReq_0:
        MOV     R1,#0x1a
??ZMacDataReq_1:
        MOV     R7,#0x8
        LJMP    ?BANKED_LEAVE_XDATA
        CFI EndBlock cfiBlock43
//  422 }

        RSEG BANKED_CODE:CODE:NOROOT(0)
?Subroutine5:
        CFI Block cfiCond44 Using cfiCommon0
        CFI NoFunction
        CFI Conditional ??CrossCallReturnLabel_3
        CFI R6 load(1, XDATA, add(CFA_XSP16, literal(-9)))
        CFI VB load(1, XDATA, add(CFA_XSP16, literal(-8)))
        CFI V0 load(1, XDATA, add(CFA_XSP16, literal(-7)))
        CFI R7 load(1, XDATA, add(CFA_XSP16, literal(-6)))
        CFI ?RET_LOW load(1, XDATA, add(CFA_XSP16, literal(-5)))
        CFI ?RET_HIGH load(1, XDATA, add(CFA_XSP16, literal(-4)))
        CFI ?BRET_EXT load(1, XDATA, add(CFA_XSP16, literal(-3)))
        CFI DPL0 load(1, XDATA, add(CFA_XSP16, literal(-2)))
        CFI DPH0 load(1, XDATA, add(CFA_XSP16, literal(-1)))
        CFI CFA_SP SP+0
        CFI CFA_XSP16 add(XSP16, 10)
        CFI Block cfiCond45 Using cfiCommon0
        CFI (cfiCond45) NoFunction
        CFI (cfiCond45) Conditional ??CrossCallReturnLabel_4
        CFI (cfiCond45) R6 load(1, XDATA, add(CFA_XSP16, literal(-16)))
        CFI (cfiCond45) VB load(1, XDATA, add(CFA_XSP16, literal(-15)))
        CFI (cfiCond45) V0 load(1, XDATA, add(CFA_XSP16, literal(-14)))
        CFI (cfiCond45) V1 load(1, XDATA, add(CFA_XSP16, literal(-13)))
        CFI (cfiCond45) V2 load(1, XDATA, add(CFA_XSP16, literal(-12)))
        CFI (cfiCond45) V3 load(1, XDATA, add(CFA_XSP16, literal(-11)))
        CFI (cfiCond45) V4 load(1, XDATA, add(CFA_XSP16, literal(-10)))
        CFI (cfiCond45) V5 load(1, XDATA, add(CFA_XSP16, literal(-9)))
        CFI (cfiCond45) V6 load(1, XDATA, add(CFA_XSP16, literal(-8)))
        CFI (cfiCond45) V7 load(1, XDATA, add(CFA_XSP16, literal(-7)))
        CFI (cfiCond45) R7 load(1, XDATA, add(CFA_XSP16, literal(-6)))
        CFI (cfiCond45) ?RET_LOW load(1, XDATA, add(CFA_XSP16, literal(-5)))
        CFI (cfiCond45) ?RET_HIGH load(1, XDATA, add(CFA_XSP16, literal(-4)))
        CFI (cfiCond45) ?BRET_EXT load(1, XDATA, add(CFA_XSP16, literal(-3)))
        CFI (cfiCond45) DPL0 load(1, XDATA, add(CFA_XSP16, literal(-2)))
        CFI (cfiCond45) DPH0 load(1, XDATA, add(CFA_XSP16, literal(-1)))
        CFI (cfiCond45) CFA_SP SP+0
        CFI (cfiCond45) CFA_XSP16 add(XSP16, 16)
        CFI Block cfiPicker46 Using cfiCommon1
        CFI (cfiPicker46) NoFunction
        CFI (cfiPicker46) Picker
        MOV     DPL,A
        MOV     A,R7
        LCALL   ?Subroutine8 & 0xFFFF
??CrossCallReturnLabel_14:
        ; Setup parameters for call to function MAC_MlmeStartReq
        ; Setup parameters for call to function MAC_McpsDataReq
        MOV     A,R6
        MOV     R2,A
        MOV     A,R7
        MOV     R3,A
        RET
        CFI EndBlock cfiCond44
        CFI EndBlock cfiCond45
        CFI EndBlock cfiPicker46
//  423 
//  424 /********************************************************************************************************
//  425  * @fn      ZMacPurgeReq
//  426  *
//  427  * @brief   Purge a MAC Data Frame packet.
//  428  *
//  429  * @param   MSDU data handle.
//  430  *
//  431  * @return  status
//  432  ********************************************************************************************************/

        RSEG BANKED_CODE:CODE:NOROOT(0)
//  433 uint8 ZMacPurgeReq( byte Handle )
ZMacPurgeReq:
        CFI Block cfiBlock47 Using cfiCommon0
        CFI Function ZMacPurgeReq
        CODE
//  434 {
        FUNCALL ZMacPurgeReq, MAC_McpsPurgeReq
        LOCFRAME ISTACK, 0, STACK
        LOCFRAME PSTACK, 0, STACK
        LOCFRAME XSTACK, 9, STACK
        LOCFRAME IOVERLAY, 0, STATIC
        LOCFRAME DOVERLAY, 0, STATIC
        ARGFRAME ISTACK, 0, STACK
        ARGFRAME PSTACK, 0, STACK
        ARGFRAME XSTACK, 9, STACK
        ARGFRAME IOVERLAY, 0, STATIC
        ARGFRAME DOVERLAY, 0, STATIC
        MOV     A,#-0x9
        LCALL   ?BANKED_ENTER_XDATA
        CFI DPH0 load(1, XDATA, add(CFA_XSP16, literal(-1)))
        CFI DPL0 load(1, XDATA, add(CFA_XSP16, literal(-2)))
        CFI ?BRET_EXT load(1, XDATA, add(CFA_XSP16, literal(-3)))
        CFI ?RET_HIGH load(1, XDATA, add(CFA_XSP16, literal(-4)))
        CFI ?RET_LOW load(1, XDATA, add(CFA_XSP16, literal(-5)))
        CFI R7 load(1, XDATA, add(CFA_XSP16, literal(-6)))
        CFI V0 load(1, XDATA, add(CFA_XSP16, literal(-7)))
        CFI VB load(1, XDATA, add(CFA_XSP16, literal(-8)))
        CFI R6 load(1, XDATA, add(CFA_XSP16, literal(-9)))
        CFI CFA_SP SP+0
        CFI CFA_XSP16 add(XSP16, 9)
        ; Saved register size: 9
        ; Auto size: 0
//  435   MAC_McpsPurgeReq( Handle );
        ; Setup parameters for call to function MAC_McpsPurgeReq
        LCALL   ??MAC_McpsPurgeReq?relay
        CFI EndBlock cfiBlock47
//  436   return ZMacSuccess;
        REQUIRE ?Subroutine3
        ; // Fall through to label ?Subroutine3
//  437 }

        RSEG BANKED_CODE:CODE:NOROOT(0)
?Subroutine3:
        CFI Block cfiBlock48 Using cfiCommon0
        CFI NoFunction
        CFI CFA_SP SP+0
        CFI CFA_XSP16 add(XSP16, 9)
        CFI VB load(1, XDATA, add(CFA_XSP16, literal(-8)))
        CFI DPL0 load(1, XDATA, add(CFA_XSP16, literal(-2)))
        CFI DPH0 load(1, XDATA, add(CFA_XSP16, literal(-1)))
        CFI R6 load(1, XDATA, add(CFA_XSP16, literal(-9)))
        CFI R7 load(1, XDATA, add(CFA_XSP16, literal(-6)))
        CFI V0 load(1, XDATA, add(CFA_XSP16, literal(-7)))
        CFI ?BRET_EXT load(1, XDATA, add(CFA_XSP16, literal(-3)))
        CFI ?RET_HIGH load(1, XDATA, add(CFA_XSP16, literal(-4)))
        CFI ?RET_LOW load(1, XDATA, add(CFA_XSP16, literal(-5)))
        MOV     R1,#0x0
        LJMP    ??Subroutine10_0 & 0xFFFF
        CFI EndBlock cfiBlock48
//  438 
//  439 /********************************************************************************************************
//  440  * @fn      ZMacSrcMatchEnable
//  441  *
//  442  * @brief   This function is call to enable AUTOPEND and source address matching.
//  443  *
//  444  * @param   addressType - address type that the application uses
//  445  *                        SADDR_MODE_SHORT or SADDR_MODE_EXT.
//  446  *          numEntries  - number of source address table entries to be used
//  447  *
//  448  * @return  status
//  449  ********************************************************************************************************/

        RSEG BANKED_CODE:CODE:NOROOT(0)
//  450 ZMacStatus_t ZMacSrcMatchEnable (uint8 addrType, uint8 numEntries)
ZMacSrcMatchEnable:
        CFI Block cfiBlock49 Using cfiCommon0
        CFI Function ZMacSrcMatchEnable
        CODE
//  451 {
        FUNCALL ZMacSrcMatchEnable, MAC_SrcMatchEnable
        LOCFRAME ISTACK, 0, STACK
        LOCFRAME PSTACK, 0, STACK
        LOCFRAME XSTACK, 9, STACK
        LOCFRAME IOVERLAY, 0, STATIC
        LOCFRAME DOVERLAY, 0, STATIC
        ARGFRAME ISTACK, 0, STACK
        ARGFRAME PSTACK, 0, STACK
        ARGFRAME XSTACK, 9, STACK
        ARGFRAME IOVERLAY, 0, STATIC
        ARGFRAME DOVERLAY, 0, STATIC
        MOV     A,#-0x9
        LCALL   ?BANKED_ENTER_XDATA
        CFI DPH0 load(1, XDATA, add(CFA_XSP16, literal(-1)))
        CFI DPL0 load(1, XDATA, add(CFA_XSP16, literal(-2)))
        CFI ?BRET_EXT load(1, XDATA, add(CFA_XSP16, literal(-3)))
        CFI ?RET_HIGH load(1, XDATA, add(CFA_XSP16, literal(-4)))
        CFI ?RET_LOW load(1, XDATA, add(CFA_XSP16, literal(-5)))
        CFI R7 load(1, XDATA, add(CFA_XSP16, literal(-6)))
        CFI V0 load(1, XDATA, add(CFA_XSP16, literal(-7)))
        CFI VB load(1, XDATA, add(CFA_XSP16, literal(-8)))
        CFI R6 load(1, XDATA, add(CFA_XSP16, literal(-9)))
        CFI CFA_SP SP+0
        CFI CFA_XSP16 add(XSP16, 9)
        ; Saved register size: 9
        ; Auto size: 0
//  452   return (MAC_SrcMatchEnable(addrType, numEntries));
        ; Setup parameters for call to function MAC_SrcMatchEnable
        LCALL   ??MAC_SrcMatchEnable?relay
        LJMP    ??Subroutine10_0 & 0xFFFF
        CFI EndBlock cfiBlock49
//  453 }
//  454 
//  455 /********************************************************************************************************
//  456  * @fn      ZMacSrcMatchAddEntry
//  457  *
//  458  * @brief   This function is called to add a short or extended address to source address table.
//  459  *
//  460  * @param   addr - a pointer to sAddr_t which contains addrMode
//  461  *                     and a union of a short 16-bit MAC address or an extended
//  462  *                     64-bit MAC address to be added to the source address table.
//  463  *          panID - the device PAN ID. It is only used when the addr is
//  464  *                      using short address
//  465  *
//  466  * @return  status
//  467  ********************************************************************************************************/

        RSEG BANKED_CODE:CODE:NOROOT(0)
//  468 ZMacStatus_t ZMacSrcMatchAddEntry (zAddrType_t *addr, uint16 panID)
ZMacSrcMatchAddEntry:
        CFI Block cfiBlock50 Using cfiCommon0
        CFI Function ZMacSrcMatchAddEntry
        CODE
//  469 {
        FUNCALL ZMacSrcMatchAddEntry, MAC_SrcMatchAddEntry
        LOCFRAME ISTACK, 2, STACK
        LOCFRAME PSTACK, 0, STACK
        LOCFRAME XSTACK, 0, STACK
        LOCFRAME IOVERLAY, 0, STATIC
        LOCFRAME DOVERLAY, 0, STATIC
        ARGFRAME ISTACK, 2, STACK
        ARGFRAME PSTACK, 0, STACK
        ARGFRAME XSTACK, 0, STACK
        ARGFRAME IOVERLAY, 0, STATIC
        ARGFRAME DOVERLAY, 0, STATIC
        PUSH    DPL
        CFI DPL0 Frame(CFA_SP, 4)
        CFI CFA_SP SP+-4
        PUSH    DPH
        CFI DPH0 Frame(CFA_SP, 5)
        CFI CFA_SP SP+-5
        ; Saved register size: 2
        ; Auto size: 0
//  470   return (MAC_SrcMatchAddEntry ((sAddr_t*)addr, panID));
        ; Setup parameters for call to function MAC_SrcMatchAddEntry
        LCALL   ??MAC_SrcMatchAddEntry?relay
        SJMP    ??Subroutine12_0
        CFI EndBlock cfiBlock50
//  471 }

        RSEG BANKED_CODE:CODE:NOROOT(0)
?Subroutine1:
        CFI Block cfiBlock51 Using cfiCommon0
        CFI NoFunction
        CFI CFA_SP SP+-5
        CFI DPL0 Frame(CFA_SP, 4)
        CFI DPH0 Frame(CFA_SP, 5)
        MOV     R1,#0x0
        CFI EndBlock cfiBlock51
        REQUIRE ??Subroutine12_0
        ; // Fall through to label ??Subroutine12_0

        RSEG BANKED_CODE:CODE:NOROOT(0)
??Subroutine12_0:
        CFI Block cfiBlock52 Using cfiCommon0
        CFI NoFunction
        CFI CFA_SP SP+-5
        CFI DPL0 Frame(CFA_SP, 4)
        CFI DPH0 Frame(CFA_SP, 5)
        POP     DPH
        CFI CFA_SP SP+-4
        CFI DPH0 SameValue
        POP     DPL
        CFI CFA_SP SP+-3
        CFI DPL0 SameValue
        LJMP    ?BRET
        CFI EndBlock cfiBlock52
//  472 
//  473 /********************************************************************************************************
//  474  * @fn      ZMacSrcMatchDeleteEntry
//  475  *
//  476  * @brief   This function is called to delete a short or extended address from source address table.
//  477  *
//  478  * @param   addr - a pointer to sAddr_t which contains addrMode
//  479  *                     and a union of a short 16-bit MAC address or an extended
//  480  *                     64-bit MAC address to be added to the source address table.
//  481  *          panID - the device PAN ID. It is only used when the addr is
//  482  *                      using short address
//  483  *
//  484  * @return  status
//  485  ********************************************************************************************************/

        RSEG BANKED_CODE:CODE:NOROOT(0)
//  486 ZMacStatus_t ZMacSrcMatchDeleteEntry (zAddrType_t *addr, uint16 panID)
ZMacSrcMatchDeleteEntry:
        CFI Block cfiBlock53 Using cfiCommon0
        CFI Function ZMacSrcMatchDeleteEntry
        CODE
//  487 {
        FUNCALL ZMacSrcMatchDeleteEntry, MAC_SrcMatchDeleteEntry
        LOCFRAME ISTACK, 2, STACK
        LOCFRAME PSTACK, 0, STACK
        LOCFRAME XSTACK, 0, STACK
        LOCFRAME IOVERLAY, 0, STATIC
        LOCFRAME DOVERLAY, 0, STATIC
        ARGFRAME ISTACK, 2, STACK
        ARGFRAME PSTACK, 0, STACK
        ARGFRAME XSTACK, 0, STACK
        ARGFRAME IOVERLAY, 0, STATIC
        ARGFRAME DOVERLAY, 0, STATIC
        PUSH    DPL
        CFI DPL0 Frame(CFA_SP, 4)
        CFI CFA_SP SP+-4
        PUSH    DPH
        CFI DPH0 Frame(CFA_SP, 5)
        CFI CFA_SP SP+-5
        ; Saved register size: 2
        ; Auto size: 0
//  488   return (MAC_SrcMatchDeleteEntry ((sAddr_t*)addr, panID));
        ; Setup parameters for call to function MAC_SrcMatchDeleteEntry
        LCALL   ??MAC_SrcMatchDeleteEntry?relay
        SJMP    ??Subroutine12_0
        CFI EndBlock cfiBlock53
//  489 }
//  490 
//  491 /********************************************************************************************************
//  492  * @fn       ZMacSrcMatchAckAllPending
//  493  *
//  494  * @brief    Enabled/disable acknowledging all packets with pending bit set
//  495  *           It is normally enabled when adding new entries to
//  496  *           the source address table fails due to the table is full, or
//  497  *           disabled when more entries are deleted and the table has
//  498  *           empty slots.
//  499  *
//  500  * @param    option - true (acknowledging all packets with pending field set)
//  501  *                    false (acknowledging all packets with pending field cleared)
//  502  *
//  503  * @return   status
//  504  ********************************************************************************************************/

        RSEG BANKED_CODE:CODE:NOROOT(0)
//  505 ZMacStatus_t ZMacSrcMatchAckAllPending (uint8 option)
ZMacSrcMatchAckAllPending:
        CFI Block cfiBlock54 Using cfiCommon0
        CFI Function ZMacSrcMatchAckAllPending
        CODE
//  506 {
        FUNCALL ZMacSrcMatchAckAllPending, MAC_SrcMatchAckAllPending
        LOCFRAME ISTACK, 0, STACK
        LOCFRAME PSTACK, 0, STACK
        LOCFRAME XSTACK, 9, STACK
        LOCFRAME IOVERLAY, 0, STATIC
        LOCFRAME DOVERLAY, 0, STATIC
        ARGFRAME ISTACK, 0, STACK
        ARGFRAME PSTACK, 0, STACK
        ARGFRAME XSTACK, 9, STACK
        ARGFRAME IOVERLAY, 0, STATIC
        ARGFRAME DOVERLAY, 0, STATIC
        MOV     A,#-0x9
        LCALL   ?BANKED_ENTER_XDATA
        CFI DPH0 load(1, XDATA, add(CFA_XSP16, literal(-1)))
        CFI DPL0 load(1, XDATA, add(CFA_XSP16, literal(-2)))
        CFI ?BRET_EXT load(1, XDATA, add(CFA_XSP16, literal(-3)))
        CFI ?RET_HIGH load(1, XDATA, add(CFA_XSP16, literal(-4)))
        CFI ?RET_LOW load(1, XDATA, add(CFA_XSP16, literal(-5)))
        CFI R7 load(1, XDATA, add(CFA_XSP16, literal(-6)))
        CFI V0 load(1, XDATA, add(CFA_XSP16, literal(-7)))
        CFI VB load(1, XDATA, add(CFA_XSP16, literal(-8)))
        CFI R6 load(1, XDATA, add(CFA_XSP16, literal(-9)))
        CFI CFA_SP SP+0
        CFI CFA_XSP16 add(XSP16, 9)
        ; Saved register size: 9
        ; Auto size: 0
//  507   MAC_SrcMatchAckAllPending (option);
        ; Setup parameters for call to function MAC_SrcMatchAckAllPending
        LCALL   ??MAC_SrcMatchAckAllPending?relay
//  508 
//  509   return ZMacSuccess;
        SJMP    ?Subroutine3
        CFI EndBlock cfiBlock54
//  510 }
//  511 
//  512 /********************************************************************************************************
//  513  * @fn       ZMacSrcMatchCheckAllPending
//  514  *
//  515  * @brief    This function is called to check if acknowledging all packets with pending bit set is enabled.
//  516  *
//  517  * @param    none
//  518  *
//  519  * @return   status
//  520  ********************************************************************************************************/

        RSEG BANKED_CODE:CODE:NOROOT(0)
//  521 ZMacStatus_t ZMacSrcMatchCheckAllPending (void)
ZMacSrcMatchCheckAllPending:
        CFI Block cfiBlock55 Using cfiCommon0
        CFI Function ZMacSrcMatchCheckAllPending
        CODE
//  522 {
        FUNCALL ZMacSrcMatchCheckAllPending, MAC_SrcMatchCheckAllPending
        LOCFRAME ISTACK, 2, STACK
        LOCFRAME PSTACK, 0, STACK
        LOCFRAME XSTACK, 0, STACK
        LOCFRAME IOVERLAY, 0, STATIC
        LOCFRAME DOVERLAY, 0, STATIC
        ARGFRAME ISTACK, 2, STACK
        ARGFRAME PSTACK, 0, STACK
        ARGFRAME XSTACK, 0, STACK
        ARGFRAME IOVERLAY, 0, STATIC
        ARGFRAME DOVERLAY, 0, STATIC
        PUSH    DPL
        CFI DPL0 Frame(CFA_SP, 4)
        CFI CFA_SP SP+-4
        PUSH    DPH
        CFI DPH0 Frame(CFA_SP, 5)
        CFI CFA_SP SP+-5
        ; Saved register size: 2
        ; Auto size: 0
//  523   return (MAC_SrcMatchCheckAllPending ());
        ; Setup parameters for call to function MAC_SrcMatchCheckAllPending
        LCALL   ??MAC_SrcMatchCheckAllPending?relay
        SJMP    ??Subroutine12_0
        CFI EndBlock cfiBlock55
//  524 }
//  525 
//  526 /********************************************************************************************************
//  527  * @fn      - ZMACPwrOnReq
//  528  *
//  529  * @brief   - This function requests the MAC to power on the radio hardware
//  530  *            and wake up.  When the power on procedure is complete the MAC
//  531  *            will send a MAC_PWR_ON_CNF to the application.
//  532  *
//  533  * @input   - None.
//  534  *
//  535  * @output  - None.
//  536  *
//  537  * @return  - None.
//  538  ********************************************************************************************************/

        RSEG BANKED_CODE:CODE:NOROOT(0)
//  539 void ZMacPwrOnReq ( void )
ZMacPwrOnReq:
        CFI Block cfiBlock56 Using cfiCommon0
        CFI Function ZMacPwrOnReq
        CODE
//  540 {
        FUNCALL ZMacPwrOnReq, MAC_PwrOnReq
        LOCFRAME ISTACK, 2, STACK
        LOCFRAME PSTACK, 0, STACK
        LOCFRAME XSTACK, 0, STACK
        LOCFRAME IOVERLAY, 0, STATIC
        LOCFRAME DOVERLAY, 0, STATIC
        ARGFRAME ISTACK, 2, STACK
        ARGFRAME PSTACK, 0, STACK
        ARGFRAME XSTACK, 0, STACK
        ARGFRAME IOVERLAY, 0, STATIC
        ARGFRAME DOVERLAY, 0, STATIC
        PUSH    DPL
        CFI DPL0 Frame(CFA_SP, 4)
        CFI CFA_SP SP+-4
        PUSH    DPH
        CFI DPH0 Frame(CFA_SP, 5)
        CFI CFA_SP SP+-5
        ; Saved register size: 2
        ; Auto size: 0
//  541   MAC_PwrOnReq();
        ; Setup parameters for call to function MAC_PwrOnReq
        LCALL   ??MAC_PwrOnReq?relay
//  542 }
        SJMP    ??Subroutine12_0
        CFI EndBlock cfiBlock56
//  543 
//  544 /********************************************************************************************************
//  545  * @fn          MAC_PwrMode
//  546  *
//  547  * @brief       This function returns the current power mode of the MAC.
//  548  *
//  549  * input parameters
//  550  *
//  551  * None.
//  552  *
//  553  * output parameters
//  554  *
//  555  * None.
//  556  *
//  557  * @return      The current power mode of the MAC.
//  558  ********************************************************************************************************/

        RSEG BANKED_CODE:CODE:NOROOT(0)
//  559 uint8 ZMac_PwrMode(void)
ZMac_PwrMode:
        CFI Block cfiBlock57 Using cfiCommon0
        CFI Function ZMac_PwrMode
        CODE
//  560 {
        FUNCALL ZMac_PwrMode, MAC_PwrMode
        LOCFRAME ISTACK, 2, STACK
        LOCFRAME PSTACK, 0, STACK
        LOCFRAME XSTACK, 0, STACK
        LOCFRAME IOVERLAY, 0, STATIC
        LOCFRAME DOVERLAY, 0, STATIC
        ARGFRAME ISTACK, 2, STACK
        ARGFRAME PSTACK, 0, STACK
        ARGFRAME XSTACK, 0, STACK
        ARGFRAME IOVERLAY, 0, STATIC
        ARGFRAME DOVERLAY, 0, STATIC
        PUSH    DPL
        CFI DPL0 Frame(CFA_SP, 4)
        CFI CFA_SP SP+-4
        PUSH    DPH
        CFI DPH0 Frame(CFA_SP, 5)
        CFI CFA_SP SP+-5
        ; Saved register size: 2
        ; Auto size: 0
//  561   return (MAC_PwrMode());
        ; Setup parameters for call to function MAC_PwrMode
        LCALL   ??MAC_PwrMode?relay
        SJMP    ??Subroutine12_0
        CFI EndBlock cfiBlock57
//  562 }
//  563 
//  564 /********************************************************************************************************
//  565  * @fn      ZMacSetTransmitPower
//  566  *
//  567  * @brief   Set the transmitter power according to the level setting param.
//  568  *
//  569  * @param   Valid power level setting as defined in ZMAC.h.
//  570  *
//  571  * @return  ZMacSuccess if PHY_TRANSMIT_POWER found or ZMacUnsupportedAttribute.
//  572  ********************************************************************************************************/

        RSEG BANKED_CODE:CODE:NOROOT(0)
//  573 uint8 ZMacSetTransmitPower( ZMacTransmitPower_t level )
ZMacSetTransmitPower:
        CFI Block cfiBlock58 Using cfiCommon0
        CFI Function ZMacSetTransmitPower
        CODE
//  574 {
        FUNCALL ZMacSetTransmitPower, MAC_MlmeSetReq
        LOCFRAME ISTACK, 2, STACK
        LOCFRAME PSTACK, 0, STACK
        LOCFRAME XSTACK, 1, STACK
        LOCFRAME IOVERLAY, 0, STATIC
        LOCFRAME DOVERLAY, 0, STATIC
        ARGFRAME ISTACK, 2, STACK
        ARGFRAME PSTACK, 0, STACK
        ARGFRAME XSTACK, 1, STACK
        ARGFRAME IOVERLAY, 0, STATIC
        ARGFRAME DOVERLAY, 0, STATIC
        PUSH    DPL
        CFI DPL0 Frame(CFA_SP, 4)
        CFI CFA_SP SP+-4
        PUSH    DPH
        CFI DPH0 Frame(CFA_SP, 5)
        CFI CFA_SP SP+-5
        ; Saved register size: 2
        ; Auto size: 1
        MOV     A,#-0x1
        LCALL   ?ALLOC_XSTACK8
        CFI CFA_XSP16 add(XSP16, 1)
        MOV     A,R1
        MOV     DPL,?XSP + 0
        MOV     DPH,?XSP + 1
        MOVX    @DPTR,A
//  575   return MAC_MlmeSetReq( ZMacPhyTransmitPower, &level );
        ; Setup parameters for call to function MAC_MlmeSetReq
        MOV     R2,DPL
        MOV     R3,DPH
        MOV     R1,#-0x20
        LCALL   ??MAC_MlmeSetReq?relay
        MOV     A,#0x1
        LCALL   ?DEALLOC_XSTACK8
        CFI CFA_XSP16 XSP16+0
        SJMP    ??Subroutine12_0
        CFI EndBlock cfiBlock58
//  576 }
//  577 
//  578 /********************************************************************************************************
//  579  * @fn      ZMacSendNoData
//  580  *
//  581  * @brief   This function sends an empty msg
//  582  *
//  583  * @param   DstAddr   - destination short address
//  584  *          DstPANId  - destination pan id
//  585  *
//  586  * @return  None
//  587  ********************************************************************************************************/

        RSEG BANKED_CODE:CODE:NOROOT(0)
//  588 void ZMacSendNoData ( uint16 DstAddr, uint16 DstPANId )
ZMacSendNoData:
        CFI Block cfiBlock59 Using cfiCommon0
        CFI Function ZMacSendNoData
        CODE
//  589 {
        FUNCALL ZMacSendNoData, MAC_McpsDataAlloc
        LOCFRAME ISTACK, 0, STACK
        LOCFRAME PSTACK, 0, STACK
        LOCFRAME XSTACK, 12, STACK
        LOCFRAME IOVERLAY, 0, STATIC
        LOCFRAME DOVERLAY, 0, STATIC
        ARGFRAME ISTACK, 0, STACK
        ARGFRAME PSTACK, 0, STACK
        ARGFRAME XSTACK, 12, STACK
        ARGFRAME IOVERLAY, 0, STATIC
        ARGFRAME DOVERLAY, 0, STATIC
        FUNCALL ZMacSendNoData, MAC_McpsDataReq
        LOCFRAME ISTACK, 0, STACK
        LOCFRAME PSTACK, 0, STACK
        LOCFRAME XSTACK, 12, STACK
        LOCFRAME IOVERLAY, 0, STATIC
        LOCFRAME DOVERLAY, 0, STATIC
        ARGFRAME ISTACK, 0, STACK
        ARGFRAME PSTACK, 0, STACK
        ARGFRAME XSTACK, 12, STACK
        ARGFRAME IOVERLAY, 0, STATIC
        ARGFRAME DOVERLAY, 0, STATIC
        MOV     A,#-0xc
        LCALL   ?BANKED_ENTER_XDATA
        CFI DPH0 load(1, XDATA, add(CFA_XSP16, literal(-1)))
        CFI DPL0 load(1, XDATA, add(CFA_XSP16, literal(-2)))
        CFI ?BRET_EXT load(1, XDATA, add(CFA_XSP16, literal(-3)))
        CFI ?RET_HIGH load(1, XDATA, add(CFA_XSP16, literal(-4)))
        CFI ?RET_LOW load(1, XDATA, add(CFA_XSP16, literal(-5)))
        CFI R7 load(1, XDATA, add(CFA_XSP16, literal(-6)))
        CFI V3 load(1, XDATA, add(CFA_XSP16, literal(-7)))
        CFI V2 load(1, XDATA, add(CFA_XSP16, literal(-8)))
        CFI V1 load(1, XDATA, add(CFA_XSP16, literal(-9)))
        CFI V0 load(1, XDATA, add(CFA_XSP16, literal(-10)))
        CFI VB load(1, XDATA, add(CFA_XSP16, literal(-11)))
        CFI R6 load(1, XDATA, add(CFA_XSP16, literal(-12)))
        CFI CFA_SP SP+0
        CFI CFA_XSP16 add(XSP16, 12)
        ; Saved register size: 12
        ; Auto size: 0
        MOV     ?V0 + 0,R2
        MOV     ?V0 + 1,R3
        MOV     A,R4
        MOV     R6,A
        MOV     A,R5
        MOV     R7,A
//  590   macMcpsDataReq_t *pBuf;
//  591 
//  592   /* Allocate memory */
//  593   pBuf = MAC_McpsDataAlloc(0, MAC_SEC_LEVEL_NONE, MAC_KEY_ID_MODE_NONE);
        ; Setup parameters for call to function MAC_McpsDataAlloc
        MOV     R3,#0x0
        MOV     R2,#0x0
        MOV     R1,#0x0
        LCALL   ??MAC_McpsDataAlloc?relay
//  594 
//  595   if (pBuf)
        MOV     A,R2
        ORL     A,R3
        JZ      ??ZMacSendNoData_0
//  596   {
//  597     /* Fill in src information */
//  598     pBuf->mac.srcAddrMode              = SADDR_MODE_SHORT;
        MOV     A,R2
        ADD     A,#0x2d
        LCALL   ?Subroutine7 & 0xFFFF
//  599 
//  600     /* Fill in dst information */
//  601     pBuf->mac.dstAddr.addr.shortAddr   = DstAddr;
??CrossCallReturnLabel_5:
        ADD     A,#0x22
        LCALL   ?Subroutine9 & 0xFFFF
??CrossCallReturnLabel_17:
        MOV     A,?V0 + 0
        MOVX    @DPTR,A
        INC     DPTR
        MOV     A,?V0 + 1
        MOVX    @DPTR,A
//  602     pBuf->mac.dstAddr.addrMode         = SADDR_MODE_SHORT;
        MOV     A,R2
        ADD     A,#0x2a
        LCALL   ?Subroutine7 & 0xFFFF
//  603     pBuf->mac.dstPanId                 = DstPANId;
??CrossCallReturnLabel_6:
        ADD     A,#0x2b
        LCALL   ?Subroutine9 & 0xFFFF
??CrossCallReturnLabel_18:
        MOV     A,R6
        MOVX    @DPTR,A
        INC     DPTR
        MOV     A,R7
        MOVX    @DPTR,A
//  604 
//  605     /* Misc information */
//  606     pBuf->mac.msduHandle               = 0;
        MOV     A,R2
        ADD     A,#0x2e
        LCALL   ?Subroutine6 & 0xFFFF
//  607     pBuf->mac.txOptions                = ZMAC_TXOPTION_ACK | ZMAC_TXOPTION_NO_RETRANS | ZMAC_TXOPTION_NO_CNF;
??CrossCallReturnLabel_11:
        MOV     A,R2
        ADD     A,#0x2f
        LCALL   ?Subroutine9 & 0xFFFF
??CrossCallReturnLabel_19:
        MOV     A,#0x31
        MOVX    @DPTR,A
//  608 
//  609     /* Right now, set security to zero */
//  610     pBuf->sec.securityLevel = false;
        MOV     A,R2
        ADD     A,#0x1f
        LCALL   ?Subroutine6 & 0xFFFF
//  611 
//  612     /* Call Mac Data Request */
//  613     MAC_McpsDataReq(pBuf);
??CrossCallReturnLabel_12:
        ; Setup parameters for call to function MAC_McpsDataReq
        LCALL   ??MAC_McpsDataReq?relay
//  614   }
//  615 
//  616 }
??ZMacSendNoData_0:
        LJMP    ?Subroutine2 & 0xFFFF
        CFI EndBlock cfiBlock59

        RSEG BANKED_CODE:CODE:NOROOT(0)
?Subroutine9:
        CFI Block cfiCond60 Using cfiCommon0
        CFI NoFunction
        CFI Conditional ??CrossCallReturnLabel_17
        CFI R6 load(1, XDATA, add(CFA_XSP16, literal(-12)))
        CFI VB load(1, XDATA, add(CFA_XSP16, literal(-11)))
        CFI V0 load(1, XDATA, add(CFA_XSP16, literal(-10)))
        CFI V1 load(1, XDATA, add(CFA_XSP16, literal(-9)))
        CFI V2 load(1, XDATA, add(CFA_XSP16, literal(-8)))
        CFI V3 load(1, XDATA, add(CFA_XSP16, literal(-7)))
        CFI R7 load(1, XDATA, add(CFA_XSP16, literal(-6)))
        CFI ?RET_LOW load(1, XDATA, add(CFA_XSP16, literal(-5)))
        CFI ?RET_HIGH load(1, XDATA, add(CFA_XSP16, literal(-4)))
        CFI ?BRET_EXT load(1, XDATA, add(CFA_XSP16, literal(-3)))
        CFI DPL0 load(1, XDATA, add(CFA_XSP16, literal(-2)))
        CFI DPH0 load(1, XDATA, add(CFA_XSP16, literal(-1)))
        CFI CFA_SP SP+0
        CFI CFA_XSP16 add(XSP16, 12)
        CFI Block cfiCond61 Using cfiCommon0
        CFI (cfiCond61) NoFunction
        CFI (cfiCond61) Conditional ??CrossCallReturnLabel_18
        CFI (cfiCond61) R6 load(1, XDATA, add(CFA_XSP16, literal(-12)))
        CFI (cfiCond61) VB load(1, XDATA, add(CFA_XSP16, literal(-11)))
        CFI (cfiCond61) V0 load(1, XDATA, add(CFA_XSP16, literal(-10)))
        CFI (cfiCond61) V1 load(1, XDATA, add(CFA_XSP16, literal(-9)))
        CFI (cfiCond61) V2 load(1, XDATA, add(CFA_XSP16, literal(-8)))
        CFI (cfiCond61) V3 load(1, XDATA, add(CFA_XSP16, literal(-7)))
        CFI (cfiCond61) R7 load(1, XDATA, add(CFA_XSP16, literal(-6)))
        CFI (cfiCond61) ?RET_LOW load(1, XDATA, add(CFA_XSP16, literal(-5)))
        CFI (cfiCond61) ?RET_HIGH load(1, XDATA, add(CFA_XSP16, literal(-4)))
        CFI (cfiCond61) ?BRET_EXT load(1, XDATA, add(CFA_XSP16, literal(-3)))
        CFI (cfiCond61) DPL0 load(1, XDATA, add(CFA_XSP16, literal(-2)))
        CFI (cfiCond61) DPH0 load(1, XDATA, add(CFA_XSP16, literal(-1)))
        CFI (cfiCond61) CFA_SP SP+0
        CFI (cfiCond61) CFA_XSP16 add(XSP16, 12)
        CFI Block cfiCond62 Using cfiCommon0
        CFI (cfiCond62) NoFunction
        CFI (cfiCond62) Conditional ??CrossCallReturnLabel_19
        CFI (cfiCond62) R6 load(1, XDATA, add(CFA_XSP16, literal(-12)))
        CFI (cfiCond62) VB load(1, XDATA, add(CFA_XSP16, literal(-11)))
        CFI (cfiCond62) V0 load(1, XDATA, add(CFA_XSP16, literal(-10)))
        CFI (cfiCond62) V1 load(1, XDATA, add(CFA_XSP16, literal(-9)))
        CFI (cfiCond62) V2 load(1, XDATA, add(CFA_XSP16, literal(-8)))
        CFI (cfiCond62) V3 load(1, XDATA, add(CFA_XSP16, literal(-7)))
        CFI (cfiCond62) R7 load(1, XDATA, add(CFA_XSP16, literal(-6)))
        CFI (cfiCond62) ?RET_LOW load(1, XDATA, add(CFA_XSP16, literal(-5)))
        CFI (cfiCond62) ?RET_HIGH load(1, XDATA, add(CFA_XSP16, literal(-4)))
        CFI (cfiCond62) ?BRET_EXT load(1, XDATA, add(CFA_XSP16, literal(-3)))
        CFI (cfiCond62) DPL0 load(1, XDATA, add(CFA_XSP16, literal(-2)))
        CFI (cfiCond62) DPH0 load(1, XDATA, add(CFA_XSP16, literal(-1)))
        CFI (cfiCond62) CFA_SP SP+0
        CFI (cfiCond62) CFA_XSP16 add(XSP16, 12)
        CFI Block cfiCond63 Using cfiCommon0
        CFI (cfiCond63) NoFunction
        CFI (cfiCond63) Conditional ??CrossCallReturnLabel_20, ??CrossCallReturnLabel_5
        CFI (cfiCond63) R6 load(1, XDATA, add(CFA_XSP16, literal(-12)))
        CFI (cfiCond63) VB load(1, XDATA, add(CFA_XSP16, literal(-11)))
        CFI (cfiCond63) V0 load(1, XDATA, add(CFA_XSP16, literal(-10)))
        CFI (cfiCond63) V1 load(1, XDATA, add(CFA_XSP16, literal(-9)))
        CFI (cfiCond63) V2 load(1, XDATA, add(CFA_XSP16, literal(-8)))
        CFI (cfiCond63) V3 load(1, XDATA, add(CFA_XSP16, literal(-7)))
        CFI (cfiCond63) R7 load(1, XDATA, add(CFA_XSP16, literal(-6)))
        CFI (cfiCond63) ?RET_LOW load(1, XDATA, add(CFA_XSP16, literal(-5)))
        CFI (cfiCond63) ?RET_HIGH load(1, XDATA, add(CFA_XSP16, literal(-4)))
        CFI (cfiCond63) ?BRET_EXT load(1, XDATA, add(CFA_XSP16, literal(-3)))
        CFI (cfiCond63) DPL0 load(1, XDATA, add(CFA_XSP16, literal(-2)))
        CFI (cfiCond63) DPH0 load(1, XDATA, add(CFA_XSP16, literal(-1)))
        CFI (cfiCond63) CFA_SP SP+0
        CFI (cfiCond63) CFA_XSP16 add(XSP16, 12)
        CFI Block cfiCond64 Using cfiCommon0
        CFI (cfiCond64) NoFunction
        CFI (cfiCond64) Conditional ??CrossCallReturnLabel_20, ??CrossCallReturnLabel_6
        CFI (cfiCond64) R6 load(1, XDATA, add(CFA_XSP16, literal(-12)))
        CFI (cfiCond64) VB load(1, XDATA, add(CFA_XSP16, literal(-11)))
        CFI (cfiCond64) V0 load(1, XDATA, add(CFA_XSP16, literal(-10)))
        CFI (cfiCond64) V1 load(1, XDATA, add(CFA_XSP16, literal(-9)))
        CFI (cfiCond64) V2 load(1, XDATA, add(CFA_XSP16, literal(-8)))
        CFI (cfiCond64) V3 load(1, XDATA, add(CFA_XSP16, literal(-7)))
        CFI (cfiCond64) R7 load(1, XDATA, add(CFA_XSP16, literal(-6)))
        CFI (cfiCond64) ?RET_LOW load(1, XDATA, add(CFA_XSP16, literal(-5)))
        CFI (cfiCond64) ?RET_HIGH load(1, XDATA, add(CFA_XSP16, literal(-4)))
        CFI (cfiCond64) ?BRET_EXT load(1, XDATA, add(CFA_XSP16, literal(-3)))
        CFI (cfiCond64) DPL0 load(1, XDATA, add(CFA_XSP16, literal(-2)))
        CFI (cfiCond64) DPH0 load(1, XDATA, add(CFA_XSP16, literal(-1)))
        CFI (cfiCond64) CFA_SP SP+0
        CFI (cfiCond64) CFA_XSP16 add(XSP16, 12)
        CFI Block cfiPicker65 Using cfiCommon1
        CFI (cfiPicker65) NoFunction
        CFI (cfiPicker65) Picker
        MOV     DPL,A
        MOV     A,R3
        CFI EndBlock cfiCond60
        CFI EndBlock cfiCond61
        CFI EndBlock cfiCond62
        CFI EndBlock cfiCond63
        CFI EndBlock cfiCond64
        CFI EndBlock cfiPicker65
        REQUIRE ??Subroutine13_0
        ; // Fall through to label ??Subroutine13_0

        RSEG BANKED_CODE:CODE:NOROOT(0)
??Subroutine13_0:
        CFI Block cfiCond66 Using cfiCommon0
        CFI NoFunction
        CFI Conditional ??CrossCallReturnLabel_21, ??CrossCallReturnLabel_15, ??CrossCallReturnLabel_9
        CFI DPL0 Frame(CFA_SP, 4)
        CFI DPH0 Frame(CFA_SP, 5)
        CFI CFA_SP SP+-5
        CFI Block cfiCond67 Using cfiCommon0
        CFI (cfiCond67) NoFunction
        CFI (cfiCond67) Conditional ??CrossCallReturnLabel_21, ??CrossCallReturnLabel_15, ??CrossCallReturnLabel_10
        CFI (cfiCond67) DPL0 Frame(CFA_SP, 4)
        CFI (cfiCond67) DPH0 Frame(CFA_SP, 5)
        CFI (cfiCond67) CFA_SP SP+-5
        CFI Block cfiCond68 Using cfiCommon0
        CFI (cfiCond68) NoFunction
        CFI (cfiCond68) Conditional ??CrossCallReturnLabel_21, ??CrossCallReturnLabel_15, ??CrossCallReturnLabel_11
        CFI (cfiCond68) R6 load(1, XDATA, add(CFA_XSP16, literal(-12)))
        CFI (cfiCond68) VB load(1, XDATA, add(CFA_XSP16, literal(-11)))
        CFI (cfiCond68) V0 load(1, XDATA, add(CFA_XSP16, literal(-10)))
        CFI (cfiCond68) V1 load(1, XDATA, add(CFA_XSP16, literal(-9)))
        CFI (cfiCond68) V2 load(1, XDATA, add(CFA_XSP16, literal(-8)))
        CFI (cfiCond68) V3 load(1, XDATA, add(CFA_XSP16, literal(-7)))
        CFI (cfiCond68) R7 load(1, XDATA, add(CFA_XSP16, literal(-6)))
        CFI (cfiCond68) ?RET_LOW load(1, XDATA, add(CFA_XSP16, literal(-5)))
        CFI (cfiCond68) ?RET_HIGH load(1, XDATA, add(CFA_XSP16, literal(-4)))
        CFI (cfiCond68) ?BRET_EXT load(1, XDATA, add(CFA_XSP16, literal(-3)))
        CFI (cfiCond68) DPL0 load(1, XDATA, add(CFA_XSP16, literal(-2)))
        CFI (cfiCond68) DPH0 load(1, XDATA, add(CFA_XSP16, literal(-1)))
        CFI (cfiCond68) CFA_SP SP+0
        CFI (cfiCond68) CFA_XSP16 add(XSP16, 12)
        CFI Block cfiCond69 Using cfiCommon0
        CFI (cfiCond69) NoFunction
        CFI (cfiCond69) Conditional ??CrossCallReturnLabel_21, ??CrossCallReturnLabel_15, ??CrossCallReturnLabel_12
        CFI (cfiCond69) R6 load(1, XDATA, add(CFA_XSP16, literal(-12)))
        CFI (cfiCond69) VB load(1, XDATA, add(CFA_XSP16, literal(-11)))
        CFI (cfiCond69) V0 load(1, XDATA, add(CFA_XSP16, literal(-10)))
        CFI (cfiCond69) V1 load(1, XDATA, add(CFA_XSP16, literal(-9)))
        CFI (cfiCond69) V2 load(1, XDATA, add(CFA_XSP16, literal(-8)))
        CFI (cfiCond69) V3 load(1, XDATA, add(CFA_XSP16, literal(-7)))
        CFI (cfiCond69) R7 load(1, XDATA, add(CFA_XSP16, literal(-6)))
        CFI (cfiCond69) ?RET_LOW load(1, XDATA, add(CFA_XSP16, literal(-5)))
        CFI (cfiCond69) ?RET_HIGH load(1, XDATA, add(CFA_XSP16, literal(-4)))
        CFI (cfiCond69) ?BRET_EXT load(1, XDATA, add(CFA_XSP16, literal(-3)))
        CFI (cfiCond69) DPL0 load(1, XDATA, add(CFA_XSP16, literal(-2)))
        CFI (cfiCond69) DPH0 load(1, XDATA, add(CFA_XSP16, literal(-1)))
        CFI (cfiCond69) CFA_SP SP+0
        CFI (cfiCond69) CFA_XSP16 add(XSP16, 12)
        CFI Block cfiCond70 Using cfiCommon0
        CFI (cfiCond70) NoFunction
        CFI (cfiCond70) Conditional ??CrossCallReturnLabel_21, ??CrossCallReturnLabel_15, ??CrossCallReturnLabel_7
        CFI (cfiCond70) R6 load(1, XDATA, add(CFA_XSP16, literal(-12)))
        CFI (cfiCond70) VB load(1, XDATA, add(CFA_XSP16, literal(-11)))
        CFI (cfiCond70) V0 load(1, XDATA, add(CFA_XSP16, literal(-10)))
        CFI (cfiCond70) V1 load(1, XDATA, add(CFA_XSP16, literal(-9)))
        CFI (cfiCond70) V2 load(1, XDATA, add(CFA_XSP16, literal(-8)))
        CFI (cfiCond70) V3 load(1, XDATA, add(CFA_XSP16, literal(-7)))
        CFI (cfiCond70) R7 load(1, XDATA, add(CFA_XSP16, literal(-6)))
        CFI (cfiCond70) ?RET_LOW load(1, XDATA, add(CFA_XSP16, literal(-5)))
        CFI (cfiCond70) ?RET_HIGH load(1, XDATA, add(CFA_XSP16, literal(-4)))
        CFI (cfiCond70) ?BRET_EXT load(1, XDATA, add(CFA_XSP16, literal(-3)))
        CFI (cfiCond70) DPL0 load(1, XDATA, add(CFA_XSP16, literal(-2)))
        CFI (cfiCond70) DPH0 load(1, XDATA, add(CFA_XSP16, literal(-1)))
        CFI (cfiCond70) CFA_SP SP+0
        CFI (cfiCond70) CFA_XSP16 add(XSP16, 12)
        CFI Block cfiCond71 Using cfiCommon0
        CFI (cfiCond71) NoFunction
        CFI (cfiCond71) Conditional ??CrossCallReturnLabel_21, ??CrossCallReturnLabel_15, ??CrossCallReturnLabel_8
        CFI (cfiCond71) R6 load(1, XDATA, add(CFA_XSP16, literal(-9)))
        CFI (cfiCond71) VB load(1, XDATA, add(CFA_XSP16, literal(-8)))
        CFI (cfiCond71) V0 load(1, XDATA, add(CFA_XSP16, literal(-7)))
        CFI (cfiCond71) R7 load(1, XDATA, add(CFA_XSP16, literal(-6)))
        CFI (cfiCond71) ?RET_LOW load(1, XDATA, add(CFA_XSP16, literal(-5)))
        CFI (cfiCond71) ?RET_HIGH load(1, XDATA, add(CFA_XSP16, literal(-4)))
        CFI (cfiCond71) ?BRET_EXT load(1, XDATA, add(CFA_XSP16, literal(-3)))
        CFI (cfiCond71) DPL0 load(1, XDATA, add(CFA_XSP16, literal(-2)))
        CFI (cfiCond71) DPH0 load(1, XDATA, add(CFA_XSP16, literal(-1)))
        CFI (cfiCond71) CFA_SP SP+0
        CFI (cfiCond71) CFA_XSP16 add(XSP16, 10)
        CFI Block cfiCond72 Using cfiCommon0
        CFI (cfiCond72) NoFunction
        CFI (cfiCond72) Conditional ??CrossCallReturnLabel_21, ??CrossCallReturnLabel_13, ??CrossCallReturnLabel_0
        CFI (cfiCond72) DPL0 Frame(CFA_SP, 4)
        CFI (cfiCond72) DPH0 Frame(CFA_SP, 5)
        CFI (cfiCond72) CFA_SP SP+-5
        CFI Block cfiCond73 Using cfiCommon0
        CFI (cfiCond73) NoFunction
        CFI (cfiCond73) Conditional ??CrossCallReturnLabel_21, ??CrossCallReturnLabel_13, ??CrossCallReturnLabel_1
        CFI (cfiCond73) DPL0 Frame(CFA_SP, 4)
        CFI (cfiCond73) DPH0 Frame(CFA_SP, 5)
        CFI (cfiCond73) CFA_SP SP+-5
        CFI Block cfiCond74 Using cfiCommon0
        CFI (cfiCond74) NoFunction
        CFI (cfiCond74) Conditional ??CrossCallReturnLabel_21, ??CrossCallReturnLabel_13, ??CrossCallReturnLabel_2
        CFI (cfiCond74) DPL0 Frame(CFA_SP, 4)
        CFI (cfiCond74) DPH0 Frame(CFA_SP, 5)
        CFI (cfiCond74) CFA_SP SP+-5
        CFI Block cfiCond75 Using cfiCommon0
        CFI (cfiCond75) NoFunction
        CFI (cfiCond75) Conditional ??CrossCallReturnLabel_21, ??CrossCallReturnLabel_14, ??CrossCallReturnLabel_3
        CFI (cfiCond75) R6 load(1, XDATA, add(CFA_XSP16, literal(-9)))
        CFI (cfiCond75) VB load(1, XDATA, add(CFA_XSP16, literal(-8)))
        CFI (cfiCond75) V0 load(1, XDATA, add(CFA_XSP16, literal(-7)))
        CFI (cfiCond75) R7 load(1, XDATA, add(CFA_XSP16, literal(-6)))
        CFI (cfiCond75) ?RET_LOW load(1, XDATA, add(CFA_XSP16, literal(-5)))
        CFI (cfiCond75) ?RET_HIGH load(1, XDATA, add(CFA_XSP16, literal(-4)))
        CFI (cfiCond75) ?BRET_EXT load(1, XDATA, add(CFA_XSP16, literal(-3)))
        CFI (cfiCond75) DPL0 load(1, XDATA, add(CFA_XSP16, literal(-2)))
        CFI (cfiCond75) DPH0 load(1, XDATA, add(CFA_XSP16, literal(-1)))
        CFI (cfiCond75) CFA_SP SP+0
        CFI (cfiCond75) CFA_XSP16 add(XSP16, 10)
        CFI Block cfiCond76 Using cfiCommon0
        CFI (cfiCond76) NoFunction
        CFI (cfiCond76) Conditional ??CrossCallReturnLabel_21, ??CrossCallReturnLabel_14, ??CrossCallReturnLabel_4
        CFI (cfiCond76) R6 load(1, XDATA, add(CFA_XSP16, literal(-16)))
        CFI (cfiCond76) VB load(1, XDATA, add(CFA_XSP16, literal(-15)))
        CFI (cfiCond76) V0 load(1, XDATA, add(CFA_XSP16, literal(-14)))
        CFI (cfiCond76) V1 load(1, XDATA, add(CFA_XSP16, literal(-13)))
        CFI (cfiCond76) V2 load(1, XDATA, add(CFA_XSP16, literal(-12)))
        CFI (cfiCond76) V3 load(1, XDATA, add(CFA_XSP16, literal(-11)))
        CFI (cfiCond76) V4 load(1, XDATA, add(CFA_XSP16, literal(-10)))
        CFI (cfiCond76) V5 load(1, XDATA, add(CFA_XSP16, literal(-9)))
        CFI (cfiCond76) V6 load(1, XDATA, add(CFA_XSP16, literal(-8)))
        CFI (cfiCond76) V7 load(1, XDATA, add(CFA_XSP16, literal(-7)))
        CFI (cfiCond76) R7 load(1, XDATA, add(CFA_XSP16, literal(-6)))
        CFI (cfiCond76) ?RET_LOW load(1, XDATA, add(CFA_XSP16, literal(-5)))
        CFI (cfiCond76) ?RET_HIGH load(1, XDATA, add(CFA_XSP16, literal(-4)))
        CFI (cfiCond76) ?BRET_EXT load(1, XDATA, add(CFA_XSP16, literal(-3)))
        CFI (cfiCond76) DPL0 load(1, XDATA, add(CFA_XSP16, literal(-2)))
        CFI (cfiCond76) DPH0 load(1, XDATA, add(CFA_XSP16, literal(-1)))
        CFI (cfiCond76) CFA_SP SP+0
        CFI (cfiCond76) CFA_XSP16 add(XSP16, 16)
        CFI Block cfiCond77 Using cfiCommon0
        CFI (cfiCond77) NoFunction
        CFI (cfiCond77) Conditional ??CrossCallReturnLabel_16
        CFI (cfiCond77) R6 load(1, XDATA, add(CFA_XSP16, literal(-16)))
        CFI (cfiCond77) VB load(1, XDATA, add(CFA_XSP16, literal(-15)))
        CFI (cfiCond77) V0 load(1, XDATA, add(CFA_XSP16, literal(-14)))
        CFI (cfiCond77) V1 load(1, XDATA, add(CFA_XSP16, literal(-13)))
        CFI (cfiCond77) V2 load(1, XDATA, add(CFA_XSP16, literal(-12)))
        CFI (cfiCond77) V3 load(1, XDATA, add(CFA_XSP16, literal(-11)))
        CFI (cfiCond77) V4 load(1, XDATA, add(CFA_XSP16, literal(-10)))
        CFI (cfiCond77) V5 load(1, XDATA, add(CFA_XSP16, literal(-9)))
        CFI (cfiCond77) V6 load(1, XDATA, add(CFA_XSP16, literal(-8)))
        CFI (cfiCond77) V7 load(1, XDATA, add(CFA_XSP16, literal(-7)))
        CFI (cfiCond77) R7 load(1, XDATA, add(CFA_XSP16, literal(-6)))
        CFI (cfiCond77) ?RET_LOW load(1, XDATA, add(CFA_XSP16, literal(-5)))
        CFI (cfiCond77) ?RET_HIGH load(1, XDATA, add(CFA_XSP16, literal(-4)))
        CFI (cfiCond77) ?BRET_EXT load(1, XDATA, add(CFA_XSP16, literal(-3)))
        CFI (cfiCond77) DPL0 load(1, XDATA, add(CFA_XSP16, literal(-2)))
        CFI (cfiCond77) DPH0 load(1, XDATA, add(CFA_XSP16, literal(-1)))
        CFI (cfiCond77) CFA_SP SP+0
        CFI (cfiCond77) CFA_XSP16 add(XSP16, 16)
        CFI Block cfiCond78 Using cfiCommon0
        CFI (cfiCond78) NoFunction
        CFI (cfiCond78) Conditional ??CrossCallReturnLabel_17
        CFI (cfiCond78) R6 load(1, XDATA, add(CFA_XSP16, literal(-12)))
        CFI (cfiCond78) VB load(1, XDATA, add(CFA_XSP16, literal(-11)))
        CFI (cfiCond78) V0 load(1, XDATA, add(CFA_XSP16, literal(-10)))
        CFI (cfiCond78) V1 load(1, XDATA, add(CFA_XSP16, literal(-9)))
        CFI (cfiCond78) V2 load(1, XDATA, add(CFA_XSP16, literal(-8)))
        CFI (cfiCond78) V3 load(1, XDATA, add(CFA_XSP16, literal(-7)))
        CFI (cfiCond78) R7 load(1, XDATA, add(CFA_XSP16, literal(-6)))
        CFI (cfiCond78) ?RET_LOW load(1, XDATA, add(CFA_XSP16, literal(-5)))
        CFI (cfiCond78) ?RET_HIGH load(1, XDATA, add(CFA_XSP16, literal(-4)))
        CFI (cfiCond78) ?BRET_EXT load(1, XDATA, add(CFA_XSP16, literal(-3)))
        CFI (cfiCond78) DPL0 load(1, XDATA, add(CFA_XSP16, literal(-2)))
        CFI (cfiCond78) DPH0 load(1, XDATA, add(CFA_XSP16, literal(-1)))
        CFI (cfiCond78) CFA_SP SP+0
        CFI (cfiCond78) CFA_XSP16 add(XSP16, 12)
        CFI Block cfiCond79 Using cfiCommon0
        CFI (cfiCond79) NoFunction
        CFI (cfiCond79) Conditional ??CrossCallReturnLabel_18
        CFI (cfiCond79) R6 load(1, XDATA, add(CFA_XSP16, literal(-12)))
        CFI (cfiCond79) VB load(1, XDATA, add(CFA_XSP16, literal(-11)))
        CFI (cfiCond79) V0 load(1, XDATA, add(CFA_XSP16, literal(-10)))
        CFI (cfiCond79) V1 load(1, XDATA, add(CFA_XSP16, literal(-9)))
        CFI (cfiCond79) V2 load(1, XDATA, add(CFA_XSP16, literal(-8)))
        CFI (cfiCond79) V3 load(1, XDATA, add(CFA_XSP16, literal(-7)))
        CFI (cfiCond79) R7 load(1, XDATA, add(CFA_XSP16, literal(-6)))
        CFI (cfiCond79) ?RET_LOW load(1, XDATA, add(CFA_XSP16, literal(-5)))
        CFI (cfiCond79) ?RET_HIGH load(1, XDATA, add(CFA_XSP16, literal(-4)))
        CFI (cfiCond79) ?BRET_EXT load(1, XDATA, add(CFA_XSP16, literal(-3)))
        CFI (cfiCond79) DPL0 load(1, XDATA, add(CFA_XSP16, literal(-2)))
        CFI (cfiCond79) DPH0 load(1, XDATA, add(CFA_XSP16, literal(-1)))
        CFI (cfiCond79) CFA_SP SP+0
        CFI (cfiCond79) CFA_XSP16 add(XSP16, 12)
        CFI Block cfiCond80 Using cfiCommon0
        CFI (cfiCond80) NoFunction
        CFI (cfiCond80) Conditional ??CrossCallReturnLabel_19
        CFI (cfiCond80) R6 load(1, XDATA, add(CFA_XSP16, literal(-12)))
        CFI (cfiCond80) VB load(1, XDATA, add(CFA_XSP16, literal(-11)))
        CFI (cfiCond80) V0 load(1, XDATA, add(CFA_XSP16, literal(-10)))
        CFI (cfiCond80) V1 load(1, XDATA, add(CFA_XSP16, literal(-9)))
        CFI (cfiCond80) V2 load(1, XDATA, add(CFA_XSP16, literal(-8)))
        CFI (cfiCond80) V3 load(1, XDATA, add(CFA_XSP16, literal(-7)))
        CFI (cfiCond80) R7 load(1, XDATA, add(CFA_XSP16, literal(-6)))
        CFI (cfiCond80) ?RET_LOW load(1, XDATA, add(CFA_XSP16, literal(-5)))
        CFI (cfiCond80) ?RET_HIGH load(1, XDATA, add(CFA_XSP16, literal(-4)))
        CFI (cfiCond80) ?BRET_EXT load(1, XDATA, add(CFA_XSP16, literal(-3)))
        CFI (cfiCond80) DPL0 load(1, XDATA, add(CFA_XSP16, literal(-2)))
        CFI (cfiCond80) DPH0 load(1, XDATA, add(CFA_XSP16, literal(-1)))
        CFI (cfiCond80) CFA_SP SP+0
        CFI (cfiCond80) CFA_XSP16 add(XSP16, 12)
        CFI Block cfiCond81 Using cfiCommon0
        CFI (cfiCond81) NoFunction
        CFI (cfiCond81) Conditional ??CrossCallReturnLabel_20, ??CrossCallReturnLabel_5
        CFI (cfiCond81) R6 load(1, XDATA, add(CFA_XSP16, literal(-12)))
        CFI (cfiCond81) VB load(1, XDATA, add(CFA_XSP16, literal(-11)))
        CFI (cfiCond81) V0 load(1, XDATA, add(CFA_XSP16, literal(-10)))
        CFI (cfiCond81) V1 load(1, XDATA, add(CFA_XSP16, literal(-9)))
        CFI (cfiCond81) V2 load(1, XDATA, add(CFA_XSP16, literal(-8)))
        CFI (cfiCond81) V3 load(1, XDATA, add(CFA_XSP16, literal(-7)))
        CFI (cfiCond81) R7 load(1, XDATA, add(CFA_XSP16, literal(-6)))
        CFI (cfiCond81) ?RET_LOW load(1, XDATA, add(CFA_XSP16, literal(-5)))
        CFI (cfiCond81) ?RET_HIGH load(1, XDATA, add(CFA_XSP16, literal(-4)))
        CFI (cfiCond81) ?BRET_EXT load(1, XDATA, add(CFA_XSP16, literal(-3)))
        CFI (cfiCond81) DPL0 load(1, XDATA, add(CFA_XSP16, literal(-2)))
        CFI (cfiCond81) DPH0 load(1, XDATA, add(CFA_XSP16, literal(-1)))
        CFI (cfiCond81) CFA_SP SP+0
        CFI (cfiCond81) CFA_XSP16 add(XSP16, 12)
        CFI Block cfiCond82 Using cfiCommon0
        CFI (cfiCond82) NoFunction
        CFI (cfiCond82) Conditional ??CrossCallReturnLabel_20, ??CrossCallReturnLabel_6
        CFI (cfiCond82) R6 load(1, XDATA, add(CFA_XSP16, literal(-12)))
        CFI (cfiCond82) VB load(1, XDATA, add(CFA_XSP16, literal(-11)))
        CFI (cfiCond82) V0 load(1, XDATA, add(CFA_XSP16, literal(-10)))
        CFI (cfiCond82) V1 load(1, XDATA, add(CFA_XSP16, literal(-9)))
        CFI (cfiCond82) V2 load(1, XDATA, add(CFA_XSP16, literal(-8)))
        CFI (cfiCond82) V3 load(1, XDATA, add(CFA_XSP16, literal(-7)))
        CFI (cfiCond82) R7 load(1, XDATA, add(CFA_XSP16, literal(-6)))
        CFI (cfiCond82) ?RET_LOW load(1, XDATA, add(CFA_XSP16, literal(-5)))
        CFI (cfiCond82) ?RET_HIGH load(1, XDATA, add(CFA_XSP16, literal(-4)))
        CFI (cfiCond82) ?BRET_EXT load(1, XDATA, add(CFA_XSP16, literal(-3)))
        CFI (cfiCond82) DPL0 load(1, XDATA, add(CFA_XSP16, literal(-2)))
        CFI (cfiCond82) DPH0 load(1, XDATA, add(CFA_XSP16, literal(-1)))
        CFI (cfiCond82) CFA_SP SP+0
        CFI (cfiCond82) CFA_XSP16 add(XSP16, 12)
        CFI Block cfiPicker83 Using cfiCommon1
        CFI (cfiPicker83) NoFunction
        CFI (cfiPicker83) Picker
        ADDC    A,#0x0
        MOV     DPH,A
        RET
        CFI EndBlock cfiCond66
        CFI EndBlock cfiCond67
        CFI EndBlock cfiCond68
        CFI EndBlock cfiCond69
        CFI EndBlock cfiCond70
        CFI EndBlock cfiCond71
        CFI EndBlock cfiCond72
        CFI EndBlock cfiCond73
        CFI EndBlock cfiCond74
        CFI EndBlock cfiCond75
        CFI EndBlock cfiCond76
        CFI EndBlock cfiCond77
        CFI EndBlock cfiCond78
        CFI EndBlock cfiCond79
        CFI EndBlock cfiCond80
        CFI EndBlock cfiCond81
        CFI EndBlock cfiCond82
        CFI EndBlock cfiPicker83

        RSEG BANKED_CODE:CODE:NOROOT(0)
?Subroutine7:
        CFI Block cfiCond84 Using cfiCommon0
        CFI NoFunction
        CFI Conditional ??CrossCallReturnLabel_5
        CFI R6 load(1, XDATA, add(CFA_XSP16, literal(-12)))
        CFI VB load(1, XDATA, add(CFA_XSP16, literal(-11)))
        CFI V0 load(1, XDATA, add(CFA_XSP16, literal(-10)))
        CFI V1 load(1, XDATA, add(CFA_XSP16, literal(-9)))
        CFI V2 load(1, XDATA, add(CFA_XSP16, literal(-8)))
        CFI V3 load(1, XDATA, add(CFA_XSP16, literal(-7)))
        CFI R7 load(1, XDATA, add(CFA_XSP16, literal(-6)))
        CFI ?RET_LOW load(1, XDATA, add(CFA_XSP16, literal(-5)))
        CFI ?RET_HIGH load(1, XDATA, add(CFA_XSP16, literal(-4)))
        CFI ?BRET_EXT load(1, XDATA, add(CFA_XSP16, literal(-3)))
        CFI DPL0 load(1, XDATA, add(CFA_XSP16, literal(-2)))
        CFI DPH0 load(1, XDATA, add(CFA_XSP16, literal(-1)))
        CFI CFA_SP SP+0
        CFI CFA_XSP16 add(XSP16, 12)
        CFI Block cfiCond85 Using cfiCommon0
        CFI (cfiCond85) NoFunction
        CFI (cfiCond85) Conditional ??CrossCallReturnLabel_6
        CFI (cfiCond85) R6 load(1, XDATA, add(CFA_XSP16, literal(-12)))
        CFI (cfiCond85) VB load(1, XDATA, add(CFA_XSP16, literal(-11)))
        CFI (cfiCond85) V0 load(1, XDATA, add(CFA_XSP16, literal(-10)))
        CFI (cfiCond85) V1 load(1, XDATA, add(CFA_XSP16, literal(-9)))
        CFI (cfiCond85) V2 load(1, XDATA, add(CFA_XSP16, literal(-8)))
        CFI (cfiCond85) V3 load(1, XDATA, add(CFA_XSP16, literal(-7)))
        CFI (cfiCond85) R7 load(1, XDATA, add(CFA_XSP16, literal(-6)))
        CFI (cfiCond85) ?RET_LOW load(1, XDATA, add(CFA_XSP16, literal(-5)))
        CFI (cfiCond85) ?RET_HIGH load(1, XDATA, add(CFA_XSP16, literal(-4)))
        CFI (cfiCond85) ?BRET_EXT load(1, XDATA, add(CFA_XSP16, literal(-3)))
        CFI (cfiCond85) DPL0 load(1, XDATA, add(CFA_XSP16, literal(-2)))
        CFI (cfiCond85) DPH0 load(1, XDATA, add(CFA_XSP16, literal(-1)))
        CFI (cfiCond85) CFA_SP SP+0
        CFI (cfiCond85) CFA_XSP16 add(XSP16, 12)
        CFI Block cfiPicker86 Using cfiCommon1
        CFI (cfiPicker86) NoFunction
        CFI (cfiPicker86) Picker
        LCALL   ?Subroutine9 & 0xFFFF
??CrossCallReturnLabel_20:
        MOV     A,#0x2
        MOVX    @DPTR,A
        MOV     A,R2
        RET
        CFI EndBlock cfiCond84
        CFI EndBlock cfiCond85
        CFI EndBlock cfiPicker86
//  617 
//  618 /********************************************************************************************************
//  619  * @fn      ZMacStateIdle
//  620  *
//  621  * @brief   This function returns true if the MAC state is idle.
//  622  *
//  623  * @param   none
//  624  *
//  625  * @return  TRUE if the MAC state is idle, FALSE otherwise.
//  626  ********************************************************************************************************/

        RSEG BANKED_CODE:CODE:NOROOT(0)
//  627 uint8 ZMacStateIdle( void )
ZMacStateIdle:
        CFI Block cfiBlock87 Using cfiCommon0
        CFI Function ZMacStateIdle
        CODE
//  628 {
        FUNCALL ZMacStateIdle, macStateIdle
        LOCFRAME ISTACK, 2, STACK
        LOCFRAME PSTACK, 0, STACK
        LOCFRAME XSTACK, 0, STACK
        LOCFRAME IOVERLAY, 0, STATIC
        LOCFRAME DOVERLAY, 0, STATIC
        ARGFRAME ISTACK, 2, STACK
        ARGFRAME PSTACK, 0, STACK
        ARGFRAME XSTACK, 0, STACK
        ARGFRAME IOVERLAY, 0, STATIC
        ARGFRAME DOVERLAY, 0, STATIC
        PUSH    DPL
        CFI DPL0 Frame(CFA_SP, 4)
        CFI CFA_SP SP+-4
        PUSH    DPH
        CFI DPH0 Frame(CFA_SP, 5)
        CFI CFA_SP SP+-5
        ; Saved register size: 2
        ; Auto size: 0
//  629   return macStateIdle();
        ; Setup parameters for call to function macStateIdle
        LCALL   ??macStateIdle?relay
        LJMP    ??Subroutine12_0 & 0xFFFF
        CFI EndBlock cfiBlock87
//  630 }

        RSEG BANK_RELAYS:CODE:REORDER:NOROOT(0)
??ZMacInit?relay:
        LCALL   ?BDISPATCH
        DATA
        DC24    ZMacInit

        RSEG BANK_RELAYS:CODE:REORDER:NOROOT(0)
??ZMacReset?relay:
        LCALL   ?BDISPATCH
        DATA
        DC24    ZMacReset

        RSEG BANK_RELAYS:CODE:REORDER:NOROOT(0)
??ZMacGetReq?relay:
        LCALL   ?BDISPATCH
        DATA
        DC24    ZMacGetReq

        RSEG BANK_RELAYS:CODE:REORDER:NOROOT(0)
??ZMacSetReq?relay:
        LCALL   ?BDISPATCH
        DATA
        DC24    ZMacSetReq

        RSEG BANK_RELAYS:CODE:REORDER:NOROOT(0)
??ZMacAssociateReq?relay:
        LCALL   ?BDISPATCH
        DATA
        DC24    ZMacAssociateReq

        RSEG BANK_RELAYS:CODE:REORDER:NOROOT(0)
??ZMacAssociateRsp?relay:
        LCALL   ?BDISPATCH
        DATA
        DC24    ZMacAssociateRsp

        RSEG BANK_RELAYS:CODE:REORDER:NOROOT(0)
??ZMacDisassociateReq?relay:
        LCALL   ?BDISPATCH
        DATA
        DC24    ZMacDisassociateReq

        RSEG BANK_RELAYS:CODE:REORDER:NOROOT(0)
??ZMacOrphanRsp?relay:
        LCALL   ?BDISPATCH
        DATA
        DC24    ZMacOrphanRsp

        RSEG BANK_RELAYS:CODE:REORDER:NOROOT(0)
??ZMacScanReq?relay:
        LCALL   ?BDISPATCH
        DATA
        DC24    ZMacScanReq

        RSEG BANK_RELAYS:CODE:REORDER:NOROOT(0)
??ZMacStartReq?relay:
        LCALL   ?BDISPATCH
        DATA
        DC24    ZMacStartReq

        RSEG BANK_RELAYS:CODE:REORDER:NOROOT(0)
??ZMacSyncReq?relay:
        LCALL   ?BDISPATCH
        DATA
        DC24    ZMacSyncReq

        RSEG BANK_RELAYS:CODE:REORDER:NOROOT(0)
??ZMacPollReq?relay:
        LCALL   ?BDISPATCH
        DATA
        DC24    ZMacPollReq

        RSEG BANK_RELAYS:CODE:REORDER:NOROOT(0)
??ZMacDataReq?relay:
        LCALL   ?BDISPATCH
        DATA
        DC24    ZMacDataReq

        RSEG BANK_RELAYS:CODE:REORDER:NOROOT(0)
??ZMacPurgeReq?relay:
        LCALL   ?BDISPATCH
        DATA
        DC24    ZMacPurgeReq

        RSEG BANK_RELAYS:CODE:REORDER:NOROOT(0)
??ZMacSrcMatchEnable?relay:
        LCALL   ?BDISPATCH
        DATA
        DC24    ZMacSrcMatchEnable

        RSEG BANK_RELAYS:CODE:REORDER:NOROOT(0)
??ZMacSrcMatchAddEntry?relay:
        LCALL   ?BDISPATCH
        DATA
        DC24    ZMacSrcMatchAddEntry

        RSEG BANK_RELAYS:CODE:REORDER:NOROOT(0)
??ZMacSrcMatchDeleteEntry?relay:
        LCALL   ?BDISPATCH
        DATA
        DC24    ZMacSrcMatchDeleteEntry

        RSEG BANK_RELAYS:CODE:REORDER:NOROOT(0)
??ZMacSrcMatchAckAllPending?relay:
        LCALL   ?BDISPATCH
        DATA
        DC24    ZMacSrcMatchAckAllPending

        RSEG BANK_RELAYS:CODE:REORDER:NOROOT(0)
??ZMacSrcMatchCheckAllPending?relay:
        LCALL   ?BDISPATCH
        DATA
        DC24    ZMacSrcMatchCheckAllPending

        RSEG BANK_RELAYS:CODE:REORDER:NOROOT(0)
??ZMacPwrOnReq?relay:
        LCALL   ?BDISPATCH
        DATA
        DC24    ZMacPwrOnReq

        RSEG BANK_RELAYS:CODE:REORDER:NOROOT(0)
??ZMac_PwrMode?relay:
        LCALL   ?BDISPATCH
        DATA
        DC24    ZMac_PwrMode

        RSEG BANK_RELAYS:CODE:REORDER:NOROOT(0)
??ZMacSetTransmitPower?relay:
        LCALL   ?BDISPATCH
        DATA
        DC24    ZMacSetTransmitPower

        RSEG BANK_RELAYS:CODE:REORDER:NOROOT(0)
??ZMacSendNoData?relay:
        LCALL   ?BDISPATCH
        DATA
        DC24    ZMacSendNoData

        RSEG BANK_RELAYS:CODE:REORDER:NOROOT(0)
??ZMacStateIdle?relay:
        LCALL   ?BDISPATCH
        DATA
        DC24    ZMacStateIdle

        END
// 
// 978 bytes in segment BANKED_CODE
// 144 bytes in segment BANK_RELAYS
//   6 bytes in segment XDATA_Z
// 
// 1 122 bytes of CODE  memory
//     6 bytes of XDATA memory
//
//Errors: none
//Warnings: none
