///////////////////////////////////////////////////////////////////////////////
//                                                                            /
// IAR C/C++ Compiler V8.10.3.10338/W32 for 8051        07/Jun/2017  10:59:24 /
// Copyright 2004-2011 IAR Systems AB.                                        /
//                                                                            /
//    Core               =  plain                                             /
//    Code model         =  banked                                            /
//    Data model         =  large                                             /
//    Calling convention =  xdata reentrant                                   /
//    Constant location  =  data_rom                                          /
//    Dptr setup         =  1,16                                              /
//    Source file        =  F:\zigbee\zigbee\ZIGBEE_EB2530\µÚ6ÕÂ              /
//                          Êµ¼ùÏîÄ¿\WSN_ZigBee\Components\mac\low_level\srf0 /
//                          4\single_chip\mac_radio_defs.c                    /
//    Command line       =  -f "F:\zigbee\zigbee\ZIGBEE_EB2530\µÚ6ÕÂ          /
//                          Êµ¼ùÏîÄ¿\WSN_ZigBee\Projects\zstack\Utilities\Ser /
//                          ialApp\CC2530DB\..\..\..\Tools\CC2530DB\f8wCoord. /
//                          cfg" (-DCPU32MHZ -DROOT=__near_func               /
//                          -DMAC_CFG_APP_PENDING_QUEUE=TRUE                  /
//                          -DZDO_COORDINATOR -DRTR_NWK -DBLINK_LEDS) -f      /
//                          "F:\zigbee\zigbee\ZIGBEE_EB2530\µÚ6ÕÂ             /
//                          Êµ¼ùÏîÄ¿\WSN_ZigBee\Projects\zstack\Utilities\Ser /
//                          ialApp\CC2530DB\..\..\..\Tools\CC2530DB\f8wConfig /
//                          .cfg" (-DSECURE=0 -DZG_SECURE_DYNAMIC=0           /
//                          -DREFLECTOR -DDEFAULT_CHANLIST=0x00000800         /
//                          -DZDAPP_CONFIG_PAN_ID=0xFFF1                      /
//                          -DNWK_START_DELAY=100 -DEXTENDED_JOINING_RANDOM_M /
//                          ASK=0x007F -DBEACON_REQUEST_DELAY=100             /
//                          -DBEACON_REQ_DELAY_MASK=0x00FF                    /
//                          -DROUTE_EXPIRY_TIME=30 -DAPSC_ACK_WAIT_DURATION_P /
//                          OLLED=3000 -DNWK_INDIRECT_MSG_TIMEOUT=7           /
//                          -DMAX_RREQ_ENTRIES=8 -DAPSC_MAX_FRAME_RETRIES=3   /
//                          -DNWK_MAX_DATA_RETRIES=2                          /
//                          -DMAX_POLL_FAILURE_RETRIES=2 -DMAX_BCAST=9        /
//                          -DAPS_MAX_GROUPS=16 -DMAX_RTG_ENTRIES=40          /
//                          -DNWK_MAX_BINDING_ENTRIES=4                       /
//                          -DMAX_BINDING_CLUSTER_IDS=4                       /
//                          "-DDEFAULT_KEY={0x01, 0x03, 0x05, 0x07, 0x09,     /
//                          0x0B, 0x0D, 0x0F, 0x00, 0x02, 0x04, 0x06, 0x08,   /
//                          0x0A, 0x0C, 0x0D}" -DMAC_MAX_FRAME_SIZE=116       /
//                          "-DCONST=const __code" -DGENERIC=__generic        /
//                          -DRFD_RCVC_ALWAYS_ON=FALSE -DPOLL_RATE=1000       /
//                          -DQUEUED_POLL_RATE=100 -DRESPONSE_POLL_RATE=100)  /
//                          -DREJOIN_POLL_RATE=440 "F:\zigbee\zigbee\ZIGBEE_E /
//                          B2530\µÚ6ÕÂ Êµ¼ùÏîÄ¿\WSN_ZigBee\Components\mac\lo /
//                          w_level\srf04\single_chip\mac_radio_defs.c" -D    /
//                          ZIGBEEPRO -D HAL_UART=TRUE -D SERIAL_APP_PORT=0   /
//                          -D LCD_SUPPORTED -D NV_RESTORE -lC                /
//                          "F:\zigbee\zigbee\ZIGBEE_EB2530\µÚ6ÕÂ             /
//                          Êµ¼ùÏîÄ¿\WSN_ZigBee\Projects\zstack\Utilities\Ser /
//                          ialApp\CC2530DB\CoordinatorEB-Pro\List\" -lA      /
//                          "F:\zigbee\zigbee\ZIGBEE_EB2530\µÚ6ÕÂ             /
//                          Êµ¼ùÏîÄ¿\WSN_ZigBee\Projects\zstack\Utilities\Ser /
//                          ialApp\CC2530DB\CoordinatorEB-Pro\List\"          /
//                          --diag_suppress Pe001,Pa010 -o                    /
//                          "F:\zigbee\zigbee\ZIGBEE_EB2530\µÚ6ÕÂ             /
//                          Êµ¼ùÏîÄ¿\WSN_ZigBee\Projects\zstack\Utilities\Ser /
//                          ialApp\CC2530DB\CoordinatorEB-Pro\Obj\" -e        /
//                          --debug --core=plain --dptr=16,1                  /
//                          --data_model=large --code_model=banked            /
//                          --calling_convention=xdata_reentrant              /
//                          --place_constants=data_rom --nr_virtual_regs 8    /
//                          -I "F:\zigbee\zigbee\ZIGBEE_EB2530\µÚ6ÕÂ          /
//                          Êµ¼ùÏîÄ¿\WSN_ZigBee\Projects\zstack\Utilities\Ser /
//                          ialApp\CC2530DB\" -I "F:\zigbee\zigbee\ZIGBEE_EB2 /
//                          530\µÚ6ÕÂ Êµ¼ùÏîÄ¿\WSN_ZigBee\Projects\zstack\Uti /
//                          lities\SerialApp\CC2530DB\..\SOURCE\" -I          /
//                          "F:\zigbee\zigbee\ZIGBEE_EB2530\µÚ6ÕÂ             /
//                          Êµ¼ùÏîÄ¿\WSN_ZigBee\Projects\zstack\Utilities\Ser /
//                          ialApp\CC2530DB\..\..\..\ZMAIN\TI2530DB\" -I      /
//                          "F:\zigbee\zigbee\ZIGBEE_EB2530\µÚ6ÕÂ             /
//                          Êµ¼ùÏîÄ¿\WSN_ZigBee\Projects\zstack\Utilities\Ser /
//                          ialApp\CC2530DB\..\..\..\..\..\COMPONENTS\MT\"    /
//                          -I "F:\zigbee\zigbee\ZIGBEE_EB2530\µÚ6ÕÂ          /
//                          Êµ¼ùÏîÄ¿\WSN_ZigBee\Projects\zstack\Utilities\Ser /
//                          ialApp\CC2530DB\..\..\..\..\..\COMPONENTS\HAL\INC /
//                          LUDE\" -I "F:\zigbee\zigbee\ZIGBEE_EB2530\µÚ6ÕÂ   /
//                          Êµ¼ùÏîÄ¿\WSN_ZigBee\Projects\zstack\Utilities\Ser /
//                          ialApp\CC2530DB\..\..\..\..\..\COMPONENTS\HAL\TAR /
//                          GET\CC2530EB\" -I "F:\zigbee\zigbee\ZIGBEE_EB2530 /
//                          \µÚ6ÕÂ Êµ¼ùÏîÄ¿\WSN_ZigBee\Projects\zstack\Utilit /
//                          ies\SerialApp\CC2530DB\..\..\..\..\..\COMPONENTS\ /
//                          OSAL\MCU\CCSOC\" -I "F:\zigbee\zigbee\ZIGBEE_EB25 /
//                          30\µÚ6ÕÂ Êµ¼ùÏîÄ¿\WSN_ZigBee\Projects\zstack\Util /
//                          ities\SerialApp\CC2530DB\..\..\..\..\..\COMPONENT /
//                          S\OSAL\INCLUDE\" -I "F:\zigbee\zigbee\ZIGBEE_EB25 /
//                          30\µÚ6ÕÂ Êµ¼ùÏîÄ¿\WSN_ZigBee\Projects\zstack\Util /
//                          ities\SerialApp\CC2530DB\..\..\..\..\..\COMPONENT /
//                          S\STACK\AF\" -I "F:\zigbee\zigbee\ZIGBEE_EB2530\µ /
//                          Ú6ÕÂ Êµ¼ùÏîÄ¿\WSN_ZigBee\Projects\zstack\Utilitie /
//                          s\SerialApp\CC2530DB\..\..\..\..\..\COMPONENTS\ST /
//                          ACK\NWK\" -I "F:\zigbee\zigbee\ZIGBEE_EB2530\µÚ6Õ /
//                          Â Êµ¼ùÏîÄ¿\WSN_ZigBee\Projects\zstack\Utilities\S /
//                          erialApp\CC2530DB\..\..\..\..\..\COMPONENTS\STACK /
//                          \SEC\" -I "F:\zigbee\zigbee\ZIGBEE_EB2530\µÚ6ÕÂ   /
//                          Êµ¼ùÏîÄ¿\WSN_ZigBee\Projects\zstack\Utilities\Ser /
//                          ialApp\CC2530DB\..\..\..\..\..\COMPONENTS\STACK\S /
//                          API\" -I "F:\zigbee\zigbee\ZIGBEE_EB2530\µÚ6ÕÂ    /
//                          Êµ¼ùÏîÄ¿\WSN_ZigBee\Projects\zstack\Utilities\Ser /
//                          ialApp\CC2530DB\..\..\..\..\..\COMPONENTS\STACK\S /
//                          YS\" -I "F:\zigbee\zigbee\ZIGBEE_EB2530\µÚ6ÕÂ     /
//                          Êµ¼ùÏîÄ¿\WSN_ZigBee\Projects\zstack\Utilities\Ser /
//                          ialApp\CC2530DB\..\..\..\..\..\COMPONENTS\STACK\Z /
//                          DO\" -I "F:\zigbee\zigbee\ZIGBEE_EB2530\µÚ6ÕÂ     /
//                          Êµ¼ùÏîÄ¿\WSN_ZigBee\Projects\zstack\Utilities\Ser /
//                          ialApp\CC2530DB\..\..\..\..\..\COMPONENTS\ZMAC\F8 /
//                          W\" -I "F:\zigbee\zigbee\ZIGBEE_EB2530\µÚ6ÕÂ      /
//                          Êµ¼ùÏîÄ¿\WSN_ZigBee\Projects\zstack\Utilities\Ser /
//                          ialApp\CC2530DB\..\..\..\..\..\COMPONENTS\ZMAC\"  /
//                          -I "F:\zigbee\zigbee\ZIGBEE_EB2530\µÚ6ÕÂ          /
//                          Êµ¼ùÏîÄ¿\WSN_ZigBee\Projects\zstack\Utilities\Ser /
//                          ialApp\CC2530DB\..\..\..\..\..\COMPONENTS\SERVICE /
//                          S\SADDR\" -I "F:\zigbee\zigbee\ZIGBEE_EB2530\µÚ6Õ /
//                          Â Êµ¼ùÏîÄ¿\WSN_ZigBee\Projects\zstack\Utilities\S /
//                          erialApp\CC2530DB\..\..\..\..\..\COMPONENTS\SERVI /
//                          CES\SDATA\" -I "F:\zigbee\zigbee\ZIGBEE_EB2530\µÚ /
//                          6ÕÂ Êµ¼ùÏîÄ¿\WSN_ZigBee\Projects\zstack\Utilities /
//                          \SerialApp\CC2530DB\..\..\..\..\..\COMPONENTS\MAC /
//                          \INCLUDE\" -I "F:\zigbee\zigbee\ZIGBEE_EB2530\µÚ6 /
//                          ÕÂ Êµ¼ùÏîÄ¿\WSN_ZigBee\Projects\zstack\Utilities\ /
//                          SerialApp\CC2530DB\..\..\..\..\..\COMPONENTS\MAC\ /
//                          HIGH_LEVEL\" -I "F:\zigbee\zigbee\ZIGBEE_EB2530\µ /
//                          Ú6ÕÂ Êµ¼ùÏîÄ¿\WSN_ZigBee\Projects\zstack\Utilitie /
//                          s\SerialApp\CC2530DB\..\..\..\..\..\COMPONENTS\MA /
//                          C\LOW_LEVEL\srf04\" -I "F:\zigbee\zigbee\ZIGBEE_E /
//                          B2530\µÚ6ÕÂ Êµ¼ùÏîÄ¿\WSN_ZigBee\Projects\zstack\U /
//                          tilities\SerialApp\CC2530DB\..\..\..\..\..\COMPON /
//                          ENTS\MAC\LOW_LEVEL\srf04\SINGLE_CHIP\" -Ohz       /
//                          --require_prototypes                              /
//    List file          =  F:\zigbee\zigbee\ZIGBEE_EB2530\µÚ6ÕÂ              /
//                          Êµ¼ùÏîÄ¿\WSN_ZigBee\Projects\zstack\Utilities\Ser /
//                          ialApp\CC2530DB\CoordinatorEB-Pro\List\mac_radio_ /
//                          defs.s51                                          /
//                                                                            /
//                                                                            /
///////////////////////////////////////////////////////////////////////////////

        NAME mac_radio_defs

        RTMODEL "__SystemLibrary", "CLib"
        RTMODEL "__calling_convention", "xdata_reentrant"
        RTMODEL "__code_model", "banked"
        RTMODEL "__core", "plain"
        RTMODEL "__data_model", "large"
        RTMODEL "__dptr_size", "16"
        RTMODEL "__extended_stack", "disabled"
        RTMODEL "__location_for_constants", "data"
        RTMODEL "__number_of_dptrs", "1"
        RTMODEL "__rt_version", "1"

        RSEG DOVERLAY:DATA:NOROOT(0)
        RSEG IOVERLAY:IDATA:NOROOT(0)
        RSEG ISTACK:IDATA:NOROOT(0)
        RSEG PSTACK:XDATA:NOROOT(0)
        RSEG XSTACK:XDATA:NOROOT(0)

        EXTERN ?BDISPATCH
        EXTERN ?BRET

        PUBLIC ??macRadioTurnOffPower?relay
        FUNCTION ??macRadioTurnOffPower?relay,0203H
        PUBLIC ??macRadioTurnOnPower?relay
        FUNCTION ??macRadioTurnOnPower?relay,0203H
        PUBLIC macRadioDefsTxPowerTable
        PUBLIC macRadioTurnOffPower
        FUNCTION macRadioTurnOffPower,0203H
        ARGFRAME XSTACK, 0, STACK
        LOCFRAME ISTACK, 2, STACK
        PUBLIC macRadioTurnOnPower
        FUNCTION macRadioTurnOnPower,021203H
        ARGFRAME XSTACK, 0, STACK
        LOCFRAME ISTACK, 2, STACK
        
        CFI Names cfiNames0
        CFI StackFrame CFA_SP SP IDATA
        CFI StackFrame CFA_PSP16 PSP16 XDATA
        CFI StackFrame CFA_XSP16 XSP16 XDATA
        CFI StaticOverlayFrame CFA_IOVERLAY IOVERLAY
        CFI StaticOverlayFrame CFA_DOVERLAY DOVERLAY
        CFI Resource `PSW.CY`:1, `B.BR0`:1, `B.BR1`:1, `B.BR2`:1, `B.BR3`:1
        CFI Resource `B.BR4`:1, `B.BR5`:1, `B.BR6`:1, `B.BR7`:1, `VB.BR8`:1
        CFI Resource `VB.BR9`:1, `VB.BR10`:1, `VB.BR11`:1, `VB.BR12`:1
        CFI Resource `VB.BR13`:1, `VB.BR14`:1, `VB.BR15`:1, VB:8, B:8, A:8
        CFI Resource PSW:8, DPL0:8, DPH0:8, R0:8, R1:8, R2:8, R3:8, R4:8, R5:8
        CFI Resource R6:8, R7:8, V0:8, V1:8, V2:8, V3:8, V4:8, V5:8, V6:8, V7:8
        CFI Resource SP:8, PSPH:8, PSPL:8, PSP16:16, XSPH:8, XSPL:8, XSP16:16
        CFI VirtualResource ?RET:24
        CFI Resource ?BRET_EXT:8
        CFI VirtualResource ?RET_HIGH:8, ?RET_LOW:8
        CFI ResourceParts PSP16 PSPH, PSPL
        CFI ResourceParts XSP16 XSPH, XSPL
        CFI ResourceParts ?RET ?BRET_EXT, ?RET_HIGH, ?RET_LOW
        CFI EndNames cfiNames0
        
        CFI Common cfiCommon0 Using cfiNames0
        CFI CodeAlign 1
        CFI DataAlign -1
        CFI ReturnAddress ?RET CODE
        CFI CFA_DOVERLAY Used
        CFI CFA_IOVERLAY Used
        CFI CFA_SP SP+-3
        CFI CFA_PSP16 PSP16+0
        CFI CFA_XSP16 XSP16+0
        CFI `PSW.CY` SameValue
        CFI `B.BR0` SameValue
        CFI `B.BR1` SameValue
        CFI `B.BR2` SameValue
        CFI `B.BR3` SameValue
        CFI `B.BR4` SameValue
        CFI `B.BR5` SameValue
        CFI `B.BR6` SameValue
        CFI `B.BR7` SameValue
        CFI `VB.BR8` SameValue
        CFI `VB.BR9` SameValue
        CFI `VB.BR10` SameValue
        CFI `VB.BR11` SameValue
        CFI `VB.BR12` SameValue
        CFI `VB.BR13` SameValue
        CFI `VB.BR14` SameValue
        CFI `VB.BR15` SameValue
        CFI VB SameValue
        CFI B Undefined
        CFI A Undefined
        CFI PSW SameValue
        CFI DPL0 SameValue
        CFI DPH0 SameValue
        CFI R0 Undefined
        CFI R1 Undefined
        CFI R2 Undefined
        CFI R3 Undefined
        CFI R4 Undefined
        CFI R5 Undefined
        CFI R6 SameValue
        CFI R7 SameValue
        CFI V0 SameValue
        CFI V1 SameValue
        CFI V2 SameValue
        CFI V3 SameValue
        CFI V4 SameValue
        CFI V5 SameValue
        CFI V6 SameValue
        CFI V7 SameValue
        CFI PSPH Undefined
        CFI PSPL Undefined
        CFI XSPH Undefined
        CFI XSPL Undefined
        CFI ?RET Concat
        CFI ?BRET_EXT Frame(CFA_SP, 3)
        CFI ?RET_HIGH Frame(CFA_SP, 2)
        CFI ?RET_LOW Frame(CFA_SP, 1)
        CFI EndCommon cfiCommon0
        
macMemWriteRam      SYMBOL "macMemWriteRam"
??macMemWriteRam?relay SYMBOL "?relay", macMemWriteRam
macRadioTurnOffPower SYMBOL "macRadioTurnOffPower"
??macRadioTurnOffPower?relay SYMBOL "?relay", macRadioTurnOffPower
macRadioTurnOnPower SYMBOL "macRadioTurnOnPower"
??macRadioTurnOnPower?relay SYMBOL "?relay", macRadioTurnOnPower

        EXTERN macMemWriteRam
        FUNCTION macMemWriteRam,0202H
        ARGFRAME ISTACK, 2, STACK
        ARGFRAME PSTACK, 0, STACK
        ARGFRAME XSTACK, 0, STACK
        ARGFRAME IOVERLAY, 0, STATIC
        ARGFRAME DOVERLAY, 0, STATIC
        EXTERN ??macMemWriteRam?relay
        FUNCTION ??macMemWriteRam?relay,00H
        EXTERN macChipVersion
        EXTERN macPib

// F:\zigbee\zigbee\ZIGBEE_EB2530\µÚ6ÕÂ Êµ¼ùÏîÄ¿\WSN_ZigBee\Components\mac\low_level\srf04\single_chip\mac_radio_defs.c
//    1 /**************************************************************************************************
//    2   Filename:       mac_radio_defs.c
//    3   Revised:        $Date: 2009-03-27 14:32:42 -0700 (Fri, 27 Mar 2009) $
//    4   Revision:       $Revision: 19584 $
//    5 
//    6   Description:    Describe the purpose and contents of the file.
//    7 
//    8 
//    9   Copyright 2006-2009 Texas Instruments Incorporated. All rights reserved.
//   10 
//   11   IMPORTANT: Your use of this Software is limited to those specific rights
//   12   granted under the terms of a software license agreement between the user
//   13   who downloaded the software, his/her employer (which must be your employer)
//   14   and Texas Instruments Incorporated (the "License").  You may not use this
//   15   Software unless you agree to abide by the terms of the License. The License
//   16   limits your use, and you acknowledge, that the Software may not be modified,
//   17   copied or distributed unless embedded on a Texas Instruments microcontroller
//   18   or used solely and exclusively in conjunction with a Texas Instruments radio
//   19   frequency transceiver, which is integrated into your product.  Other than for
//   20   the foregoing purpose, you may not use, reproduce, copy, prepare derivative
//   21   works of, modify, distribute, perform, display or sell this Software and/or
//   22   its documentation for any purpose.
//   23 
//   24   YOU FURTHER ACKNOWLEDGE AND AGREE THAT THE SOFTWARE AND DOCUMENTATION ARE
//   25   PROVIDED “AS IS” WITHOUT WARRANTY OF ANY KIND, EITHER EXPRESS OR IMPLIED,
//   26   INCLUDING WITHOUT LIMITATION, ANY WARRANTY OF MERCHANTABILITY, TITLE,
//   27   NON-INFRINGEMENT AND FITNESS FOR A PARTICULAR PURPOSE. IN NO EVENT SHALL
//   28   TEXAS INSTRUMENTS OR ITS LICENSORS BE LIABLE OR OBLIGATED UNDER CONTRACT,
//   29   NEGLIGENCE, STRICT LIABILITY, CONTRIBUTION, BREACH OF WARRANTY, OR OTHER
//   30   LEGAL EQUITABLE THEORY ANY DIRECT OR INDIRECT DAMAGES OR EXPENSES
//   31   INCLUDING BUT NOT LIMITED TO ANY INCIDENTAL, SPECIAL, INDIRECT, PUNITIVE
//   32   OR CONSEQUENTIAL DAMAGES, LOST PROFITS OR LOST DATA, COST OF PROCUREMENT
//   33   OF SUBSTITUTE GOODS, TECHNOLOGY, SERVICES, OR ANY CLAIMS BY THIRD PARTIES
//   34   (INCLUDING BUT NOT LIMITED TO ANY DEFENSE THEREOF), OR OTHER SIMILAR COSTS.
//   35 
//   36   Should you have any questions regarding your right to use this Software,
//   37   contact Texas Instruments Incorporated at www.TI.com.
//   38 **************************************************************************************************/
//   39 
//   40 /* ------------------------------------------------------------------------------------------------
//   41  *                                             Includes
//   42  * ------------------------------------------------------------------------------------------------
//   43  */
//   44 #include "mac_radio_defs.h"
//   45 #include "hal_types.h"
//   46 #include "hal_assert.h"
//   47 #include "mac_pib.h"
//   48 
//   49 
//   50 /* ------------------------------------------------------------------------------------------------
//   51  *                                        Global Constants
//   52  * ------------------------------------------------------------------------------------------------
//   53  */
//   54 #if defined (HAL_PA_LNA)
//   55 const uint8 CODE macRadioDefsTxPowerTable[] =
//   56 {
//   57   /*   0 dBm */   0xD5,   /* TBD: place holder */
//   58   /*   1 dBm */   0xD5,   /* TBD: place holder */
//   59   /*   2 dBm */   0xD5,   /* TBD: place holder */
//   60   /*   3 dBm */   0xD5,   /* TBD: place holder */
//   61   /*   4 dBm */   0xD5,   /* TBD: place holder */
//   62   /*   5 dBm */   0xD5,   /* TBD: place holder */
//   63   /*   6 dBm */   0xD5,   /* TBD: place holder */
//   64   /*   7 dBm */   0xD5,   /* TBD: place holder */
//   65   /*   8 dBm */   0xD5,   /* TBD: place holder */
//   66   /*   9 dBm */   0xD5,   /* TBD: place holder */
//   67   /*  10 dBm */   0xD5,   /* TBD: place holder */
//   68   /*  11 dBm */   0xD5,   /* TBD: place holder */
//   69   /*  12 dBm */   0xD5,   /* TBD: place holder */
//   70   /*  13 dBm */   0xD5,   /* TBD: place holder */
//   71   /*  14 dBm */   0xD5,   /* TBD: place holder */
//   72   /*  15 dBm */   0xD5,   /* TBD: place holder */
//   73   /*  16 dBm */   0xD5,   /* TBD: place holder */
//   74   /*  17 dBm */   0xD5,   /* TBD: place holder */
//   75   /*  18 dBm */   0xD5,   /* TBD: place holder */
//   76   /*  19 dBm */   0xD5    /* TBD: place holder */
//   77 };
//   78 #elif defined (HAL_PA_LNA_CC2590)
//   79 const uint8 CODE macRadioDefsTxPowerTable[] =
//   80 {
//   81   /*   0 dBm */   0xD5,   /* TBD: place holder */
//   82   /*   1 dBm */   0xD5,   /* TBD: place holder */
//   83   /*   2 dBm */   0xD5,   /* TBD: place holder */
//   84   /*   3 dBm */   0xD5,   /* TBD: place holder */
//   85   /*   4 dBm */   0xD5,   /* TBD: place holder */
//   86   /*   5 dBm */   0xD5,   /* TBD: place holder */
//   87   /*   6 dBm */   0xD5,   /* TBD: place holder */
//   88   /*   7 dBm */   0xD5,   /* TBD: place holder */
//   89   /*   8 dBm */   0xD5,   /* TBD: place holder */
//   90   /*   9 dBm */   0xD5,   /* TBD: place holder */
//   91   /*  10 dBm */   0xD5,   /* TBD: place holder */
//   92   /*  11 dBm */   0xD5    /* TBD: place holder */
//   93 };
//   94 #else
//   95 /* values based on testing PG2.1 */

        RSEG CODE_C:CODE:REORDER:NOROOT(0)
        DATA8
//   96 const uint8 CODE macRadioDefsTxPowerTable[] =
macRadioDefsTxPowerTable:
        DB 213
        DB 197
        DB 197
        DB 181
        DB 165
        DB 165
        DB 149
        DB 133
        DB 133
        DB 117
        DB 117
        DB 101
        DB 101
        DB 85
        DB 85
        DB 69
        DB 69
        DB 53
        DB 53
        DB 37
        DB 37
        DB 21
        DB 5
//   97 {
//   98   /*   0 dBm */   0xD5,   /* characterized as  0  dBm in datasheet */
//   99   /*  -1 dBm */   0xC5,   /* characterized as -1  dBm in datasheet */
//  100   /*  -2 dBm */   0xC5,
//  101   /*  -3 dBm */   0xB5,   /* characterized as -3  dBm in datasheet */
//  102   /*  -4 dBm */   0xA5,   /* characterized as -4  dBm in datasheet */
//  103   /*  -5 dBm */   0xA5,
//  104   /*  -6 dBm */   0x95,   /* characterized as -6  dBm in datasheet */
//  105   /*  -7 dBm */   0x85,   /* characterized as -7  dBm in datasheet */
//  106   /*  -8 dBm */   0x85,
//  107   /*  -9 dBm */   0x75,   /* characterized as -9  dBm in datasheet */
//  108   /* -10 dBm */   0x75,
//  109   /* -11 dBm */   0x65,   /* characterized as -11 dBm in datasheet */
//  110   /* -12 dBm */   0x65,
//  111   /* -13 dBm */   0x55,   /* characterized as -13 dBm in datasheet */
//  112   /* -14 dBm */   0x55,
//  113   /* -15 dBm */   0x45,   /* characterized as -15 dBm in datasheet */
//  114   /* -16 dBm */   0x45,
//  115   /* -17 dBm */   0x35,   /* characterized as -17 dBm in datasheet */
//  116   /* -18 dBm */   0x35,
//  117   /* -19 dBm */   0x25,   /* characterized as -19 dBm in datasheet */
//  118   /* -20 dBm */   0x25,
//  119   /* -21 dBm */   0x15,   /* characterized as -21 dBm in datasheet */
//  120   /* -22 dBm */   0x05    /* characterized as -23 dBm in datasheet */
//  121 };
//  122 #endif
//  123 
//  124 
//  125 /**************************************************************************************************
//  126  * @fn          macRadioTurnOnPower
//  127  *
//  128  * @brief       Logic and sequence for powering up the radio.
//  129  *
//  130  * @param       none
//  131  *
//  132  * @return      none
//  133  **************************************************************************************************
//  134  */

        RSEG BANKED_CODE:CODE:NOROOT(0)
//  135 void macRadioTurnOnPower(void)
macRadioTurnOnPower:
        CFI Block cfiBlock0 Using cfiCommon0
        CFI Function macRadioTurnOnPower
        CODE
//  136 {
        FUNCALL macRadioTurnOnPower, macMemWriteRam
        LOCFRAME ISTACK, 2, STACK
        LOCFRAME PSTACK, 0, STACK
        LOCFRAME XSTACK, 0, STACK
        LOCFRAME IOVERLAY, 0, STATIC
        LOCFRAME DOVERLAY, 0, STATIC
        ARGFRAME ISTACK, 2, STACK
        ARGFRAME PSTACK, 0, STACK
        ARGFRAME XSTACK, 0, STACK
        ARGFRAME IOVERLAY, 0, STATIC
        ARGFRAME DOVERLAY, 0, STATIC
        PUSH    DPL
        CFI DPL0 Frame(CFA_SP, 4)
        CFI CFA_SP SP+-4
        PUSH    DPH
        CFI DPH0 Frame(CFA_SP, 5)
        CFI CFA_SP SP+-5
        ; Saved register size: 2
        ; Auto size: 0
//  137   /* Enable RF error trap */
//  138   MAC_MCU_RFERR_ENABLE_INTERRUPT();
        MOV     DPTR,#0x61a5
        MOVX    A,@DPTR
        SETB    0xE0 /* A   */.2
        MOVX    @DPTR,A
//  139 
//  140 #if defined (HAL_PA_LNA) || defined (HAL_PA_LNA_CC2590)
//  141   /* AGCCTRL1 for CC2590 or CC2591 */
//  142   AGCCTRL1 = 0x16;
//  143 
//  144   /* CC2591 PA/LNA control configuration
//  145    *   P0_7 -> HGM
//  146    *   P1_1 -> PA_EN
//  147    *   P1_4 -> EN
//  148    */
//  149 
//  150   /* P0_7 */
//  151   HAL_PA_LNA_RX_HGM();
//  152 
//  153   /* P1_1 */
//  154   RFC_OBS_CTRL0 = RFC_OBS_CTRL_PA_PD_INV;
//  155   OBSSEL1       = OBSSEL1_OBS_CTRL0;
//  156 
//  157   /* P1_4 */
//  158   RFC_OBS_CTRL1 = RFC_OBS_CTRL_LNAMIX_PD_INV;
//  159   OBSSEL4       = OBSSEL4_OBS_CTRL4;
//  160 #endif /* defined (HAL_PA_LNA) || defined (HAL_PA_LNA_CC2590) */
//  161 
//  162   if (macChipVersion <= REV_B)
        MOV     DPTR,#macChipVersion
        MOVX    A,@DPTR
        CLR     C
        SUBB    A,#0x12
        JNC     ??macRadioTurnOnPower_0
//  163   {
//  164     /* radio initializations for disappearing RAM; PG1.0 and before only */
//  165     MAC_RADIO_SET_PAN_ID(macPib.panId);
        MOV     DPTR,#macPib + 29
        MOVX    A,@DPTR
        MOV     DPTR,#0x6172
        MOVX    @DPTR,A
        MOV     DPTR,#macPib + 30
        MOVX    A,@DPTR
        MOV     DPTR,#0x6173
        MOVX    @DPTR,A
//  166     MAC_RADIO_SET_SHORT_ADDR(macPib.shortAddress);
        MOV     DPTR,#macPib + 33
        MOVX    A,@DPTR
        MOV     DPTR,#0x6174
        MOVX    @DPTR,A
        MOV     DPTR,#macPib + 34
        MOVX    A,@DPTR
        MOV     DPTR,#0x6175
        MOVX    @DPTR,A
//  167     MAC_RADIO_SET_IEEE_ADDR(macPib.extendedAddress.addr.extAddr);
        ; Setup parameters for call to function macMemWriteRam
        MOV     R1,#0x8
        MOV     R4,#(macPib + 49) & 0xff
        MOV     R5,#((macPib + 49) >> 8) & 0xff
        MOV     R2,#0x6a
        MOV     R3,#0x61
        LCALL   ??macMemWriteRam?relay
        CFI EndBlock cfiBlock0
//  168   }
//  169 }
??macRadioTurnOnPower_0:
        REQUIRE ?Subroutine0
        ; // Fall through to label ?Subroutine0

        RSEG BANKED_CODE:CODE:NOROOT(0)
?Subroutine0:
        CFI Block cfiBlock1 Using cfiCommon0
        CFI NoFunction
        CFI CFA_SP SP+-5
        CFI DPL0 Frame(CFA_SP, 4)
        CFI DPH0 Frame(CFA_SP, 5)
        POP     DPH
        CFI CFA_SP SP+-4
        CFI DPH0 SameValue
        POP     DPL
        CFI CFA_SP SP+-3
        CFI DPL0 SameValue
        LJMP    ?BRET
        CFI EndBlock cfiBlock1
//  170 
//  171 
//  172 /**************************************************************************************************
//  173  * @fn          macRadioTurnOffPower
//  174  *
//  175  * @brief       Logic and sequence for powering down the radio.
//  176  *
//  177  * @param       none
//  178  *
//  179  * @return      none
//  180  **************************************************************************************************
//  181  */

        RSEG BANKED_CODE:CODE:NOROOT(0)
//  182 void macRadioTurnOffPower(void)
macRadioTurnOffPower:
        CFI Block cfiBlock2 Using cfiCommon0
        CFI Function macRadioTurnOffPower
        CODE
//  183 {
        PUSH    DPL
        CFI DPL0 Frame(CFA_SP, 4)
        CFI CFA_SP SP+-4
        PUSH    DPH
        CFI DPH0 Frame(CFA_SP, 5)
        CFI CFA_SP SP+-5
        ; Saved register size: 2
        ; Auto size: 0
//  184   /* Disable RF error trap */
//  185   MAC_MCU_RFERR_DISABLE_INTERRUPT();
        MOV     DPTR,#0x61a5
        MOVX    A,@DPTR
        CLR     0xE0 /* A   */.2
        MOVX    @DPTR,A
//  186 
//  187 #if defined (HAL_PA_LNA) || defined (HAL_PA_LNA_CC2590)
//  188   /* Make sure the HGM pin is low before entering sleep */
//  189   HAL_PA_LNA_RX_LGM();
//  190 #endif
//  191 }
        SJMP    ?Subroutine0
        CFI EndBlock cfiBlock2

        RSEG BANK_RELAYS:CODE:REORDER:NOROOT(0)
??macRadioTurnOnPower?relay:
        LCALL   ?BDISPATCH
        DATA
        DC24    macRadioTurnOnPower

        RSEG BANK_RELAYS:CODE:REORDER:NOROOT(0)
??macRadioTurnOffPower?relay:
        LCALL   ?BDISPATCH
        DATA
        DC24    macRadioTurnOffPower

        END
//  192 
//  193 
//  194 /**************************************************************************************************
//  195  *                                  Compile Time Integrity Checks
//  196  **************************************************************************************************
//  197  */
//  198 HAL_ASSERT_SIZE(macRadioDefsTxPowerTable, MAC_RADIO_TX_POWER_MAX_DBM+1);  /* array size mismatch */
//  199 
//  200 #if (HAL_CPU_CLOCK_MHZ != 32)
//  201 #error "ERROR: The only tested/supported clock speed is 32 MHz."
//  202 #endif
//  203 
//  204 #if (MAC_RADIO_RECEIVER_SENSITIVITY_DBM > MAC_SPEC_MIN_RECEIVER_SENSITIVITY)
//  205 #error "ERROR: Radio sensitivity does not meet specification."
//  206 #endif
//  207 
//  208 #if defined (HAL_PA_LNA) && defined (HAL_PA_LNA_CC2590)
//  209 #error "ERROR: HAL_PA_LNA and HAL_PA_LNA_CC2590 cannot be both defined."
//  210 #endif
//  211 
//  212 /**************************************************************************************************
//  213  */
// 
// 85 bytes in segment BANKED_CODE
// 12 bytes in segment BANK_RELAYS
// 23 bytes in segment CODE_C
// 
// 120 bytes of CODE memory
//
//Errors: none
//Warnings: none
