###############################################################################
#                                                                             #
# IAR C/C++ Compiler V8.10.3.10338/W32 for 8051         07/Jun/2017  10:59:11 #
# Copyright 2004-2011 IAR Systems AB.                                         #
#                                                                             #
#    Core               =  plain                                              #
#    Code model         =  banked                                             #
#    Data model         =  large                                              #
#    Calling convention =  xdata reentrant                                    #
#    Constant location  =  data_rom                                           #
#    Dptr setup         =  1,16                                               #
#    Source file        =  F:\zigbee\zigbee\ZIGBEE_EB2530\µÚ6ÕÂ               #
#                          Êµ¼ùÏîÄ¿\WSN_ZigBee\Components\stack\zdo\ZDNwkMgr. #
#                          c                                                  #
#    Command line       =  -f "F:\zigbee\zigbee\ZIGBEE_EB2530\µÚ6ÕÂ           #
#                          Êµ¼ùÏîÄ¿\WSN_ZigBee\Projects\zstack\Utilities\Seri #
#                          alApp\CC2530DB\..\..\..\Tools\CC2530DB\f8wCoord.cf #
#                          g" (-DCPU32MHZ -DROOT=__near_func                  #
#                          -DMAC_CFG_APP_PENDING_QUEUE=TRUE                   #
#                          -DZDO_COORDINATOR -DRTR_NWK -DBLINK_LEDS) -f       #
#                          "F:\zigbee\zigbee\ZIGBEE_EB2530\µÚ6ÕÂ              #
#                          Êµ¼ùÏîÄ¿\WSN_ZigBee\Projects\zstack\Utilities\Seri #
#                          alApp\CC2530DB\..\..\..\Tools\CC2530DB\f8wConfig.c #
#                          fg" (-DSECURE=0 -DZG_SECURE_DYNAMIC=0 -DREFLECTOR  #
#                          -DDEFAULT_CHANLIST=0x00000800                      #
#                          -DZDAPP_CONFIG_PAN_ID=0xFFF1                       #
#                          -DNWK_START_DELAY=100 -DEXTENDED_JOINING_RANDOM_MA #
#                          SK=0x007F -DBEACON_REQUEST_DELAY=100               #
#                          -DBEACON_REQ_DELAY_MASK=0x00FF                     #
#                          -DROUTE_EXPIRY_TIME=30 -DAPSC_ACK_WAIT_DURATION_PO #
#                          LLED=3000 -DNWK_INDIRECT_MSG_TIMEOUT=7             #
#                          -DMAX_RREQ_ENTRIES=8 -DAPSC_MAX_FRAME_RETRIES=3    #
#                          -DNWK_MAX_DATA_RETRIES=2                           #
#                          -DMAX_POLL_FAILURE_RETRIES=2 -DMAX_BCAST=9         #
#                          -DAPS_MAX_GROUPS=16 -DMAX_RTG_ENTRIES=40           #
#                          -DNWK_MAX_BINDING_ENTRIES=4                        #
#                          -DMAX_BINDING_CLUSTER_IDS=4 "-DDEFAULT_KEY={0x01,  #
#                          0x03, 0x05, 0x07, 0x09, 0x0B, 0x0D, 0x0F, 0x00,    #
#                          0x02, 0x04, 0x06, 0x08, 0x0A, 0x0C, 0x0D}"         #
#                          -DMAC_MAX_FRAME_SIZE=116 "-DCONST=const __code"    #
#                          -DGENERIC=__generic -DRFD_RCVC_ALWAYS_ON=FALSE     #
#                          -DPOLL_RATE=1000 -DQUEUED_POLL_RATE=100            #
#                          -DRESPONSE_POLL_RATE=100) -DREJOIN_POLL_RATE=440   #
#                          "F:\zigbee\zigbee\ZIGBEE_EB2530\µÚ6ÕÂ              #
#                          Êµ¼ùÏîÄ¿\WSN_ZigBee\Components\stack\zdo\ZDNwkMgr. #
#                          c" -D ZIGBEEPRO -D HAL_UART=TRUE -D                #
#                          SERIAL_APP_PORT=0 -D LCD_SUPPORTED -D NV_RESTORE   #
#                          -lC "F:\zigbee\zigbee\ZIGBEE_EB2530\µÚ6ÕÂ          #
#                          Êµ¼ùÏîÄ¿\WSN_ZigBee\Projects\zstack\Utilities\Seri #
#                          alApp\CC2530DB\CoordinatorEB-Pro\List\" -lA        #
#                          "F:\zigbee\zigbee\ZIGBEE_EB2530\µÚ6ÕÂ              #
#                          Êµ¼ùÏîÄ¿\WSN_ZigBee\Projects\zstack\Utilities\Seri #
#                          alApp\CC2530DB\CoordinatorEB-Pro\List\"            #
#                          --diag_suppress Pe001,Pa010 -o                     #
#                          "F:\zigbee\zigbee\ZIGBEE_EB2530\µÚ6ÕÂ              #
#                          Êµ¼ùÏîÄ¿\WSN_ZigBee\Projects\zstack\Utilities\Seri #
#                          alApp\CC2530DB\CoordinatorEB-Pro\Obj\" -e --debug  #
#                          --core=plain --dptr=16,1 --data_model=large        #
#                          --code_model=banked --calling_convention=xdata_ree #
#                          ntrant --place_constants=data_rom                  #
#                          --nr_virtual_regs 8 -I "F:\zigbee\zigbee\ZIGBEE_EB #
#                          2530\µÚ6ÕÂ Êµ¼ùÏîÄ¿\WSN_ZigBee\Projects\zstack\Uti #
#                          lities\SerialApp\CC2530DB\" -I                     #
#                          "F:\zigbee\zigbee\ZIGBEE_EB2530\µÚ6ÕÂ              #
#                          Êµ¼ùÏîÄ¿\WSN_ZigBee\Projects\zstack\Utilities\Seri #
#                          alApp\CC2530DB\..\SOURCE\" -I                      #
#                          "F:\zigbee\zigbee\ZIGBEE_EB2530\µÚ6ÕÂ              #
#                          Êµ¼ùÏîÄ¿\WSN_ZigBee\Projects\zstack\Utilities\Seri #
#                          alApp\CC2530DB\..\..\..\ZMAIN\TI2530DB\" -I        #
#                          "F:\zigbee\zigbee\ZIGBEE_EB2530\µÚ6ÕÂ              #
#                          Êµ¼ùÏîÄ¿\WSN_ZigBee\Projects\zstack\Utilities\Seri #
#                          alApp\CC2530DB\..\..\..\..\..\COMPONENTS\MT\" -I   #
#                          "F:\zigbee\zigbee\ZIGBEE_EB2530\µÚ6ÕÂ              #
#                          Êµ¼ùÏîÄ¿\WSN_ZigBee\Projects\zstack\Utilities\Seri #
#                          alApp\CC2530DB\..\..\..\..\..\COMPONENTS\HAL\INCLU #
#                          DE\" -I "F:\zigbee\zigbee\ZIGBEE_EB2530\µÚ6ÕÂ      #
#                          Êµ¼ùÏîÄ¿\WSN_ZigBee\Projects\zstack\Utilities\Seri #
#                          alApp\CC2530DB\..\..\..\..\..\COMPONENTS\HAL\TARGE #
#                          T\CC2530EB\" -I "F:\zigbee\zigbee\ZIGBEE_EB2530\µÚ #
#                          6ÕÂ Êµ¼ùÏîÄ¿\WSN_ZigBee\Projects\zstack\Utilities\ #
#                          SerialApp\CC2530DB\..\..\..\..\..\COMPONENTS\OSAL\ #
#                          MCU\CCSOC\" -I "F:\zigbee\zigbee\ZIGBEE_EB2530\µÚ6 #
#                          ÕÂ Êµ¼ùÏîÄ¿\WSN_ZigBee\Projects\zstack\Utilities\S #
#                          erialApp\CC2530DB\..\..\..\..\..\COMPONENTS\OSAL\I #
#                          NCLUDE\" -I "F:\zigbee\zigbee\ZIGBEE_EB2530\µÚ6ÕÂ  #
#                          Êµ¼ùÏîÄ¿\WSN_ZigBee\Projects\zstack\Utilities\Seri #
#                          alApp\CC2530DB\..\..\..\..\..\COMPONENTS\STACK\AF\ #
#                          " -I "F:\zigbee\zigbee\ZIGBEE_EB2530\µÚ6ÕÂ         #
#                          Êµ¼ùÏîÄ¿\WSN_ZigBee\Projects\zstack\Utilities\Seri #
#                          alApp\CC2530DB\..\..\..\..\..\COMPONENTS\STACK\NWK #
#                          \" -I "F:\zigbee\zigbee\ZIGBEE_EB2530\µÚ6ÕÂ        #
#                          Êµ¼ùÏîÄ¿\WSN_ZigBee\Projects\zstack\Utilities\Seri #
#                          alApp\CC2530DB\..\..\..\..\..\COMPONENTS\STACK\SEC #
#                          \" -I "F:\zigbee\zigbee\ZIGBEE_EB2530\µÚ6ÕÂ        #
#                          Êµ¼ùÏîÄ¿\WSN_ZigBee\Projects\zstack\Utilities\Seri #
#                          alApp\CC2530DB\..\..\..\..\..\COMPONENTS\STACK\SAP #
#                          I\" -I "F:\zigbee\zigbee\ZIGBEE_EB2530\µÚ6ÕÂ       #
#                          Êµ¼ùÏîÄ¿\WSN_ZigBee\Projects\zstack\Utilities\Seri #
#                          alApp\CC2530DB\..\..\..\..\..\COMPONENTS\STACK\SYS #
#                          \" -I "F:\zigbee\zigbee\ZIGBEE_EB2530\µÚ6ÕÂ        #
#                          Êµ¼ùÏîÄ¿\WSN_ZigBee\Projects\zstack\Utilities\Seri #
#                          alApp\CC2530DB\..\..\..\..\..\COMPONENTS\STACK\ZDO #
#                          \" -I "F:\zigbee\zigbee\ZIGBEE_EB2530\µÚ6ÕÂ        #
#                          Êµ¼ùÏîÄ¿\WSN_ZigBee\Projects\zstack\Utilities\Seri #
#                          alApp\CC2530DB\..\..\..\..\..\COMPONENTS\ZMAC\F8W\ #
#                          " -I "F:\zigbee\zigbee\ZIGBEE_EB2530\µÚ6ÕÂ         #
#                          Êµ¼ùÏîÄ¿\WSN_ZigBee\Projects\zstack\Utilities\Seri #
#                          alApp\CC2530DB\..\..\..\..\..\COMPONENTS\ZMAC\"    #
#                          -I "F:\zigbee\zigbee\ZIGBEE_EB2530\µÚ6ÕÂ           #
#                          Êµ¼ùÏîÄ¿\WSN_ZigBee\Projects\zstack\Utilities\Seri #
#                          alApp\CC2530DB\..\..\..\..\..\COMPONENTS\SERVICES\ #
#                          SADDR\" -I "F:\zigbee\zigbee\ZIGBEE_EB2530\µÚ6ÕÂ   #
#                          Êµ¼ùÏîÄ¿\WSN_ZigBee\Projects\zstack\Utilities\Seri #
#                          alApp\CC2530DB\..\..\..\..\..\COMPONENTS\SERVICES\ #
#                          SDATA\" -I "F:\zigbee\zigbee\ZIGBEE_EB2530\µÚ6ÕÂ   #
#                          Êµ¼ùÏîÄ¿\WSN_ZigBee\Projects\zstack\Utilities\Seri #
#                          alApp\CC2530DB\..\..\..\..\..\COMPONENTS\MAC\INCLU #
#                          DE\" -I "F:\zigbee\zigbee\ZIGBEE_EB2530\µÚ6ÕÂ      #
#                          Êµ¼ùÏîÄ¿\WSN_ZigBee\Projects\zstack\Utilities\Seri #
#                          alApp\CC2530DB\..\..\..\..\..\COMPONENTS\MAC\HIGH_ #
#                          LEVEL\" -I "F:\zigbee\zigbee\ZIGBEE_EB2530\µÚ6ÕÂ   #
#                          Êµ¼ùÏîÄ¿\WSN_ZigBee\Projects\zstack\Utilities\Seri #
#                          alApp\CC2530DB\..\..\..\..\..\COMPONENTS\MAC\LOW_L #
#                          EVEL\srf04\" -I "F:\zigbee\zigbee\ZIGBEE_EB2530\µÚ #
#                          6ÕÂ Êµ¼ùÏîÄ¿\WSN_ZigBee\Projects\zstack\Utilities\ #
#                          SerialApp\CC2530DB\..\..\..\..\..\COMPONENTS\MAC\L #
#                          OW_LEVEL\srf04\SINGLE_CHIP\" -Ohz                  #
#                          --require_prototypes                               #
#    List file          =  F:\zigbee\zigbee\ZIGBEE_EB2530\µÚ6ÕÂ               #
#                          Êµ¼ùÏîÄ¿\WSN_ZigBee\Projects\zstack\Utilities\Seri #
#                          alApp\CC2530DB\CoordinatorEB-Pro\List\ZDNwkMgr.lst #
#    Object file        =  F:\zigbee\zigbee\ZIGBEE_EB2530\µÚ6ÕÂ               #
#                          Êµ¼ùÏîÄ¿\WSN_ZigBee\Projects\zstack\Utilities\Seri #
#                          alApp\CC2530DB\CoordinatorEB-Pro\Obj\ZDNwkMgr.r51  #
#                                                                             #
#                                                                             #
###############################################################################

F:\zigbee\zigbee\ZIGBEE_EB2530\µÚ6ÕÂ Êµ¼ùÏîÄ¿\WSN_ZigBee\Components\stack\zdo\ZDNwkMgr.c
      1          /**************************************************************************************************
      2            Filename:       ZDNwkMgr.c
      3            Revised:        $Date: 2007-10-17 15:38:45 -0700 (Wed, 17 Oct 2007) $
      4            Revision:       $Revision: 15716 $
      5          
      6            Description:    The ZigBee Network Manager.
      7          
      8          
      9            Copyright 2007 Texas Instruments Incorporated. All rights reserved.
     10          
     11            IMPORTANT: Your use of this Software is limited to those specific rights
     12            granted under the terms of a software license agreement between the user
     13            who downloaded the software, his/her employer (which must be your employer)
     14            and Texas Instruments Incorporated (the "License").  You may not use this
     15            Software unless you agree to abide by the terms of the License. The License
     16            limits your use, and you acknowledge, that the Software may not be modified,
     17            copied or distributed unless embedded on a Texas Instruments microcontroller
     18            or used solely and exclusively in conjunction with a Texas Instruments radio
     19            frequency transceiver, which is integrated into your product.  Other than for
     20            the foregoing purpose, you may not use, reproduce, copy, prepare derivative
     21            works of, modify, distribute, perform, display or sell this Software and/or
     22            its documentation for any purpose.
     23          
     24            YOU FURTHER ACKNOWLEDGE AND AGREE THAT THE SOFTWARE AND DOCUMENTATION ARE
     25            PROVIDED “AS IS” WITHOUT WARRANTY OF ANY KIND, EITHER EXPRESS OR IMPLIED, 
     26            INCLUDING WITHOUT LIMITATION, ANY WARRANTY OF MERCHANTABILITY, TITLE, 
     27            NON-INFRINGEMENT AND FITNESS FOR A PARTICULAR PURPOSE. IN NO EVENT SHALL
     28            TEXAS INSTRUMENTS OR ITS LICENSORS BE LIABLE OR OBLIGATED UNDER CONTRACT,
     29            NEGLIGENCE, STRICT LIABILITY, CONTRIBUTION, BREACH OF WARRANTY, OR OTHER
     30            LEGAL EQUITABLE THEORY ANY DIRECT OR INDIRECT DAMAGES OR EXPENSES
     31            INCLUDING BUT NOT LIMITED TO ANY INCIDENTAL, SPECIAL, INDIRECT, PUNITIVE
     32            OR CONSEQUENTIAL DAMAGES, LOST PROFITS OR LOST DATA, COST OF PROCUREMENT
     33            OF SUBSTITUTE GOODS, TECHNOLOGY, SERVICES, OR ANY CLAIMS BY THIRD PARTIES
     34            (INCLUDING BUT NOT LIMITED TO ANY DEFENSE THEREOF), OR OTHER SIMILAR COSTS.
     35          
     36            Should you have any questions regarding your right to use this Software,
     37            contact Texas Instruments Incorporated at www.TI.com. 
     38          **************************************************************************************************/
     39          
     40          #ifdef __cplusplus
     41          extern "C"
     42          {
     43          #endif
     44          
     45          /******************************************************************************
     46           * INCLUDES
     47           */
     48          #include "ZComdef.h"
     49          #include "nwk_util.h"
     50          #include "ZDApp.h"
     51          #include "ZDObject.h"
     52          #include "ZGlobals.h"
     53          #include "ZDNwkMgr.h"
     54          
     55          #if defined( MT_ZDO_FUNC )
     56            #include "MT_ZDO.h"
     57          #endif
     58            
     59          #if defined ( LCD_SUPPORTED )
     60            #include "OnBoard.h"
     61          #endif
     62          
     63          /* HAL */
     64          #include "hal_lcd.h"
     65            
     66          /******************************************************************************
     67           * CONSTANTS
     68           */
     69          
     70          #define ONE_MINUTE             60000  // 1(m) * 60(s) * 1000(ms)
     71          
     72          #if defined ( LCD_SUPPORTED )

   \                                 In  segment XDATA_ROM_C, align 1
     73            const char NwkMgrStr_1[]     = "NM-fail not hi";
   \                     NwkMgrStr_1:
   \   000000   4E4D2D66     DB "NM-fail not hi"
   \            61696C20
   \            6E6F7420
   \            686900  

   \                                 In  segment XDATA_ROM_C, align 1
     74            const char NwkMgrStr_2[]     = "NM-cur<last fail";
   \                     NwkMgrStr_2:
   \   000000   4E4D2D63     DB "NM-cur<last fail"
   \            75723C6C
   \            61737420
   \            6661696C
   \            00      

   \                                 In  segment XDATA_ROM_C, align 1
     75            const char NwkMgrStr_3[]     = "NM-energy too hi";
   \                     NwkMgrStr_3:
   \   000000   4E4D2D65     DB "NM-energy too hi"
   \            6E657267
   \            7920746F
   \            6F206869
   \            00      

   \                                 In  segment XDATA_ROM_C, align 1
     76            const char NwkMgrStr_4[]     = "NM-energy not up";
   \                     NwkMgrStr_4:
   \   000000   4E4D2D65     DB "NM-energy not up"
   \            6E657267
   \            79206E6F
   \            74207570
   \            00      
     77          #endif
     78            
     79          /******************************************************************************
     80           * TYPEDEFS
     81           */
     82          
     83          /*********************************************************************
     84           * GLOBAL VARIABLES
     85           */
     86            
     87          // Task ID for internal task/event processing. This variable will be
     88          // received when ZDNwkMgr_Init() is called.

   \                                 In  segment XDATA_Z, align 1, keep-with-next
     89          uint8 ZDNwkMgr_TaskID = 0;
   \                     ZDNwkMgr_TaskID:
   \   000000                DS 1
   \   000001                REQUIRE __INIT_XDATA_Z
     90          
     91          /******************************************************************************
     92           * LOCAL VARIABLES
     93           */
     94          
     95          // Frequency Agility variables

   \                                 In  segment XDATA_Z, align 1, keep-with-next
     96          uint8 ZDNwkMgr_MgmtNwkUpdateNotifyTransSeq = 0;
   \                     ZDNwkMgr_MgmtNwkUpdateNotifyTransSeq:
   \   000000                DS 1
   \   000001                REQUIRE __INIT_XDATA_Z

   \                                 In  segment XDATA_Z, align 1, keep-with-next
     97          zAddrType_t ZDNwkMgr_MgmtNwkUpdateNotifyAddr;
   \                     ZDNwkMgr_MgmtNwkUpdateNotifyAddr:
   \   000000                DS 9
   \   000009                REQUIRE __INIT_XDATA_Z

   \                                 In  segment XDATA_Z, align 1, keep-with-next
     98          uint16 ZDNwkMgr_UpdateNotifyTimer = 0;
   \                     ZDNwkMgr_UpdateNotifyTimer:
   \   000000                DS 2
   \   000002                REQUIRE __INIT_XDATA_Z

   \                                 In  segment XDATA_Z, align 1, keep-with-next
     99          uint8  ZDNwkMgr_NumUpdateNotifySent = 0;
   \                     ZDNwkMgr_NumUpdateNotifySent:
   \   000000                DS 1
   \   000001                REQUIRE __INIT_XDATA_Z

   \                                 In  segment XDATA_Z, align 1, keep-with-next
    100          uint8  ZDNwkMgr_WaitingForNotifyConfirm = FALSE;
   \                     ZDNwkMgr_WaitingForNotifyConfirm:
   \   000000                DS 1
   \   000001                REQUIRE __INIT_XDATA_Z

   \                                 In  segment XDATA_Z, align 1, keep-with-next
    101          uint16 ZDNwkMgr_TotalTransmissions;
   \                     ZDNwkMgr_TotalTransmissions:
   \   000000                DS 2
   \   000002                REQUIRE __INIT_XDATA_Z

   \                                 In  segment XDATA_Z, align 1, keep-with-next
    102          uint16 ZDNwkMgr_TxFailures;
   \                     ZDNwkMgr_TxFailures:
   \   000000                DS 2
   \   000002                REQUIRE __INIT_XDATA_Z
    103          

   \                                 In  segment XDATA_Z, align 1, keep-with-next
    104          ZDO_MgmtNwkUpdateReq_t ZDNwkMgr_MgmtNwkUpdateReq;
   \                     ZDNwkMgr_MgmtNwkUpdateReq:
   \   000000                DS 9
   \   000009                REQUIRE __INIT_XDATA_Z
    105            
    106          #if defined ( NWK_MANAGER )
    107          uint16 ZDNwkMgr_UpdateRequestTimer = 0;
    108          uint8  ZDNwkMgr_LastChannelEnergy = 0;
    109          uint16 ZDNwkMgr_LastChannelFailureRate = 0;
    110          #endif // NWK_MANAGER
    111          

   \                                 In  segment XDATA_Z, align 1, keep-with-next
    112          uint8 ZDNwkMgr_NewChannel;
   \                     ZDNwkMgr_NewChannel:
   \   000000                DS 1
   \   000001                REQUIRE __INIT_XDATA_Z
    113          
    114          // PAN ID Conflict variables
    115          #if defined ( NWK_MANAGER )
    116          uint8 ZDNwkMgr_PanIdUpdateInProgress = FALSE;
    117          #endif // NWK_MANAGER
    118          
    119          /*********************************************************************
    120           * GLOBAL FUNCTIONS
    121           */
    122          // Freguency Agility functions

   \                                 In  segment XDATA_Z, align 1, keep-with-next
    123          void (*pZDNwkMgr_ReportChannelInterference)( NLME_ChanInterference_t *chanInterference ) = NULL;
   \                     pZDNwkMgr_ReportChannelInterference:
   \   000000                DS 2
   \   000002                REQUIRE __INIT_XDATA_Z

   \                                 In  segment XDATA_Z, align 1, keep-with-next
    124          void (*pZDNwkMgr_ProcessDataConfirm)( afDataConfirm_t *afDataConfirm ) = NULL;
   \                     pZDNwkMgr_ProcessDataConfirm:
   \   000000                DS 2
   \   000002                REQUIRE __INIT_XDATA_Z

   \                                 In  segment XDATA_Z, align 1, keep-with-next
    125          void (*pZDNwkMgr_EDScanConfirmCB)( NLME_EDScanConfirm_t *EDScanConfirm ) = NULL;
   \                     pZDNwkMgr_EDScanConfirmCB:
   \   000000                DS 2
   \   000002                REQUIRE __INIT_XDATA_Z
    126          
    127          // PAN ID Conflict functions

   \                                 In  segment XDATA_Z, align 1, keep-with-next
    128          void (*pZDNwkMgr_NetworkReportCB)( ZDNwkMgr_NetworkReport_t *pReport ) = NULL;
   \                     pZDNwkMgr_NetworkReportCB:
   \   000000                DS 2
   \   000002                REQUIRE __INIT_XDATA_Z

   \                                 In  segment XDATA_Z, align 1, keep-with-next
    129          void (*pZDNwkMgr_NetworkUpdateCB)( ZDNwkMgr_NetworkUpdate_t *pUpdate ) = NULL;
   \                     pZDNwkMgr_NetworkUpdateCB:
   \   000000                DS 2
   \   000002                REQUIRE __INIT_XDATA_Z
    130          
    131          /******************************************************************************
    132           * LOCAL FUNCTIONS
    133           */
    134          
    135          void ZDNwkMgr_ProcessServerDiscRsp( zdoIncomingMsg_t *inMsg );
    136          void ZDNwkMgr_SetNwkManagerAddr( uint16 nwkManagerAddr );
    137          
    138          // Frequency Agility functions
    139          static void ZDNwkMgr_ProcessMsgCBs( zdoIncomingMsg_t *inMsg );
    140          
    141          static void ZDNwkMgr_ProcessMgmtNwkUpdateReq( zdoIncomingMsg_t *inMsg );
    142          static void ZDNwkMgr_ProcessChannelInterference( ZDNwkMgr_ChanInterference_t *pChanInterference );
    143          static void ZDNwkMgr_ProcessEDScanConfirm( ZDNwkMgr_EDScanConfirm_t *pEDScanConfirm );
    144          static void ZDNwkMgr_CheckForChannelInterference( ZDNwkMgr_EDScanConfirm_t *pEDScanConfirm );
    145          static void ZDNwkMgr_BuildAndSendUpdateNotify( uint8 TransSeq, zAddrType_t *dstAddr,
    146                                                         uint16 totalTransmissions, uint16 txFailures,
    147                                                         ZDNwkMgr_EDScanConfirm_t *pEDScanConfirm, uint8 txOptions );
    148          void ZDNwkMgr_EDScanConfirmCB( NLME_EDScanConfirm_t *EDScanConfirm );
    149          void ZDNwkMgr_ProcessDataConfirm( afDataConfirm_t *afDataConfirm );
    150          void ZDNwkMgr_ReportChannelInterference( NLME_ChanInterference_t *chanInterference );
    151          
    152          #if defined ( NWK_MANAGER )
    153          static void ZDNwkMgr_ProcessMgmtNwkUpdateNotify( zdoIncomingMsg_t *inMsg );
    154          static void ZDNwkMgr_CheckForChannelChange( ZDO_MgmtNwkUpdateNotify_t *pNotify );
    155          #endif // NWK_MANAGER
    156          
    157          // PAN ID Conflict functions
    158          #if defined ( NWK_MANAGER )
    159          void ZDNwkMgr_NetworkReportCB( ZDNwkMgr_NetworkReport_t *pReport );
    160          void ZDNwkMgr_NetworkUpdateCB( ZDNwkMgr_NetworkUpdate_t *pUpdate );
    161          
    162          void ZDNwkMgr_ProcessNetworkReport( ZDNwkMgr_NetworkReport_t *pNetworkReport );
    163          void ZDNwkMgr_ProcessNetworkUpdate( ZDNwkMgr_NetworkUpdate_t *pNetworkUpdate );
    164          #endif // NWK_MANAGER
    165          
    166          /*********************************************************************
    167           * @fn      ZDNwkMgr_Init
    168           *
    169           * @brief   Initialization function for the Network Manager Task.
    170           *          This is called during initialization and should contain
    171           *          any application specific initialization (ie. hardware
    172           *          initialization/setup, table initialization, power up
    173           *          notificaiton ... ).
    174           *
    175           * @param   task_id - the ID assigned by OSAL.  This ID should be
    176           *                    used to send messages and set timers.
    177           *
    178           * @return  none
    179           */

   \                                 In  segment BANKED_CODE, align 1, keep-with-next
    180          void ZDNwkMgr_Init( byte task_id )
   \                     ZDNwkMgr_Init:
    181          {
   \   000000   74F7         MOV     A,#-0x9
   \   000002   12....       LCALL   ?BANKED_ENTER_XDATA
   \   000005                ; Saved register size: 9
   \   000005                ; Auto size: 0
   \   000005   E9           MOV     A,R1
    182            // Save the task ID
    183            ZDNwkMgr_TaskID = task_id;
   \   000006   90....       MOV     DPTR,#ZDNwkMgr_TaskID
   \   000009   F0           MOVX    @DPTR,A
    184          
    185            ZDO_RegisterForZDOMsg( ZDNwkMgr_TaskID, Server_Discovery_rsp );
   \   00000A                ; Setup parameters for call to function ZDO_RegisterForZDOMsg
   \   00000A   7A15         MOV     R2,#0x15
   \   00000C   7B80         MOV     R3,#-0x80
   \   00000E   12....       LCALL   ??ZDO_RegisterForZDOMsg?relay
    186          
    187            // Frequecy Agility initialization
    188            ZDO_RegisterForZDOMsg( ZDNwkMgr_TaskID, Mgmt_NWK_Update_req );
   \   000011                ; Setup parameters for call to function ZDO_RegisterForZDOMsg
   \   000011   7A38         MOV     R2,#0x38
   \   000013   7B00         MOV     R3,#0x0
   \   000015   90....       MOV     DPTR,#ZDNwkMgr_TaskID
   \   000018   E0           MOVX    A,@DPTR
   \   000019   F9           MOV     R1,A
   \   00001A   12....       LCALL   ??ZDO_RegisterForZDOMsg?relay
    189          #if defined ( NWK_MANAGER )
    190            ZDO_RegisterForZDOMsg( ZDNwkMgr_TaskID, Mgmt_NWK_Update_notify );
    191          #endif // NWK_MANAGER
    192          
    193            pZDNwkMgr_EDScanConfirmCB = ZDNwkMgr_EDScanConfirmCB;
   \   00001D   90....       MOV     DPTR,#pZDNwkMgr_EDScanConfirmCB
   \   000020   74..         MOV     A,#??ZDNwkMgr_EDScanConfirmCB?relay & 0xff
   \   000022   F0           MOVX    @DPTR,A
   \   000023   A3           INC     DPTR
   \   000024   74..         MOV     A,#(??ZDNwkMgr_EDScanConfirmCB?relay >> 8) & 0xff
   \   000026   F0           MOVX    @DPTR,A
    194            pZDNwkMgr_ProcessDataConfirm = ZDNwkMgr_ProcessDataConfirm;
   \   000027   90....       MOV     DPTR,#pZDNwkMgr_ProcessDataConfirm
   \   00002A   74..         MOV     A,#??ZDNwkMgr_ProcessDataConfirm?relay & 0xff
   \   00002C   F0           MOVX    @DPTR,A
   \   00002D   A3           INC     DPTR
   \   00002E   74..         MOV     A,#(??ZDNwkMgr_ProcessDataConfirm?relay >> 8) & 0xff
   \   000030   F0           MOVX    @DPTR,A
    195            pZDNwkMgr_ReportChannelInterference = ZDNwkMgr_ReportChannelInterference;
   \   000031   90....       MOV     DPTR,#pZDNwkMgr_ReportChannelInterference
   \   000034   74..         MOV     A,#??ZDNwkMgr_ReportChannelInterference?relay & 0xff
   \   000036   F0           MOVX    @DPTR,A
   \   000037   A3           INC     DPTR
   \   000038   74..         MOV     A,#(??ZDNwkMgr_ReportChannelInterference?relay >> 8) & 0xff
   \   00003A   F0           MOVX    @DPTR,A
    196            
    197            // PAN ID Conflict initialization
    198          #if defined ( NWK_MANAGER )
    199            pZDNwkMgr_NetworkReportCB = ZDNwkMgr_NetworkReportCB;
    200            pZDNwkMgr_NetworkUpdateCB = ZDNwkMgr_NetworkUpdateCB;
    201          #endif // NWK_MANAGER
    202            
    203            ZDNwkMgr_MgmtNwkUpdateNotifyAddr.addrMode = Addr16Bit;
   \   00003B   90....       MOV     DPTR,#ZDNwkMgr_MgmtNwkUpdateNotifyAddr + 8
   \   00003E   7402         MOV     A,#0x2
   \   000040   F0           MOVX    @DPTR,A
    204            ZDNwkMgr_MgmtNwkUpdateNotifyAddr.addr.shortAddr = INVALID_NODE_ADDR;
   \   000041   90....       MOV     DPTR,#ZDNwkMgr_MgmtNwkUpdateNotifyAddr
   \   000044   74FE         MOV     A,#-0x2
   \   000046   F0           MOVX    @DPTR,A
   \   000047   A3           INC     DPTR
   \   000048   04           INC     A
   \   000049   F0           MOVX    @DPTR,A
    205          }
   \   00004A                REQUIRE ?Subroutine0
   \   00004A                ; // Fall through to label ?Subroutine0

   \                                 In  segment BANKED_CODE, align 1, keep-with-next
   \                     ?Subroutine0:
   \   000000   7F01         MOV     R7,#0x1
   \   000002   02....       LJMP    ?BANKED_LEAVE_XDATA
    206          
    207          /*********************************************************************
    208           * @fn      ZDNwkMgr_event_loop
    209           *
    210           * @brief   Main event loop for the Network Manager task. This function
    211           *          is called to process all events for the task.  Events
    212           *          include timers, messages and any other user defined events.
    213           *
    214           * @param   task_id  - The OSAL assigned task ID.
    215           * @param   events - events to process.  This is a bit map and can
    216           *                   contain more than one event.
    217           *
    218           * @return  none
    219           */

   \                                 In  segment BANKED_CODE, align 1, keep-with-next
    220          UINT16 ZDNwkMgr_event_loop( byte task_id, UINT16 events )
   \                     ZDNwkMgr_event_loop:
    221          {
   \   000000   74F2         MOV     A,#-0xe
   \   000002   12....       LCALL   ?BANKED_ENTER_XDATA
   \   000005                ; Saved register size: 14
   \   000005                ; Auto size: 0
   \   000005   EA           MOV     A,R2
   \   000006   FE           MOV     R6,A
   \   000007   EB           MOV     A,R3
   \   000008   FF           MOV     R7,A
    222            osal_event_hdr_t *msgPtr;
    223            (void)task_id;  // Intentionally unreferenced parameter
    224          
    225            if ( events & SYS_EVENT_MSG )
   \   000009   5480         ANL     A,#0x80
   \   00000B   7003         JNZ     $+5
   \   00000D   02....       LJMP    ??ZDNwkMgr_event_loop_0 & 0xFFFF
    226            {
    227              msgPtr = (osal_event_hdr_t *)osal_msg_receive( ZDNwkMgr_TaskID );
   \   000010                ; Setup parameters for call to function osal_msg_receive
   \   000010   8044         SJMP    ??ZDNwkMgr_event_loop_1
   \                     ??ZDNwkMgr_event_loop_2:
   \   000012                ; Setup parameters for call to function nwkTransmissionFailures
    228              while ( msgPtr )
    229              {
    230                switch ( msgPtr->event )
    231                {
    232                  case ZDO_CB_MSG:
    233                    // ZDO sends the message that we registered for
    234                    ZDNwkMgr_ProcessMsgCBs( (zdoIncomingMsg_t *)msgPtr );
    235                    break;
    236                   
    237                  case NM_CHANNEL_INTERFERE:
    238                    // NWK layer sends the message when it detectes Channel Interference
    239                    ZDNwkMgr_ProcessChannelInterference( (ZDNwkMgr_ChanInterference_t *)msgPtr );
    240                    break;
    241             
    242                  case NM_ED_SCAN_CONFIRM:
    243                    // NWK layer sends the message when it receives an ED scan confirmation
    244                    ZDNwkMgr_ProcessEDScanConfirm( (ZDNwkMgr_EDScanConfirm_t *)msgPtr );
   \   000012   7900         MOV     R1,#0x0
   \   000014   12....       LCALL   ??nwkTransmissionFailures?relay
   \   000017   8A..         MOV     ?V0 + 2,R2
   \   000019   8B..         MOV     ?V0 + 3,R3
   \   00001B                ; Setup parameters for call to function ZDNwkMgr_BuildAndSendUpdateNotify
   \   00001B   75..00       MOV     ?V0 + 4,#0x0
   \   00001E   78..         MOV     R0,#?V0 + 4
   \   000020   12....       LCALL   ?PUSH_XSTACK_I_ONE
   \   000023   78..         MOV     R0,#?V0 + 0
   \   000025   12....       LCALL   ?PUSH_XSTACK_I_TWO
   \   000028   78..         MOV     R0,#?V0 + 2
   \   00002A   12....       LCALL   ?PUSH_XSTACK_I_TWO
   \   00002D   90....       MOV     DPTR,#_NIB + 107
   \   000030   12....       LCALL   ?Subroutine10 & 0xFFFF
   \                     ??CrossCallReturnLabel_8:
   \   000033   90....       MOV     DPTR,#ZDNwkMgr_MgmtNwkUpdateNotifyTransSeq
   \   000036   E0           MOVX    A,@DPTR
   \   000037   F9           MOV     R1,A
   \   000038   12....       LCALL   ??ZDNwkMgr_BuildAndSendUpdateNotify?relay
   \   00003B   7405         MOV     A,#0x5
   \   00003D   12....       LCALL   ?DEALLOC_XSTACK8
   \   000040   90....       MOV     DPTR,#ZDNwkMgr_MgmtNwkUpdateReq + 5
   \   000043   E0           MOVX    A,@DPTR
   \   000044   6009         JZ      ??CrossCallReturnLabel_31
   \   000046                ; Setup parameters for call to function osal_start_timerEx
   \   000046   7C32         MOV     R4,#0x32
   \   000048   7D00         MOV     R5,#0x0
   \   00004A   7A08         MOV     R2,#0x8
   \   00004C   12....       LCALL   ?Subroutine8 & 0xFFFF
    245                    break;
    246          #if defined ( NWK_MANAGER )
    247                  case ZDO_NETWORK_REPORT:
    248                    // NWK layer sends this message when it receives a Network Report message
    249                    ZDNwkMgr_ProcessNetworkReport( (ZDNwkMgr_NetworkReport_t *)msgPtr );
    250                    break;
    251                 
    252                  case ZDO_NETWORK_UPDATE:
    253                    // NKW layer sends this message when it receives a Network Update message
    254                    ZDNwkMgr_ProcessNetworkUpdate( (ZDNwkMgr_NetworkUpdate_t *)msgPtr );
    255                    break;
    256          #endif // NWK_MANAGER         
    257                  default:
    258                    break;
    259                }
    260          
    261                // Release the memory
    262                osal_msg_deallocate( (uint8 *)msgPtr );
   \                     ??CrossCallReturnLabel_31:
   \   00004F                ; Setup parameters for call to function osal_msg_deallocate
   \   00004F   AA..         MOV     R2,?V0 + 0
   \   000051   AB..         MOV     R3,?V0 + 1
   \   000053   12....       LCALL   ??osal_msg_deallocate?relay
    263          
    264                // Next
    265                msgPtr = (osal_event_hdr_t *)osal_msg_receive( ZDNwkMgr_TaskID );
   \   000056                ; Setup parameters for call to function osal_msg_receive
   \                     ??ZDNwkMgr_event_loop_1:
   \   000056   90....       MOV     DPTR,#ZDNwkMgr_TaskID
   \   000059   E0           MOVX    A,@DPTR
   \   00005A   F9           MOV     R1,A
   \   00005B   12....       LCALL   ??osal_msg_receive?relay
   \   00005E   8A..         MOV     ?V0 + 0,R2
   \   000060   8B..         MOV     ?V0 + 1,R3
   \   000062   E5..         MOV     A,?V0 + 0
   \   000064   45..         ORL     A,?V0 + 1
   \   000066   7003         JNZ     $+5
   \   000068   02....       LJMP    ??ZDNwkMgr_event_loop_3 & 0xFFFF
   \   00006B   85..82       MOV     DPL,?V0 + 0
   \   00006E   85..83       MOV     DPH,?V0 + 1
   \   000071   E0           MOVX    A,@DPTR
   \   000072   24CF         ADD     A,#-0x31
   \   000074   603F         JZ      ??ZDNwkMgr_event_loop_4
   \   000076   14           DEC     A
   \   000077   607F         JZ      ??ZDNwkMgr_event_loop_5
   \   000079   245F         ADD     A,#0x5f
   \   00007B   70D2         JNZ     ??CrossCallReturnLabel_31
   \   00007D   E5..         MOV     A,?V0 + 0
   \   00007F   240C         ADD     A,#0xc
   \   000081   F582         MOV     DPL,A
   \   000083   E5..         MOV     A,?V0 + 1
   \   000085   3400         ADDC    A,#0x0
   \   000087   F583         MOV     DPH,A
   \   000089   E0           MOVX    A,@DPTR
   \   00008A   F5..         MOV     ?V0 + 2,A
   \   00008C   A3           INC     DPTR
   \   00008D   E0           MOVX    A,@DPTR
   \   00008E   F5..         MOV     ?V0 + 3,A
   \   000090   78..         MOV     R0,#?V0 + 2
   \   000092   12....       LCALL   ?US_SWITCH_SPARSE
   \                     `?<Jumptable for ZDNwkMgr_event_loop>_0`:
   \   000095   0000         DW        0
   \   000097   0200         DW        2
   \   000099   3800         DW        56
   \   00009B   ....         DW        ??ZDNwkMgr_event_loop_6
   \   00009D   1580         DW        32789
   \   00009F   ....         DW        ??ZDNwkMgr_event_loop_7
   \   0000A1   ....         DW        ??CrossCallReturnLabel_31
   \                     ??ZDNwkMgr_event_loop_7:
   \   0000A3                ; Setup parameters for call to function ZDNwkMgr_ProcessServerDiscRsp
   \   0000A3   AA..         MOV     R2,?V0 + 0
   \   0000A5   AB..         MOV     R3,?V0 + 1
   \   0000A7   12....       LCALL   ??ZDNwkMgr_ProcessServerDiscRsp?relay
   \   0000AA   80A3         SJMP    ??CrossCallReturnLabel_31
   \                     ??ZDNwkMgr_event_loop_6:
   \   0000AC                ; Setup parameters for call to function ZDNwkMgr_ProcessMgmtNwkUpdateReq
   \   0000AC   AA..         MOV     R2,?V0 + 0
   \   0000AE   AB..         MOV     R3,?V0 + 1
   \   0000B0   12....       LCALL   ??ZDNwkMgr_ProcessMgmtNwkUpdateReq?relay
   \   0000B3   809A         SJMP    ??CrossCallReturnLabel_31
   \                     ??ZDNwkMgr_event_loop_4:
   \   0000B5   90....       MOV     DPTR,#ZDNwkMgr_NumUpdateNotifySent
   \   0000B8   E0           MOVX    A,@DPTR
   \   0000B9   C3           CLR     C
   \   0000BA   9404         SUBB    A,#0x4
   \   0000BC   5091         JNC     ??CrossCallReturnLabel_31
   \   0000BE                ; Setup parameters for call to function NLME_EDScanRequest
   \   0000BE   90....       MOV     DPTR,#_NIB + 42
   \   0000C1   E0           MOVX    A,@DPTR
   \   0000C2   F9           MOV     R1,A
   \   0000C3   90....       MOV     DPTR,#__Constant_7fff800
   \   0000C6   12....       LCALL   ?XLOAD_R2345
   \   0000C9   12....       LCALL   ??NLME_EDScanRequest?relay
   \   0000CC   E9           MOV     A,R1
   \   0000CD   7080         JNZ     ??CrossCallReturnLabel_31
   \   0000CF   85..82       MOV     DPL,?V0 + 0
   \   0000D2   85..83       MOV     DPH,?V0 + 1
   \   0000D5   12....       LCALL   ?Subroutine17 & 0xFFFF
   \                     ??CrossCallReturnLabel_43:
   \   0000D8   90....       MOV     DPTR,#ZDNwkMgr_TotalTransmissions
   \   0000DB   12....       LCALL   ??Subroutine21_0 & 0xFFFF
   \                     ??CrossCallReturnLabel_32:
   \   0000DE   85..82       MOV     DPL,?V0 + 0
   \   0000E1   85..83       MOV     DPH,?V0 + 1
   \   0000E4   A3           INC     DPTR
   \   0000E5   A3           INC     DPTR
   \   0000E6   12....       LCALL   ?Subroutine17 & 0xFFFF
   \                     ??CrossCallReturnLabel_44:
   \   0000E9   90....       MOV     DPTR,#ZDNwkMgr_TxFailures
   \   0000EC   12....       LCALL   ??Subroutine21_0 & 0xFFFF
   \                     ??CrossCallReturnLabel_33:
   \   0000EF   90....       MOV     DPTR,#ZDNwkMgr_MgmtNwkUpdateReq + 5
   \   0000F2   74FF         MOV     A,#-0x1
   \                     ??ZDNwkMgr_event_loop_8:
   \   0000F4   F0           MOVX    @DPTR,A
   \   0000F5   02....       LJMP    ??CrossCallReturnLabel_31 & 0xFFFF
   \                     ??ZDNwkMgr_event_loop_5:
   \   0000F8   90....       MOV     DPTR,#ZDNwkMgr_MgmtNwkUpdateReq + 5
   \   0000FB   E0           MOVX    A,@DPTR
   \   0000FC   F4           CPL     A
   \   0000FD   6003         JZ      $+5
   \   0000FF   02....       LJMP    ??ZDNwkMgr_event_loop_2 & 0xFFFF
   \   000102                ; Setup parameters for call to function ZDNwkMgr_CheckForChannelInterference
   \   000102   AA..         MOV     R2,?V0 + 0
   \   000104   AB..         MOV     R3,?V0 + 1
   \   000106   12....       LCALL   ??ZDNwkMgr_CheckForChannelInterference?relay
   \   000109   90....       MOV     DPTR,#ZDNwkMgr_MgmtNwkUpdateReq + 5
   \   00010C   E4           CLR     A
   \   00010D   80E5         SJMP    ??ZDNwkMgr_event_loop_8
    266              }
    267              
    268              // Return unprocessed events
    269              return (events ^ SYS_EVENT_MSG);
   \                     ??ZDNwkMgr_event_loop_3:
   \   00010F   EE           MOV     A,R6
   \   000110   FA           MOV     R2,A
   \   000111   EF           MOV     A,R7
   \   000112   6480         XRL     A,#0x80
   \                     ??ZDNwkMgr_event_loop_9:
   \   000114   FB           MOV     R3,A
   \   000115   807B         SJMP    ??ZDNwkMgr_event_loop_10
    270            }
    271          
    272            if ( events & ZDNWKMGR_CHANNEL_CHANGE_EVT )
   \                     ??ZDNwkMgr_event_loop_0:
   \   000117   EE           MOV     A,R6
   \   000118   A2E0         MOV     C,0xE0 /* A   */.0
   \   00011A   501E         JNC     ??ZDNwkMgr_event_loop_11
    273            {       
    274              // Switch channel
    275              _NIB.nwkLogicalChannel = ZDNwkMgr_NewChannel;
   \   00011C   90....       MOV     DPTR,#ZDNwkMgr_NewChannel
   \   00011F   E0           MOVX    A,@DPTR
   \   000120   90....       MOV     DPTR,#_NIB + 22
   \   000123   F0           MOVX    @DPTR,A
    276              ZMacSetReq( ZMacChannel, &ZDNwkMgr_NewChannel );
   \   000124                ; Setup parameters for call to function ZMacSetReq
   \   000124   7A..         MOV     R2,#ZDNwkMgr_NewChannel & 0xff
   \   000126   7B..         MOV     R3,#(ZDNwkMgr_NewChannel >> 8) & 0xff
   \   000128   79E1         MOV     R1,#-0x1f
   \   00012A   12....       LCALL   ??ZMacSetReq?relay
    277           
    278              // Our Channel has been changed -- notify to save info into NV
    279              ZDApp_NwkStateUpdateCB();
   \   00012D                ; Setup parameters for call to function ZDApp_NwkStateUpdateCB
   \   00012D   12....       LCALL   ??ZDApp_NwkStateUpdateCB?relay
    280              
    281              // Reset the total transmit count and the transmit failure counters
    282              _NIB.nwkTotalTransmissions = 0;
   \   000130   12....       LCALL   ?Subroutine4 & 0xFFFF
    283              nwkTransmissionFailures( TRUE );
    284              
    285              return ( events ^ ZDNWKMGR_CHANNEL_CHANGE_EVT );
   \                     ??CrossCallReturnLabel_0:
   \   000133   EE           MOV     A,R6
   \   000134   6401         XRL     A,#0x1
   \                     ??ZDNwkMgr_event_loop_12:
   \   000136   FA           MOV     R2,A
   \   000137   EF           MOV     A,R7
   \   000138   80DA         SJMP    ??ZDNwkMgr_event_loop_9
    286            }
    287          
    288            if ( events & ZDNWKMGR_UPDATE_NOTIFY_EVT )
   \                     ??ZDNwkMgr_event_loop_11:
   \   00013A   5402         ANL     A,#0x2
   \   00013C   6029         JZ      ??ZDNwkMgr_event_loop_13
    289            {
    290              // Update the Update Notify timer
    291              if ( ZDNwkMgr_UpdateNotifyTimer > 0 )
   \   00013E   90....       MOV     DPTR,#ZDNwkMgr_UpdateNotifyTimer
   \   000141   12....       LCALL   ??Subroutine22_0 & 0xFFFF
   \                     ??CrossCallReturnLabel_39:
   \   000144   6017         JZ      ??ZDNwkMgr_event_loop_14
    292              {
    293                ZDNwkMgr_UpdateNotifyTimer--;
   \   000146   90....       MOV     DPTR,#ZDNwkMgr_UpdateNotifyTimer
   \   000149   E0           MOVX    A,@DPTR
   \   00014A   24FF         ADD     A,#-0x1
   \   00014C   F0           MOVX    @DPTR,A
   \   00014D   A3           INC     DPTR
   \   00014E   E0           MOVX    A,@DPTR
   \   00014F   34FF         ADDC    A,#-0x1
   \   000151   F0           MOVX    @DPTR,A
    294                osal_start_timerEx( ZDNwkMgr_TaskID, ZDNWKMGR_UPDATE_NOTIFY_EVT, ONE_MINUTE );
   \   000152                ; Setup parameters for call to function osal_start_timerEx
   \   000152   7C60         MOV     R4,#0x60
   \   000154   7DEA         MOV     R5,#-0x16
   \   000156   7A02         MOV     R2,#0x2
   \   000158   12....       LCALL   ?Subroutine8 & 0xFFFF
    295              }
   \                     ??CrossCallReturnLabel_28:
   \   00015B   8005         SJMP    ??ZDNwkMgr_event_loop_15
    296              else
    297              {
    298                ZDNwkMgr_NumUpdateNotifySent = 0;
   \                     ??ZDNwkMgr_event_loop_14:
   \   00015D   90....       MOV     DPTR,#ZDNwkMgr_NumUpdateNotifySent
   \   000160   E4           CLR     A
   \   000161   F0           MOVX    @DPTR,A
    299              }
    300              
    301              return ( events ^ ZDNWKMGR_UPDATE_NOTIFY_EVT );
   \                     ??ZDNwkMgr_event_loop_15:
   \   000162   EE           MOV     A,R6
   \   000163   6402         XRL     A,#0x2
   \   000165   80CF         SJMP    ??ZDNwkMgr_event_loop_12
    302            }
    303            
    304          #if defined ( NWK_MANAGER )
    305            if ( events & ZDNWKMGR_UPDATE_REQUEST_EVT )
    306            {
    307              // Update the Update Request timer
    308              if ( ZDNwkMgr_UpdateRequestTimer > 0 )
    309              {
    310                ZDNwkMgr_UpdateRequestTimer--;
    311                osal_start_timerEx( ZDNwkMgr_TaskID, ZDNWKMGR_UPDATE_REQUEST_EVT, ONE_MINUTE );
    312              }
    313              
    314              return ( events ^ ZDNWKMGR_UPDATE_REQUEST_EVT );
    315            }
    316          #endif // NWK_MANAGER
    317            
    318            if ( events & ZDNWKMGR_SCAN_REQUEST_EVT )
   \                     ??ZDNwkMgr_event_loop_13:
   \   000167   EE           MOV     A,R6
   \   000168   5408         ANL     A,#0x8
   \   00016A   6022         JZ      ??ZDNwkMgr_event_loop_16
    319            {  
    320              if ( ZDNwkMgr_MgmtNwkUpdateReq.scanCount > 0 )
   \   00016C   90....       MOV     DPTR,#ZDNwkMgr_MgmtNwkUpdateReq + 5
   \   00016F   E0           MOVX    A,@DPTR
   \   000170   6017         JZ      ??ZDNwkMgr_event_loop_17
    321              {
    322                if (  NLME_EDScanRequest( ZDNwkMgr_MgmtNwkUpdateReq.channelMask, 
    323                                          ZDNwkMgr_MgmtNwkUpdateReq.scanDuration ) == ZSuccess )
   \   000172                ; Setup parameters for call to function NLME_EDScanRequest
   \   000172   90....       MOV     DPTR,#ZDNwkMgr_MgmtNwkUpdateReq + 4
   \   000175   E0           MOVX    A,@DPTR
   \   000176   F9           MOV     R1,A
   \   000177   90....       MOV     DPTR,#ZDNwkMgr_MgmtNwkUpdateReq
   \   00017A   12....       LCALL   ?XLOAD_R2345
   \   00017D   12....       LCALL   ??NLME_EDScanRequest?relay
   \   000180   E9           MOV     A,R1
   \   000181   7006         JNZ     ??ZDNwkMgr_event_loop_17
    324                {
    325                  ZDNwkMgr_MgmtNwkUpdateReq.scanCount--;
   \   000183   90....       MOV     DPTR,#ZDNwkMgr_MgmtNwkUpdateReq + 5
   \   000186   E0           MOVX    A,@DPTR
   \   000187   14           DEC     A
   \   000188   F0           MOVX    @DPTR,A
    326                }
    327              }
    328                
    329              return ( events ^ ZDNWKMGR_SCAN_REQUEST_EVT );
   \                     ??ZDNwkMgr_event_loop_17:
   \   000189   EE           MOV     A,R6
   \   00018A   6408         XRL     A,#0x8
   \   00018C   80A8         SJMP    ??ZDNwkMgr_event_loop_12
    330            }
    331            
    332            // Discard or make more handlers
    333            return 0;
   \                     ??ZDNwkMgr_event_loop_16:
   \   00018E   7A00         MOV     R2,#0x0
   \   000190   7B00         MOV     R3,#0x0
   \                     ??ZDNwkMgr_event_loop_10:
   \   000192   7F06         MOV     R7,#0x6
   \   000194   02....       LJMP    ?BANKED_LEAVE_XDATA
    334          }

   \                                 In  segment BANKED_CODE, align 1, keep-with-next
   \                     ?Subroutine8:
   \   000000   7B00         MOV     R3,#0x0
   \   000002                REQUIRE ??Subroutine19_0
   \   000002                ; // Fall through to label ??Subroutine19_0

   \                                 In  segment BANKED_CODE, align 1, keep-with-next
   \                     ??Subroutine19_0:
   \   000000   90....       MOV     DPTR,#ZDNwkMgr_TaskID
   \   000003   E0           MOVX    A,@DPTR
   \   000004   F9           MOV     R1,A
   \   000005   12....       LCALL   ??osal_start_timerEx?relay
   \   000008   22           RET

   \                                 In  segment BANKED_CODE, align 1, keep-with-next
   \                     ?Subroutine10:
   \   000000   E0           MOVX    A,@DPTR
   \   000001   FC           MOV     R4,A
   \   000002   A3           INC     DPTR
   \   000003   E0           MOVX    A,@DPTR
   \   000004   FD           MOV     R5,A
   \   000005   7A..         MOV     R2,#ZDNwkMgr_MgmtNwkUpdateNotifyAddr & 0xff
   \   000007   7B..         MOV     R3,#(ZDNwkMgr_MgmtNwkUpdateNotifyAddr >> 8) & 0xff
   \   000009   22           RET

   \                                 In  segment BANKED_CODE, align 1, keep-with-next
   \                     ??Subroutine21_0:
   \   000000   E8           MOV     A,R0
   \   000001   F0           MOVX    @DPTR,A
   \   000002   A3           INC     DPTR
   \   000003   E9           MOV     A,R1
   \   000004   F0           MOVX    @DPTR,A
   \   000005   22           RET

   \                                 In  segment BANKED_CODE, align 1, keep-with-next
   \                     ??Subroutine22_0:
   \   000000   12....       LCALL   ??Subroutine23_0 & 0xFFFF
   \                     ??CrossCallReturnLabel_46:
   \   000003   E8           MOV     A,R0
   \   000004   49           ORL     A,R1
   \   000005   22           RET

   \                                 In  segment BANKED_CODE, align 1, keep-with-next
   \                     ?Subroutine17:
   \   000000   A3           INC     DPTR
   \   000001   A3           INC     DPTR
   \   000002                REQUIRE ??Subroutine23_0
   \   000002                ; // Fall through to label ??Subroutine23_0

   \                                 In  segment BANKED_CODE, align 1, keep-with-next
   \                     ??Subroutine23_0:
   \   000000   E0           MOVX    A,@DPTR
   \   000001   F8           MOV     R0,A
   \   000002   A3           INC     DPTR
   \   000003   E0           MOVX    A,@DPTR
   \   000004   F9           MOV     R1,A
   \   000005   22           RET

   \                                 In  segment BANKED_CODE, align 1, keep-with-next
   \                     ?Subroutine4:
   \   000000   90....       MOV     DPTR,#_NIB + 107
   \   000003   E4           CLR     A
   \   000004   F0           MOVX    @DPTR,A
   \   000005   A3           INC     DPTR
   \   000006   F0           MOVX    @DPTR,A
   \   000007                ; Setup parameters for call to function nwkTransmissionFailures
   \   000007                ; Setup parameters for call to function nwkTransmissionFailures
   \   000007   7901         MOV     R1,#0x1
   \   000009   12....       LCALL   ??nwkTransmissionFailures?relay
   \   00000C   22           RET
    335          
    336          /*********************************************************************
    337           * @fn      ZDNwkMgr_ProcessMsgCBs
    338           *
    339           * @brief   Process the incoming messages.
    340           *
    341           * @param   msgPtr - message to process
    342           *
    343           * @return  TRUE if message to be freed. FALSE otherwise.
    344           */
    345          static void ZDNwkMgr_ProcessMsgCBs( zdoIncomingMsg_t *inMsg )
    346          {
    347            switch ( inMsg->clusterID )
    348            {   
    349              case Mgmt_NWK_Update_req:
    350                ZDNwkMgr_ProcessMgmtNwkUpdateReq( inMsg );
    351                break;    
    352          #if defined ( NWK_MANAGER )  
    353              case Mgmt_NWK_Update_notify:
    354                ZDNwkMgr_ProcessMgmtNwkUpdateNotify( inMsg );
    355                break;
    356          #endif // NWK_MANAGER
    357              case Server_Discovery_rsp:
    358                ZDNwkMgr_ProcessServerDiscRsp( inMsg );
    359                break;
    360                
    361              default:
    362                // Unknown message
    363                break;
    364            }
    365          }
    366          
    367          /*********************************************************************
    368           * Frequency Agility Routines
    369           */
    370          #if defined ( NWK_MANAGER )
    371          /*********************************************************************
    372           * @fn          ZDNwkMgr_ProcessMgmtNwkUpdateNotify
    373           *
    374           * @brief       This function processes the incoming Management
    375           *              Network Update notify.
    376           *
    377           * @param       pUpdateNotify - notify message
    378           *
    379           * @return      TRUE if message to be freed. FALSE otherwise.
    380           */
    381          static void ZDNwkMgr_ProcessMgmtNwkUpdateNotify( zdoIncomingMsg_t *inMsg )
    382          {
    383            if ( zgNwkMgrMode == ZDNWKMGR_ENABLE )
    384            {
    385              ZDO_MgmtNwkUpdateNotify_t *pNotify = ZDO_ParseMgmtNwkUpdateNotify( inMsg ); 
    386              if ( pNotify )
    387              {
    388                ZDNwkMgr_CheckForChannelChange( pNotify );
    389          
    390                osal_mem_free( pNotify );
    391              }
    392            }
    393          }
    394          
    395          /*********************************************************************
    396           * @fn          ZDNwkMgr_CheckForChannelChange
    397           *
    398           * @brief       This function processes the incoming Management Network
    399           *              Update notify and starts an Update Request if a channel
    400           *              change is needed.
    401           *
    402           * @param       pUpdateNotify - notify message
    403           *
    404           * @return      none
    405           */
    406          static void ZDNwkMgr_CheckForChannelChange( ZDO_MgmtNwkUpdateNotify_t *pNotify )
    407          {
    408            uint8  i;
    409            uint16 failureRate;
    410            uint8  lowestEnergyIndex;
    411            uint8  lowestEnergyValue = 0xFF;
    412                
    413            // If any device has more than 50% transmission failures, a channel
    414            // change should be considered
    415            failureRate = ( pNotify->transmissionFailures * 100 ) / pNotify->totalTransmissions;
    416            if ( failureRate < ZDNWKMGR_CC_TX_FAILURE )
    417            {
    418          #if defined ( LCD_SUPPORTED )
    419              HalLcdWriteString( (char*)NwkMgrStr_1, HAL_LCD_LINE_1 );
    420              HalLcdWriteStringValueValue( ": ", failureRate, 10, ZDNWKMGR_CC_TX_FAILURE, 10, HAL_LCD_LINE_2 );
    421          #endif
    422              return;
    423            }
    424          
    425            // If the current failure rate is higher than the last failure rate,
    426            // a channel change should be considered
    427            if ( failureRate < ZDNwkMgr_LastChannelFailureRate )
    428            {
    429          #if defined ( LCD_SUPPORTED )
    430              HalLcdWriteString( (char*)NwkMgrStr_2, HAL_LCD_LINE_1 );
    431              HalLcdWriteStringValueValue( ": ", failureRate, 10, 
    432                                           ZDNwkMgr_LastChannelFailureRate, 10, HAL_LCD_LINE_2 );
    433          #endif
    434              return;
    435            }
    436            
    437            // Select a single channel based on the Mgmt_NWK_Update_notify based on
    438            // the lowest energy. This is the proposed new channel. 
    439            for ( i = 0; i < pNotify->listCount; i++ )
    440            {
    441              if ( pNotify->energyValues[i] < lowestEnergyValue )
    442              {
    443                lowestEnergyIndex = i;
    444                lowestEnergyValue = pNotify->energyValues[i];
    445              }
    446            }
    447                
    448            // If this new channel does not have an energy level below an acceptable
    449            // threshold, a channel change should not be done.
    450            if ( lowestEnergyValue > ZDNWKMGR_ACCEPTABLE_ENERGY_LEVEL )
    451            {
    452          #if defined ( LCD_SUPPORTED )
    453              HalLcdWriteString( (char*)NwkMgrStr_3, HAL_LCD_LINE_1 );
    454              HalLcdWriteStringValueValue( ": ", lowestEnergyValue, 10, 
    455                                           ZDNWKMGR_ACCEPTABLE_ENERGY_LEVEL, 10, HAL_LCD_LINE_2 );
    456          #endif
    457              return;
    458            }
    459          
    460            // Channel change should be done -- find out the new active channel
    461            for ( i = 0; i < ED_SCAN_MAXCHANNELS; i++ )
    462            {
    463              if ( ( (uint32)1 << i ) & pNotify->scannedChannels )
    464              {
    465                if ( lowestEnergyIndex == 0 )
    466                  break;
    467                lowestEnergyIndex--;
    468              }
    469            }
    470            
    471            if ( ( _NIB.nwkLogicalChannel != i ) && ( ZDNwkMgr_UpdateRequestTimer == 0 ) )
    472            {
    473              uint32 channelMask;
    474              zAddrType_t dstAddr;
    475              
    476              // The new channel
    477              ZDNwkMgr_NewChannel = i;
    478                  
    479              // Prior to changing channels, the network manager should store the 
    480              // energy scan value as the last energy scan value and the failure 
    481              // rate from the existing channel as the last failure rate.  These 
    482              // values are useful to allow comparison of the failure rate and energy
    483              // level on the previous channel to evaluate if the network is causing
    484              // its own interference.
    485              ZDNwkMgr_LastChannelEnergy = lowestEnergyValue;
    486              ZDNwkMgr_LastChannelFailureRate = failureRate;
    487                 
    488              // The network manager should broadcast a Mgmt_NWK_Update_req notifying
    489              // devices of the new channel.  The broadcast shall be to all routers 
    490              // and coordinator.
    491              dstAddr.addrMode = AddrBroadcast;
    492              dstAddr.addr.shortAddr = NWK_BROADCAST_SHORTADDR_DEVRXON;
    493              channelMask = (uint32)1 << i;
    494                  
    495              // Increment the nwkUpdateId parameter and set the updateID in the beacon
    496              NLME_SetUpdateID(_NIB.nwkUpdateId + 1); 
    497              
    498              ZDP_MgmtNwkUpdateReq( &dstAddr, channelMask, 0xfe, 0, _NIB.nwkUpdateId, 0 );
    499                  
    500              // The network manager shall set a timer based on the value of 
    501              // apsChannelTimer upon issue of a Mgmt_NWK_Update_req that changes 
    502              // channels and shall not issue another such command until this 
    503              // timer expires.  
    504              ZDNwkMgr_UpdateRequestTimer = ZDNWKMGR_UPDATE_REQUEST_TIMER;
    505              osal_start_timerEx( ZDNwkMgr_TaskID, ZDNWKMGR_UPDATE_REQUEST_EVT, ONE_MINUTE );
    506                            
    507              // Upon receipt of a Mgmt_NWK_Update_req with a change of channels, 
    508              // the local network manager shall set a timer equal to the 
    509              // nwkNetworkBroadcastDeliveryTime and shall switch channels upon 
    510              // expiration of this timer.  NOTE: since we won't recevied our own
    511              // broadcasted Update Request, we start the channel change timer here.  
    512              osal_start_timerEx( ZDNwkMgr_TaskID, ZDNWKMGR_CHANNEL_CHANGE_EVT, 
    513                                  ZDNWKMGR_BCAST_DELIVERY_TIME );
    514            }
    515          }
    516          #endif  // NWK_MANAGER
    517          
    518          /*********************************************************************
    519           * @fn          ZDNwkMgr_ProcessMgmtNwkUpdateReq
    520           *
    521           * @brief       This function processes the incoming Management
    522           *              Network Update request and starts the request (if needed).
    523           *
    524           * @param       Request message
    525           *
    526           * @return      none
    527           */

   \                                 In  segment BANKED_CODE, align 1, keep-with-next
    528          static void ZDNwkMgr_ProcessMgmtNwkUpdateReq( zdoIncomingMsg_t *inMsg )
   \                     ZDNwkMgr_ProcessMgmtNwkUpdateReq:
    529          {
   \   000000   74F4         MOV     A,#-0xc
   \   000002   12....       LCALL   ?BANKED_ENTER_XDATA
   \   000005                ; Saved register size: 12
   \   000005                ; Auto size: 9
   \   000005   74F7         MOV     A,#-0x9
   \   000007   12....       LCALL   ?ALLOC_XSTACK8
   \   00000A   EA           MOV     A,R2
   \   00000B   FE           MOV     R6,A
   \   00000C   EB           MOV     A,R3
   \   00000D   FF           MOV     R7,A
    530            ZDO_MgmtNwkUpdateReq_t Req;
    531            
    532            ZDO_ParseMgmtNwkUpdateReq( inMsg, &Req );
   \   00000E                ; Setup parameters for call to function ZDO_ParseMgmtNwkUpdateReq
   \   00000E   85..82       MOV     DPL,?XSP + 0
   \   000011   85..83       MOV     DPH,?XSP + 1
   \   000014   AC82         MOV     R4,DPL
   \   000016   AD83         MOV     R5,DPH
   \   000018   12....       LCALL   ??ZDO_ParseMgmtNwkUpdateReq?relay
    533             
    534            if ( Req.scanDuration <= 0x05 )
   \   00001B   7404         MOV     A,#0x4
   \   00001D   12....       LCALL   ?XSTACK_DISP0_8
   \   000020   E0           MOVX    A,@DPTR
   \   000021   F9           MOV     R1,A
   \   000022   EE           MOV     A,R6
   \   000023   2402         ADD     A,#0x2
   \   000025   F5..         MOV     ?V0 + 0,A
   \   000027   EF           MOV     A,R7
   \   000028   3400         ADDC    A,#0x0
   \   00002A   F5..         MOV     ?V0 + 1,A
   \   00002C   EE           MOV     A,R6
   \   00002D   240F         ADD     A,#0xf
   \   00002F   F5..         MOV     ?V0 + 2,A
   \   000031   EF           MOV     A,R7
   \   000032   3400         ADDC    A,#0x0
   \   000034   F5..         MOV     ?V0 + 3,A
   \   000036   E9           MOV     A,R1
   \   000037   C3           CLR     C
   \   000038   9406         SUBB    A,#0x6
   \   00003A   5051         JNC     ??ZDNwkMgr_ProcessMgmtNwkUpdateReq_0
    535            {
    536              // Request is to scan over channelMask. The result will be reported by Confirm   
    537              if ( ( !inMsg->wasBroadcast )                     && 
    538                   ( Req.scanCount >  ZDNWKMGR_MIN_SCAN_COUNT ) && 
    539                   ( Req.scanCount <= ZDNWKMGR_MAX_SCAN_COUNT ) )
   \   00003C   12....       LCALL   ?Subroutine16 & 0xFFFF
   \                     ??CrossCallReturnLabel_24:
   \   00003F   6003         JZ      $+5
   \   000041   02....       LJMP    ??ZDNwkMgr_ProcessMgmtNwkUpdateReq_1 & 0xFFFF
   \   000044   7405         MOV     A,#0x5
   \   000046   12....       LCALL   ?XSTACK_DISP0_8
   \   000049   E0           MOVX    A,@DPTR
   \   00004A   14           DEC     A
   \   00004B   C3           CLR     C
   \   00004C   9405         SUBB    A,#0x5
   \   00004E   4003         JC      $+5
   \   000050   02....       LJMP    ??ZDNwkMgr_ProcessMgmtNwkUpdateReq_1 & 0xFFFF
    540              {
    541                if ( NLME_EDScanRequest( Req.channelMask, Req.scanDuration ) == ZSuccess )
   \   000053                ; Setup parameters for call to function NLME_EDScanRequest
   \   000053   85..82       MOV     DPL,?XSP + 0
   \   000056   85..83       MOV     DPH,?XSP + 1
   \   000059   12....       LCALL   ?XLOAD_R2345
   \   00005C   12....       LCALL   ??NLME_EDScanRequest?relay
   \   00005F   E9           MOV     A,R1
   \   000060   6003         JZ      $+5
   \   000062   02....       LJMP    ??ZDNwkMgr_ProcessMgmtNwkUpdateReq_1 & 0xFFFF
    542                {
    543                  // Save off the information to be used for the notify
    544                  ZDNwkMgr_MgmtNwkUpdateNotifyTransSeq            = inMsg->TransSeq;
   \   000065   85..82       MOV     DPL,?V0 + 2
   \   000068   85..83       MOV     DPH,?V0 + 3
   \   00006B   E0           MOVX    A,@DPTR
   \   00006C   90....       MOV     DPTR,#ZDNwkMgr_MgmtNwkUpdateNotifyTransSeq
   \   00006F   F0           MOVX    @DPTR,A
    545                  ZDNwkMgr_MgmtNwkUpdateNotifyAddr.addr.shortAddr = inMsg->srcAddr.addr.shortAddr;
   \   000070   12....       LCALL   ?Subroutine3 & 0xFFFF
    546                  
    547                  Req.scanCount--;
   \                     ??CrossCallReturnLabel_37:
   \   000073   7405         MOV     A,#0x5
   \   000075   12....       LCALL   ?XSTACK_DISP0_8
   \   000078   E0           MOVX    A,@DPTR
   \   000079   14           DEC     A
   \   00007A   F0           MOVX    @DPTR,A
    548                  
    549                  // Save off scan info for the subsequent scans
    550                  ZDNwkMgr_MgmtNwkUpdateReq = Req;
   \   00007B   85..82       MOV     DPL,?XSP + 0
   \   00007E   85..83       MOV     DPH,?XSP + 1
   \   000081   7C..         MOV     R4,#ZDNwkMgr_MgmtNwkUpdateReq & 0xff
   \   000083   7D..         MOV     R5,#(ZDNwkMgr_MgmtNwkUpdateReq >> 8) & 0xff
   \   000085   7409         MOV     A,#0x9
   \   000087   12....       LCALL   ?MOVE_LONG8_XDATA_XDATA
   \   00008A   02....       LJMP    ??ZDNwkMgr_ProcessMgmtNwkUpdateReq_1 & 0xFFFF
    551                }
    552              }
    553            }
    554            else if ( Req.scanDuration == 0xFE )
   \                     ??ZDNwkMgr_ProcessMgmtNwkUpdateReq_0:
   \   00008D   74FE         MOV     A,#-0x2
   \   00008F   69           XRL     A,R1
   \   000090   705D         JNZ     ??ZDNwkMgr_ProcessMgmtNwkUpdateReq_2
    555            {
    556              // Request is to change Channel. The command provide a new active
    557              // channel as a single channel in the channelMask.
    558              if ( Req.nwkUpdateId > _NIB.nwkUpdateId )
   \   000092   7406         MOV     A,#0x6
   \   000094   12....       LCALL   ?XSTACK_DISP0_8
   \   000097   12....       LCALL   ?Subroutine12 & 0xFFFF
   \                     ??CrossCallReturnLabel_12:
   \   00009A   4003         JC      $+5
   \   00009C   02....       LJMP    ??ZDNwkMgr_ProcessMgmtNwkUpdateReq_1 & 0xFFFF
    559              {
    560                uint8 i;
    561                
    562                // Set update ID in the Beacon
    563                NLME_SetUpdateID(Req.nwkUpdateId); 
   \   00009F                ; Setup parameters for call to function NLME_SetUpdateID
   \   00009F   12....       LCALL   ??NLME_SetUpdateID?relay
    564                
    565                // Find out the new active channel
    566                for ( i = 0; i < ED_SCAN_MAXCHANNELS; i++ )
   \   0000A2   7900         MOV     R1,#0x0
    567                {
    568                  if ( ( (uint32)1 << i ) & Req.channelMask )
   \                     ??ZDNwkMgr_ProcessMgmtNwkUpdateReq_3:
   \   0000A4   75..01       MOV     ?V0 + 0,#0x1
   \   0000A7   75..00       MOV     ?V0 + 1,#0x0
   \   0000AA   75..00       MOV     ?V0 + 2,#0x0
   \   0000AD   75..00       MOV     ?V0 + 3,#0x0
   \   0000B0   E9           MOV     A,R1
   \   0000B1   78..         MOV     R0,#?V0 + 0
   \   0000B3   12....       LCALL   ?L_SHL
   \   0000B6   85..82       MOV     DPL,?XSP + 0
   \   0000B9   85..83       MOV     DPH,?XSP + 1
   \   0000BC   78..         MOV     R0,#?V0 + 0
   \   0000BE   12....       LCALL   ?L_AND_X
   \   0000C1   12....       LCALL   ?Subroutine14 & 0xFFFF
    569                  {
    570                    break;
    571                  }
    572                }
   \                     ??CrossCallReturnLabel_16:
   \   0000C4   7007         JNZ     ??ZDNwkMgr_ProcessMgmtNwkUpdateReq_4
   \   0000C6   09           INC     R1
   \   0000C7   E9           MOV     A,R1
   \   0000C8   C3           CLR     C
   \   0000C9   941B         SUBB    A,#0x1b
   \   0000CB   40D7         JC      ??ZDNwkMgr_ProcessMgmtNwkUpdateReq_3
    573          
    574                if ( _NIB.nwkLogicalChannel != i )
   \                     ??ZDNwkMgr_ProcessMgmtNwkUpdateReq_4:
   \   0000CD   90....       MOV     DPTR,#_NIB + 22
   \   0000D0   E0           MOVX    A,@DPTR
   \   0000D1   69           XRL     A,R1
   \   0000D2   7003         JNZ     $+5
   \   0000D4   02....       LJMP    ??ZDNwkMgr_ProcessMgmtNwkUpdateReq_1 & 0xFFFF
    575                {
    576                  ZDNwkMgr_NewChannel = i;
   \   0000D7   E9           MOV     A,R1
   \   0000D8   90....       MOV     DPTR,#ZDNwkMgr_NewChannel
   \   0000DB   F0           MOVX    @DPTR,A
    577                    
    578                  // Upon receipt of a Mgmt_NWK_Update_req with a change of channels, 
    579                  // the local network manager shall set a timer equal to the 
    580                  // nwkNetworkBroadcastDeliveryTime and shall switch channels upon 
    581                  // expiration of this timer.  Each node shall also increment the 
    582                  // nwkUpdateId parameter and also reset the total transmit count 
    583                  // and the transmit failure counters.  
    584                  osal_start_timerEx( ZDNwkMgr_TaskID, ZDNWKMGR_CHANNEL_CHANGE_EVT, 
    585                                      ZDNWKMGR_BCAST_DELIVERY_TIME );
   \   0000DC                ; Setup parameters for call to function osal_start_timerEx
   \   0000DC   90....       MOV     DPTR,#_NIB + 7
   \   0000DF   E0           MOVX    A,@DPTR
   \   0000E0   75F064       MOV     B,#0x64
   \   0000E3   A4           MUL     AB
   \   0000E4   FC           MOV     R4,A
   \   0000E5   ADF0         MOV     R5,B
   \   0000E7   7A01         MOV     R2,#0x1
   \   0000E9   12....       LCALL   ?Subroutine8 & 0xFFFF
    586                }
    587              }
    588            }
   \                     ??CrossCallReturnLabel_29:
   \   0000EC   02....       LJMP    ??ZDNwkMgr_ProcessMgmtNwkUpdateReq_1 & 0xFFFF
    589            else if ( Req.scanDuration == 0xFF )
   \                     ??ZDNwkMgr_ProcessMgmtNwkUpdateReq_2:
   \   0000EF   74FF         MOV     A,#-0x1
   \   0000F1   69           XRL     A,R1
   \   0000F2   7054         JNZ     ??ZDNwkMgr_ProcessMgmtNwkUpdateReq_5
    590            {
    591              // Request is to change apsChannelMask and nwkManagerAddr
    592              if ( Req.nwkUpdateId > _NIB.nwkUpdateId )
   \   0000F4   7406         MOV     A,#0x6
   \   0000F6   12....       LCALL   ?XSTACK_DISP0_8
   \   0000F9   12....       LCALL   ?Subroutine12 & 0xFFFF
   \                     ??CrossCallReturnLabel_13:
   \   0000FC   4003         JC      $+5
   \   0000FE   02....       LJMP    ??ZDNwkMgr_ProcessMgmtNwkUpdateReq_1 & 0xFFFF
    593              {
    594                NLME_SetUpdateID(Req.nwkUpdateId); // Set the updateID in the beacon
   \   000101                ; Setup parameters for call to function NLME_SetUpdateID
   \   000101   12....       LCALL   ??NLME_SetUpdateID?relay
    595                 
    596                if ( ( Req.channelMask != 0 ) && ( _NIB.channelList != Req.channelMask ) )
   \   000104   85..82       MOV     DPL,?XSP + 0
   \   000107   85..83       MOV     DPH,?XSP + 1
   \   00010A   78..         MOV     R0,#?V0 + 0
   \   00010C   12....       LCALL   ?L_MOV_X
   \   00010F   12....       LCALL   ?Subroutine14 & 0xFFFF
   \                     ??CrossCallReturnLabel_17:
   \   000112   602A         JZ      ??ZDNwkMgr_ProcessMgmtNwkUpdateReq_6
   \   000114   85..82       MOV     DPL,?XSP + 0
   \   000117   85..83       MOV     DPH,?XSP + 1
   \   00011A   78..         MOV     R0,#?V0 + 0
   \   00011C   12....       LCALL   ?L_MOV_X
   \   00011F   7583..       MOV     DPH,#((_NIB + 36) >> 8) & 0xff
   \   000122   7582..       MOV     DPL,#(_NIB + 36) & 0xff
   \   000125   78..         MOV     R0,#?V0 + 0
   \   000127   12....       LCALL   ?L_EQ_X
   \   00012A   6012         JZ      ??ZDNwkMgr_ProcessMgmtNwkUpdateReq_6
    597                {
    598                  _NIB.channelList = Req.channelMask;
   \   00012C   85..82       MOV     DPL,?XSP + 0
   \   00012F   85..83       MOV     DPH,?XSP + 1
   \   000132   12....       LCALL   ?XLOAD_R2345
   \   000135   90....       MOV     DPTR,#_NIB + 36
   \   000138   12....       LCALL   ?XSTORE_R2345
    599                
    600                  // Our Channel List has been changed -- notify to save info into NV
    601                  ZDApp_NwkStateUpdateCB();
   \   00013B                ; Setup parameters for call to function ZDApp_NwkStateUpdateCB
   \   00013B   12....       LCALL   ??ZDApp_NwkStateUpdateCB?relay
    602                }
    603              
    604                ZDNwkMgr_SetNwkManagerAddr( Req.nwkManagerAddr );
   \                     ??ZDNwkMgr_ProcessMgmtNwkUpdateReq_6:
   \   00013E                ; Setup parameters for call to function ZDNwkMgr_SetNwkManagerAddr
   \   00013E   7407         MOV     A,#0x7
   \   000140   12....       LCALL   ?XSTACK_DISP0_8
   \   000143   12....       LCALL   ?Subroutine11 & 0xFFFF
    605              }
    606            }
   \                     ??CrossCallReturnLabel_10:
   \   000146   8045         SJMP    ??ZDNwkMgr_ProcessMgmtNwkUpdateReq_1
    607            else // 0x06-0xFD
    608            {
    609              // Request is invalid
    610              if ( !inMsg->wasBroadcast )
   \                     ??ZDNwkMgr_ProcessMgmtNwkUpdateReq_5:
   \   000148   12....       LCALL   ?Subroutine16 & 0xFFFF
   \                     ??CrossCallReturnLabel_25:
   \   00014B   7040         JNZ     ??ZDNwkMgr_ProcessMgmtNwkUpdateReq_1
    611              {
    612                ZDNwkMgr_MgmtNwkUpdateNotifyAddr.addr.shortAddr = inMsg->srcAddr.addr.shortAddr;
   \   00014D   12....       LCALL   ?Subroutine3 & 0xFFFF
    613                ZDP_MgmtNwkUpdateNotify( inMsg->TransSeq, &ZDNwkMgr_MgmtNwkUpdateNotifyAddr,
    614                                         ZDP_INVALID_REQTYPE, 0, 0, 0, 0, NULL, AF_TX_OPTIONS_NONE, false );
   \                     ??CrossCallReturnLabel_38:
   \   000150                ; Setup parameters for call to function ZDP_MgmtNwkUpdateNotify
   \   000150   75..00       MOV     ?V0 + 0,#0x0
   \   000153   78..         MOV     R0,#?V0 + 0
   \   000155   12....       LCALL   ?PUSH_XSTACK_I_ONE
   \   000158   78..         MOV     R0,#?V0 + 0
   \   00015A   12....       LCALL   ?PUSH_XSTACK_I_ONE
   \   00015D   E4           CLR     A
   \   00015E   F5..         MOV     ?V0 + 1,A
   \   000160   78..         MOV     R0,#?V0 + 0
   \   000162   12....       LCALL   ?PUSH_XSTACK_I_TWO
   \   000165   78..         MOV     R0,#?V0 + 0
   \   000167   12....       LCALL   ?PUSH_XSTACK_I_TWO
   \   00016A   78..         MOV     R0,#?V0 + 0
   \   00016C   12....       LCALL   ?PUSH_XSTACK_I_TWO
   \   00016F   90....       MOV     DPTR,#__Constant_0
   \   000172   12....       LCALL   ?PUSH_XSTACK8_X_FOUR
   \   000175   7D00         MOV     R5,#0x0
   \   000177   7C80         MOV     R4,#-0x80
   \   000179   7A..         MOV     R2,#ZDNwkMgr_MgmtNwkUpdateNotifyAddr & 0xff
   \   00017B   7B..         MOV     R3,#(ZDNwkMgr_MgmtNwkUpdateNotifyAddr >> 8) & 0xff
   \   00017D   85..82       MOV     DPL,?V0 + 2
   \   000180   85..83       MOV     DPH,?V0 + 3
   \   000183   E0           MOVX    A,@DPTR
   \   000184   F9           MOV     R1,A
   \   000185   12....       LCALL   ??ZDP_MgmtNwkUpdateNotify?relay
   \   000188   740C         MOV     A,#0xc
   \   00018A   12....       LCALL   ?DEALLOC_XSTACK8
    615              }
    616            }
    617          }
   \                     ??ZDNwkMgr_ProcessMgmtNwkUpdateReq_1:
   \   00018D   7409         MOV     A,#0x9
   \   00018F   12....       LCALL   ?DEALLOC_XSTACK8
   \   000192                REQUIRE ?Subroutine1
   \   000192                ; // Fall through to label ?Subroutine1

   \                                 In  segment BANKED_CODE, align 1, keep-with-next
   \                     ?Subroutine1:
   \   000000   7F04         MOV     R7,#0x4
   \   000002   02....       LJMP    ?BANKED_LEAVE_XDATA

   \                                 In  segment BANKED_CODE, align 1, keep-with-next
   \                     ?Subroutine16:
   \   000000   EE           MOV     A,R6
   \   000001   240B         ADD     A,#0xb
   \   000003   F582         MOV     DPL,A
   \   000005   EF           MOV     A,R7
   \   000006   3400         ADDC    A,#0x0
   \   000008   F583         MOV     DPH,A
   \   00000A   E0           MOVX    A,@DPTR
   \   00000B   22           RET

   \                                 In  segment BANKED_CODE, align 1, keep-with-next
   \                     ?Subroutine12:
   \   000000   E0           MOVX    A,@DPTR
   \   000001   F9           MOV     R1,A
   \   000002   90....       MOV     DPTR,#_NIB + 109
   \   000005   E0           MOVX    A,@DPTR
   \   000006   C3           CLR     C
   \   000007   99           SUBB    A,R1
   \   000008   22           RET

   \                                 In  segment BANKED_CODE, align 1, keep-with-next
   \                     ?Subroutine11:
   \   000000   E0           MOVX    A,@DPTR
   \   000001   FA           MOV     R2,A
   \   000002   A3           INC     DPTR
   \   000003   E0           MOVX    A,@DPTR
   \   000004   FB           MOV     R3,A
   \   000005   12....       LCALL   ??ZDNwkMgr_SetNwkManagerAddr?relay
   \   000008   22           RET

   \                                 In  segment BANKED_CODE, align 1, keep-with-next
   \                     ?Subroutine14:
   \   000000   E5..         MOV     A,?V0 + 0
   \   000002   45..         ORL     A,?V0 + 1
   \   000004   45..         ORL     A,?V0 + 2
   \   000006   45..         ORL     A,?V0 + 3
   \   000008   22           RET

   \                                 In  segment BANKED_CODE, align 1, keep-with-next
   \                     ?Subroutine3:
   \   000000   85..82       MOV     DPL,?V0 + 0
   \   000003   85..83       MOV     DPH,?V0 + 1
   \   000006                REQUIRE ??Subroutine20_0
   \   000006                ; // Fall through to label ??Subroutine20_0

   \                                 In  segment BANKED_CODE, align 1, keep-with-next
   \                     ??Subroutine20_0:
   \   000000   12....       LCALL   ??Subroutine23_0 & 0xFFFF
   \                     ??CrossCallReturnLabel_45:
   \   000003   90....       MOV     DPTR,#ZDNwkMgr_MgmtNwkUpdateNotifyAddr
   \   000006                REQUIRE ??Subroutine21_0
   \   000006                ; // Fall through to label ??Subroutine21_0
    618          
    619          /*********************************************************************
    620           * @fn      ZDNwkMgr_ProcessServerDiscRsp
    621           *
    622           * @brief   Process the incoming System Server Discovery Response
    623           *
    624           * @param   pRsp - Structure containing Server Discovery response
    625           *
    626           * @return  none
    627           */

   \                                 In  segment BANKED_CODE, align 1, keep-with-next
    628          void ZDNwkMgr_ProcessServerDiscRsp( zdoIncomingMsg_t *inMsg )
   \                     ZDNwkMgr_ProcessServerDiscRsp:
    629          {
   \   000000   74F7         MOV     A,#-0x9
   \   000002   12....       LCALL   ?BANKED_ENTER_XDATA
   \   000005                ; Saved register size: 9
   \   000005                ; Auto size: 3
   \   000005   74FD         MOV     A,#-0x3
   \   000007   12....       LCALL   ?ALLOC_XSTACK8
   \   00000A   EA           MOV     A,R2
   \   00000B   FE           MOV     R6,A
   \   00000C   EB           MOV     A,R3
   \   00000D   FF           MOV     R7,A
    630            ZDO_ServerDiscRsp_t Rsp;
    631            
    632            ZDO_ParseServerDiscRsp( inMsg, &Rsp );
   \   00000E                ; Setup parameters for call to function ZDO_ParseServerDiscRsp
   \   00000E   85..82       MOV     DPL,?XSP + 0
   \   000011   85..83       MOV     DPH,?XSP + 1
   \   000014   AC82         MOV     R4,DPL
   \   000016   AD83         MOV     R5,DPH
   \   000018   12....       LCALL   ??ZDO_ParseServerDiscRsp?relay
    633            
    634            if ( Rsp.status == ZSuccess )
   \   00001B   85..82       MOV     DPL,?XSP + 0
   \   00001E   85..83       MOV     DPH,?XSP + 1
   \   000021   E0           MOVX    A,@DPTR
   \   000022   7013         JNZ     ??CrossCallReturnLabel_11
    635            {
    636              // Is the Network Manager bit set in the response?
    637              if ( Rsp.serverMask & NETWORK_MANAGER )
   \   000024   7401         MOV     A,#0x1
   \   000026   12....       LCALL   ?XSTACK_DISP0_8
   \   000029   E0           MOVX    A,@DPTR
   \   00002A   5440         ANL     A,#0x40
   \   00002C   6009         JZ      ??CrossCallReturnLabel_11
    638              {
    639                // Set the Remote Device's NWK Address as the Network Manager Address
    640                ZDNwkMgr_SetNwkManagerAddr( inMsg->srcAddr.addr.shortAddr );
   \   00002E                ; Setup parameters for call to function ZDNwkMgr_SetNwkManagerAddr
   \   00002E   8E82         MOV     DPL,R6
   \   000030   8F83         MOV     DPH,R7
   \   000032   A3           INC     DPTR
   \   000033   A3           INC     DPTR
   \   000034   12....       LCALL   ?Subroutine11 & 0xFFFF
    641              }
    642            }
    643          }
   \                     ??CrossCallReturnLabel_11:
   \   000037   7403         MOV     A,#0x3
   \   000039   12....       LCALL   ?DEALLOC_XSTACK8
   \   00003C   02....       LJMP    ?Subroutine0 & 0xFFFF
    644          
    645          /*********************************************************************
    646           * @fn          ZDNwkMgr_ProcessChannelInterference
    647           *
    648           * @brief       This function processes the incoming Channel Interference
    649           *              detection message and sends out a notify (if needed).
    650           *
    651           * @param       pChannelInterference - interference message
    652           *
    653           * @return      none
    654           */
    655          static void ZDNwkMgr_ProcessChannelInterference( ZDNwkMgr_ChanInterference_t *pChanInterference )
    656          {
    657            // To avoid a device with communication problems from constantly 
    658            // sending reports to the network manager, the device should not 
    659            // send a Mgmt_NWK_Update_notify more than 4 times per hour.
    660            if ( ZDNwkMgr_NumUpdateNotifySent < 4 )
    661            {
    662              // Conduct an energy scan on all channels.
    663              if ( NLME_EDScanRequest( MAX_CHANNELS_24GHZ, _NIB.scanDuration ) == ZSuccess )
    664              {
    665                // Save the counters for the Update Notify message to be sent
    666                ZDNwkMgr_TotalTransmissions = pChanInterference->totalTransmissions;
    667                ZDNwkMgr_TxFailures = pChanInterference->txFailures;
    668          
    669                // Mark scan as channel inetrference check
    670                ZDNwkMgr_MgmtNwkUpdateReq.scanCount = 0xFF;
    671              }
    672            }
    673          }
    674          
    675          /*********************************************************************
    676           * @fn          ZDNwkMgr_ProcessEDScanConfirm
    677           *
    678           * @brief       This function processes the incoming ED Scan Confirm
    679           *              message and sends out a notify (if needed).
    680           *
    681           * @param       pEDScanConfirm - SD Scan Confirmation message
    682           *
    683           * @return      none
    684           */
    685          static void ZDNwkMgr_ProcessEDScanConfirm( ZDNwkMgr_EDScanConfirm_t *pEDScanConfirm )
    686          { 
    687            if ( ZDNwkMgr_MgmtNwkUpdateReq.scanCount == 0xFF )
    688            {
    689              // Confirm to scan all channels for channel interference check
    690              ZDNwkMgr_CheckForChannelInterference( pEDScanConfirm ); 
    691              
    692              ZDNwkMgr_MgmtNwkUpdateReq.scanCount = 0;
    693            }
    694            else
    695            {
    696              // Confirm to the requested scan
    697              uint16 txFailures = nwkTransmissionFailures( FALSE );
    698              
    699              ZDNwkMgr_BuildAndSendUpdateNotify( ZDNwkMgr_MgmtNwkUpdateNotifyTransSeq,
    700                                                 &ZDNwkMgr_MgmtNwkUpdateNotifyAddr, 
    701                                                 _NIB.nwkTotalTransmissions, txFailures, 
    702                                                 pEDScanConfirm, AF_TX_OPTIONS_NONE );
    703              // More scans needed?
    704              if ( ZDNwkMgr_MgmtNwkUpdateReq.scanCount > 0 )
    705              {
    706                osal_start_timerEx( ZDNwkMgr_TaskID, ZDNWKMGR_SCAN_REQUEST_EVT, 50 );
    707              }
    708            }
    709          }
    710          
    711          /*********************************************************************
    712           * @fn          ZDNwkMgr_CheckForChannelInterference
    713           *
    714           * @brief       This function processes the incoming ED Scan Confirm
    715           *              message and sends out an Update Notify (if needed).
    716           *
    717           * @param       pEDScanConfirm - SD Scan Confirmation message
    718           *
    719           * @return      none
    720           */

   \                                 In  segment BANKED_CODE, align 1, keep-with-next
    721          static void ZDNwkMgr_CheckForChannelInterference( ZDNwkMgr_EDScanConfirm_t *pEDScanConfirm )
   \                     ZDNwkMgr_CheckForChannelInterference:
    722          {
   \   000000   74F4         MOV     A,#-0xc
   \   000002   12....       LCALL   ?BANKED_ENTER_XDATA
   \   000005                ; Saved register size: 12
   \   000005                ; Auto size: 0
    723            uint8 i;
    724            uint8 channelEnergy = 0;
   \   000005   7E00         MOV     R6,#0x0
    725            uint8 energyIncreased = FALSE;
    726              
    727            // Get the current channel energy
    728            if ( ( (uint32)1 << _NIB.nwkLogicalChannel ) & pEDScanConfirm->scannedChannels )
   \   000007   90....       MOV     DPTR,#_NIB + 22
   \   00000A   E0           MOVX    A,@DPTR
   \   00000B   FF           MOV     R7,A
   \   00000C   EA           MOV     A,R2
   \   00000D   2403         ADD     A,#0x3
   \   00000F   F8           MOV     R0,A
   \   000010   EB           MOV     A,R3
   \   000011   3400         ADDC    A,#0x0
   \   000013   F9           MOV     R1,A
   \   000014   E8           MOV     A,R0
   \   000015   FC           MOV     R4,A
   \   000016   E9           MOV     A,R1
   \   000017   FD           MOV     R5,A
   \   000018   75..01       MOV     ?V0 + 0,#0x1
   \   00001B   8E..         MOV     ?V0 + 1,R6
   \   00001D   8E..         MOV     ?V0 + 2,R6
   \   00001F   8E..         MOV     ?V0 + 3,R6
   \   000021   EF           MOV     A,R7
   \   000022   78..         MOV     R0,#?V0 + 0
   \   000024   12....       LCALL   ?L_SHL
   \   000027   8C82         MOV     DPL,R4
   \   000029   8D83         MOV     DPH,R5
   \   00002B   78..         MOV     R0,#?V0 + 0
   \   00002D   12....       LCALL   ?L_AND_X
   \   000030   12....       LCALL   ?Subroutine14 & 0xFFFF
   \                     ??CrossCallReturnLabel_18:
   \   000033   6006         JZ      ??ZDNwkMgr_CheckForChannelInterference_0
    729            {
    730              channelEnergy = pEDScanConfirm->energyDetectList[_NIB.nwkLogicalChannel];
   \   000035   8F..         MOV     ?V0 + 0,R7
   \   000037   12....       LCALL   ?Subroutine15 & 0xFFFF
    731            }
   \                     ??CrossCallReturnLabel_22:
   \   00003A   FE           MOV     R6,A
    732              
    733            // If this energy scan does not indicate higher energy on the current 
    734            // channel then other channels, no action is taken. The device should 
    735            // continue to operate as normal and the message counters are not reset.
    736            for ( i = 0; i < ED_SCAN_MAXCHANNELS; i++ )
   \                     ??ZDNwkMgr_CheckForChannelInterference_0:
   \   00003B   7900         MOV     R1,#0x0
    737            {
    738              if ( ( ( (uint32)1 << i ) & pEDScanConfirm->scannedChannels ) && 
    739                   ( channelEnergy > pEDScanConfirm->energyDetectList[i] ) )
   \                     ??ZDNwkMgr_CheckForChannelInterference_1:
   \   00003D   75..01       MOV     ?V0 + 0,#0x1
   \   000040   75..00       MOV     ?V0 + 1,#0x0
   \   000043   75..00       MOV     ?V0 + 2,#0x0
   \   000046   75..00       MOV     ?V0 + 3,#0x0
   \   000049   E9           MOV     A,R1
   \   00004A   78..         MOV     R0,#?V0 + 0
   \   00004C   12....       LCALL   ?L_SHL
   \   00004F   8C82         MOV     DPL,R4
   \   000051   8D83         MOV     DPH,R5
   \   000053   78..         MOV     R0,#?V0 + 0
   \   000055   12....       LCALL   ?L_AND_X
   \   000058   12....       LCALL   ?Subroutine14 & 0xFFFF
   \                     ??CrossCallReturnLabel_19:
   \   00005B   605D         JZ      ??ZDNwkMgr_CheckForChannelInterference_2
   \   00005D   89..         MOV     ?V0 + 0,R1
   \   00005F   12....       LCALL   ?Subroutine15 & 0xFFFF
   \                     ??CrossCallReturnLabel_23:
   \   000062   C3           CLR     C
   \   000063   9E           SUBB    A,R6
   \   000064   5054         JNC     ??ZDNwkMgr_CheckForChannelInterference_2
    740              {
    741                energyIncreased = TRUE;
    742                break;
    743              }
    744            }
    745              
    746            // If the energy scan does indicate increased energy on the channel
    747            // in use, a Mgmt_NWK_Update_notify should be sent to the Network 
    748            // Manager to indicate interference is present.
    749            if ( energyIncreased )
    750            {
    751              // Send a Management Network Update notify to the Network Manager
    752              ZDNwkMgr_MgmtNwkUpdateNotifyAddr.addr.shortAddr = _NIB.nwkManagerAddr;
   \   000066   90....       MOV     DPTR,#_NIB + 105
   \   000069   12....       LCALL   ??Subroutine20_0 & 0xFFFF
    753              ZDNwkMgr_BuildAndSendUpdateNotify( 0, &ZDNwkMgr_MgmtNwkUpdateNotifyAddr, 
    754                                                 ZDNwkMgr_TotalTransmissions, ZDNwkMgr_TxFailures,
    755                                                 pEDScanConfirm, AF_MSG_ACK_REQUEST );
   \                     ??CrossCallReturnLabel_36:
   \   00006C                ; Setup parameters for call to function ZDNwkMgr_BuildAndSendUpdateNotify
   \   00006C   75..10       MOV     ?V0 + 0,#0x10
   \   00006F   78..         MOV     R0,#?V0 + 0
   \   000071   12....       LCALL   ?PUSH_XSTACK_I_ONE
   \   000074   8A..         MOV     ?V0 + 0,R2
   \   000076   8B..         MOV     ?V0 + 1,R3
   \   000078   78..         MOV     R0,#?V0 + 0
   \   00007A   12....       LCALL   ?PUSH_XSTACK_I_TWO
   \   00007D   90....       MOV     DPTR,#ZDNwkMgr_TxFailures
   \   000080   12....       LCALL   ?PUSH_XSTACK8_X_TWO
   \   000083   90....       MOV     DPTR,#ZDNwkMgr_TotalTransmissions
   \   000086   12....       LCALL   ?Subroutine10 & 0xFFFF
   \                     ??CrossCallReturnLabel_9:
   \   000089   7900         MOV     R1,#0x0
   \   00008B   12....       LCALL   ??ZDNwkMgr_BuildAndSendUpdateNotify?relay
   \   00008E   7405         MOV     A,#0x5
   \   000090   12....       LCALL   ?DEALLOC_XSTACK8
    756              ZDNwkMgr_WaitingForNotifyConfirm = TRUE; // Confirm will clear the counters
   \   000093   90....       MOV     DPTR,#ZDNwkMgr_WaitingForNotifyConfirm
   \   000096   7401         MOV     A,#0x1
   \   000098   F0           MOVX    @DPTR,A
    757                
    758              if ( ZDNwkMgr_NumUpdateNotifySent == 0 )
   \   000099   90....       MOV     DPTR,#ZDNwkMgr_NumUpdateNotifySent
   \   00009C   E0           MOVX    A,@DPTR
   \   00009D   7013         JNZ     ??CrossCallReturnLabel_30
    759              {
    760                // First notify message sent within this hour. Start the Update Notify timer.
    761                ZDNwkMgr_UpdateNotifyTimer = ZDNWKMGR_UPDATE_NOTIFY_TIMER;
   \   00009F   90....       MOV     DPTR,#ZDNwkMgr_UpdateNotifyTimer
   \   0000A2   743C         MOV     A,#0x3c
   \   0000A4   F0           MOVX    @DPTR,A
   \   0000A5   A3           INC     DPTR
   \   0000A6   E4           CLR     A
   \   0000A7   F0           MOVX    @DPTR,A
    762                osal_start_timerEx( ZDNwkMgr_TaskID, ZDNWKMGR_UPDATE_NOTIFY_EVT, ONE_MINUTE );
   \   0000A8                ; Setup parameters for call to function osal_start_timerEx
   \   0000A8   7C60         MOV     R4,#0x60
   \   0000AA   7DEA         MOV     R5,#-0x16
   \   0000AC   7A02         MOV     R2,#0x2
   \   0000AE   FB           MOV     R3,A
   \   0000AF   12....       LCALL   ??Subroutine19_0 & 0xFFFF
    763              }
    764              
    765              ZDNwkMgr_NumUpdateNotifySent++;
   \                     ??CrossCallReturnLabel_30:
   \   0000B2   90....       MOV     DPTR,#ZDNwkMgr_NumUpdateNotifySent
   \   0000B5   E0           MOVX    A,@DPTR
   \   0000B6   04           INC     A
   \   0000B7   F0           MOVX    @DPTR,A
   \   0000B8   8042         SJMP    ??ZDNwkMgr_CheckForChannelInterference_3
    766            }
   \                     ??ZDNwkMgr_CheckForChannelInterference_2:
   \   0000BA   09           INC     R1
   \   0000BB   E9           MOV     A,R1
   \   0000BC   C3           CLR     C
   \   0000BD   941B         SUBB    A,#0x1b
   \   0000BF   5003         JNC     $+5
   \   0000C1   02....       LJMP    ??ZDNwkMgr_CheckForChannelInterference_1 & 0xFFFF
    767          #if defined ( LCD_SUPPORTED )
    768            else
    769            {
    770              HalLcdWriteString( (char*)NwkMgrStr_4, HAL_LCD_LINE_1 );
   \   0000C4                ; Setup parameters for call to function HalLcdWriteString
   \   0000C4   7901         MOV     R1,#0x1
   \   0000C6   7A..         MOV     R2,#NwkMgrStr_4 & 0xff
   \   0000C8   7B..         MOV     R3,#(NwkMgrStr_4 >> 8) & 0xff
   \   0000CA   12....       LCALL   ??HalLcdWriteString?relay
    771              HalLcdWriteStringValueValue( ": ", _NIB.nwkLogicalChannel, 10, channelEnergy, 10, HAL_LCD_LINE_2 );
   \   0000CD                ; Setup parameters for call to function HalLcdWriteStringValueValue
   \   0000CD   75..02       MOV     ?V0 + 0,#0x2
   \   0000D0   78..         MOV     R0,#?V0 + 0
   \   0000D2   12....       LCALL   ?PUSH_XSTACK_I_ONE
   \   0000D5   75..0A       MOV     ?V0 + 0,#0xa
   \   0000D8   78..         MOV     R0,#?V0 + 0
   \   0000DA   12....       LCALL   ?PUSH_XSTACK_I_ONE
   \   0000DD   8E..         MOV     ?V0 + 0,R6
   \   0000DF   75..00       MOV     ?V0 + 1,#0x0
   \   0000E2   78..         MOV     R0,#?V0 + 0
   \   0000E4   12....       LCALL   ?PUSH_XSTACK_I_TWO
   \   0000E7   790A         MOV     R1,#0xa
   \   0000E9   90....       MOV     DPTR,#_NIB + 22
   \   0000EC   E0           MOVX    A,@DPTR
   \   0000ED   FC           MOV     R4,A
   \   0000EE   7D00         MOV     R5,#0x0
   \   0000F0   7A..         MOV     R2,#`?<Constant ": ">` & 0xff
   \   0000F2   7B..         MOV     R3,#(`?<Constant ": ">` >> 8) & 0xff
   \   0000F4   12....       LCALL   ??HalLcdWriteStringValueValue?relay
   \   0000F7   7404         MOV     A,#0x4
   \   0000F9   12....       LCALL   ?DEALLOC_XSTACK8
    772            }
    773          #endif
    774          }
   \                     ??ZDNwkMgr_CheckForChannelInterference_3:
   \   0000FC   02....       LJMP    ?Subroutine1 & 0xFFFF

   \                                 In  segment BANKED_CODE, align 1, keep-with-next
   \                     ?Subroutine15:
   \   000000   EA           MOV     A,R2
   \   000001   25..         ADD     A,?V0 + 0
   \   000003   F582         MOV     DPL,A
   \   000005   EB           MOV     A,R3
   \   000006   3400         ADDC    A,#0x0
   \   000008   F583         MOV     DPH,A
   \   00000A   A3           INC     DPTR
   \   00000B   A3           INC     DPTR
   \   00000C   A3           INC     DPTR
   \   00000D   A3           INC     DPTR
   \   00000E   A3           INC     DPTR
   \   00000F   A3           INC     DPTR
   \   000010   A3           INC     DPTR
   \   000011   E0           MOVX    A,@DPTR
   \   000012   22           RET
    775          
    776          /*********************************************************************
    777           * @fn          ZDNwkMgr_BuildAndSendUpdateNotify
    778           *
    779           * @brief       This builds and send a Mgmt_NWK_Update_notify message. This
    780           *              function sends a unicast message.
    781           *
    782           * @param       TransSeq - transaction sequence number
    783           * @param       dstAddr - destination address of the message
    784           * @param       pEDScanConfirm - update notify info
    785           *
    786           * @return      afStatus_t
    787           */

   \                                 In  segment BANKED_CODE, align 1, keep-with-next
    788          static void ZDNwkMgr_BuildAndSendUpdateNotify( uint8 TransSeq, zAddrType_t *dstAddr,
   \                     ZDNwkMgr_BuildAndSendUpdateNotify:
    789                                                         uint16 totalTransmissions, uint16 txFailures,
    790                                                         ZDNwkMgr_EDScanConfirm_t *pEDScanConfirm,
    791                                                         uint8 txOptions )
    792          {
   \   000000   74F0         MOV     A,#-0x10
   \   000002   12....       LCALL   ?BANKED_ENTER_XDATA
   \   000005                ; Saved register size: 16
   \   000005                ; Auto size: 7
   \   000005   74F9         MOV     A,#-0x7
   \   000007   12....       LCALL   ?ALLOC_XSTACK8
   \   00000A   7404         MOV     A,#0x4
   \   00000C   12....       LCALL   ?XSTACK_DISP0_8
   \   00000F   E9           MOV     A,R1
   \   000010   F0           MOVX    @DPTR,A
   \   000011   7405         MOV     A,#0x5
   \   000013   12....       LCALL   ?XSTACK_DISP0_8
   \   000016   EA           MOV     A,R2
   \   000017   F0           MOVX    @DPTR,A
   \   000018   A3           INC     DPTR
   \   000019   EB           MOV     A,R3
   \   00001A   F0           MOVX    @DPTR,A
   \   00001B   8C..         MOV     ?V0 + 4,R4
   \   00001D   8D..         MOV     ?V0 + 5,R5
   \   00001F   7417         MOV     A,#0x17
   \   000021   12....       LCALL   ?XSTACK_DISP0_8
   \   000024   E0           MOVX    A,@DPTR
   \   000025   FE           MOV     R6,A
   \   000026   A3           INC     DPTR
   \   000027   E0           MOVX    A,@DPTR
   \   000028   FF           MOV     R7,A
   \   000029   741B         MOV     A,#0x1b
   \   00002B   12....       LCALL   ?XSTACK_DISP0_8
   \   00002E   E0           MOVX    A,@DPTR
   \   00002F   F5..         MOV     ?V0 + 7,A
    793            uint8 i;
    794            uint8 listCount = 0;
   \   000031   75..00       MOV     ?V0 + 6,#0x0
    795            uint8 *energyValues = NULL;
   \   000034   85..82       MOV     DPL,?XSP + 0
   \   000037   85..83       MOV     DPH,?XSP + 1
   \   00003A   E4           CLR     A
   \   00003B   F0           MOVX    @DPTR,A
   \   00003C   A3           INC     DPTR
   \   00003D   F0           MOVX    @DPTR,A
    796            
    797            // Count number of energy detects
    798            for ( i = 0; i < ED_SCAN_MAXCHANNELS; i++ )
   \   00003E   F9           MOV     R1,A
   \   00003F   7419         MOV     A,#0x19
   \   000041   12....       LCALL   ?XSTACK_DISP0_8
   \   000044   E0           MOVX    A,@DPTR
   \   000045   2403         ADD     A,#0x3
   \   000047   FA           MOV     R2,A
   \   000048   A3           INC     DPTR
   \   000049   E0           MOVX    A,@DPTR
   \   00004A   3400         ADDC    A,#0x0
   \   00004C   FB           MOV     R3,A
   \   00004D   7402         MOV     A,#0x2
   \   00004F   12....       LCALL   ?XSTACK_DISP0_8
   \   000052   EA           MOV     A,R2
   \   000053   F0           MOVX    @DPTR,A
   \   000054   A3           INC     DPTR
   \   000055   EB           MOV     A,R3
   \   000056   F0           MOVX    @DPTR,A
    799            {
    800              if ( ( (uint32)1 << i ) & pEDScanConfirm->scannedChannels )
   \                     ??ZDNwkMgr_BuildAndSendUpdateNotify_0:
   \   000057   75..01       MOV     ?V0 + 0,#0x1
   \   00005A   75..00       MOV     ?V0 + 1,#0x0
   \   00005D   75..00       MOV     ?V0 + 2,#0x0
   \   000060   75..00       MOV     ?V0 + 3,#0x0
   \   000063   E9           MOV     A,R1
   \   000064   78..         MOV     R0,#?V0 + 0
   \   000066   12....       LCALL   ?L_SHL
   \   000069   7402         MOV     A,#0x2
   \   00006B   12....       LCALL   ?XSTACK_DISP0_8
   \   00006E   12....       LCALL   ?Subroutine9 & 0xFFFF
   \                     ??CrossCallReturnLabel_6:
   \   000071   12....       LCALL   ?L_AND_X
   \   000074   12....       LCALL   ?Subroutine14 & 0xFFFF
   \                     ??CrossCallReturnLabel_20:
   \   000077   6002         JZ      ??ZDNwkMgr_BuildAndSendUpdateNotify_1
    801                listCount++;
   \   000079   05..         INC     ?V0 + 6
    802            }
   \                     ??ZDNwkMgr_BuildAndSendUpdateNotify_1:
   \   00007B   09           INC     R1
   \   00007C   E9           MOV     A,R1
   \   00007D   C3           CLR     C
   \   00007E   941B         SUBB    A,#0x1b
   \   000080   40D5         JC      ??ZDNwkMgr_BuildAndSendUpdateNotify_0
    803            
    804            if ( listCount > 0 )
   \   000082   E5..         MOV     A,?V0 + 6
   \   000084   6066         JZ      ??ZDNwkMgr_BuildAndSendUpdateNotify_2
    805            {
    806              energyValues = (uint8 *)osal_mem_alloc( listCount );
   \   000086                ; Setup parameters for call to function osal_mem_alloc
   \   000086   FA           MOV     R2,A
   \   000087   7B00         MOV     R3,#0x0
   \   000089   12....       LCALL   ??osal_mem_alloc?relay
   \   00008C   85..82       MOV     DPL,?XSP + 0
   \   00008F   85..83       MOV     DPH,?XSP + 1
   \   000092   EA           MOV     A,R2
   \   000093   F0           MOVX    @DPTR,A
   \   000094   A3           INC     DPTR
   \   000095   EB           MOV     A,R3
   \   000096   F0           MOVX    @DPTR,A
    807              if ( energyValues )
   \   000097   12....       LCALL   ?Subroutine5 & 0xFFFF
   \                     ??CrossCallReturnLabel_40:
   \   00009A   6050         JZ      ??ZDNwkMgr_BuildAndSendUpdateNotify_2
    808              {
    809                uint8 j = 0;
   \   00009C   7A00         MOV     R2,#0x0
    810          
    811                for ( i = 0; i < ED_SCAN_MAXCHANNELS; i++ )
   \   00009E   7900         MOV     R1,#0x0
    812                {
    813                  if ( ( (uint32)1 << i ) & pEDScanConfirm->scannedChannels )
   \                     ??ZDNwkMgr_BuildAndSendUpdateNotify_3:
   \   0000A0   75..01       MOV     ?V0 + 0,#0x1
   \   0000A3   75..00       MOV     ?V0 + 1,#0x0
   \   0000A6   75..00       MOV     ?V0 + 2,#0x0
   \   0000A9   75..00       MOV     ?V0 + 3,#0x0
   \   0000AC   E9           MOV     A,R1
   \   0000AD   78..         MOV     R0,#?V0 + 0
   \   0000AF   12....       LCALL   ?L_SHL
   \   0000B2   7402         MOV     A,#0x2
   \   0000B4   12....       LCALL   ?XSTACK_DISP0_8
   \   0000B7   12....       LCALL   ?Subroutine9 & 0xFFFF
   \                     ??CrossCallReturnLabel_7:
   \   0000BA   12....       LCALL   ?L_AND_X
   \   0000BD   12....       LCALL   ?Subroutine14 & 0xFFFF
   \                     ??CrossCallReturnLabel_21:
   \   0000C0   6023         JZ      ??ZDNwkMgr_BuildAndSendUpdateNotify_4
    814                    energyValues[j++] = pEDScanConfirm->energyDetectList[i];
   \   0000C2   E9           MOV     A,R1
   \   0000C3   FC           MOV     R4,A
   \   0000C4   7419         MOV     A,#0x19
   \   0000C6   12....       LCALL   ?XSTACK_DISP0_8
   \   0000C9   12....       LCALL   ?Subroutine7 & 0xFFFF
    815                }
   \                     ??CrossCallReturnLabel_4:
   \   0000CC   A3           INC     DPTR
   \   0000CD   A3           INC     DPTR
   \   0000CE   A3           INC     DPTR
   \   0000CF   A3           INC     DPTR
   \   0000D0   A3           INC     DPTR
   \   0000D1   A3           INC     DPTR
   \   0000D2   A3           INC     DPTR
   \   0000D3   E0           MOVX    A,@DPTR
   \   0000D4   C0E0         PUSH    A
   \   0000D6   EA           MOV     A,R2
   \   0000D7   FC           MOV     R4,A
   \   0000D8   85..82       MOV     DPL,?XSP + 0
   \   0000DB   85..83       MOV     DPH,?XSP + 1
   \   0000DE   12....       LCALL   ?Subroutine7 & 0xFFFF
   \                     ??CrossCallReturnLabel_5:
   \   0000E1   D0E0         POP     A
   \   0000E3   F0           MOVX    @DPTR,A
   \   0000E4   0A           INC     R2
   \                     ??ZDNwkMgr_BuildAndSendUpdateNotify_4:
   \   0000E5   09           INC     R1
   \   0000E6   E9           MOV     A,R1
   \   0000E7   C3           CLR     C
   \   0000E8   941B         SUBB    A,#0x1b
   \   0000EA   40B4         JC      ??ZDNwkMgr_BuildAndSendUpdateNotify_3
    816              }
    817            }
    818              
    819            // Send a Management Network Update notify back
    820            ZDP_MgmtNwkUpdateNotify( TransSeq, dstAddr, pEDScanConfirm->status, 
    821                                     pEDScanConfirm->scannedChannels,
    822                                     totalTransmissions, txFailures,
    823                                     listCount, energyValues, txOptions, false );
   \                     ??ZDNwkMgr_BuildAndSendUpdateNotify_2:
   \   0000EC                ; Setup parameters for call to function ZDP_MgmtNwkUpdateNotify
   \   0000EC   75..00       MOV     ?V0 + 0,#0x0
   \   0000EF   78..         MOV     R0,#?V0 + 0
   \   0000F1   12....       LCALL   ?PUSH_XSTACK_I_ONE
   \   0000F4   E5..         MOV     A,?V0 + 7
   \   0000F6   F5..         MOV     ?V0 + 0,A
   \   0000F8   78..         MOV     R0,#?V0 + 0
   \   0000FA   12....       LCALL   ?PUSH_XSTACK_I_ONE
   \   0000FD   7402         MOV     A,#0x2
   \   0000FF   12....       LCALL   ?XSTACK_DISP0_8
   \   000102   12....       LCALL   ?PUSH_XSTACK8_X_TWO
   \   000105   8E..         MOV     ?V0 + 0,R6
   \   000107   8F..         MOV     ?V0 + 1,R7
   \   000109   78..         MOV     R0,#?V0 + 0
   \   00010B   12....       LCALL   ?PUSH_XSTACK_I_TWO
   \   00010E   78..         MOV     R0,#?V0 + 4
   \   000110   12....       LCALL   ?PUSH_XSTACK_I_TWO
   \   000113   740A         MOV     A,#0xa
   \   000115   12....       LCALL   ?XSTACK_DISP0_8
   \   000118   12....       LCALL   ?Subroutine13 & 0xFFFF
   \                     ??CrossCallReturnLabel_14:
   \   00011B   12....       LCALL   ?PUSH_XSTACK8_X_FOUR
   \   00011E   AD..         MOV     R5,?V0 + 6
   \   000120   7425         MOV     A,#0x25
   \   000122   12....       LCALL   ?XSTACK_DISP0_8
   \   000125   12....       LCALL   ?Subroutine13 & 0xFFFF
   \                     ??CrossCallReturnLabel_15:
   \   000128   A3           INC     DPTR
   \   000129   A3           INC     DPTR
   \   00012A   E0           MOVX    A,@DPTR
   \   00012B   FC           MOV     R4,A
   \   00012C   7411         MOV     A,#0x11
   \   00012E   12....       LCALL   ?XSTACK_DISP0_8
   \   000131   E0           MOVX    A,@DPTR
   \   000132   FA           MOV     R2,A
   \   000133   A3           INC     DPTR
   \   000134   E0           MOVX    A,@DPTR
   \   000135   FB           MOV     R3,A
   \   000136   7410         MOV     A,#0x10
   \   000138   12....       LCALL   ?XSTACK_DISP0_8
   \   00013B   E0           MOVX    A,@DPTR
   \   00013C   F9           MOV     R1,A
   \   00013D   12....       LCALL   ??ZDP_MgmtNwkUpdateNotify?relay
   \   000140   740C         MOV     A,#0xc
   \   000142   12....       LCALL   ?DEALLOC_XSTACK8
    824            if ( energyValues )
   \   000145   12....       LCALL   ?Subroutine5 & 0xFFFF
   \                     ??CrossCallReturnLabel_41:
   \   000148   600E         JZ      ??ZDNwkMgr_BuildAndSendUpdateNotify_5
    825              osal_mem_free( energyValues );
   \   00014A                ; Setup parameters for call to function osal_mem_free
   \   00014A   85..82       MOV     DPL,?XSP + 0
   \   00014D   85..83       MOV     DPH,?XSP + 1
   \   000150   E0           MOVX    A,@DPTR
   \   000151   FA           MOV     R2,A
   \   000152   A3           INC     DPTR
   \   000153   E0           MOVX    A,@DPTR
   \   000154   FB           MOV     R3,A
   \   000155   12....       LCALL   ??osal_mem_free?relay
    826          }
   \                     ??ZDNwkMgr_BuildAndSendUpdateNotify_5:
   \   000158   7407         MOV     A,#0x7
   \   00015A   12....       LCALL   ?DEALLOC_XSTACK8
   \   00015D   7F08         MOV     R7,#0x8
   \   00015F   02....       LJMP    ?BANKED_LEAVE_XDATA

   \                                 In  segment BANKED_CODE, align 1, keep-with-next
   \                     ?Subroutine13:
   \   000000   12....       LCALL   ?Subroutine18 & 0xFFFF
   \                     ??CrossCallReturnLabel_27:
   \   000003   22           RET

   \                                 In  segment BANKED_CODE, align 1, keep-with-next
   \                     ?Subroutine18:
   \   000000   E0           MOVX    A,@DPTR
   \   000001   F8           MOV     R0,A
   \   000002   A3           INC     DPTR
   \   000003   E0           MOVX    A,@DPTR
   \   000004   F583         MOV     DPH,A
   \   000006   8882         MOV     DPL,R0
   \   000008   22           RET

   \                                 In  segment BANKED_CODE, align 1, keep-with-next
   \                     ?Subroutine9:
   \   000000   12....       LCALL   ?Subroutine18 & 0xFFFF
   \                     ??CrossCallReturnLabel_26:
   \   000003   78..         MOV     R0,#?V0 + 0
   \   000005   22           RET

   \                                 In  segment BANKED_CODE, align 1, keep-with-next
   \                     ?Subroutine7:
   \   000000   E0           MOVX    A,@DPTR
   \   000001   2C           ADD     A,R4
   \   000002   F8           MOV     R0,A
   \   000003   A3           INC     DPTR
   \   000004   E0           MOVX    A,@DPTR
   \   000005   3400         ADDC    A,#0x0
   \   000007   8882         MOV     DPL,R0
   \   000009   F583         MOV     DPH,A
   \   00000B   22           RET

   \                                 In  segment BANKED_CODE, align 1, keep-with-next
   \                     ?Subroutine5:
   \   000000   85..82       MOV     DPL,?XSP + 0
   \   000003   85..83       MOV     DPH,?XSP + 1
   \   000006                REQUIRE ??Subroutine22_0
   \   000006                ; // Fall through to label ??Subroutine22_0
    827          
    828          #if defined ( NWK_MANAGER )
    829          /*********************************************************************
    830           * @fn      NwkMgr_SetNwkManager
    831           *
    832           * @brief   Set the local device as the Network Manager
    833           *
    834           * @param   none
    835           *
    836           * @return  none
    837           */
    838          void NwkMgr_SetNwkManager( void )
    839          {
    840            if ( zgNwkMgrMode == ZDNWKMGR_ENABLE )
    841            {
    842              // We're the Network Manager. Set our address as the Network Manager Address
    843              ZDNwkMgr_SetNwkManagerAddr( _NIB.nwkDevAddress );
    844              
    845              // Set the Network Manager bit of the Server Mask
    846              ZDO_Config_Node_Descriptor.ServerMask |= NETWORK_MANAGER;
    847            }
    848          }
    849          #endif // NWK_MANAGER
    850          
    851          /*********************************************************************
    852           * @fn      ZDApp_SetNwkManagerAddr()
    853           *
    854           * @brief   Sets the nwkManagerAddr in NIB.
    855           *
    856           * @param   nwkManagerAddr
    857           *
    858           * @return  none
    859           */

   \                                 In  segment BANKED_CODE, align 1, keep-with-next
    860          void ZDNwkMgr_SetNwkManagerAddr( uint16 nwkManagerAddr )
   \                     ZDNwkMgr_SetNwkManagerAddr:
    861          {
   \   000000   C082         PUSH    DPL
   \   000002   C083         PUSH    DPH
   \   000004                ; Saved register size: 2
   \   000004                ; Auto size: 0
    862            if ( _NIB.nwkManagerAddr != nwkManagerAddr )
   \   000004   90....       MOV     DPTR,#_NIB + 105
   \   000007   E0           MOVX    A,@DPTR
   \   000008   6A           XRL     A,R2
   \   000009   7003         JNZ     ??ZDNwkMgr_SetNwkManagerAddr_0
   \   00000B   A3           INC     DPTR
   \   00000C   E0           MOVX    A,@DPTR
   \   00000D   6B           XRL     A,R3
   \                     ??ZDNwkMgr_SetNwkManagerAddr_0:
   \   00000E   600B         JZ      ??ZDNwkMgr_SetNwkManagerAddr_1
    863            {
    864              // Update the Network Manager Address
    865              _NIB.nwkManagerAddr = nwkManagerAddr;
   \   000010   90....       MOV     DPTR,#_NIB + 105
   \   000013   EA           MOV     A,R2
   \   000014   F0           MOVX    @DPTR,A
   \   000015   A3           INC     DPTR
   \   000016   EB           MOV     A,R3
   \   000017   F0           MOVX    @DPTR,A
    866            
    867              // Our Network Manger Address has been changed -- notify to save info into NV
    868              ZDApp_NwkStateUpdateCB();
   \   000018                ; Setup parameters for call to function ZDApp_NwkStateUpdateCB
   \   000018   12....       LCALL   ??ZDApp_NwkStateUpdateCB?relay
    869            }
    870          }
   \                     ??ZDNwkMgr_SetNwkManagerAddr_1:
   \   00001B                REQUIRE ?Subroutine2
   \   00001B                ; // Fall through to label ?Subroutine2

   \                                 In  segment BANKED_CODE, align 1, keep-with-next
   \                     ?Subroutine2:
   \   000000   D083         POP     DPH
   \   000002   D082         POP     DPL
   \   000004   02....       LJMP    ?BRET
    871          
    872          /*********************************************************************
    873           * @fn          ZDNwkMgr_ReportChannelInterference
    874           *
    875           * @brief       This function builds a Channel Interference detection
    876           *              message and then forwards it to the Network Manager.
    877           *
    878           * @param       chanInterference
    879           *
    880           * @return      none
    881           */

   \                                 In  segment BANKED_CODE, align 1, keep-with-next
    882          void ZDNwkMgr_ReportChannelInterference(  NLME_ChanInterference_t *chanInterference  )
   \                     ZDNwkMgr_ReportChannelInterference:
    883          {
   \   000000   74F6         MOV     A,#-0xa
   \   000002   12....       LCALL   ?BANKED_ENTER_XDATA
   \   000005                ; Saved register size: 10
   \   000005                ; Auto size: 0
   \   000005   EA           MOV     A,R2
   \   000006   FE           MOV     R6,A
   \   000007   EB           MOV     A,R3
   \   000008   FF           MOV     R7,A
    884            ZDNwkMgr_ChanInterference_t *pChanInterference;
    885          
    886            // Send Channel Interference message to the Network Manager task
    887            pChanInterference = (ZDNwkMgr_ChanInterference_t *)osal_msg_allocate( sizeof( ZDNwkMgr_ChanInterference_t ) );
   \   000009                ; Setup parameters for call to function osal_msg_allocate
   \   000009   7A06         MOV     R2,#0x6
   \   00000B   7B00         MOV     R3,#0x0
   \   00000D   12....       LCALL   ??osal_msg_allocate?relay
    888            if ( pChanInterference )
   \   000010   EA           MOV     A,R2
   \   000011   4B           ORL     A,R3
   \   000012   6027         JZ      ??ZDNwkMgr_ReportChannelInterference_0
    889            {
    890              pChanInterference->hdr.event = NM_CHANNEL_INTERFERE;
   \   000014   8A82         MOV     DPL,R2
   \   000016   8B83         MOV     DPH,R3
   \   000018   7431         MOV     A,#0x31
   \   00001A   F0           MOVX    @DPTR,A
    891                
    892              // Build the structure
    893              pChanInterference->totalTransmissions = chanInterference->totalTransmissions;
   \   00001B   8E82         MOV     DPL,R6
   \   00001D   8F83         MOV     DPH,R7
   \   00001F   12....       LCALL   ?Subroutine6 & 0xFFFF
   \                     ??CrossCallReturnLabel_2:
   \   000022   12....       LCALL   ??Subroutine21_0 & 0xFFFF
    894              pChanInterference->txFailures = chanInterference->txFailures;
   \                     ??CrossCallReturnLabel_34:
   \   000025   8E82         MOV     DPL,R6
   \   000027   8F83         MOV     DPH,R7
   \   000029   A3           INC     DPTR
   \   00002A   A3           INC     DPTR
   \   00002B   12....       LCALL   ?Subroutine6 & 0xFFFF
   \                     ??CrossCallReturnLabel_3:
   \   00002E   A3           INC     DPTR
   \   00002F   A3           INC     DPTR
   \   000030   12....       LCALL   ??Subroutine21_0 & 0xFFFF
    895                        
    896              osal_msg_send( ZDNwkMgr_TaskID, (uint8 *)pChanInterference );
   \                     ??CrossCallReturnLabel_35:
   \   000033                ; Setup parameters for call to function osal_msg_send
   \   000033   90....       MOV     DPTR,#ZDNwkMgr_TaskID
   \   000036   E0           MOVX    A,@DPTR
   \   000037   F9           MOV     R1,A
   \   000038   12....       LCALL   ??osal_msg_send?relay
    897            }
    898          }
   \                     ??ZDNwkMgr_ReportChannelInterference_0:
   \   00003B   7F02         MOV     R7,#0x2
   \   00003D   02....       LJMP    ?BANKED_LEAVE_XDATA

   \                                 In  segment BANKED_CODE, align 1, keep-with-next
   \                     ?Subroutine6:
   \   000000   12....       LCALL   ??Subroutine23_0 & 0xFFFF
   \                     ??CrossCallReturnLabel_42:
   \   000003   8A82         MOV     DPL,R2
   \   000005   8B83         MOV     DPH,R3
   \   000007   A3           INC     DPTR
   \   000008   A3           INC     DPTR
   \   000009   22           RET
    899          
    900          /*********************************************************************
    901           * @fn          ZDNwkMgr_EDScanConfirmCB
    902           *
    903           * @brief       Handle Energy Scan confirm callback
    904           *
    905           * @param       scannedChannels  - scanned channels
    906           * @param       energyDetectList - measured energy for channels
    907           *
    908           * @return      none
    909           */

   \                                 In  segment BANKED_CODE, align 1, keep-with-next
    910          void ZDNwkMgr_EDScanConfirmCB( NLME_EDScanConfirm_t *EDScanConfirm )
   \                     ZDNwkMgr_EDScanConfirmCB:
    911          {
   \   000000   74F4         MOV     A,#-0xc
   \   000002   12....       LCALL   ?BANKED_ENTER_XDATA
   \   000005                ; Saved register size: 12
   \   000005                ; Auto size: 0
   \   000005   8A..         MOV     ?V0 + 0,R2
   \   000007   8B..         MOV     ?V0 + 1,R3
    912            ZDNwkMgr_EDScanConfirm_t *pEDScanConfirm;
    913          
    914            // Send ED Confirm to the Network Manager task
    915            pEDScanConfirm = (ZDNwkMgr_EDScanConfirm_t *)osal_msg_allocate( sizeof( ZDNwkMgr_EDScanConfirm_t ) );
   \   000009                ; Setup parameters for call to function osal_msg_allocate
   \   000009   7A22         MOV     R2,#0x22
   \   00000B   7B00         MOV     R3,#0x0
   \   00000D   12....       LCALL   ??osal_msg_allocate?relay
   \   000010   8A..         MOV     ?V0 + 2,R2
   \   000012   8B..         MOV     ?V0 + 3,R3
   \   000014   AE..         MOV     R6,?V0 + 2
   \   000016   AF..         MOV     R7,?V0 + 3
    916            if ( pEDScanConfirm )
   \   000018   EE           MOV     A,R6
   \   000019   4F           ORL     A,R7
   \   00001A   6063         JZ      ??ZDNwkMgr_EDScanConfirmCB_0
    917            {
    918              pEDScanConfirm->hdr.event = NM_ED_SCAN_CONFIRM;
   \   00001C   8E82         MOV     DPL,R6
   \   00001E   8F83         MOV     DPH,R7
   \   000020   7432         MOV     A,#0x32
   \   000022   F0           MOVX    @DPTR,A
    919                
    920              // Build the structure
    921              pEDScanConfirm->status = EDScanConfirm->status;
   \   000023   85..82       MOV     DPL,?V0 + 0
   \   000026   85..83       MOV     DPH,?V0 + 1
   \   000029   E0           MOVX    A,@DPTR
   \   00002A   8E82         MOV     DPL,R6
   \   00002C   8F83         MOV     DPH,R7
   \   00002E   A3           INC     DPTR
   \   00002F   A3           INC     DPTR
   \   000030   F0           MOVX    @DPTR,A
    922              pEDScanConfirm->scannedChannels = EDScanConfirm->scannedChannels;
   \   000031   85..82       MOV     DPL,?V0 + 0
   \   000034   85..83       MOV     DPH,?V0 + 1
   \   000037   A3           INC     DPTR
   \   000038   12....       LCALL   ?XLOAD_R2345
   \   00003B   8E82         MOV     DPL,R6
   \   00003D   8F83         MOV     DPH,R7
   \   00003F   A3           INC     DPTR
   \   000040   A3           INC     DPTR
   \   000041   A3           INC     DPTR
   \   000042   12....       LCALL   ?XSTORE_R2345
    923              osal_memcpy( pEDScanConfirm->energyDetectList, EDScanConfirm->energyDetectList, ED_SCAN_MAXCHANNELS );
   \   000045                ; Setup parameters for call to function osal_memcpy
   \   000045   85..82       MOV     DPL,?V0 + 0
   \   000048   85..83       MOV     DPH,?V0 + 1
   \   00004B   A3           INC     DPTR
   \   00004C   A3           INC     DPTR
   \   00004D   A3           INC     DPTR
   \   00004E   A3           INC     DPTR
   \   00004F   A3           INC     DPTR
   \   000050   E0           MOVX    A,@DPTR
   \   000051   F5..         MOV     ?V0 + 0,A
   \   000053   A3           INC     DPTR
   \   000054   E0           MOVX    A,@DPTR
   \   000055   F5..         MOV     ?V0 + 1,A
   \   000057   75..00       MOV     ?V0 + 2,#0x0
   \   00005A   78..         MOV     R0,#?V0 + 0
   \   00005C   12....       LCALL   ?PUSH_XSTACK_I_THREE
   \   00005F   7C1B         MOV     R4,#0x1b
   \   000061   7D00         MOV     R5,#0x0
   \   000063   EE           MOV     A,R6
   \   000064   2407         ADD     A,#0x7
   \   000066   FA           MOV     R2,A
   \   000067   EF           MOV     A,R7
   \   000068   3400         ADDC    A,#0x0
   \   00006A   FB           MOV     R3,A
   \   00006B   12....       LCALL   ??osal_memcpy?relay
   \   00006E   7403         MOV     A,#0x3
   \   000070   12....       LCALL   ?DEALLOC_XSTACK8
    924                
    925              osal_msg_send( ZDNwkMgr_TaskID, (uint8 *)pEDScanConfirm );
   \   000073                ; Setup parameters for call to function osal_msg_send
   \   000073   EE           MOV     A,R6
   \   000074   FA           MOV     R2,A
   \   000075   EF           MOV     A,R7
   \   000076   FB           MOV     R3,A
   \   000077   90....       MOV     DPTR,#ZDNwkMgr_TaskID
   \   00007A   E0           MOVX    A,@DPTR
   \   00007B   F9           MOV     R1,A
   \   00007C   12....       LCALL   ??osal_msg_send?relay
    926            }
    927          }
   \                     ??ZDNwkMgr_EDScanConfirmCB_0:
   \   00007F   02....       LJMP    ?Subroutine1 & 0xFFFF
    928          
    929          /*********************************************************************
    930           * @fn      ZDNwkMgr_ProcessDataConfirm
    931           *
    932           * @brief   Process received Confirmation for Mgmt NWK Update Notify message
    933           *
    934           * @param   none
    935           *
    936           * @return  none
    937           */

   \                                 In  segment BANKED_CODE, align 1, keep-with-next
    938          void ZDNwkMgr_ProcessDataConfirm( afDataConfirm_t *afDataConfirm )
   \                     ZDNwkMgr_ProcessDataConfirm:
    939          {
   \   000000   C082         PUSH    DPL
   \   000002   C083         PUSH    DPH
   \   000004                ; Saved register size: 2
   \   000004                ; Auto size: 0
    940            if (   ZDNwkMgr_WaitingForNotifyConfirm  && 
    941                 ( afDataConfirm->transID == 0 )     && 
    942                 ( afDataConfirm->hdr.status == ZSuccess ) )
   \   000004   90....       MOV     DPTR,#ZDNwkMgr_WaitingForNotifyConfirm
   \   000007   E0           MOVX    A,@DPTR
   \   000008   601A         JZ      ??ZDNwkMgr_ProcessDataConfirm_0
   \   00000A   8A82         MOV     DPL,R2
   \   00000C   8B83         MOV     DPH,R3
   \   00000E   A3           INC     DPTR
   \   00000F   A3           INC     DPTR
   \   000010   A3           INC     DPTR
   \   000011   E0           MOVX    A,@DPTR
   \   000012   7010         JNZ     ??ZDNwkMgr_ProcessDataConfirm_0
   \   000014   8A82         MOV     DPL,R2
   \   000016   8B83         MOV     DPH,R3
   \   000018   A3           INC     DPTR
   \   000019   E0           MOVX    A,@DPTR
   \   00001A   7008         JNZ     ??ZDNwkMgr_ProcessDataConfirm_0
    943            {
    944              // The Mgmt NWK Update Notify was sent as an APS Unicast with  
    945              // acknowledgement and once the acknowledgment is received the 
    946              // total transmit and transmit failure counters are reset to zero.  
    947              _NIB.nwkTotalTransmissions = 0;
   \   00001C   12....       LCALL   ?Subroutine4 & 0xFFFF
    948              nwkTransmissionFailures( TRUE );
    949              
    950              ZDNwkMgr_WaitingForNotifyConfirm = FALSE;
   \                     ??CrossCallReturnLabel_1:
   \   00001F   90....       MOV     DPTR,#ZDNwkMgr_WaitingForNotifyConfirm
   \   000022   E4           CLR     A
   \   000023   F0           MOVX    @DPTR,A
    951            }
    952          }
   \                     ??ZDNwkMgr_ProcessDataConfirm_0:
   \   000024   02....       LJMP    ?Subroutine2 & 0xFFFF

   \                                 In  segment BANK_RELAYS, align 1
   \                     ??ZDNwkMgr_Init?relay:
   \   000000   12....       LCALL   ?BDISPATCH
   \   000003   ......       DC24    ZDNwkMgr_Init

   \                                 In  segment BANK_RELAYS, align 1
   \                     ??ZDNwkMgr_event_loop?relay:
   \   000000   12....       LCALL   ?BDISPATCH
   \   000003   ......       DC24    ZDNwkMgr_event_loop

   \                                 In  segment BANK_RELAYS, align 1
   \                     ??ZDNwkMgr_ProcessMgmtNwkUpdateReq?relay:
   \   000000   12....       LCALL   ?BDISPATCH
   \   000003   ......       DC24    ZDNwkMgr_ProcessMgmtNwkUpdateReq

   \                                 In  segment BANK_RELAYS, align 1
   \                     ??ZDNwkMgr_ProcessServerDiscRsp?relay:
   \   000000   12....       LCALL   ?BDISPATCH
   \   000003   ......       DC24    ZDNwkMgr_ProcessServerDiscRsp

   \                                 In  segment BANK_RELAYS, align 1
   \                     ??ZDNwkMgr_CheckForChannelInterference?relay:
   \   000000   12....       LCALL   ?BDISPATCH
   \   000003   ......       DC24    ZDNwkMgr_CheckForChannelInterference

   \                                 In  segment BANK_RELAYS, align 1
   \                     ??ZDNwkMgr_BuildAndSendUpdateNotify?relay:
   \   000000   12....       LCALL   ?BDISPATCH
   \   000003   ......       DC24    ZDNwkMgr_BuildAndSendUpdateNotify

   \                                 In  segment BANK_RELAYS, align 1
   \                     ??ZDNwkMgr_SetNwkManagerAddr?relay:
   \   000000   12....       LCALL   ?BDISPATCH
   \   000003   ......       DC24    ZDNwkMgr_SetNwkManagerAddr

   \                                 In  segment BANK_RELAYS, align 1
   \                     ??ZDNwkMgr_ReportChannelInterference?relay:
   \   000000   12....       LCALL   ?BDISPATCH
   \   000003   ......       DC24    ZDNwkMgr_ReportChannelInterference

   \                                 In  segment BANK_RELAYS, align 1
   \                     ??ZDNwkMgr_EDScanConfirmCB?relay:
   \   000000   12....       LCALL   ?BDISPATCH
   \   000003   ......       DC24    ZDNwkMgr_EDScanConfirmCB

   \                                 In  segment BANK_RELAYS, align 1
   \                     ??ZDNwkMgr_ProcessDataConfirm?relay:
   \   000000   12....       LCALL   ?BDISPATCH
   \   000003   ......       DC24    ZDNwkMgr_ProcessDataConfirm

   \                                 In  segment XDATA_ROM_C, align 1
   \                     `?<Constant ": ">`:
   \   000000   3A2000       DB ": "

   \                                 In  segment XDATA_ROM_C, align 1
   \                     __Constant_7fff800:
   \   000000   00F8FF07     DD 134215680

   \                                 In  segment XDATA_ROM_C, align 1
   \                     __Constant_0:
   \   000000   00000000     DD 0
    953          
    954          /*********************************************************************
    955           * PAN ID Conflict Routines
    956           */
    957          #if defined ( NWK_MANAGER )
    958          /*********************************************************************
    959           * @fn          ZDNwkMgr_NetworkReportCB
    960           *
    961           * @brief       Handle the Network Report Command
    962           *
    963           * @param       srcAddr     - Source Address of the message.
    964           * @param       status      - ZSuccess.
    965           * @param       serverMask  - Bit mask of services matching the req serverMask.
    966           * @param       securityUse -
    967           *
    968           * @return      none
    969           */
    970          void ZDNwkMgr_NetworkReportCB( ZDNwkMgr_NetworkReport_t *pReport )
    971          { 
    972            // Send Network Report message to the Network Manager task
    973            osal_msg_send( ZDNwkMgr_TaskID, (uint8 *)pReport );
    974          }
    975          
    976          /*********************************************************************
    977           * @fn          ZDNwkMgr_NetworkUpdateCB
    978           *
    979           * @brief       Handle the Network Update Command
    980           *
    981           * @param       srcAddr     - Source Address of the message.
    982           * @param       status      - ZSuccess.
    983           * @param       serverMask  - Bit mask of services matching the req serverMask.
    984           * @param       securityUse -
    985           *
    986           * @return      none
    987           */
    988          void ZDNwkMgr_NetworkUpdateCB( ZDNwkMgr_NetworkUpdate_t *pUpdate )
    989          {
    990            // Send Network Update message to the Network Manager task
    991            osal_msg_send( ZDNwkMgr_TaskID, (uint8 *)pUpdate );
    992          }
    993          
    994          /*********************************************************************
    995           * @fn      ZDNwkMgr_ProcessNetworkReport
    996           *
    997           * @brief   Process the incoming Network Report message
    998           *
    999           * @param   pNetworkReport - Structure containing Network Report message
   1000           *
   1001           * @return  none
   1002           */
   1003          void ZDNwkMgr_ProcessNetworkReport( ZDNwkMgr_NetworkReport_t *pNetworkReport )
   1004          {
   1005            uint8 i;
   1006            uint16 newPID;
   1007            uint8 unique = TRUE;
   1008          
   1009            if ( pNetworkReport->reportType == NWKREPORT_PANID_CONFLICT )
   1010            {
   1011              if ( ZDNwkMgr_PanIdUpdateInProgress == FALSE )
   1012              {
   1013                do
   1014                {
   1015                  // select a new PAN ID
   1016                  newPID = (uint16)osal_rand();
   1017                
   1018                  // Make sure that the chosen PAN ID is not already in use in the
   1019                  // local neighborhood and also not contained within the Report 
   1020                  // Information field of the Network Report Command frame
   1021                  for ( i = 0; i < pNetworkReport->reportInfoCnt; i++ )
   1022                  {
   1023                    if ( pNetworkReport->panIDs[i] == newPID )
   1024                    {
   1025                      unique = FALSE;
   1026                      break;
   1027                    }
   1028                  }
   1029                } while ( !unique );
   1030                   
   1031                // Send out a Network Update command.
   1032                NLME_SendNetworkUpdate( NWK_BROADCAST_SHORTADDR, NWKUPDATE_PANID_UPDATE,
   1033                                        _NIB.extendedPANID, _NIB.nwkUpdateId+1, newPID );
   1034              
   1035                ZDNwkMgr_PanIdUpdateInProgress = TRUE;
   1036              }
   1037            }
   1038          }
   1039          
   1040          /*********************************************************************
   1041           * @fn      ZDNwkMgr_ProcessNetworkUpdate
   1042           *
   1043           * @brief   Process the incoming Network Update message
   1044           *
   1045           * @param   pNetworkReport - Structure containing Network Update message
   1046           *
   1047           * @return  none
   1048           */
   1049          void ZDNwkMgr_ProcessNetworkUpdate( ZDNwkMgr_NetworkUpdate_t *pNetworkUpdate )
   1050          {
   1051            if ( pNetworkUpdate->updateType == NWKUPDATE_PANID_UPDATE )
   1052            { 
   1053              // Our PAN ID has been changed -- notify to save info into NV
   1054              ZDApp_NwkStateUpdateCB();
   1055              
   1056              ZDNwkMgr_PanIdUpdateInProgress = FALSE;
   1057            }
   1058          }
   1059          #endif // NWK_MANAGER
   1060          
   1061          
   1062          /*********************************************************************
   1063          *********************************************************************/

   Maximum stack usage in bytes:

     Function                       ISTACK PSTACK XSTACK
     --------                       ------ ------ ------
     ZDNwkMgr_BuildAndSendUpdateNotify
                                        1      0     54
       -> osal_mem_alloc                0      0     46
       -> ZDP_MgmtNwkUpdateNotify       0      0     70
       -> osal_mem_free                 0      0     46
     ZDNwkMgr_CheckForChannelInterference
                                        0      0     31
       -> ZDNwkMgr_BuildAndSendUpdateNotify
                                        0      0     34
       -> osal_start_timerEx            0      0     24
       -> HalLcdWriteString             0      0     24
       -> HalLcdWriteStringValueValue
                                        0      0     32
     ZDNwkMgr_EDScanConfirmCB           1      0     15
       -> osal_msg_allocate             0      0     24
       -> osal_memcpy                   0      0     30
       -> osal_msg_send                 0      0     24
     ZDNwkMgr_Init                      0      0      9
       -> ZDO_RegisterForZDOMsg         0      0     18
       -> ZDO_RegisterForZDOMsg         0      0     18
     ZDNwkMgr_ProcessDataConfirm        2      0      0
       -> nwkTransmissionFailures       4      0      0
     ZDNwkMgr_ProcessMgmtNwkUpdateReq
                                        2      0     47
       -> ZDO_ParseMgmtNwkUpdateReq     0      0     42
       -> NLME_EDScanRequest            0      0     42
       -> NLME_SetUpdateID              0      0     42
       -> osal_start_timerEx            0      0     42
       -> NLME_SetUpdateID              0      0     42
       -> ZDApp_NwkStateUpdateCB        0      0     42
       -> ZDNwkMgr_SetNwkManagerAddr
                                        0      0     42
       -> ZDP_MgmtNwkUpdateNotify       0      0     66
     ZDNwkMgr_ProcessServerDiscRsp      0      0     26
       -> ZDO_ParseServerDiscRsp        0      0     24
       -> ZDNwkMgr_SetNwkManagerAddr
                                        0      0     24
     ZDNwkMgr_ReportChannelInterference
                                        0      0     10
       -> osal_msg_allocate             0      0     20
       -> osal_msg_send                 0      0     20
     ZDNwkMgr_SetNwkManagerAddr         2      0     21
       -> ZDApp_NwkStateUpdateCB        4      0      0
     ZDNwkMgr_event_loop                0      0     19
       -> osal_msg_receive              0      0     28
       -> nwkTransmissionFailures       0      0     28
       -> ZDNwkMgr_BuildAndSendUpdateNotify
                                        0      0     38
       -> osal_start_timerEx            0      0     28
       -> osal_msg_deallocate           0      0     28
       -> osal_msg_receive              0      0     28
       -> ZDNwkMgr_ProcessServerDiscRsp
                                        0      0     28
       -> ZDNwkMgr_ProcessMgmtNwkUpdateReq
                                        0      0     28
       -> NLME_EDScanRequest            0      0     28
       -> ZDNwkMgr_CheckForChannelInterference
                                        0      0     28
       -> ZMacSetReq                    0      0     28
       -> ZDApp_NwkStateUpdateCB        0      0     28
       -> nwkTransmissionFailures       0      0     28
       -> osal_start_timerEx            0      0     28
       -> NLME_EDScanRequest            0      0     28


   Segment part sizes:

     Function/Label                               Bytes
     --------------                               -----
     NwkMgrStr_1                                    15
     NwkMgrStr_2                                    17
     NwkMgrStr_3                                    17
     NwkMgrStr_4                                    17
     ZDNwkMgr_TaskID                                 1
     ZDNwkMgr_MgmtNwkUpdateNotifyTransSeq
                                                     1
     ZDNwkMgr_MgmtNwkUpdateNotifyAddr
                                                     9
     ZDNwkMgr_UpdateNotifyTimer                      2
     ZDNwkMgr_NumUpdateNotifySent                    1
     ZDNwkMgr_WaitingForNotifyConfirm
                                                     1
     ZDNwkMgr_TotalTransmissions                     2
     ZDNwkMgr_TxFailures                             2
     ZDNwkMgr_MgmtNwkUpdateReq                       9
     ZDNwkMgr_NewChannel                             1
     pZDNwkMgr_ReportChannelInterference
                                                     2
     pZDNwkMgr_ProcessDataConfirm                    2
     pZDNwkMgr_EDScanConfirmCB                       2
     pZDNwkMgr_NetworkReportCB                       2
     pZDNwkMgr_NetworkUpdateCB                       2
     ZDNwkMgr_Init                                  74
     ?Subroutine0                                    5
     ZDNwkMgr_event_loop                           407
     ?Subroutine8                                    2
     ??Subroutine19_0                                9
     ?Subroutine10                                  10
     ??Subroutine21_0                                6
     ??Subroutine22_0                                6
     ?Subroutine17                                   2
     ??Subroutine23_0                                6
     ?Subroutine4                                   13
     ZDNwkMgr_ProcessMgmtNwkUpdateReq
                                                   402
     ?Subroutine1                                    5
     ?Subroutine16                                  12
     ?Subroutine12                                   9
     ?Subroutine11                                   9
     ?Subroutine14                                   9
     ?Subroutine3                                    6
     ??Subroutine20_0                                6
     ZDNwkMgr_ProcessServerDiscRsp                  63
     ZDNwkMgr_CheckForChannelInterference
                                                   255
     ?Subroutine15                                  19
     ZDNwkMgr_BuildAndSendUpdateNotify
                                                   354
     ?Subroutine13                                   4
     ?Subroutine18                                   9
     ?Subroutine9                                    6
     ?Subroutine7                                   12
     ?Subroutine5                                    6
     ZDNwkMgr_SetNwkManagerAddr                     27
     ?Subroutine2                                    7
     ZDNwkMgr_ReportChannelInterference
                                                    64
     ?Subroutine6                                   10
     ZDNwkMgr_EDScanConfirmCB                      130
     ZDNwkMgr_ProcessDataConfirm                    39
     ??ZDNwkMgr_Init?relay                           6
     ??ZDNwkMgr_event_loop?relay                     6
     ??ZDNwkMgr_ProcessMgmtNwkUpdateReq?relay        6
     ??ZDNwkMgr_ProcessServerDiscRsp?relay           6
     ??ZDNwkMgr_CheckForChannelInterference?relay    6
     ??ZDNwkMgr_BuildAndSendUpdateNotify?relay       6
     ??ZDNwkMgr_SetNwkManagerAddr?relay              6
     ??ZDNwkMgr_ReportChannelInterference?relay      6
     ??ZDNwkMgr_EDScanConfirmCB?relay                6
     ??ZDNwkMgr_ProcessDataConfirm?relay             6
     ?<Constant ": ">                                3
     __Constant_7fff800                              4
     __Constant_0                                    4

 
 2 003 bytes in segment BANKED_CODE
    60 bytes in segment BANK_RELAYS
    77 bytes in segment XDATA_ROM_C
    39 bytes in segment XDATA_Z
 
 2 063 bytes of CODE  memory
    69 bytes of CONST memory (+ 8 bytes shared)
    39 bytes of XDATA memory

Errors: none
Warnings: none
