///////////////////////////////////////////////////////////////////////////////
//                                                                            /
// IAR C/C++ Compiler V8.10.3.10338/W32 for 8051        07/Jun/2017  10:59:19 /
// Copyright 2004-2011 IAR Systems AB.                                        /
//                                                                            /
//    Core               =  plain                                             /
//    Code model         =  banked                                            /
//    Data model         =  large                                             /
//    Calling convention =  xdata reentrant                                   /
//    Constant location  =  data_rom                                          /
//    Dptr setup         =  1,16                                              /
//    Source file        =  F:\zigbee\zigbee\ZIGBEE_EB2530\µÚ6ÕÂ              /
//                          Êµ¼ùÏîÄ¿\WSN_ZigBee\Components\stack\zdo\ZDSecMgr /
//                          .c                                                /
//    Command line       =  -f "F:\zigbee\zigbee\ZIGBEE_EB2530\µÚ6ÕÂ          /
//                          Êµ¼ùÏîÄ¿\WSN_ZigBee\Projects\zstack\Utilities\Ser /
//                          ialApp\CC2530DB\..\..\..\Tools\CC2530DB\f8wCoord. /
//                          cfg" (-DCPU32MHZ -DROOT=__near_func               /
//                          -DMAC_CFG_APP_PENDING_QUEUE=TRUE                  /
//                          -DZDO_COORDINATOR -DRTR_NWK -DBLINK_LEDS) -f      /
//                          "F:\zigbee\zigbee\ZIGBEE_EB2530\µÚ6ÕÂ             /
//                          Êµ¼ùÏîÄ¿\WSN_ZigBee\Projects\zstack\Utilities\Ser /
//                          ialApp\CC2530DB\..\..\..\Tools\CC2530DB\f8wConfig /
//                          .cfg" (-DSECURE=0 -DZG_SECURE_DYNAMIC=0           /
//                          -DREFLECTOR -DDEFAULT_CHANLIST=0x00000800         /
//                          -DZDAPP_CONFIG_PAN_ID=0xFFF1                      /
//                          -DNWK_START_DELAY=100 -DEXTENDED_JOINING_RANDOM_M /
//                          ASK=0x007F -DBEACON_REQUEST_DELAY=100             /
//                          -DBEACON_REQ_DELAY_MASK=0x00FF                    /
//                          -DROUTE_EXPIRY_TIME=30 -DAPSC_ACK_WAIT_DURATION_P /
//                          OLLED=3000 -DNWK_INDIRECT_MSG_TIMEOUT=7           /
//                          -DMAX_RREQ_ENTRIES=8 -DAPSC_MAX_FRAME_RETRIES=3   /
//                          -DNWK_MAX_DATA_RETRIES=2                          /
//                          -DMAX_POLL_FAILURE_RETRIES=2 -DMAX_BCAST=9        /
//                          -DAPS_MAX_GROUPS=16 -DMAX_RTG_ENTRIES=40          /
//                          -DNWK_MAX_BINDING_ENTRIES=4                       /
//                          -DMAX_BINDING_CLUSTER_IDS=4                       /
//                          "-DDEFAULT_KEY={0x01, 0x03, 0x05, 0x07, 0x09,     /
//                          0x0B, 0x0D, 0x0F, 0x00, 0x02, 0x04, 0x06, 0x08,   /
//                          0x0A, 0x0C, 0x0D}" -DMAC_MAX_FRAME_SIZE=116       /
//                          "-DCONST=const __code" -DGENERIC=__generic        /
//                          -DRFD_RCVC_ALWAYS_ON=FALSE -DPOLL_RATE=1000       /
//                          -DQUEUED_POLL_RATE=100 -DRESPONSE_POLL_RATE=100)  /
//                          -DREJOIN_POLL_RATE=440 "F:\zigbee\zigbee\ZIGBEE_E /
//                          B2530\µÚ6ÕÂ Êµ¼ùÏîÄ¿\WSN_ZigBee\Components\stack\ /
//                          zdo\ZDSecMgr.c" -D ZIGBEEPRO -D HAL_UART=TRUE -D  /
//                          SERIAL_APP_PORT=0 -D LCD_SUPPORTED -D NV_RESTORE  /
//                          -lC "F:\zigbee\zigbee\ZIGBEE_EB2530\µÚ6ÕÂ         /
//                          Êµ¼ùÏîÄ¿\WSN_ZigBee\Projects\zstack\Utilities\Ser /
//                          ialApp\CC2530DB\CoordinatorEB-Pro\List\" -lA      /
//                          "F:\zigbee\zigbee\ZIGBEE_EB2530\µÚ6ÕÂ             /
//                          Êµ¼ùÏîÄ¿\WSN_ZigBee\Projects\zstack\Utilities\Ser /
//                          ialApp\CC2530DB\CoordinatorEB-Pro\List\"          /
//                          --diag_suppress Pe001,Pa010 -o                    /
//                          "F:\zigbee\zigbee\ZIGBEE_EB2530\µÚ6ÕÂ             /
//                          Êµ¼ùÏîÄ¿\WSN_ZigBee\Projects\zstack\Utilities\Ser /
//                          ialApp\CC2530DB\CoordinatorEB-Pro\Obj\" -e        /
//                          --debug --core=plain --dptr=16,1                  /
//                          --data_model=large --code_model=banked            /
//                          --calling_convention=xdata_reentrant              /
//                          --place_constants=data_rom --nr_virtual_regs 8    /
//                          -I "F:\zigbee\zigbee\ZIGBEE_EB2530\µÚ6ÕÂ          /
//                          Êµ¼ùÏîÄ¿\WSN_ZigBee\Projects\zstack\Utilities\Ser /
//                          ialApp\CC2530DB\" -I "F:\zigbee\zigbee\ZIGBEE_EB2 /
//                          530\µÚ6ÕÂ Êµ¼ùÏîÄ¿\WSN_ZigBee\Projects\zstack\Uti /
//                          lities\SerialApp\CC2530DB\..\SOURCE\" -I          /
//                          "F:\zigbee\zigbee\ZIGBEE_EB2530\µÚ6ÕÂ             /
//                          Êµ¼ùÏîÄ¿\WSN_ZigBee\Projects\zstack\Utilities\Ser /
//                          ialApp\CC2530DB\..\..\..\ZMAIN\TI2530DB\" -I      /
//                          "F:\zigbee\zigbee\ZIGBEE_EB2530\µÚ6ÕÂ             /
//                          Êµ¼ùÏîÄ¿\WSN_ZigBee\Projects\zstack\Utilities\Ser /
//                          ialApp\CC2530DB\..\..\..\..\..\COMPONENTS\MT\"    /
//                          -I "F:\zigbee\zigbee\ZIGBEE_EB2530\µÚ6ÕÂ          /
//                          Êµ¼ùÏîÄ¿\WSN_ZigBee\Projects\zstack\Utilities\Ser /
//                          ialApp\CC2530DB\..\..\..\..\..\COMPONENTS\HAL\INC /
//                          LUDE\" -I "F:\zigbee\zigbee\ZIGBEE_EB2530\µÚ6ÕÂ   /
//                          Êµ¼ùÏîÄ¿\WSN_ZigBee\Projects\zstack\Utilities\Ser /
//                          ialApp\CC2530DB\..\..\..\..\..\COMPONENTS\HAL\TAR /
//                          GET\CC2530EB\" -I "F:\zigbee\zigbee\ZIGBEE_EB2530 /
//                          \µÚ6ÕÂ Êµ¼ùÏîÄ¿\WSN_ZigBee\Projects\zstack\Utilit /
//                          ies\SerialApp\CC2530DB\..\..\..\..\..\COMPONENTS\ /
//                          OSAL\MCU\CCSOC\" -I "F:\zigbee\zigbee\ZIGBEE_EB25 /
//                          30\µÚ6ÕÂ Êµ¼ùÏîÄ¿\WSN_ZigBee\Projects\zstack\Util /
//                          ities\SerialApp\CC2530DB\..\..\..\..\..\COMPONENT /
//                          S\OSAL\INCLUDE\" -I "F:\zigbee\zigbee\ZIGBEE_EB25 /
//                          30\µÚ6ÕÂ Êµ¼ùÏîÄ¿\WSN_ZigBee\Projects\zstack\Util /
//                          ities\SerialApp\CC2530DB\..\..\..\..\..\COMPONENT /
//                          S\STACK\AF\" -I "F:\zigbee\zigbee\ZIGBEE_EB2530\µ /
//                          Ú6ÕÂ Êµ¼ùÏîÄ¿\WSN_ZigBee\Projects\zstack\Utilitie /
//                          s\SerialApp\CC2530DB\..\..\..\..\..\COMPONENTS\ST /
//                          ACK\NWK\" -I "F:\zigbee\zigbee\ZIGBEE_EB2530\µÚ6Õ /
//                          Â Êµ¼ùÏîÄ¿\WSN_ZigBee\Projects\zstack\Utilities\S /
//                          erialApp\CC2530DB\..\..\..\..\..\COMPONENTS\STACK /
//                          \SEC\" -I "F:\zigbee\zigbee\ZIGBEE_EB2530\µÚ6ÕÂ   /
//                          Êµ¼ùÏîÄ¿\WSN_ZigBee\Projects\zstack\Utilities\Ser /
//                          ialApp\CC2530DB\..\..\..\..\..\COMPONENTS\STACK\S /
//                          API\" -I "F:\zigbee\zigbee\ZIGBEE_EB2530\µÚ6ÕÂ    /
//                          Êµ¼ùÏîÄ¿\WSN_ZigBee\Projects\zstack\Utilities\Ser /
//                          ialApp\CC2530DB\..\..\..\..\..\COMPONENTS\STACK\S /
//                          YS\" -I "F:\zigbee\zigbee\ZIGBEE_EB2530\µÚ6ÕÂ     /
//                          Êµ¼ùÏîÄ¿\WSN_ZigBee\Projects\zstack\Utilities\Ser /
//                          ialApp\CC2530DB\..\..\..\..\..\COMPONENTS\STACK\Z /
//                          DO\" -I "F:\zigbee\zigbee\ZIGBEE_EB2530\µÚ6ÕÂ     /
//                          Êµ¼ùÏîÄ¿\WSN_ZigBee\Projects\zstack\Utilities\Ser /
//                          ialApp\CC2530DB\..\..\..\..\..\COMPONENTS\ZMAC\F8 /
//                          W\" -I "F:\zigbee\zigbee\ZIGBEE_EB2530\µÚ6ÕÂ      /
//                          Êµ¼ùÏîÄ¿\WSN_ZigBee\Projects\zstack\Utilities\Ser /
//                          ialApp\CC2530DB\..\..\..\..\..\COMPONENTS\ZMAC\"  /
//                          -I "F:\zigbee\zigbee\ZIGBEE_EB2530\µÚ6ÕÂ          /
//                          Êµ¼ùÏîÄ¿\WSN_ZigBee\Projects\zstack\Utilities\Ser /
//                          ialApp\CC2530DB\..\..\..\..\..\COMPONENTS\SERVICE /
//                          S\SADDR\" -I "F:\zigbee\zigbee\ZIGBEE_EB2530\µÚ6Õ /
//                          Â Êµ¼ùÏîÄ¿\WSN_ZigBee\Projects\zstack\Utilities\S /
//                          erialApp\CC2530DB\..\..\..\..\..\COMPONENTS\SERVI /
//                          CES\SDATA\" -I "F:\zigbee\zigbee\ZIGBEE_EB2530\µÚ /
//                          6ÕÂ Êµ¼ùÏîÄ¿\WSN_ZigBee\Projects\zstack\Utilities /
//                          \SerialApp\CC2530DB\..\..\..\..\..\COMPONENTS\MAC /
//                          \INCLUDE\" -I "F:\zigbee\zigbee\ZIGBEE_EB2530\µÚ6 /
//                          ÕÂ Êµ¼ùÏîÄ¿\WSN_ZigBee\Projects\zstack\Utilities\ /
//                          SerialApp\CC2530DB\..\..\..\..\..\COMPONENTS\MAC\ /
//                          HIGH_LEVEL\" -I "F:\zigbee\zigbee\ZIGBEE_EB2530\µ /
//                          Ú6ÕÂ Êµ¼ùÏîÄ¿\WSN_ZigBee\Projects\zstack\Utilitie /
//                          s\SerialApp\CC2530DB\..\..\..\..\..\COMPONENTS\MA /
//                          C\LOW_LEVEL\srf04\" -I "F:\zigbee\zigbee\ZIGBEE_E /
//                          B2530\µÚ6ÕÂ Êµ¼ùÏîÄ¿\WSN_ZigBee\Projects\zstack\U /
//                          tilities\SerialApp\CC2530DB\..\..\..\..\..\COMPON /
//                          ENTS\MAC\LOW_LEVEL\srf04\SINGLE_CHIP\" -Ohz       /
//                          --require_prototypes                              /
//    List file          =  F:\zigbee\zigbee\ZIGBEE_EB2530\µÚ6ÕÂ              /
//                          Êµ¼ùÏîÄ¿\WSN_ZigBee\Projects\zstack\Utilities\Ser /
//                          ialApp\CC2530DB\CoordinatorEB-Pro\List\ZDSecMgr.s /
//                          51                                                /
//                                                                            /
//                                                                            /
///////////////////////////////////////////////////////////////////////////////

        NAME ZDSecMgr

        RTMODEL "__SystemLibrary", "CLib"
        RTMODEL "__calling_convention", "xdata_reentrant"
        RTMODEL "__code_model", "banked"
        RTMODEL "__core", "plain"
        RTMODEL "__data_model", "large"
        RTMODEL "__dptr_size", "16"
        RTMODEL "__extended_stack", "disabled"
        RTMODEL "__location_for_constants", "data"
        RTMODEL "__number_of_dptrs", "1"
        RTMODEL "__rt_version", "1"

        RSEG DOVERLAY:DATA:NOROOT(0)
        RSEG IOVERLAY:IDATA:NOROOT(0)
        RSEG ISTACK:IDATA:NOROOT(0)
        RSEG PSTACK:XDATA:NOROOT(0)
        RSEG XSTACK:XDATA:NOROOT(0)

        EXTERN ?ALLOC_XSTACK8
        EXTERN ?BANKED_ENTER_XDATA
        EXTERN ?BANKED_LEAVE_XDATA
        EXTERN ?BDISPATCH
        EXTERN ?BRET
        EXTERN ?DEALLOC_XSTACK8
        EXTERN ?L_ADD_TO_X
        EXTERN ?L_MOV_X
        EXTERN ?PUSH_XSTACK8_X_TWO
        EXTERN ?PUSH_XSTACK_I_THREE
        EXTERN ?PUSH_XSTACK_I_TWO
        EXTERN ?V0
        EXTERN ?XLOAD_R2345
        EXTERN ?XSP
        EXTERN ?XSTACK_DISP0_8
        EXTERN ?XSTORE_R2345
        EXTERN __INIT_XDATA_I
        EXTERN __INIT_XDATA_Z

        PUBLIC ??APSME_KeyFwdToChild?relay
        FUNCTION ??APSME_KeyFwdToChild?relay,0203H
        PUBLIC ??APSME_LinkKeyDataGet?relay
        FUNCTION ??APSME_LinkKeyDataGet?relay,0203H
        PUBLIC ??APSME_LinkKeySet?relay
        FUNCTION ??APSME_LinkKeySet?relay,0203H
        PUBLIC ??APSME_MasterKeyGet?relay
        FUNCTION ??APSME_MasterKeyGet?relay,0203H
        PUBLIC ??APSME_SKA_TimerExpired?relay
        FUNCTION ??APSME_SKA_TimerExpired?relay,0203H
        PUBLIC ??ZDSecMgrAPSRemove?relay
        FUNCTION ??ZDSecMgrAPSRemove?relay,0203H
        PUBLIC ??ZDSecMgrAddLinkKey?relay
        FUNCTION ??ZDSecMgrAddLinkKey?relay,0203H
        PUBLIC ??ZDSecMgrAddrMgrUpdate?relay
        FUNCTION ??ZDSecMgrAddrMgrUpdate?relay,0203H
        PUBLIC ??ZDSecMgrAddrStore?relay
        FUNCTION ??ZDSecMgrAddrStore?relay,0203H
        PUBLIC ??ZDSecMgrAppKeyGet?relay
        FUNCTION ??ZDSecMgrAppKeyGet?relay,0203H
        PUBLIC ??ZDSecMgrAppKeyReq?relay
        FUNCTION ??ZDSecMgrAppKeyReq?relay,0203H
        PUBLIC ??ZDSecMgrAppKeyTypeSet?relay
        FUNCTION ??ZDSecMgrAppKeyTypeSet?relay,0203H
        PUBLIC ??ZDSecMgrAssocDeviceAuth?relay
        FUNCTION ??ZDSecMgrAssocDeviceAuth?relay,0203H
        PUBLIC ??ZDSecMgrAuthInitiate?relay
        FUNCTION ??ZDSecMgrAuthInitiate?relay,0203H
        PUBLIC ??ZDSecMgrAuthNwkKey?relay
        FUNCTION ??ZDSecMgrAuthNwkKey?relay,0203H
        PUBLIC ??ZDSecMgrAuthenticateCfm?relay
        FUNCTION ??ZDSecMgrAuthenticateCfm?relay,0203H
        PUBLIC ??ZDSecMgrAuthenticateInd?relay
        FUNCTION ??ZDSecMgrAuthenticateInd?relay,0203H
        PUBLIC ??ZDSecMgrAuthenticationCheck?relay
        FUNCTION ??ZDSecMgrAuthenticationCheck?relay,0203H
        PUBLIC ??ZDSecMgrAuthenticationSet?relay
        FUNCTION ??ZDSecMgrAuthenticationSet?relay,0203H
        PUBLIC ??ZDSecMgrConfig?relay
        FUNCTION ??ZDSecMgrConfig?relay,0203H
        PUBLIC ??ZDSecMgrCtrlAdd?relay
        FUNCTION ??ZDSecMgrCtrlAdd?relay,0203H
        PUBLIC ??ZDSecMgrCtrlInit?relay
        FUNCTION ??ZDSecMgrCtrlInit?relay,0203H
        PUBLIC ??ZDSecMgrCtrlLookup?relay
        FUNCTION ??ZDSecMgrCtrlLookup?relay,0203H
        PUBLIC ??ZDSecMgrCtrlRelease?relay
        FUNCTION ??ZDSecMgrCtrlRelease?relay,0203H
        PUBLIC ??ZDSecMgrCtrlReset?relay
        FUNCTION ??ZDSecMgrCtrlReset?relay,0203H
        PUBLIC ??ZDSecMgrCtrlSet?relay
        FUNCTION ??ZDSecMgrCtrlSet?relay,0203H
        PUBLIC ??ZDSecMgrCtrlTerm?relay
        FUNCTION ??ZDSecMgrCtrlTerm?relay,0203H
        PUBLIC ??ZDSecMgrDeviceCtrlHandler?relay
        FUNCTION ??ZDSecMgrDeviceCtrlHandler?relay,0203H
        PUBLIC ??ZDSecMgrDeviceCtrlSetup?relay
        FUNCTION ??ZDSecMgrDeviceCtrlSetup?relay,0203H
        PUBLIC ??ZDSecMgrDeviceCtrlUpdate?relay
        FUNCTION ??ZDSecMgrDeviceCtrlUpdate?relay,0203H
        PUBLIC ??ZDSecMgrDeviceEntryAdd?relay
        FUNCTION ??ZDSecMgrDeviceEntryAdd?relay,0203H
        PUBLIC ??ZDSecMgrDeviceEntryRemove?relay
        FUNCTION ??ZDSecMgrDeviceEntryRemove?relay,0203H
        PUBLIC ??ZDSecMgrDeviceJoin?relay
        FUNCTION ??ZDSecMgrDeviceJoin?relay,0203H
        PUBLIC ??ZDSecMgrDeviceJoinDirect?relay
        FUNCTION ??ZDSecMgrDeviceJoinDirect?relay,0203H
        PUBLIC ??ZDSecMgrDeviceJoinFwd?relay
        FUNCTION ??ZDSecMgrDeviceJoinFwd?relay,0203H
        PUBLIC ??ZDSecMgrDeviceNew?relay
        FUNCTION ??ZDSecMgrDeviceNew?relay,0203H
        PUBLIC ??ZDSecMgrDeviceRemove?relay
        FUNCTION ??ZDSecMgrDeviceRemove?relay,0203H
        PUBLIC ??ZDSecMgrDeviceValidate?relay
        FUNCTION ??ZDSecMgrDeviceValidate?relay,0203H
        PUBLIC ??ZDSecMgrDeviceValidateCM?relay
        FUNCTION ??ZDSecMgrDeviceValidateCM?relay,0203H
        PUBLIC ??ZDSecMgrDeviceValidateRM?relay
        FUNCTION ??ZDSecMgrDeviceValidateRM?relay,0203H
        PUBLIC ??ZDSecMgrDeviceValidateSKKE?relay
        FUNCTION ??ZDSecMgrDeviceValidateSKKE?relay,0203H
        PUBLIC ??ZDSecMgrEntryFree?relay
        FUNCTION ??ZDSecMgrEntryFree?relay,0203H
        PUBLIC ??ZDSecMgrEntryInit?relay
        FUNCTION ??ZDSecMgrEntryInit?relay,0203H
        PUBLIC ??ZDSecMgrEntryLookup?relay
        FUNCTION ??ZDSecMgrEntryLookup?relay,0203H
        PUBLIC ??ZDSecMgrEntryLookupAMI?relay
        FUNCTION ??ZDSecMgrEntryLookupAMI?relay,0203H
        PUBLIC ??ZDSecMgrEntryLookupExt?relay
        FUNCTION ??ZDSecMgrEntryLookupExt?relay,0203H
        PUBLIC ??ZDSecMgrEntryNew?relay
        FUNCTION ??ZDSecMgrEntryNew?relay,0203H
        PUBLIC ??ZDSecMgrEstablishKey?relay
        FUNCTION ??ZDSecMgrEstablishKey?relay,0203H
        PUBLIC ??ZDSecMgrEstablishKeyCfm?relay
        FUNCTION ??ZDSecMgrEstablishKeyCfm?relay,0203H
        PUBLIC ??ZDSecMgrEstablishKeyInd?relay
        FUNCTION ??ZDSecMgrEstablishKeyInd?relay,0203H
        PUBLIC ??ZDSecMgrEvent?relay
        FUNCTION ??ZDSecMgrEvent?relay,0203H
        PUBLIC ??ZDSecMgrExtAddrLookup?relay
        FUNCTION ??ZDSecMgrExtAddrLookup?relay,0203H
        PUBLIC ??ZDSecMgrExtAddrStore?relay
        FUNCTION ??ZDSecMgrExtAddrStore?relay,0203H
        PUBLIC ??ZDSecMgrInit?relay
        FUNCTION ??ZDSecMgrInit?relay,0203H
        PUBLIC ??ZDSecMgrInitNV?relay
        FUNCTION ??ZDSecMgrInitNV?relay,0203H
        PUBLIC ??ZDSecMgrMasterKeyInit?relay
        FUNCTION ??ZDSecMgrMasterKeyInit?relay,0203H
        PUBLIC ??ZDSecMgrMasterKeyLoad?relay
        FUNCTION ??ZDSecMgrMasterKeyLoad?relay,0203H
        PUBLIC ??ZDSecMgrMasterKeyLookup?relay
        FUNCTION ??ZDSecMgrMasterKeyLookup?relay,0203H
        PUBLIC ??ZDSecMgrMasterKeyStore?relay
        FUNCTION ??ZDSecMgrMasterKeyStore?relay,0203H
        PUBLIC ??ZDSecMgrNewDeviceEvent?relay
        FUNCTION ??ZDSecMgrNewDeviceEvent?relay,0203H
        PUBLIC ??ZDSecMgrPermitJoining?relay
        FUNCTION ??ZDSecMgrPermitJoining?relay,0203H
        PUBLIC ??ZDSecMgrPermitJoiningTimeout?relay
        FUNCTION ??ZDSecMgrPermitJoiningTimeout?relay,0203H
        PUBLIC ??ZDSecMgrRemoveDeviceInd?relay
        FUNCTION ??ZDSecMgrRemoveDeviceInd?relay,0203H
        PUBLIC ??ZDSecMgrRequestKeyInd?relay
        FUNCTION ??ZDSecMgrRequestKeyInd?relay,0203H
        PUBLIC ??ZDSecMgrRestoreFromNV?relay
        FUNCTION ??ZDSecMgrRestoreFromNV?relay,0203H
        PUBLIC ??ZDSecMgrSendMasterKey?relay
        FUNCTION ??ZDSecMgrSendMasterKey?relay,0203H
        PUBLIC ??ZDSecMgrSendNwkKey?relay
        FUNCTION ??ZDSecMgrSendNwkKey?relay,0203H
        PUBLIC ??ZDSecMgrSetDefaultNV?relay
        FUNCTION ??ZDSecMgrSetDefaultNV?relay,0203H
        PUBLIC ??ZDSecMgrSwitchKeyInd?relay
        FUNCTION ??ZDSecMgrSwitchKeyInd?relay,0203H
        PUBLIC ??ZDSecMgrSwitchNwkKey?relay
        FUNCTION ??ZDSecMgrSwitchNwkKey?relay,0203H
        PUBLIC ??ZDSecMgrTCDataLoad?relay
        FUNCTION ??ZDSecMgrTCDataLoad?relay,0203H
        PUBLIC ??ZDSecMgrTCExtAddrCheck?relay
        FUNCTION ??ZDSecMgrTCExtAddrCheck?relay,0203H
        PUBLIC ??ZDSecMgrTransportKeyInd?relay
        FUNCTION ??ZDSecMgrTransportKeyInd?relay,0203H
        PUBLIC ??ZDSecMgrUpdateDeviceInd?relay
        FUNCTION ??ZDSecMgrUpdateDeviceInd?relay,0203H
        PUBLIC ??ZDSecMgrUpdateNwkKey?relay
        FUNCTION ??ZDSecMgrUpdateNwkKey?relay,0203H
        PUBLIC ??ZDSecMgrWriteNV?relay
        FUNCTION ??ZDSecMgrWriteNV?relay,0203H
        PUBLIC APSME_KeyFwdToChild
        FUNCTION APSME_KeyFwdToChild,021203H
        ARGFRAME XSTACK, 0, STACK
        LOCFRAME XSTACK, 9, STACK
        PUBLIC APSME_LinkKeyDataGet
        FUNCTION APSME_LinkKeyDataGet,021203H
        ARGFRAME XSTACK, 0, STACK
        LOCFRAME XSTACK, 11, STACK
        PUBLIC APSME_LinkKeySet
        FUNCTION APSME_LinkKeySet,021203H
        ARGFRAME XSTACK, 16, STACK
        ARGFRAME IOVERLAY, 0, STATIC
        ARGFRAME DOVERLAY, 0, STATIC
        LOCFRAME XSTACK, 16, STACK
        PUBLIC APSME_MasterKeyGet
        FUNCTION APSME_MasterKeyGet,021203H
        ARGFRAME XSTACK, 0, STACK
        LOCFRAME XSTACK, 11, STACK
        PUBLIC APSME_SKA_TimerExpired
        FUNCTION APSME_SKA_TimerExpired,021203H
        ARGFRAME XSTACK, 0, STACK
        LOCFRAME XSTACK, 9, STACK
        PUBLIC TrustCenterLinkKey
        PUBLIC ZDSecMgrAPSRemove
        FUNCTION ZDSecMgrAPSRemove,021203H
        ARGFRAME XSTACK, 2, STACK
        LOCFRAME ISTACK, 2, STACK
        LOCFRAME XSTACK, 10, STACK
        PUBLIC ZDSecMgrAddLinkKey
        FUNCTION ZDSecMgrAddLinkKey,021203H
        ARGFRAME XSTACK, 2, STACK
        LOCFRAME XSTACK, 18, STACK
        PUBLIC ZDSecMgrAddrMgrUpdate
        FUNCTION ZDSecMgrAddrMgrUpdate,021203H
        ARGFRAME XSTACK, 14, STACK
        ARGFRAME IOVERLAY, 0, STATIC
        ARGFRAME DOVERLAY, 0, STATIC
        LOCFRAME XSTACK, 22, STACK
        PUBLIC ZDSecMgrAddrStore
        FUNCTION ZDSecMgrAddrStore,021203H
        ARGFRAME XSTACK, 18, STACK
        ARGFRAME IOVERLAY, 0, STATIC
        ARGFRAME DOVERLAY, 0, STATIC
        LOCFRAME XSTACK, 22, STACK
        PUBLIC ZDSecMgrAppKeyGet
        FUNCTION ZDSecMgrAppKeyGet,021203H
        ARGFRAME XSTACK, 8, STACK
        LOCFRAME ISTACK, 1, STACK
        LOCFRAME XSTACK, 9, STACK
        PUBLIC ZDSecMgrAppKeyReq
        FUNCTION ZDSecMgrAppKeyReq,021203H
        ARGFRAME XSTACK, 0, STACK
        ARGFRAME IOVERLAY, 0, STATIC
        ARGFRAME DOVERLAY, 0, STATIC
        LOCFRAME ISTACK, 1, STACK
        LOCFRAME XSTACK, 49, STACK
        PUBLIC ZDSecMgrAppKeyType
        PUBLIC ZDSecMgrAppKeyTypeSet
        FUNCTION ZDSecMgrAppKeyTypeSet,0203H
        ARGFRAME XSTACK, 0, STACK
        LOCFRAME ISTACK, 2, STACK
        PUBLIC ZDSecMgrAssocDeviceAuth
        FUNCTION ZDSecMgrAssocDeviceAuth,0203H
        ARGFRAME XSTACK, 35, STACK
        ARGFRAME IOVERLAY, 0, STATIC
        ARGFRAME DOVERLAY, 0, STATIC
        LOCFRAME ISTACK, 2, STACK
        PUBLIC ZDSecMgrAuthInitiate
        FUNCTION ZDSecMgrAuthInitiate,021203H
        ARGFRAME XSTACK, 0, STACK
        LOCFRAME XSTACK, 16, STACK
        PUBLIC ZDSecMgrAuthNwkKey
        FUNCTION ZDSecMgrAuthNwkKey,021203H
        ARGFRAME XSTACK, 10, STACK
        ARGFRAME IOVERLAY, 0, STATIC
        ARGFRAME DOVERLAY, 0, STATIC
        LOCFRAME ISTACK, 2, STACK
        PUBLIC ZDSecMgrAuthenticateCfm
        FUNCTION ZDSecMgrAuthenticateCfm,021203H
        ARGFRAME XSTACK, 0, STACK
        LOCFRAME ISTACK, 2, STACK
        PUBLIC ZDSecMgrAuthenticateInd
        FUNCTION ZDSecMgrAuthenticateInd,021203H
        ARGFRAME XSTACK, 0, STACK
        LOCFRAME XSTACK, 32, STACK
        PUBLIC ZDSecMgrAuthenticationCheck
        FUNCTION ZDSecMgrAuthenticationCheck,0203H
        ARGFRAME XSTACK, 0, STACK
        PUBLIC ZDSecMgrAuthenticationSet
        FUNCTION ZDSecMgrAuthenticationSet,021203H
        ARGFRAME XSTACK, 0, STACK
        LOCFRAME ISTACK, 1, STACK
        LOCFRAME XSTACK, 11, STACK
        PUBLIC ZDSecMgrConfig
        FUNCTION ZDSecMgrConfig,021203H
        ARGFRAME XSTACK, 0, STACK
        LOCFRAME ISTACK, 2, STACK
        PUBLIC ZDSecMgrCtrlAdd
        FUNCTION ZDSecMgrCtrlAdd,021203H
        ARGFRAME XSTACK, 14, STACK
        ARGFRAME IOVERLAY, 0, STATIC
        ARGFRAME DOVERLAY, 0, STATIC
        LOCFRAME XSTACK, 14, STACK
        PUBLIC ZDSecMgrCtrlData
        PUBLIC ZDSecMgrCtrlInit
        FUNCTION ZDSecMgrCtrlInit,021203H
        ARGFRAME XSTACK, 0, STACK
        LOCFRAME ISTACK, 2, STACK
        PUBLIC ZDSecMgrCtrlLookup
        FUNCTION ZDSecMgrCtrlLookup,0203H
        ARGFRAME XSTACK, 13, STACK
        ARGFRAME IOVERLAY, 0, STATIC
        ARGFRAME DOVERLAY, 0, STATIC
        LOCFRAME XSTACK, 10, STACK
        PUBLIC ZDSecMgrCtrlRelease
        FUNCTION ZDSecMgrCtrlRelease,0203H
        ARGFRAME XSTACK, 0, STACK
        LOCFRAME ISTACK, 2, STACK
        PUBLIC ZDSecMgrCtrlReset
        FUNCTION ZDSecMgrCtrlReset,021203H
        ARGFRAME XSTACK, 14, STACK
        ARGFRAME IOVERLAY, 0, STATIC
        ARGFRAME DOVERLAY, 0, STATIC
        LOCFRAME XSTACK, 14, STACK
        PUBLIC ZDSecMgrCtrlSet
        FUNCTION ZDSecMgrCtrlSet,0203H
        ARGFRAME XSTACK, 14, STACK
        ARGFRAME IOVERLAY, 0, STATIC
        ARGFRAME DOVERLAY, 0, STATIC
        LOCFRAME ISTACK, 1, STACK
        LOCFRAME XSTACK, 9, STACK
        PUBLIC ZDSecMgrCtrlTerm
        FUNCTION ZDSecMgrCtrlTerm,021203H
        ARGFRAME XSTACK, 9, STACK
        ARGFRAME IOVERLAY, 0, STATIC
        ARGFRAME DOVERLAY, 0, STATIC
        LOCFRAME ISTACK, 2, STACK
        LOCFRAME XSTACK, 2, STACK
        PUBLIC ZDSecMgrDeviceCtrlHandler
        FUNCTION ZDSecMgrDeviceCtrlHandler,021203H
        ARGFRAME XSTACK, 33, STACK
        ARGFRAME IOVERLAY, 0, STATIC
        ARGFRAME DOVERLAY, 0, STATIC
        LOCFRAME ISTACK, 1, STACK
        LOCFRAME XSTACK, 9, STACK
        PUBLIC ZDSecMgrDeviceCtrlSetup
        FUNCTION ZDSecMgrDeviceCtrlSetup,021203H
        ARGFRAME XSTACK, 0, STACK
        LOCFRAME ISTACK, 2, STACK
        PUBLIC ZDSecMgrDeviceCtrlUpdate
        FUNCTION ZDSecMgrDeviceCtrlUpdate,021203H
        ARGFRAME XSTACK, 9, STACK
        ARGFRAME IOVERLAY, 0, STATIC
        ARGFRAME DOVERLAY, 0, STATIC
        LOCFRAME XSTACK, 13, STACK
        PUBLIC ZDSecMgrDeviceEntryAdd
        FUNCTION ZDSecMgrDeviceEntryAdd,021203H
        ARGFRAME XSTACK, 14, STACK
        ARGFRAME IOVERLAY, 0, STATIC
        ARGFRAME DOVERLAY, 0, STATIC
        LOCFRAME XSTACK, 14, STACK
        PUBLIC ZDSecMgrDeviceEntryRemove
        FUNCTION ZDSecMgrDeviceEntryRemove,021203H
        ARGFRAME XSTACK, 14, STACK
        ARGFRAME IOVERLAY, 0, STATIC
        ARGFRAME DOVERLAY, 0, STATIC
        LOCFRAME XSTACK, 9, STACK
        PUBLIC ZDSecMgrDeviceJoin
        FUNCTION ZDSecMgrDeviceJoin,021203H
        ARGFRAME XSTACK, 10, STACK
        ARGFRAME IOVERLAY, 0, STATIC
        ARGFRAME DOVERLAY, 0, STATIC
        LOCFRAME XSTACK, 9, STACK
        PUBLIC ZDSecMgrDeviceJoinDirect
        FUNCTION ZDSecMgrDeviceJoinDirect,021203H
        ARGFRAME XSTACK, 0, STACK
        ARGFRAME IOVERLAY, 0, STATIC
        ARGFRAME DOVERLAY, 0, STATIC
        LOCFRAME XSTACK, 9, STACK
        PUBLIC ZDSecMgrDeviceJoinFwd
        FUNCTION ZDSecMgrDeviceJoinFwd,021203H
        ARGFRAME XSTACK, 0, STACK
        LOCFRAME ISTACK, 2, STACK
        LOCFRAME XSTACK, 8, STACK
        PUBLIC ZDSecMgrDeviceNew
        FUNCTION ZDSecMgrDeviceNew,021203H
        ARGFRAME XSTACK, 35, STACK
        ARGFRAME IOVERLAY, 0, STATIC
        ARGFRAME DOVERLAY, 0, STATIC
        LOCFRAME ISTACK, 2, STACK
        PUBLIC ZDSecMgrDeviceRemove
        FUNCTION ZDSecMgrDeviceRemove,021203H
        ARGFRAME XSTACK, 19, STACK
        ARGFRAME IOVERLAY, 0, STATIC
        ARGFRAME DOVERLAY, 0, STATIC
        LOCFRAME XSTACK, 19, STACK
        PUBLIC ZDSecMgrDeviceValidate
        FUNCTION ZDSecMgrDeviceValidate,021203H
        ARGFRAME XSTACK, 9, STACK
        ARGFRAME IOVERLAY, 0, STATIC
        ARGFRAME DOVERLAY, 0, STATIC
        LOCFRAME ISTACK, 2, STACK
        PUBLIC ZDSecMgrDeviceValidateCM
        FUNCTION ZDSecMgrDeviceValidateCM,021203H
        ARGFRAME XSTACK, 0, STACK
        LOCFRAME XSTACK, 16, STACK
        PUBLIC ZDSecMgrDeviceValidateRM
        FUNCTION ZDSecMgrDeviceValidateRM,0203H
        ARGFRAME XSTACK, 0, STACK
        ARGFRAME IOVERLAY, 0, STATIC
        ARGFRAME DOVERLAY, 0, STATIC
        LOCFRAME ISTACK, 2, STACK
        PUBLIC ZDSecMgrDeviceValidateSKKE
        FUNCTION ZDSecMgrDeviceValidateSKKE,021203H
        ARGFRAME XSTACK, 29, STACK
        ARGFRAME IOVERLAY, 0, STATIC
        ARGFRAME DOVERLAY, 0, STATIC
        LOCFRAME XSTACK, 13, STACK
        PUBLIC ZDSecMgrEntries
        PUBLIC ZDSecMgrEntryFree
        FUNCTION ZDSecMgrEntryFree,0203H
        ARGFRAME XSTACK, 0, STACK
        LOCFRAME ISTACK, 2, STACK
        PUBLIC ZDSecMgrEntryInit
        FUNCTION ZDSecMgrEntryInit,021203H
        ARGFRAME XSTACK, 0, STACK
        LOCFRAME ISTACK, 2, STACK
        PUBLIC ZDSecMgrEntryLookup
        FUNCTION ZDSecMgrEntryLookup,021203H
        ARGFRAME XSTACK, 14, STACK
        ARGFRAME IOVERLAY, 0, STATIC
        ARGFRAME DOVERLAY, 0, STATIC
        LOCFRAME XSTACK, 23, STACK
        PUBLIC ZDSecMgrEntryLookupAMI
        FUNCTION ZDSecMgrEntryLookupAMI,0203H
        ARGFRAME XSTACK, 16, STACK
        ARGFRAME IOVERLAY, 0, STATIC
        ARGFRAME DOVERLAY, 0, STATIC
        LOCFRAME XSTACK, 10, STACK
        PUBLIC ZDSecMgrEntryLookupExt
        FUNCTION ZDSecMgrEntryLookupExt,021203H
        ARGFRAME XSTACK, 13, STACK
        ARGFRAME IOVERLAY, 0, STATIC
        ARGFRAME DOVERLAY, 0, STATIC
        LOCFRAME XSTACK, 11, STACK
        PUBLIC ZDSecMgrEntryNew
        FUNCTION ZDSecMgrEntryNew,0203H
        ARGFRAME XSTACK, 16, STACK
        ARGFRAME IOVERLAY, 0, STATIC
        ARGFRAME DOVERLAY, 0, STATIC
        LOCFRAME XSTACK, 10, STACK
        PUBLIC ZDSecMgrEstablishKey
        FUNCTION ZDSecMgrEstablishKey,021203H
        ARGFRAME XSTACK, 9, STACK
        ARGFRAME IOVERLAY, 0, STATIC
        ARGFRAME DOVERLAY, 0, STATIC
        LOCFRAME XSTACK, 17, STACK
        PUBLIC ZDSecMgrEstablishKeyCfm
        FUNCTION ZDSecMgrEstablishKeyCfm,021203H
        ARGFRAME XSTACK, 0, STACK
        LOCFRAME ISTACK, 2, STACK
        PUBLIC ZDSecMgrEstablishKeyInd
        FUNCTION ZDSecMgrEstablishKeyInd,021203H
        ARGFRAME XSTACK, 0, STACK
        LOCFRAME ISTACK, 1, STACK
        LOCFRAME XSTACK, 29, STACK
        PUBLIC ZDSecMgrEvent
        FUNCTION ZDSecMgrEvent,021203H
        ARGFRAME XSTACK, 0, STACK
        LOCFRAME ISTACK, 1, STACK
        LOCFRAME XSTACK, 33, STACK
        PUBLIC ZDSecMgrExtAddrLookup
        FUNCTION ZDSecMgrExtAddrLookup,021203H
        ARGFRAME XSTACK, 19, STACK
        ARGFRAME IOVERLAY, 0, STATIC
        ARGFRAME DOVERLAY, 0, STATIC
        LOCFRAME XSTACK, 22, STACK
        PUBLIC ZDSecMgrExtAddrStore
        FUNCTION ZDSecMgrExtAddrStore,021203H
        ARGFRAME XSTACK, 2, STACK
        LOCFRAME XSTACK, 22, STACK
        PUBLIC ZDSecMgrInit
        FUNCTION ZDSecMgrInit,021203H
        ARGFRAME XSTACK, 0, STACK
        LOCFRAME ISTACK, 2, STACK
        PUBLIC ZDSecMgrInitNV
        FUNCTION ZDSecMgrInitNV,021203H
        ARGFRAME XSTACK, 0, STACK
        LOCFRAME XSTACK, 12, STACK
        PUBLIC ZDSecMgrMasterKeyData
        PUBLIC ZDSecMgrMasterKeyInit
        FUNCTION ZDSecMgrMasterKeyInit,021203H
        ARGFRAME XSTACK, 0, STACK
        LOCFRAME ISTACK, 2, STACK
        PUBLIC ZDSecMgrMasterKeyLoad
        FUNCTION ZDSecMgrMasterKeyLoad,021203H
        ARGFRAME XSTACK, 14, STACK
        ARGFRAME IOVERLAY, 0, STATIC
        ARGFRAME DOVERLAY, 0, STATIC
        LOCFRAME XSTACK, 22, STACK
        PUBLIC ZDSecMgrMasterKeyLookup
        FUNCTION ZDSecMgrMasterKeyLookup,0203H
        ARGFRAME XSTACK, 23, STACK
        ARGFRAME IOVERLAY, 0, STATIC
        ARGFRAME DOVERLAY, 0, STATIC
        LOCFRAME XSTACK, 10, STACK
        PUBLIC ZDSecMgrMasterKeyStore
        FUNCTION ZDSecMgrMasterKeyStore,021203H
        ARGFRAME XSTACK, 19, STACK
        ARGFRAME IOVERLAY, 0, STATIC
        ARGFRAME DOVERLAY, 0, STATIC
        LOCFRAME XSTACK, 17, STACK
        PUBLIC ZDSecMgrNewDeviceEvent
        FUNCTION ZDSecMgrNewDeviceEvent,021203H
        ARGFRAME XSTACK, 0, STACK
        LOCFRAME ISTACK, 1, STACK
        LOCFRAME XSTACK, 35, STACK
        PUBLIC ZDSecMgrPermitJoining
        FUNCTION ZDSecMgrPermitJoining,0203H
        ARGFRAME XSTACK, 0, STACK
        LOCFRAME ISTACK, 2, STACK
        PUBLIC ZDSecMgrPermitJoiningEnabled
        PUBLIC ZDSecMgrPermitJoiningTimed
        PUBLIC ZDSecMgrPermitJoiningTimeout
        FUNCTION ZDSecMgrPermitJoiningTimeout,0203H
        ARGFRAME XSTACK, 0, STACK
        LOCFRAME ISTACK, 2, STACK
        PUBLIC ZDSecMgrRemoveDeviceInd
        FUNCTION ZDSecMgrRemoveDeviceInd,021203H
        ARGFRAME XSTACK, 0, STACK
        LOCFRAME XSTACK, 19, STACK
        PUBLIC ZDSecMgrRequestKeyInd
        FUNCTION ZDSecMgrRequestKeyInd,021203H
        ARGFRAME XSTACK, 0, STACK
        LOCFRAME ISTACK, 2, STACK
        PUBLIC ZDSecMgrRestoreFromNV
        FUNCTION ZDSecMgrRestoreFromNV,021203H
        ARGFRAME XSTACK, 0, STACK
        ARGFRAME IOVERLAY, 0, STATIC
        ARGFRAME DOVERLAY, 0, STATIC
        LOCFRAME XSTACK, 19, STACK
        PUBLIC ZDSecMgrSendMasterKey
        FUNCTION ZDSecMgrSendMasterKey,021203H
        ARGFRAME XSTACK, 9, STACK
        ARGFRAME IOVERLAY, 0, STATIC
        ARGFRAME DOVERLAY, 0, STATIC
        LOCFRAME XSTACK, 23, STACK
        PUBLIC ZDSecMgrSendNwkKey
        FUNCTION ZDSecMgrSendNwkKey,021203H
        ARGFRAME XSTACK, 9, STACK
        ARGFRAME IOVERLAY, 0, STATIC
        ARGFRAME DOVERLAY, 0, STATIC
        LOCFRAME ISTACK, 1, STACK
        LOCFRAME XSTACK, 25, STACK
        PUBLIC ZDSecMgrSetDefaultNV
        FUNCTION ZDSecMgrSetDefaultNV,021203H
        ARGFRAME XSTACK, 10, STACK
        ARGFRAME IOVERLAY, 0, STATIC
        ARGFRAME DOVERLAY, 0, STATIC
        LOCFRAME XSTACK, 16, STACK
        PUBLIC ZDSecMgrSwitchKeyInd
        FUNCTION ZDSecMgrSwitchKeyInd,021203H
        ARGFRAME XSTACK, 0, STACK
        LOCFRAME ISTACK, 2, STACK
        PUBLIC ZDSecMgrSwitchNwkKey
        FUNCTION ZDSecMgrSwitchNwkKey,021203H
        ARGFRAME XSTACK, 0, STACK
        LOCFRAME ISTACK, 1, STACK
        LOCFRAME XSTACK, 12, STACK
        PUBLIC ZDSecMgrTCAuthenticated
        PUBLIC ZDSecMgrTCDataLoad
        FUNCTION ZDSecMgrTCDataLoad,021203H
        ARGFRAME XSTACK, 29, STACK
        ARGFRAME IOVERLAY, 0, STATIC
        ARGFRAME DOVERLAY, 0, STATIC
        LOCFRAME XSTACK, 16, STACK
        PUBLIC ZDSecMgrTCDataLoaded
        PUBLIC ZDSecMgrTCExtAddr
        PUBLIC ZDSecMgrTCExtAddrCheck
        FUNCTION ZDSecMgrTCExtAddrCheck,021203H
        ARGFRAME XSTACK, 29, STACK
        ARGFRAME IOVERLAY, 0, STATIC
        ARGFRAME DOVERLAY, 0, STATIC
        LOCFRAME XSTACK, 17, STACK
        PUBLIC ZDSecMgrTCMasterKey
        PUBLIC ZDSecMgrTransportKeyInd
        FUNCTION ZDSecMgrTransportKeyInd,021203H
        ARGFRAME XSTACK, 0, STACK
        LOCFRAME XSTACK, 10, STACK
        PUBLIC ZDSecMgrUpdateDeviceInd
        FUNCTION ZDSecMgrUpdateDeviceInd,021203H
        ARGFRAME XSTACK, 0, STACK
        LOCFRAME ISTACK, 2, STACK
        LOCFRAME XSTACK, 10, STACK
        PUBLIC ZDSecMgrUpdateNwkKey
        FUNCTION ZDSecMgrUpdateNwkKey,021203H
        ARGFRAME XSTACK, 0, STACK
        LOCFRAME ISTACK, 1, STACK
        LOCFRAME XSTACK, 23, STACK
        PUBLIC ZDSecMgrWriteNV
        FUNCTION ZDSecMgrWriteNV,021203H
        ARGFRAME XSTACK, 16, STACK
        ARGFRAME IOVERLAY, 0, STATIC
        ARGFRAME DOVERLAY, 0, STATIC
        LOCFRAME XSTACK, 16, STACK
        PUBWEAK __Constant_0
        PUBWEAK __Constant_b
        
        CFI Names cfiNames0
        CFI StackFrame CFA_SP SP IDATA
        CFI StackFrame CFA_PSP16 PSP16 XDATA
        CFI StackFrame CFA_XSP16 XSP16 XDATA
        CFI StaticOverlayFrame CFA_IOVERLAY IOVERLAY
        CFI StaticOverlayFrame CFA_DOVERLAY DOVERLAY
        CFI Resource `PSW.CY`:1, `B.BR0`:1, `B.BR1`:1, `B.BR2`:1, `B.BR3`:1
        CFI Resource `B.BR4`:1, `B.BR5`:1, `B.BR6`:1, `B.BR7`:1, `VB.BR8`:1
        CFI Resource `VB.BR9`:1, `VB.BR10`:1, `VB.BR11`:1, `VB.BR12`:1
        CFI Resource `VB.BR13`:1, `VB.BR14`:1, `VB.BR15`:1, VB:8, B:8, A:8
        CFI Resource PSW:8, DPL0:8, DPH0:8, R0:8, R1:8, R2:8, R3:8, R4:8, R5:8
        CFI Resource R6:8, R7:8, V0:8, V1:8, V2:8, V3:8, V4:8, V5:8, V6:8, V7:8
        CFI Resource SP:8, PSPH:8, PSPL:8, PSP16:16, XSPH:8, XSPL:8, XSP16:16
        CFI VirtualResource ?RET:24
        CFI Resource ?BRET_EXT:8
        CFI VirtualResource ?RET_HIGH:8, ?RET_LOW:8
        CFI ResourceParts PSP16 PSPH, PSPL
        CFI ResourceParts XSP16 XSPH, XSPL
        CFI ResourceParts ?RET ?BRET_EXT, ?RET_HIGH, ?RET_LOW
        CFI EndNames cfiNames0
        
        CFI Common cfiCommon0 Using cfiNames0
        CFI CodeAlign 1
        CFI DataAlign -1
        CFI ReturnAddress ?RET CODE
        CFI CFA_DOVERLAY Used
        CFI CFA_IOVERLAY Used
        CFI CFA_SP SP+-3
        CFI CFA_PSP16 PSP16+0
        CFI CFA_XSP16 XSP16+0
        CFI `PSW.CY` SameValue
        CFI `B.BR0` SameValue
        CFI `B.BR1` SameValue
        CFI `B.BR2` SameValue
        CFI `B.BR3` SameValue
        CFI `B.BR4` SameValue
        CFI `B.BR5` SameValue
        CFI `B.BR6` SameValue
        CFI `B.BR7` SameValue
        CFI `VB.BR8` SameValue
        CFI `VB.BR9` SameValue
        CFI `VB.BR10` SameValue
        CFI `VB.BR11` SameValue
        CFI `VB.BR12` SameValue
        CFI `VB.BR13` SameValue
        CFI `VB.BR14` SameValue
        CFI `VB.BR15` SameValue
        CFI VB SameValue
        CFI B Undefined
        CFI A Undefined
        CFI PSW SameValue
        CFI DPL0 SameValue
        CFI DPH0 SameValue
        CFI R0 Undefined
        CFI R1 Undefined
        CFI R2 Undefined
        CFI R3 Undefined
        CFI R4 Undefined
        CFI R5 Undefined
        CFI R6 SameValue
        CFI R7 SameValue
        CFI V0 SameValue
        CFI V1 SameValue
        CFI V2 SameValue
        CFI V3 SameValue
        CFI V4 SameValue
        CFI V5 SameValue
        CFI V6 SameValue
        CFI V7 SameValue
        CFI PSPH Undefined
        CFI PSPL Undefined
        CFI XSPH Undefined
        CFI XSPL Undefined
        CFI ?RET Concat
        CFI ?BRET_EXT Frame(CFA_SP, 3)
        CFI ?RET_HIGH Frame(CFA_SP, 2)
        CFI ?RET_LOW Frame(CFA_SP, 1)
        CFI EndCommon cfiCommon0
        
        
        CFI Common cfiCommon1 Using cfiNames0
        CFI CodeAlign 1
        CFI DataAlign -1
        CFI ReturnAddress ?RET CODE
        CFI CFA_DOVERLAY Used
        CFI CFA_IOVERLAY Used
        CFI CFA_SP SP+-2
        CFI CFA_PSP16 PSP16+0
        CFI CFA_XSP16 XSP16+0
        CFI `PSW.CY` SameValue
        CFI `B.BR0` SameValue
        CFI `B.BR1` SameValue
        CFI `B.BR2` SameValue
        CFI `B.BR3` SameValue
        CFI `B.BR4` SameValue
        CFI `B.BR5` SameValue
        CFI `B.BR6` SameValue
        CFI `B.BR7` SameValue
        CFI `VB.BR8` SameValue
        CFI `VB.BR9` SameValue
        CFI `VB.BR10` SameValue
        CFI `VB.BR11` SameValue
        CFI `VB.BR12` SameValue
        CFI `VB.BR13` SameValue
        CFI `VB.BR14` SameValue
        CFI `VB.BR15` SameValue
        CFI VB SameValue
        CFI B SameValue
        CFI A SameValue
        CFI PSW SameValue
        CFI DPL0 SameValue
        CFI DPH0 SameValue
        CFI R0 SameValue
        CFI R1 SameValue
        CFI R2 SameValue
        CFI R3 SameValue
        CFI R4 SameValue
        CFI R5 SameValue
        CFI R6 SameValue
        CFI R7 SameValue
        CFI V0 SameValue
        CFI V1 SameValue
        CFI V2 SameValue
        CFI V3 SameValue
        CFI V4 SameValue
        CFI V5 SameValue
        CFI V6 SameValue
        CFI V7 SameValue
        CFI PSPH Undefined
        CFI PSPL Undefined
        CFI XSPH Undefined
        CFI XSPL Undefined
        CFI ?RET Concat
        CFI ?BRET_EXT SameValue
        CFI ?RET_HIGH Frame(CFA_SP, 2)
        CFI ?RET_LOW Frame(CFA_SP, 1)
        CFI EndCommon cfiCommon1
        
osal_mem_alloc      SYMBOL "osal_mem_alloc"
AddrMgrExtAddrSet   SYMBOL "AddrMgrExtAddrSet"
AddrMgrEntryUpdate  SYMBOL "AddrMgrEntryUpdate"
AddrMgrEntryLookupExt SYMBOL "AddrMgrEntryLookupExt"
osal_memcpy         SYMBOL "osal_memcpy"
osal_memset         SYMBOL "osal_memset"
AddrMgrEntryLookupNwk SYMBOL "AddrMgrEntryLookupNwk"
SSP_GetTrueRand     SYMBOL "SSP_GetTrueRand"
APSME_LookupNwkAddr SYMBOL "APSME_LookupNwkAddr"
APSME_LookupExtAddr SYMBOL "APSME_LookupExtAddr"
APSME_TransportKeyReq SYMBOL "APSME_TransportKeyReq"
NLME_GetShortAddr   SYMBOL "NLME_GetShortAddr"
APSME_EstablishKeyReq SYMBOL "APSME_EstablishKeyReq"
AddrMgrEntryGet     SYMBOL "AddrMgrEntryGet"
osal_start_timerEx  SYMBOL "osal_start_timerEx"
AssocGetWithExt     SYMBOL "AssocGetWithExt"
NLME_LeaveReq       SYMBOL "NLME_LeaveReq"
APSME_RemoveDeviceReq SYMBOL "APSME_RemoveDeviceReq"
AssocGetWithShort   SYMBOL "AssocGetWithShort"
APSME_UpdateDeviceReq SYMBOL "APSME_UpdateDeviceReq"
APSME_AuthenticateReq SYMBOL "APSME_AuthenticateReq"
osal_set_event      SYMBOL "osal_set_event"
APSME_SecurityNM    SYMBOL "APSME_SecurityNM"
AssocMatchDeviceStatus SYMBOL "AssocMatchDeviceStatus"
AssocRemove         SYMBOL "AssocRemove"
AddrMgrExtAddrLookup SYMBOL "AddrMgrExtAddrLookup"
AddrMgrExtAddrEqual SYMBOL "AddrMgrExtAddrEqual"
APSME_EstablishKeyRsp SYMBOL "APSME_EstablishKeyRsp"
SSP_UpdateNwkKey    SYMBOL "SSP_UpdateNwkKey"
SSP_SwitchNwkKey    SYMBOL "SSP_SwitchNwkKey"
ZDApp_NVUpdate      SYMBOL "ZDApp_NVUpdate"
APSME_SwitchKeyReq  SYMBOL "APSME_SwitchKeyReq"
osal_nv_item_init   SYMBOL "osal_nv_item_init"
osal_nv_write       SYMBOL "osal_nv_write"
osal_nv_read        SYMBOL "osal_nv_read"
??APSME_AuthenticateReq?relay SYMBOL "?relay", APSME_AuthenticateReq
??APSME_EstablishKeyReq?relay SYMBOL "?relay", APSME_EstablishKeyReq
??APSME_EstablishKeyRsp?relay SYMBOL "?relay", APSME_EstablishKeyRsp
??APSME_LookupExtAddr?relay SYMBOL "?relay", APSME_LookupExtAddr
??APSME_LookupNwkAddr?relay SYMBOL "?relay", APSME_LookupNwkAddr
??APSME_RemoveDeviceReq?relay SYMBOL "?relay", APSME_RemoveDeviceReq
??APSME_SecurityNM?relay SYMBOL "?relay", APSME_SecurityNM
??APSME_SwitchKeyReq?relay SYMBOL "?relay", APSME_SwitchKeyReq
??APSME_TransportKeyReq?relay SYMBOL "?relay", APSME_TransportKeyReq
??APSME_UpdateDeviceReq?relay SYMBOL "?relay", APSME_UpdateDeviceReq
??AddrMgrEntryGet?relay SYMBOL "?relay", AddrMgrEntryGet
??AddrMgrEntryLookupExt?relay SYMBOL "?relay", AddrMgrEntryLookupExt
??AddrMgrEntryLookupNwk?relay SYMBOL "?relay", AddrMgrEntryLookupNwk
??AddrMgrEntryUpdate?relay SYMBOL "?relay", AddrMgrEntryUpdate
??AddrMgrExtAddrEqual?relay SYMBOL "?relay", AddrMgrExtAddrEqual
??AddrMgrExtAddrLookup?relay SYMBOL "?relay", AddrMgrExtAddrLookup
??AddrMgrExtAddrSet?relay SYMBOL "?relay", AddrMgrExtAddrSet
??AssocGetWithExt?relay SYMBOL "?relay", AssocGetWithExt
??AssocGetWithShort?relay SYMBOL "?relay", AssocGetWithShort
??AssocMatchDeviceStatus?relay SYMBOL "?relay", AssocMatchDeviceStatus
??AssocRemove?relay SYMBOL "?relay", AssocRemove
??NLME_GetShortAddr?relay SYMBOL "?relay", NLME_GetShortAddr
??NLME_LeaveReq?relay SYMBOL "?relay", NLME_LeaveReq
??SSP_GetTrueRand?relay SYMBOL "?relay", SSP_GetTrueRand
??SSP_SwitchNwkKey?relay SYMBOL "?relay", SSP_SwitchNwkKey
??SSP_UpdateNwkKey?relay SYMBOL "?relay", SSP_UpdateNwkKey
??ZDApp_NVUpdate?relay SYMBOL "?relay", ZDApp_NVUpdate
??osal_mem_alloc?relay SYMBOL "?relay", osal_mem_alloc
??osal_memcpy?relay SYMBOL "?relay", osal_memcpy
??osal_memset?relay SYMBOL "?relay", osal_memset
??osal_nv_item_init?relay SYMBOL "?relay", osal_nv_item_init
??osal_nv_read?relay SYMBOL "?relay", osal_nv_read
??osal_nv_write?relay SYMBOL "?relay", osal_nv_write
??osal_set_event?relay SYMBOL "?relay", osal_set_event
??osal_start_timerEx?relay SYMBOL "?relay", osal_start_timerEx
APSME_KeyFwdToChild SYMBOL "APSME_KeyFwdToChild"
??APSME_KeyFwdToChild?relay SYMBOL "?relay", APSME_KeyFwdToChild
APSME_LinkKeyDataGet SYMBOL "APSME_LinkKeyDataGet"
??APSME_LinkKeyDataGet?relay SYMBOL "?relay", APSME_LinkKeyDataGet
APSME_LinkKeySet    SYMBOL "APSME_LinkKeySet"
??APSME_LinkKeySet?relay SYMBOL "?relay", APSME_LinkKeySet
APSME_MasterKeyGet  SYMBOL "APSME_MasterKeyGet"
??APSME_MasterKeyGet?relay SYMBOL "?relay", APSME_MasterKeyGet
APSME_SKA_TimerExpired SYMBOL "APSME_SKA_TimerExpired"
??APSME_SKA_TimerExpired?relay SYMBOL "?relay", APSME_SKA_TimerExpired
ZDSecMgrAPSRemove   SYMBOL "ZDSecMgrAPSRemove"
??ZDSecMgrAPSRemove?relay SYMBOL "?relay", ZDSecMgrAPSRemove
ZDSecMgrAddLinkKey  SYMBOL "ZDSecMgrAddLinkKey"
??ZDSecMgrAddLinkKey?relay SYMBOL "?relay", ZDSecMgrAddLinkKey
ZDSecMgrAddrMgrUpdate SYMBOL "ZDSecMgrAddrMgrUpdate"
??ZDSecMgrAddrMgrUpdate?relay SYMBOL "?relay", ZDSecMgrAddrMgrUpdate
ZDSecMgrAddrStore   SYMBOL "ZDSecMgrAddrStore"
??ZDSecMgrAddrStore?relay SYMBOL "?relay", ZDSecMgrAddrStore
ZDSecMgrAppKeyGet   SYMBOL "ZDSecMgrAppKeyGet"
??ZDSecMgrAppKeyGet?relay SYMBOL "?relay", ZDSecMgrAppKeyGet
ZDSecMgrAppKeyReq   SYMBOL "ZDSecMgrAppKeyReq"
??ZDSecMgrAppKeyReq?relay SYMBOL "?relay", ZDSecMgrAppKeyReq
ZDSecMgrAppKeyTypeSet SYMBOL "ZDSecMgrAppKeyTypeSet"
??ZDSecMgrAppKeyTypeSet?relay SYMBOL "?relay", ZDSecMgrAppKeyTypeSet
ZDSecMgrAssocDeviceAuth SYMBOL "ZDSecMgrAssocDeviceAuth"
??ZDSecMgrAssocDeviceAuth?relay SYMBOL "?relay", ZDSecMgrAssocDeviceAuth
ZDSecMgrAuthInitiate SYMBOL "ZDSecMgrAuthInitiate"
??ZDSecMgrAuthInitiate?relay SYMBOL "?relay", ZDSecMgrAuthInitiate
ZDSecMgrAuthNwkKey  SYMBOL "ZDSecMgrAuthNwkKey"
??ZDSecMgrAuthNwkKey?relay SYMBOL "?relay", ZDSecMgrAuthNwkKey
ZDSecMgrAuthenticateCfm SYMBOL "ZDSecMgrAuthenticateCfm"
??ZDSecMgrAuthenticateCfm?relay SYMBOL "?relay", ZDSecMgrAuthenticateCfm
ZDSecMgrAuthenticateInd SYMBOL "ZDSecMgrAuthenticateInd"
??ZDSecMgrAuthenticateInd?relay SYMBOL "?relay", ZDSecMgrAuthenticateInd
ZDSecMgrAuthenticationCheck SYMBOL "ZDSecMgrAuthenticationCheck"
??ZDSecMgrAuthenticationCheck?relay SYMBOL "?relay", ZDSecMgrAuthenticationCheck
ZDSecMgrAuthenticationSet SYMBOL "ZDSecMgrAuthenticationSet"
??ZDSecMgrAuthenticationSet?relay SYMBOL "?relay", ZDSecMgrAuthenticationSet
ZDSecMgrConfig      SYMBOL "ZDSecMgrConfig"
??ZDSecMgrConfig?relay SYMBOL "?relay", ZDSecMgrConfig
ZDSecMgrCtrlAdd     SYMBOL "ZDSecMgrCtrlAdd"
??ZDSecMgrCtrlAdd?relay SYMBOL "?relay", ZDSecMgrCtrlAdd
ZDSecMgrCtrlInit    SYMBOL "ZDSecMgrCtrlInit"
??ZDSecMgrCtrlInit?relay SYMBOL "?relay", ZDSecMgrCtrlInit
ZDSecMgrCtrlLookup  SYMBOL "ZDSecMgrCtrlLookup"
??ZDSecMgrCtrlLookup?relay SYMBOL "?relay", ZDSecMgrCtrlLookup
ZDSecMgrCtrlRelease SYMBOL "ZDSecMgrCtrlRelease"
??ZDSecMgrCtrlRelease?relay SYMBOL "?relay", ZDSecMgrCtrlRelease
ZDSecMgrCtrlReset   SYMBOL "ZDSecMgrCtrlReset"
??ZDSecMgrCtrlReset?relay SYMBOL "?relay", ZDSecMgrCtrlReset
ZDSecMgrCtrlSet     SYMBOL "ZDSecMgrCtrlSet"
??ZDSecMgrCtrlSet?relay SYMBOL "?relay", ZDSecMgrCtrlSet
ZDSecMgrCtrlTerm    SYMBOL "ZDSecMgrCtrlTerm"
??ZDSecMgrCtrlTerm?relay SYMBOL "?relay", ZDSecMgrCtrlTerm
ZDSecMgrDeviceCtrlHandler SYMBOL "ZDSecMgrDeviceCtrlHandler"
??ZDSecMgrDeviceCtrlHandler?relay SYMBOL "?relay", ZDSecMgrDeviceCtrlHandler
ZDSecMgrDeviceCtrlSetup SYMBOL "ZDSecMgrDeviceCtrlSetup"
??ZDSecMgrDeviceCtrlSetup?relay SYMBOL "?relay", ZDSecMgrDeviceCtrlSetup
ZDSecMgrDeviceCtrlUpdate SYMBOL "ZDSecMgrDeviceCtrlUpdate"
??ZDSecMgrDeviceCtrlUpdate?relay SYMBOL "?relay", ZDSecMgrDeviceCtrlUpdate
ZDSecMgrDeviceEntryAdd SYMBOL "ZDSecMgrDeviceEntryAdd"
??ZDSecMgrDeviceEntryAdd?relay SYMBOL "?relay", ZDSecMgrDeviceEntryAdd
ZDSecMgrDeviceEntryRemove SYMBOL "ZDSecMgrDeviceEntryRemove"
??ZDSecMgrDeviceEntryRemove?relay SYMBOL "?relay", ZDSecMgrDeviceEntryRemove
ZDSecMgrDeviceJoin  SYMBOL "ZDSecMgrDeviceJoin"
??ZDSecMgrDeviceJoin?relay SYMBOL "?relay", ZDSecMgrDeviceJoin
ZDSecMgrDeviceJoinDirect SYMBOL "ZDSecMgrDeviceJoinDirect"
??ZDSecMgrDeviceJoinDirect?relay SYMBOL "?relay", ZDSecMgrDeviceJoinDirect
ZDSecMgrDeviceJoinFwd SYMBOL "ZDSecMgrDeviceJoinFwd"
??ZDSecMgrDeviceJoinFwd?relay SYMBOL "?relay", ZDSecMgrDeviceJoinFwd
ZDSecMgrDeviceNew   SYMBOL "ZDSecMgrDeviceNew"
??ZDSecMgrDeviceNew?relay SYMBOL "?relay", ZDSecMgrDeviceNew
ZDSecMgrDeviceRemove SYMBOL "ZDSecMgrDeviceRemove"
??ZDSecMgrDeviceRemove?relay SYMBOL "?relay", ZDSecMgrDeviceRemove
ZDSecMgrDeviceValidate SYMBOL "ZDSecMgrDeviceValidate"
??ZDSecMgrDeviceValidate?relay SYMBOL "?relay", ZDSecMgrDeviceValidate
ZDSecMgrDeviceValidateCM SYMBOL "ZDSecMgrDeviceValidateCM"
??ZDSecMgrDeviceValidateCM?relay SYMBOL "?relay", ZDSecMgrDeviceValidateCM
ZDSecMgrDeviceValidateRM SYMBOL "ZDSecMgrDeviceValidateRM"
??ZDSecMgrDeviceValidateRM?relay SYMBOL "?relay", ZDSecMgrDeviceValidateRM
ZDSecMgrDeviceValidateSKKE SYMBOL "ZDSecMgrDeviceValidateSKKE"
??ZDSecMgrDeviceValidateSKKE?relay SYMBOL "?relay", ZDSecMgrDeviceValidateSKKE
ZDSecMgrEntryFree   SYMBOL "ZDSecMgrEntryFree"
??ZDSecMgrEntryFree?relay SYMBOL "?relay", ZDSecMgrEntryFree
ZDSecMgrEntryInit   SYMBOL "ZDSecMgrEntryInit"
??ZDSecMgrEntryInit?relay SYMBOL "?relay", ZDSecMgrEntryInit
ZDSecMgrEntryLookup SYMBOL "ZDSecMgrEntryLookup"
??ZDSecMgrEntryLookup?relay SYMBOL "?relay", ZDSecMgrEntryLookup
ZDSecMgrEntryLookupAMI SYMBOL "ZDSecMgrEntryLookupAMI"
??ZDSecMgrEntryLookupAMI?relay SYMBOL "?relay", ZDSecMgrEntryLookupAMI
ZDSecMgrEntryLookupExt SYMBOL "ZDSecMgrEntryLookupExt"
??ZDSecMgrEntryLookupExt?relay SYMBOL "?relay", ZDSecMgrEntryLookupExt
ZDSecMgrEntryNew    SYMBOL "ZDSecMgrEntryNew"
??ZDSecMgrEntryNew?relay SYMBOL "?relay", ZDSecMgrEntryNew
ZDSecMgrEstablishKey SYMBOL "ZDSecMgrEstablishKey"
??ZDSecMgrEstablishKey?relay SYMBOL "?relay", ZDSecMgrEstablishKey
ZDSecMgrEstablishKeyCfm SYMBOL "ZDSecMgrEstablishKeyCfm"
??ZDSecMgrEstablishKeyCfm?relay SYMBOL "?relay", ZDSecMgrEstablishKeyCfm
ZDSecMgrEstablishKeyInd SYMBOL "ZDSecMgrEstablishKeyInd"
??ZDSecMgrEstablishKeyInd?relay SYMBOL "?relay", ZDSecMgrEstablishKeyInd
ZDSecMgrEvent       SYMBOL "ZDSecMgrEvent"
??ZDSecMgrEvent?relay SYMBOL "?relay", ZDSecMgrEvent
ZDSecMgrExtAddrLookup SYMBOL "ZDSecMgrExtAddrLookup"
??ZDSecMgrExtAddrLookup?relay SYMBOL "?relay", ZDSecMgrExtAddrLookup
ZDSecMgrExtAddrStore SYMBOL "ZDSecMgrExtAddrStore"
??ZDSecMgrExtAddrStore?relay SYMBOL "?relay", ZDSecMgrExtAddrStore
ZDSecMgrInit        SYMBOL "ZDSecMgrInit"
??ZDSecMgrInit?relay SYMBOL "?relay", ZDSecMgrInit
ZDSecMgrInitNV      SYMBOL "ZDSecMgrInitNV"
??ZDSecMgrInitNV?relay SYMBOL "?relay", ZDSecMgrInitNV
ZDSecMgrMasterKeyInit SYMBOL "ZDSecMgrMasterKeyInit"
??ZDSecMgrMasterKeyInit?relay SYMBOL "?relay", ZDSecMgrMasterKeyInit
ZDSecMgrMasterKeyLoad SYMBOL "ZDSecMgrMasterKeyLoad"
??ZDSecMgrMasterKeyLoad?relay SYMBOL "?relay", ZDSecMgrMasterKeyLoad
ZDSecMgrMasterKeyLookup SYMBOL "ZDSecMgrMasterKeyLookup"
??ZDSecMgrMasterKeyLookup?relay SYMBOL "?relay", ZDSecMgrMasterKeyLookup
ZDSecMgrMasterKeyStore SYMBOL "ZDSecMgrMasterKeyStore"
??ZDSecMgrMasterKeyStore?relay SYMBOL "?relay", ZDSecMgrMasterKeyStore
ZDSecMgrNewDeviceEvent SYMBOL "ZDSecMgrNewDeviceEvent"
??ZDSecMgrNewDeviceEvent?relay SYMBOL "?relay", ZDSecMgrNewDeviceEvent
ZDSecMgrPermitJoining SYMBOL "ZDSecMgrPermitJoining"
??ZDSecMgrPermitJoining?relay SYMBOL "?relay", ZDSecMgrPermitJoining
ZDSecMgrPermitJoiningTimeout SYMBOL "ZDSecMgrPermitJoiningTimeout"
??ZDSecMgrPermitJoiningTimeout?relay SYMBOL "?relay", ZDSecMgrPermitJoiningTimeout
ZDSecMgrRemoveDeviceInd SYMBOL "ZDSecMgrRemoveDeviceInd"
??ZDSecMgrRemoveDeviceInd?relay SYMBOL "?relay", ZDSecMgrRemoveDeviceInd
ZDSecMgrRequestKeyInd SYMBOL "ZDSecMgrRequestKeyInd"
??ZDSecMgrRequestKeyInd?relay SYMBOL "?relay", ZDSecMgrRequestKeyInd
ZDSecMgrRestoreFromNV SYMBOL "ZDSecMgrRestoreFromNV"
??ZDSecMgrRestoreFromNV?relay SYMBOL "?relay", ZDSecMgrRestoreFromNV
ZDSecMgrSendMasterKey SYMBOL "ZDSecMgrSendMasterKey"
??ZDSecMgrSendMasterKey?relay SYMBOL "?relay", ZDSecMgrSendMasterKey
ZDSecMgrSendNwkKey  SYMBOL "ZDSecMgrSendNwkKey"
??ZDSecMgrSendNwkKey?relay SYMBOL "?relay", ZDSecMgrSendNwkKey
ZDSecMgrSetDefaultNV SYMBOL "ZDSecMgrSetDefaultNV"
??ZDSecMgrSetDefaultNV?relay SYMBOL "?relay", ZDSecMgrSetDefaultNV
ZDSecMgrSwitchKeyInd SYMBOL "ZDSecMgrSwitchKeyInd"
??ZDSecMgrSwitchKeyInd?relay SYMBOL "?relay", ZDSecMgrSwitchKeyInd
ZDSecMgrSwitchNwkKey SYMBOL "ZDSecMgrSwitchNwkKey"
??ZDSecMgrSwitchNwkKey?relay SYMBOL "?relay", ZDSecMgrSwitchNwkKey
ZDSecMgrTCDataLoad  SYMBOL "ZDSecMgrTCDataLoad"
??ZDSecMgrTCDataLoad?relay SYMBOL "?relay", ZDSecMgrTCDataLoad
ZDSecMgrTCExtAddrCheck SYMBOL "ZDSecMgrTCExtAddrCheck"
??ZDSecMgrTCExtAddrCheck?relay SYMBOL "?relay", ZDSecMgrTCExtAddrCheck
ZDSecMgrTransportKeyInd SYMBOL "ZDSecMgrTransportKeyInd"
??ZDSecMgrTransportKeyInd?relay SYMBOL "?relay", ZDSecMgrTransportKeyInd
ZDSecMgrUpdateDeviceInd SYMBOL "ZDSecMgrUpdateDeviceInd"
??ZDSecMgrUpdateDeviceInd?relay SYMBOL "?relay", ZDSecMgrUpdateDeviceInd
ZDSecMgrUpdateNwkKey SYMBOL "ZDSecMgrUpdateNwkKey"
??ZDSecMgrUpdateNwkKey?relay SYMBOL "?relay", ZDSecMgrUpdateNwkKey
ZDSecMgrWriteNV     SYMBOL "ZDSecMgrWriteNV"
??ZDSecMgrWriteNV?relay SYMBOL "?relay", ZDSecMgrWriteNV

        EXTERN osal_mem_alloc
        FUNCTION osal_mem_alloc,0202H
        ARGFRAME ISTACK, 2, STACK
        ARGFRAME PSTACK, 0, STACK
        ARGFRAME XSTACK, 0, STACK
        ARGFRAME IOVERLAY, 0, STATIC
        ARGFRAME DOVERLAY, 0, STATIC
        EXTERN AddrMgrExtAddrSet
        FUNCTION AddrMgrExtAddrSet,0202H
        ARGFRAME ISTACK, 0, STACK
        ARGFRAME PSTACK, 0, STACK
        ARGFRAME XSTACK, 32, STACK
        ARGFRAME IOVERLAY, 0, STATIC
        ARGFRAME DOVERLAY, 0, STATIC
        EXTERN AddrMgrEntryUpdate
        FUNCTION AddrMgrEntryUpdate,0202H
        ARGFRAME ISTACK, 0, STACK
        ARGFRAME PSTACK, 0, STACK
        ARGFRAME XSTACK, 32, STACK
        ARGFRAME IOVERLAY, 0, STATIC
        ARGFRAME DOVERLAY, 0, STATIC
        EXTERN AddrMgrEntryLookupExt
        FUNCTION AddrMgrEntryLookupExt,0202H
        ARGFRAME ISTACK, 0, STACK
        ARGFRAME PSTACK, 0, STACK
        ARGFRAME XSTACK, 22, STACK
        ARGFRAME IOVERLAY, 0, STATIC
        ARGFRAME DOVERLAY, 0, STATIC
        EXTERN osal_memcpy
        FUNCTION osal_memcpy,0202H
        ARGFRAME ISTACK, 0, STACK
        ARGFRAME PSTACK, 0, STACK
        ARGFRAME XSTACK, 22, STACK
        ARGFRAME IOVERLAY, 0, STATIC
        ARGFRAME DOVERLAY, 0, STATIC
        EXTERN osal_memset
        FUNCTION osal_memset,0202H
        ARGFRAME ISTACK, 0, STACK
        ARGFRAME PSTACK, 0, STACK
        ARGFRAME XSTACK, 14, STACK
        ARGFRAME IOVERLAY, 0, STATIC
        ARGFRAME DOVERLAY, 0, STATIC
        EXTERN AddrMgrEntryLookupNwk
        FUNCTION AddrMgrEntryLookupNwk,0202H
        ARGFRAME ISTACK, 0, STACK
        ARGFRAME PSTACK, 0, STACK
        ARGFRAME XSTACK, 23, STACK
        ARGFRAME IOVERLAY, 0, STATIC
        ARGFRAME DOVERLAY, 0, STATIC
        EXTERN SSP_GetTrueRand
        FUNCTION SSP_GetTrueRand,0202H
        ARGFRAME ISTACK, 0, STACK
        ARGFRAME PSTACK, 0, STACK
        ARGFRAME XSTACK, 49, STACK
        ARGFRAME IOVERLAY, 0, STATIC
        ARGFRAME DOVERLAY, 0, STATIC
        EXTERN APSME_LookupNwkAddr
        FUNCTION APSME_LookupNwkAddr,0202H
        ARGFRAME ISTACK, 0, STACK
        ARGFRAME PSTACK, 0, STACK
        ARGFRAME XSTACK, 49, STACK
        ARGFRAME IOVERLAY, 0, STATIC
        ARGFRAME DOVERLAY, 0, STATIC
        EXTERN APSME_LookupExtAddr
        FUNCTION APSME_LookupExtAddr,0202H
        ARGFRAME ISTACK, 0, STACK
        ARGFRAME PSTACK, 0, STACK
        ARGFRAME XSTACK, 49, STACK
        ARGFRAME IOVERLAY, 0, STATIC
        ARGFRAME DOVERLAY, 0, STATIC
        EXTERN APSME_TransportKeyReq
        FUNCTION APSME_TransportKeyReq,0202H
        ARGFRAME ISTACK, 0, STACK
        ARGFRAME PSTACK, 0, STACK
        ARGFRAME XSTACK, 49, STACK
        ARGFRAME IOVERLAY, 0, STATIC
        ARGFRAME DOVERLAY, 0, STATIC
        EXTERN NLME_GetShortAddr
        FUNCTION NLME_GetShortAddr,0202H
        ARGFRAME ISTACK, 0, STACK
        ARGFRAME PSTACK, 0, STACK
        ARGFRAME XSTACK, 35, STACK
        ARGFRAME IOVERLAY, 0, STATIC
        ARGFRAME DOVERLAY, 0, STATIC
        EXTERN APSME_EstablishKeyReq
        FUNCTION APSME_EstablishKeyReq,0202H
        ARGFRAME ISTACK, 0, STACK
        ARGFRAME PSTACK, 0, STACK
        ARGFRAME XSTACK, 17, STACK
        ARGFRAME IOVERLAY, 0, STATIC
        ARGFRAME DOVERLAY, 0, STATIC
        EXTERN AddrMgrEntryGet
        FUNCTION AddrMgrEntryGet,0202H
        ARGFRAME ISTACK, 0, STACK
        ARGFRAME PSTACK, 0, STACK
        ARGFRAME XSTACK, 35, STACK
        ARGFRAME IOVERLAY, 0, STATIC
        ARGFRAME DOVERLAY, 0, STATIC
        EXTERN osal_start_timerEx
        FUNCTION osal_start_timerEx,0202H
        ARGFRAME ISTACK, 0, STACK
        ARGFRAME PSTACK, 0, STACK
        ARGFRAME XSTACK, 33, STACK
        ARGFRAME IOVERLAY, 0, STATIC
        ARGFRAME DOVERLAY, 0, STATIC
        EXTERN AssocGetWithExt
        FUNCTION AssocGetWithExt,0202H
        ARGFRAME ISTACK, 0, STACK
        ARGFRAME PSTACK, 0, STACK
        ARGFRAME XSTACK, 19, STACK
        ARGFRAME IOVERLAY, 0, STATIC
        ARGFRAME DOVERLAY, 0, STATIC
        EXTERN NLME_LeaveReq
        FUNCTION NLME_LeaveReq,0202H
        ARGFRAME ISTACK, 0, STACK
        ARGFRAME PSTACK, 0, STACK
        ARGFRAME XSTACK, 19, STACK
        ARGFRAME IOVERLAY, 0, STATIC
        ARGFRAME DOVERLAY, 0, STATIC
        EXTERN APSME_RemoveDeviceReq
        FUNCTION APSME_RemoveDeviceReq,0202H
        ARGFRAME ISTACK, 0, STACK
        ARGFRAME PSTACK, 0, STACK
        ARGFRAME XSTACK, 19, STACK
        ARGFRAME IOVERLAY, 0, STATIC
        ARGFRAME DOVERLAY, 0, STATIC
        EXTERN AssocGetWithShort
        FUNCTION AssocGetWithShort,0202H
        ARGFRAME ISTACK, 0, STACK
        ARGFRAME PSTACK, 0, STACK
        ARGFRAME XSTACK, 9, STACK
        ARGFRAME IOVERLAY, 0, STATIC
        ARGFRAME DOVERLAY, 0, STATIC
        EXTERN APSME_UpdateDeviceReq
        FUNCTION APSME_UpdateDeviceReq,0202H
        ARGFRAME ISTACK, 2, STACK
        ARGFRAME PSTACK, 0, STACK
        ARGFRAME XSTACK, 8, STACK
        ARGFRAME IOVERLAY, 0, STATIC
        ARGFRAME DOVERLAY, 0, STATIC
        EXTERN APSME_AuthenticateReq
        FUNCTION APSME_AuthenticateReq,0202H
        ARGFRAME ISTACK, 0, STACK
        ARGFRAME PSTACK, 0, STACK
        ARGFRAME XSTACK, 32, STACK
        ARGFRAME IOVERLAY, 0, STATIC
        ARGFRAME DOVERLAY, 0, STATIC
        EXTERN osal_set_event
        FUNCTION osal_set_event,0202H
        ARGFRAME ISTACK, 2, STACK
        ARGFRAME PSTACK, 0, STACK
        ARGFRAME XSTACK, 0, STACK
        ARGFRAME IOVERLAY, 0, STATIC
        ARGFRAME DOVERLAY, 0, STATIC
        EXTERN APSME_SecurityNM
        FUNCTION APSME_SecurityNM,0202H
        ARGFRAME ISTACK, 2, STACK
        ARGFRAME PSTACK, 0, STACK
        ARGFRAME XSTACK, 0, STACK
        ARGFRAME IOVERLAY, 0, STATIC
        ARGFRAME DOVERLAY, 0, STATIC
        EXTERN AssocMatchDeviceStatus
        FUNCTION AssocMatchDeviceStatus,0202H
        ARGFRAME ISTACK, 0, STACK
        ARGFRAME PSTACK, 0, STACK
        ARGFRAME XSTACK, 35, STACK
        ARGFRAME IOVERLAY, 0, STATIC
        ARGFRAME DOVERLAY, 0, STATIC
        EXTERN AssocRemove
        FUNCTION AssocRemove,0202H
        ARGFRAME ISTACK, 0, STACK
        ARGFRAME PSTACK, 0, STACK
        ARGFRAME XSTACK, 35, STACK
        ARGFRAME IOVERLAY, 0, STATIC
        ARGFRAME DOVERLAY, 0, STATIC
        EXTERN AddrMgrExtAddrLookup
        FUNCTION AddrMgrExtAddrLookup,0202H
        ARGFRAME ISTACK, 0, STACK
        ARGFRAME PSTACK, 0, STACK
        ARGFRAME XSTACK, 17, STACK
        ARGFRAME IOVERLAY, 0, STATIC
        ARGFRAME DOVERLAY, 0, STATIC
        EXTERN AddrMgrExtAddrEqual
        FUNCTION AddrMgrExtAddrEqual,0202H
        ARGFRAME ISTACK, 0, STACK
        ARGFRAME PSTACK, 0, STACK
        ARGFRAME XSTACK, 17, STACK
        ARGFRAME IOVERLAY, 0, STATIC
        ARGFRAME DOVERLAY, 0, STATIC
        EXTERN APSME_EstablishKeyRsp
        FUNCTION APSME_EstablishKeyRsp,0202H
        ARGFRAME ISTACK, 0, STACK
        ARGFRAME PSTACK, 0, STACK
        ARGFRAME XSTACK, 29, STACK
        ARGFRAME IOVERLAY, 0, STATIC
        ARGFRAME DOVERLAY, 0, STATIC
        EXTERN SSP_UpdateNwkKey
        FUNCTION SSP_UpdateNwkKey,0202H
        ARGFRAME ISTACK, 0, STACK
        ARGFRAME PSTACK, 0, STACK
        ARGFRAME XSTACK, 23, STACK
        ARGFRAME IOVERLAY, 0, STATIC
        ARGFRAME DOVERLAY, 0, STATIC
        EXTERN SSP_SwitchNwkKey
        FUNCTION SSP_SwitchNwkKey,0202H
        ARGFRAME ISTACK, 2, STACK
        ARGFRAME PSTACK, 0, STACK
        ARGFRAME XSTACK, 12, STACK
        ARGFRAME IOVERLAY, 0, STATIC
        ARGFRAME DOVERLAY, 0, STATIC
        EXTERN ZDApp_NVUpdate
        FUNCTION ZDApp_NVUpdate,0202H
        ARGFRAME ISTACK, 2, STACK
        ARGFRAME PSTACK, 0, STACK
        ARGFRAME XSTACK, 23, STACK
        ARGFRAME IOVERLAY, 0, STATIC
        ARGFRAME DOVERLAY, 0, STATIC
        EXTERN APSME_SwitchKeyReq
        FUNCTION APSME_SwitchKeyReq,0202H
        ARGFRAME ISTACK, 0, STACK
        ARGFRAME PSTACK, 0, STACK
        ARGFRAME XSTACK, 12, STACK
        ARGFRAME IOVERLAY, 0, STATIC
        ARGFRAME DOVERLAY, 0, STATIC
        EXTERN osal_nv_item_init
        FUNCTION osal_nv_item_init,0202H
        ARGFRAME ISTACK, 0, STACK
        ARGFRAME PSTACK, 0, STACK
        ARGFRAME XSTACK, 12, STACK
        ARGFRAME IOVERLAY, 0, STATIC
        ARGFRAME DOVERLAY, 0, STATIC
        EXTERN osal_nv_write
        FUNCTION osal_nv_write,0202H
        ARGFRAME ISTACK, 0, STACK
        ARGFRAME PSTACK, 0, STACK
        ARGFRAME XSTACK, 16, STACK
        ARGFRAME IOVERLAY, 0, STATIC
        ARGFRAME DOVERLAY, 0, STATIC
        EXTERN osal_nv_read
        FUNCTION osal_nv_read,0202H
        ARGFRAME ISTACK, 0, STACK
        ARGFRAME PSTACK, 0, STACK
        ARGFRAME XSTACK, 19, STACK
        ARGFRAME IOVERLAY, 0, STATIC
        ARGFRAME DOVERLAY, 0, STATIC
        EXTERN ??APSME_AuthenticateReq?relay
        FUNCTION ??APSME_AuthenticateReq?relay,00H
        EXTERN ??APSME_EstablishKeyReq?relay
        FUNCTION ??APSME_EstablishKeyReq?relay,00H
        EXTERN ??APSME_EstablishKeyRsp?relay
        FUNCTION ??APSME_EstablishKeyRsp?relay,00H
        EXTERN ??APSME_LookupExtAddr?relay
        FUNCTION ??APSME_LookupExtAddr?relay,00H
        EXTERN ??APSME_LookupNwkAddr?relay
        FUNCTION ??APSME_LookupNwkAddr?relay,00H
        EXTERN ??APSME_RemoveDeviceReq?relay
        FUNCTION ??APSME_RemoveDeviceReq?relay,00H
        EXTERN ??APSME_SecurityNM?relay
        FUNCTION ??APSME_SecurityNM?relay,00H
        EXTERN ??APSME_SwitchKeyReq?relay
        FUNCTION ??APSME_SwitchKeyReq?relay,00H
        EXTERN ??APSME_TransportKeyReq?relay
        FUNCTION ??APSME_TransportKeyReq?relay,00H
        EXTERN ??APSME_UpdateDeviceReq?relay
        FUNCTION ??APSME_UpdateDeviceReq?relay,00H
        EXTERN ??AddrMgrEntryGet?relay
        FUNCTION ??AddrMgrEntryGet?relay,00H
        EXTERN ??AddrMgrEntryLookupExt?relay
        FUNCTION ??AddrMgrEntryLookupExt?relay,00H
        EXTERN ??AddrMgrEntryLookupNwk?relay
        FUNCTION ??AddrMgrEntryLookupNwk?relay,00H
        EXTERN ??AddrMgrEntryUpdate?relay
        FUNCTION ??AddrMgrEntryUpdate?relay,00H
        EXTERN ??AddrMgrExtAddrEqual?relay
        FUNCTION ??AddrMgrExtAddrEqual?relay,00H
        EXTERN ??AddrMgrExtAddrLookup?relay
        FUNCTION ??AddrMgrExtAddrLookup?relay,00H
        EXTERN ??AddrMgrExtAddrSet?relay
        FUNCTION ??AddrMgrExtAddrSet?relay,00H
        EXTERN ??AssocGetWithExt?relay
        FUNCTION ??AssocGetWithExt?relay,00H
        EXTERN ??AssocGetWithShort?relay
        FUNCTION ??AssocGetWithShort?relay,00H
        EXTERN ??AssocMatchDeviceStatus?relay
        FUNCTION ??AssocMatchDeviceStatus?relay,00H
        EXTERN ??AssocRemove?relay
        FUNCTION ??AssocRemove?relay,00H
        EXTERN ??NLME_GetShortAddr?relay
        FUNCTION ??NLME_GetShortAddr?relay,00H
        EXTERN ??NLME_LeaveReq?relay
        FUNCTION ??NLME_LeaveReq?relay,00H
        EXTERN ??SSP_GetTrueRand?relay
        FUNCTION ??SSP_GetTrueRand?relay,00H
        EXTERN ??SSP_SwitchNwkKey?relay
        FUNCTION ??SSP_SwitchNwkKey?relay,00H
        EXTERN ??SSP_UpdateNwkKey?relay
        FUNCTION ??SSP_UpdateNwkKey?relay,00H
        EXTERN ??ZDApp_NVUpdate?relay
        FUNCTION ??ZDApp_NVUpdate?relay,00H
        EXTERN ??osal_mem_alloc?relay
        FUNCTION ??osal_mem_alloc?relay,00H
        EXTERN ??osal_memcpy?relay
        FUNCTION ??osal_memcpy?relay,00H
        EXTERN ??osal_memset?relay
        FUNCTION ??osal_memset?relay,00H
        EXTERN ??osal_nv_item_init?relay
        FUNCTION ??osal_nv_item_init?relay,00H
        EXTERN ??osal_nv_read?relay
        FUNCTION ??osal_nv_read?relay,00H
        EXTERN ??osal_nv_write?relay
        FUNCTION ??osal_nv_write?relay,00H
        EXTERN ??osal_set_event?relay
        FUNCTION ??osal_set_event?relay,00H
        EXTERN ??osal_start_timerEx?relay
        FUNCTION ??osal_start_timerEx?relay,00H
        EXTERN ZDAppTaskID
        EXTERN _NIB
        EXTERN devState
        EXTERN zgPreConfigKey
        EXTERN zgPreConfigKeys
        EXTERN zgSecurePermitJoin

// F:\zigbee\zigbee\ZIGBEE_EB2530\µÚ6ÕÂ Êµ¼ùÏîÄ¿\WSN_ZigBee\Components\stack\zdo\ZDSecMgr.c
//    1 /**************************************************************************************************
//    2   Filename:       ZDSecMgr.c
//    3   Revised:        $Date: 2009-03-31 09:06:47 -0700 (Tue, 31 Mar 2009) $
//    4   Revision:       $Revision: 19604 $
//    5 
//    6   Description:    The ZigBee Device Security Manager.
//    7 
//    8 
//    9   Copyright 2005-2008 Texas Instruments Incorporated. All rights reserved.
//   10 
//   11   IMPORTANT: Your use of this Software is limited to those specific rights
//   12   granted under the terms of a software license agreement between the user
//   13   who downloaded the software, his/her employer (which must be your employer)
//   14   and Texas Instruments Incorporated (the "License").  You may not use this
//   15   Software unless you agree to abide by the terms of the License. The License
//   16   limits your use, and you acknowledge, that the Software may not be modified,
//   17   copied or distributed unless embedded on a Texas Instruments microcontroller
//   18   or used solely and exclusively in conjunction with a Texas Instruments radio
//   19   frequency transceiver, which is integrated into your product.  Other than for
//   20   the foregoing purpose, you may not use, reproduce, copy, prepare derivative
//   21   works of, modify, distribute, perform, display or sell this Software and/or
//   22   its documentation for any purpose.
//   23 
//   24   YOU FURTHER ACKNOWLEDGE AND AGREE THAT THE SOFTWARE AND DOCUMENTATION ARE
//   25   PROVIDED AS IS WITHOUT WARRANTY OF ANY KIND, EITHER EXPRESS OR IMPLIED,
//   26   INCLUDING WITHOUT LIMITATION, ANY WARRANTY OF MERCHANTABILITY, TITLE,
//   27   NON-INFRINGEMENT AND FITNESS FOR A PARTICULAR PURPOSE. IN NO EVENT SHALL
//   28   TEXAS INSTRUMENTS OR ITS LICENSORS BE LIABLE OR OBLIGATED UNDER CONTRACT,
//   29   NEGLIGENCE, STRICT LIABILITY, CONTRIBUTION, BREACH OF WARRANTY, OR OTHER
//   30   LEGAL EQUITABLE THEORY ANY DIRECT OR INDIRECT DAMAGES OR EXPENSES
//   31   INCLUDING BUT NOT LIMITED TO ANY INCIDENTAL, SPECIAL, INDIRECT, PUNITIVE
//   32   OR CONSEQUENTIAL DAMAGES, LOST PROFITS OR LOST DATA, COST OF PROCUREMENT
//   33   OF SUBSTITUTE GOODS, TECHNOLOGY, SERVICES, OR ANY CLAIMS BY THIRD PARTIES
//   34   (INCLUDING BUT NOT LIMITED TO ANY DEFENSE THEREOF), OR OTHER SIMILAR COSTS.
//   35 
//   36   Should you have any questions regarding your right to use this Software,
//   37   contact Texas Instruments Incorporated at www.TI.com.
//   38 **************************************************************************************************/
//   39 
//   40 #ifdef __cplusplus
//   41 extern "C"
//   42 {
//   43 #endif
//   44 
//   45 /******************************************************************************
//   46  * INCLUDES
//   47  */
//   48 #include "ZComdef.h"
//   49 #include "OSAL.h"
//   50 #include "OSAL_NV.h"
//   51 #include "ZGlobals.h"
//   52 #include "ssp.h"
//   53 #include "nwk_globals.h"
//   54 #include "nwk.h"
//   55 #include "NLMEDE.h"
//   56 #include "AddrMgr.h"
//   57 #include "AssocList.h"
//   58 #include "APSMEDE.h"
//   59 #include "AF.h"
//   60 #include "ZDConfig.h"
//   61 #include "ZDApp.h"
//   62 #include "ZDSecMgr.h"
//   63 
//   64 
//   65 /******************************************************************************
//   66  * CONSTANTS
//   67  */
//   68 // maximum number of devices managed by this Security Manager
//   69 #if !defined ( ZDSECMGR_DEVICE_MAX )
//   70   #define ZDSECMGR_DEVICE_MAX 3
//   71 #endif
//   72 
//   73 // total number of preconfigured devices (EXT address, MASTER key)
//   74 //devtag.pro.security
//   75 //#define ZDSECMGR_PRECONFIG_MAX ZDSECMGR_DEVICE_MAX
//   76 #define ZDSECMGR_PRECONFIG_MAX 0
//   77 
//   78 // maximum number of MASTER keys this device may hold
//   79 #define ZDSECMGR_MASTERKEY_MAX ZDSECMGR_DEVICE_MAX
//   80 
//   81 // maximum number of LINK keys this device may store
//   82 #define ZDSECMGR_ENTRY_MAX ZDSECMGR_DEVICE_MAX
//   83 
//   84 // total number of devices under control - authentication, SKKE, etc.
//   85 #define ZDSECMGR_CTRL_MAX ZDSECMGR_DEVICE_MAX
//   86 
//   87 // total number of stored devices
//   88 #if !defined ( ZDSECMGR_STORED_DEVICES )
//   89   #define ZDSECMGR_STORED_DEVICES 3
//   90 #endif
//   91   
//   92 #define ZDSECMGR_CTRL_NONE       0
//   93 #define ZDSECMGR_CTRL_INIT       1
//   94 #define ZDSECMGR_CTRL_TK_MASTER  2
//   95 #define ZDSECMGR_CTRL_SKKE_INIT  3
//   96 #define ZDSECMGR_CTRL_SKKE_WAIT  4
//   97 #define ZDSECMGR_CTRL_SKKE_DONE  5
//   98 #define ZDSECMGR_CTRL_SKKE_FAIL  6
//   99 #define ZDSECMGR_CTRL_TK_NWK     7
//  100 
//  101 #define ZDSECMGR_CTRL_BASE_CNTR      1
//  102 #define ZDSECMGR_CTRL_SKKE_INIT_CNTR 1
//  103 #define ZDSECMGR_CTRL_TK_NWK_CNTR    1
//  104 
//  105 // set SKA slot maximum
//  106 #define ZDSECMGR_SKA_SLOT_MAX 1
//  107 
//  108 // APSME Stub Implementations
//  109 #define ZDSecMgrMasterKeyGet   APSME_MasterKeyGet
//  110 #define ZDSecMgrLinkKeySet     APSME_LinkKeySet
//  111 #define ZDSecMgrLinkKeyDataGet APSME_LinkKeyDataGet
//  112 #define ZDSecMgrKeyFwdToChild  APSME_KeyFwdToChild
//  113 
//  114 #if !defined( MAX_APS_FRAMECOUNTER_CHANGES )
//  115   // The number of times the frame counter can change before
//  116   // saving to NV
//  117   #define MAX_APS_FRAMECOUNTER_CHANGES    10
//  118 #endif
//  119 
//  120 /******************************************************************************
//  121  * TYPEDEFS
//  122  */
//  123 typedef struct
//  124 {
//  125   uint8 extAddr[Z_EXTADDR_LEN];
//  126   uint8 key[SEC_KEY_LEN];
//  127 } ZDSecMgrPreConfigData_t;
//  128 
//  129 typedef struct
//  130 {
//  131   uint16 ami;
//  132   uint8  key[SEC_KEY_LEN];
//  133 } ZDSecMgrMasterKeyData_t;
//  134 
//  135 //should match APSME_LinkKeyData_t;
//  136 typedef struct
//  137 {
//  138   uint8               key[SEC_KEY_LEN];
//  139   APSME_LinkKeyData_t apsmelkd;
//  140 } ZDSecMgrLinkKeyData_t;
//  141 
//  142 typedef struct
//  143 {
//  144   uint16                ami;
//  145   ZDSecMgrLinkKeyData_t lkd;
//  146   ZDSecMgr_Authentication_Option authenticateOption;
//  147 } ZDSecMgrEntry_t;
//  148 
//  149 typedef struct
//  150 {
//  151   ZDSecMgrEntry_t* entry;
//  152   uint16           parentAddr;
//  153   uint8            secure;
//  154   uint8            state;
//  155   uint8            cntr;
//  156   //uint8          next;
//  157 } ZDSecMgrCtrl_t;
//  158 
//  159 typedef struct
//  160 {
//  161   uint16          nwkAddr;
//  162   uint8*          extAddr;
//  163   uint16          parentAddr;
//  164   uint8           secure;
//  165   uint8           devStatus;
//  166   ZDSecMgrCtrl_t* ctrl;
//  167 } ZDSecMgrDevice_t;
//  168 
//  169 /******************************************************************************
//  170  * LOCAL VARIABLES
//  171  */
//  172 #if 0 // Taken out because the following functionality is only used for test
//  173       // purpose. A more efficient (above) way is used. It can be put
//  174       // back in if customers request for a white/black list feature.
//  175 uint8 ZDSecMgrStoredDeviceList[ZDSECMGR_STORED_DEVICES][Z_EXTADDR_LEN] =
//  176 {
//  177   { 0x01, 0x00, 0x00, 0x00, 0x00, 0x00, 0x00, 0x00 },
//  178   { 0x00, 0x00, 0x00, 0x00, 0x00, 0x00, 0x00, 0x01 },
//  179   { 0x00, 0x00, 0x00, 0x00, 0x00, 0x00, 0x00, 0x00 },
//  180 };
//  181 #endif
//  182 

        RSEG XDATA_Z:XDATA:NOROOT(0)
        DATA8
//  183 uint8 ZDSecMgrTCExtAddr[Z_EXTADDR_LEN]=
ZDSecMgrTCExtAddr:
        DS 8
        REQUIRE __INIT_XDATA_Z
//  184   { 0x00, 0x00, 0x00, 0x00, 0x00, 0x00, 0x00, 0x00 };
//  185 

        RSEG XDATA_I:XDATA:NOROOT(0)
//  186 uint8 ZDSecMgrTCMasterKey[SEC_KEY_LEN] =
ZDSecMgrTCMasterKey:
        DATA8
        DS 16
        REQUIRE `?<Initializer for ZDSecMgrTCMasterKey>`
        REQUIRE __INIT_XDATA_I
//  187   {0x00,0x00,0x00,0x00,0x00,0x00,0x00,0x00,
//  188    0x89,0x67,0x45,0x23,0x01,0xEF,0xCD,0xAB};
//  189 

        RSEG XDATA_Z:XDATA:NOROOT(0)
        DATA8
//  190 uint8 ZDSecMgrTCAuthenticated = FALSE;
ZDSecMgrTCAuthenticated:
        DS 1
        REQUIRE __INIT_XDATA_Z

        RSEG XDATA_Z:XDATA:NOROOT(0)
        DATA8
//  191 uint8 ZDSecMgrTCDataLoaded    = FALSE;
ZDSecMgrTCDataLoaded:
        DS 1
        REQUIRE __INIT_XDATA_Z
//  192 
//  193 //devtag.pro.security - remove this
//  194 #if ( ZDSECMGR_PRECONFIG_MAX != 0 )
//  195 const ZDSecMgrPreConfigData_t ZDSecMgrPreConfigData[ZDSECMGR_PRECONFIG_MAX] =
//  196 {
//  197   //---------------------------------------------------------------------------
//  198   // DEVICE A
//  199   //---------------------------------------------------------------------------
//  200   {
//  201     // extAddr
//  202     {0x7C,0x01,0x12,0x13,0x14,0x15,0x16,0x17},
//  203 
//  204     // key
//  205     {0x00,0x00,0x00,0x00,0x00,0x00,0x00,0x00,
//  206      0x00,0x00,0x00,0x00,0x00,0x00,0x00,0x00}
//  207   },
//  208   //---------------------------------------------------------------------------
//  209   // DEVICE B
//  210   //---------------------------------------------------------------------------
//  211   {
//  212     // extAddr
//  213     {0x84,0x03,0x00,0x00,0x00,0x4B,0x12,0x00},
//  214 
//  215     // key
//  216     {0x00,0x00,0x00,0x00,0x00,0x00,0x00,0x00,
//  217      0x00,0x00,0x00,0x00,0x00,0x00,0x00,0x00}
//  218   },
//  219   //---------------------------------------------------------------------------
//  220   // DEVICE C
//  221   //---------------------------------------------------------------------------
//  222   {
//  223     // extAddr
//  224     {0x3E,0x01,0x12,0x13,0x14,0x15,0x16,0x17},
//  225 
//  226     // key
//  227     {0x00,0x00,0x00,0x00,0x00,0x00,0x00,0x00,
//  228      0x00,0x00,0x00,0x00,0x00,0x00,0x00,0x00}
//  229   },
//  230 };
//  231 #endif // ( ZDSECMGR_PRECONFIG_MAX != 0 )
//  232 

        RSEG XDATA_Z:XDATA:NOROOT(0)
        DATA16
//  233 ZDSecMgrMasterKeyData_t* ZDSecMgrMasterKeyData = NULL;
ZDSecMgrMasterKeyData:
        DS 2
        REQUIRE __INIT_XDATA_Z

        RSEG XDATA_Z:XDATA:NOROOT(0)
        DATA16
//  234 ZDSecMgrEntry_t*         ZDSecMgrEntries       = NULL;
ZDSecMgrEntries:
        DS 2
        REQUIRE __INIT_XDATA_Z

        RSEG XDATA_Z:XDATA:NOROOT(0)
        DATA16
//  235 ZDSecMgrCtrl_t*          ZDSecMgrCtrlData      = NULL;
ZDSecMgrCtrlData:
        DS 2
        REQUIRE __INIT_XDATA_Z
//  236 void ZDSecMgrAddrMgrUpdate( uint16 ami, uint16 nwkAddr );
//  237 void ZDSecMgrAddrMgrCB( uint8 update, AddrMgrEntry_t* newEntry, AddrMgrEntry_t* oldEntry );
//  238 

        RSEG XDATA_Z:XDATA:NOROOT(0)
        DATA8
//  239 uint8 ZDSecMgrPermitJoiningEnabled;
ZDSecMgrPermitJoiningEnabled:
        DS 1
        REQUIRE __INIT_XDATA_Z

        RSEG XDATA_Z:XDATA:NOROOT(0)
        DATA8
//  240 uint8 ZDSecMgrPermitJoiningTimed;
ZDSecMgrPermitJoiningTimed:
        DS 1
        REQUIRE __INIT_XDATA_Z
//  241 

        RSEG XDATA_Z:XDATA:NOROOT(0)
        DATA8
//  242 APSME_LinkKeyData_t TrustCenterLinkKey;
TrustCenterLinkKey:
        DS 10
        REQUIRE __INIT_XDATA_Z
//  243 
//  244 /******************************************************************************
//  245  * PRIVATE FUNCTIONS
//  246  *
//  247  *   ZDSecMgrMasterKeyInit
//  248  *   ZDSecMgrAddrStore
//  249  *   ZDSecMgrExtAddrStore
//  250  *   ZDSecMgrExtAddrLookup
//  251  *   ZDSecMgrMasterKeyLookup
//  252  *   ZDSecMgrMasterKeyStore
//  253  *   ZDSecMgrEntryInit
//  254  *   ZDSecMgrEntryLookup
//  255  *   ZDSecMgrEntryLookupAMI
//  256  *   ZDSecMgrEntryLookupExt
//  257  *   ZDSecMgrEntryFree
//  258  *   ZDSecMgrEntryNew
//  259  *   ZDSecMgrCtrlInit
//  260  *   ZDSecMgrCtrlRelease
//  261  *   ZDSecMgrCtrlLookup
//  262  *   ZDSecMgrCtrlSet
//  263  *   ZDSecMgrCtrlAdd
//  264  *   ZDSecMgrCtrlTerm
//  265  *   ZDSecMgrCtrlReset
//  266  *   ZDSecMgrMasterKeyLoad
//  267  *   ZDSecMgrAppKeyGet
//  268  *   ZDSecMgrAppKeyReq
//  269  *   ZDSecMgrEstablishKey
//  270  *   ZDSecMgrSendMasterKey
//  271  *   ZDSecMgrSendNwkKey
//  272  *   ZDSecMgrDeviceEntryRemove
//  273  *   ZDSecMgrDeviceEntryAdd
//  274  *   ZDSecMgrDeviceCtrlHandler
//  275  *   ZDSecMgrDeviceCtrlSetup
//  276  *   ZDSecMgrDeviceCtrlUpdate
//  277  *   ZDSecMgrDeviceRemove
//  278  *   ZDSecMgrDeviceValidateSKKE
//  279  *   ZDSecMgrDeviceValidateRM
//  280  *   ZDSecMgrDeviceValidateCM
//  281  *   ZDSecMgrDeviceValidate
//  282  *   ZDSecMgrDeviceJoin
//  283  *   ZDSecMgrDeviceJoinDirect
//  284  *   ZDSecMgrDeviceJoinFwd
//  285  *   ZDSecMgrDeviceNew
//  286  *   ZDSecMgrAssocDeviceAuth
//  287  *   ZDSecMgrAuthInitiate
//  288  *   ZDSecMgrAuthNwkKey
//  289  */
//  290 //-----------------------------------------------------------------------------
//  291 // master key data
//  292 //-----------------------------------------------------------------------------
//  293 void ZDSecMgrMasterKeyInit( void );
//  294 
//  295 //-----------------------------------------------------------------------------
//  296 // address management
//  297 //-----------------------------------------------------------------------------
//  298 ZStatus_t ZDSecMgrAddrStore( uint16 nwkAddr, uint8* extAddr, uint16* ami );
//  299 ZStatus_t ZDSecMgrExtAddrStore( uint16 nwkAddr, uint8* extAddr, uint16* ami );
//  300 ZStatus_t ZDSecMgrExtAddrLookup( uint8* extAddr, uint16* ami );
//  301 
//  302 //-----------------------------------------------------------------------------
//  303 // MASTER key data
//  304 //-----------------------------------------------------------------------------
//  305 ZStatus_t ZDSecMgrMasterKeyLookup( uint16 ami, uint8** key );
//  306 ZStatus_t ZDSecMgrMasterKeyStore( uint16 ami, uint8* key );
//  307 
//  308 //-----------------------------------------------------------------------------
//  309 // entry data
//  310 //-----------------------------------------------------------------------------
//  311 void ZDSecMgrEntryInit( void );
//  312 ZStatus_t ZDSecMgrEntryLookup( uint16 nwkAddr, ZDSecMgrEntry_t** entry );
//  313 ZStatus_t ZDSecMgrEntryLookupAMI( uint16 ami, ZDSecMgrEntry_t** entry );
//  314 ZStatus_t ZDSecMgrEntryLookupExt( uint8* extAddr, ZDSecMgrEntry_t** entry );
//  315 void ZDSecMgrEntryFree( ZDSecMgrEntry_t* entry );
//  316 ZStatus_t ZDSecMgrEntryNew( ZDSecMgrEntry_t** entry );
//  317 ZStatus_t ZDSecMgrAuthenticationSet( uint8* extAddr, ZDSecMgr_Authentication_Option option );
//  318 
//  319 //-----------------------------------------------------------------------------
//  320 // control data
//  321 //-----------------------------------------------------------------------------
//  322 void ZDSecMgrCtrlInit( void );
//  323 void ZDSecMgrCtrlRelease( ZDSecMgrCtrl_t* ctrl );
//  324 void ZDSecMgrCtrlLookup( ZDSecMgrEntry_t* entry, ZDSecMgrCtrl_t** ctrl );
//  325 void ZDSecMgrCtrlSet( ZDSecMgrDevice_t* device,
//  326                       ZDSecMgrEntry_t*  entry,
//  327                       ZDSecMgrCtrl_t*   ctrl );
//  328 ZStatus_t ZDSecMgrCtrlAdd( ZDSecMgrDevice_t* device, ZDSecMgrEntry_t*  entry );
//  329 void ZDSecMgrCtrlTerm( ZDSecMgrEntry_t* entry );
//  330 ZStatus_t ZDSecMgrCtrlReset( ZDSecMgrDevice_t* device,
//  331                              ZDSecMgrEntry_t*  entry );
//  332 
//  333 //-----------------------------------------------------------------------------
//  334 // key support
//  335 //-----------------------------------------------------------------------------
//  336 ZStatus_t ZDSecMgrMasterKeyLoad( uint8* extAddr, uint8* key );
//  337 ZStatus_t ZDSecMgrAppKeyGet( uint16  initNwkAddr,
//  338                              uint8*  initExtAddr,
//  339                              uint16  partNwkAddr,
//  340                              uint8*  partExtAddr,
//  341                              uint8** key,
//  342                              uint8*  keyType );
//  343 void ZDSecMgrAppKeyReq( ZDO_RequestKeyInd_t* ind );
//  344 ZStatus_t ZDSecMgrEstablishKey( ZDSecMgrDevice_t* device );
//  345 ZStatus_t ZDSecMgrSendMasterKey( ZDSecMgrDevice_t* device );
//  346 ZStatus_t ZDSecMgrSendNwkKey( ZDSecMgrDevice_t* device );
//  347 
//  348 //-----------------------------------------------------------------------------
//  349 // device entry
//  350 //-----------------------------------------------------------------------------
//  351 void ZDSecMgrDeviceEntryRemove( ZDSecMgrEntry_t* entry );
//  352 ZStatus_t ZDSecMgrDeviceEntryAdd( ZDSecMgrDevice_t* device, uint16 ami );
//  353 
//  354 //-----------------------------------------------------------------------------
//  355 // device control
//  356 //-----------------------------------------------------------------------------
//  357 void ZDSecMgrDeviceCtrlHandler( ZDSecMgrDevice_t* device );
//  358 void ZDSecMgrDeviceCtrlSetup( ZDSecMgrDevice_t* device );
//  359 void ZDSecMgrDeviceCtrlUpdate( uint8* extAddr, uint8 state );
//  360 
//  361 //-----------------------------------------------------------------------------
//  362 // device management
//  363 //-----------------------------------------------------------------------------
//  364 void ZDSecMgrDeviceRemove( ZDSecMgrDevice_t* device );
//  365 ZStatus_t ZDSecMgrDeviceValidateSKKE( ZDSecMgrDevice_t* device );
//  366 ZStatus_t ZDSecMgrDeviceValidateRM( ZDSecMgrDevice_t* device );
//  367 ZStatus_t ZDSecMgrDeviceValidateCM( ZDSecMgrDevice_t* device );
//  368 ZStatus_t ZDSecMgrDeviceValidate( ZDSecMgrDevice_t* device );
//  369 ZStatus_t ZDSecMgrDeviceJoin( ZDSecMgrDevice_t* device );
//  370 ZStatus_t ZDSecMgrDeviceJoinDirect( ZDSecMgrDevice_t* device );
//  371 ZStatus_t ZDSecMgrDeviceJoinFwd( ZDSecMgrDevice_t* device );
//  372 ZStatus_t ZDSecMgrDeviceNew( ZDSecMgrDevice_t* device );
//  373 
//  374 //-----------------------------------------------------------------------------
//  375 // association management
//  376 //-----------------------------------------------------------------------------
//  377 void ZDSecMgrAssocDeviceAuth( associated_devices_t* assoc );
//  378 
//  379 //-----------------------------------------------------------------------------
//  380 // authentication management
//  381 //-----------------------------------------------------------------------------
//  382 void ZDSecMgrAuthInitiate( uint8* responder );
//  383 void ZDSecMgrAuthNwkKey( void );
//  384 
//  385 /******************************************************************************
//  386  * @fn          ZDSecMgrMasterKeyInit                     ]
//  387  *
//  388  * @brief       Initialize master key data.
//  389  *
//  390  * @param       none
//  391  *
//  392  * @return      none
//  393  */

        RSEG BANKED_CODE:CODE:NOROOT(0)
//  394 void ZDSecMgrMasterKeyInit( void )
ZDSecMgrMasterKeyInit:
        CFI Block cfiBlock0 Using cfiCommon0
        CFI Function ZDSecMgrMasterKeyInit
        CODE
//  395 {
        FUNCALL ZDSecMgrMasterKeyInit, osal_mem_alloc
        LOCFRAME ISTACK, 2, STACK
        LOCFRAME PSTACK, 0, STACK
        LOCFRAME XSTACK, 0, STACK
        LOCFRAME IOVERLAY, 0, STATIC
        LOCFRAME DOVERLAY, 0, STATIC
        ARGFRAME ISTACK, 2, STACK
        ARGFRAME PSTACK, 0, STACK
        ARGFRAME XSTACK, 0, STACK
        ARGFRAME IOVERLAY, 0, STATIC
        ARGFRAME DOVERLAY, 0, STATIC
        PUSH    DPL
        CFI DPL0 Frame(CFA_SP, 4)
        CFI CFA_SP SP+-4
        PUSH    DPH
        CFI DPH0 Frame(CFA_SP, 5)
        CFI CFA_SP SP+-5
        ; Saved register size: 2
        ; Auto size: 0
//  396   uint16 index;
//  397   uint16 size;
//  398 
//  399   // allocate MASTER key data
//  400   size = (short)( sizeof(ZDSecMgrMasterKeyData_t) * ZDSECMGR_MASTERKEY_MAX );
//  401 
//  402   ZDSecMgrMasterKeyData = osal_mem_alloc( size );
        ; Setup parameters for call to function osal_mem_alloc
        MOV     R2,#0x36
        MOV     R3,#0x0
        LCALL   ??osal_mem_alloc?relay
        MOV     DPTR,#ZDSecMgrMasterKeyData
        LCALL   ??Subroutine86_0 & 0xFFFF
//  403 
//  404   // initialize MASTER key data
//  405   if ( ZDSecMgrMasterKeyData != NULL )
??CrossCallReturnLabel_127:
        MOV     DPTR,#ZDSecMgrMasterKeyData
        LCALL   ??Subroutine97_0 & 0xFFFF
??CrossCallReturnLabel_200:
        JZ      ??ZDSecMgrMasterKeyInit_0
//  406   {
//  407     for ( index = 0; index < ZDSECMGR_MASTERKEY_MAX; index++ )
        MOV     R0,#0x0
        MOV     R1,#0x0
//  408     {
//  409       ZDSecMgrMasterKeyData[index].ami = INVALID_NODE_ADDR;
??ZDSecMgrMasterKeyInit_1:
        MOV     A,R0
        MOV     R2,A
        MOV     A,R1
        MOV     R3,A
        MOV     A,R2
        MOV     B,#0x12
        MUL     AB
        MOV     R2,A
        MOV     R4,B
        MOV     B,#0x12
        MOV     A,R3
        MUL     AB
        ADD     A,R4
        MOV     R3,A
        MOV     DPTR,#ZDSecMgrMasterKeyData
        LCALL   ?Subroutine12 & 0xFFFF
//  410     }
//  411   }
??CrossCallReturnLabel_110:
        JC      ??ZDSecMgrMasterKeyInit_1
//  412 }
??ZDSecMgrMasterKeyInit_0:
        LJMP    ??Subroutine91_0 & 0xFFFF
        CFI EndBlock cfiBlock0

        RSEG BANKED_CODE:CODE:NOROOT(0)
?Subroutine12:
        CFI Block cfiCond1 Using cfiCommon0
        CFI NoFunction
        CFI Conditional ??CrossCallReturnLabel_110
        CFI DPL0 Frame(CFA_SP, 4)
        CFI DPH0 Frame(CFA_SP, 5)
        CFI CFA_SP SP+-5
        CFI Block cfiCond2 Using cfiCommon0
        CFI (cfiCond2) NoFunction
        CFI (cfiCond2) Conditional ??CrossCallReturnLabel_111
        CFI (cfiCond2) DPL0 Frame(CFA_SP, 4)
        CFI (cfiCond2) DPH0 Frame(CFA_SP, 5)
        CFI (cfiCond2) CFA_SP SP+-5
        CFI Block cfiPicker3 Using cfiCommon1
        CFI (cfiPicker3) NoFunction
        CFI (cfiPicker3) Picker
        LCALL   ?Subroutine68 & 0xFFFF
??CrossCallReturnLabel_95:
        MOV     A,#-0x2
        MOVX    @DPTR,A
        INC     DPTR
        INC     A
        CFI EndBlock cfiCond1
        CFI EndBlock cfiCond2
        CFI EndBlock cfiPicker3
        REQUIRE ??Subroutine80_0
        ; // Fall through to label ??Subroutine80_0

        RSEG BANKED_CODE:CODE:NOROOT(0)
??Subroutine80_0:
        CFI Block cfiCond4 Using cfiCommon0
        CFI NoFunction
        CFI Conditional ??CrossCallReturnLabel_112
        CFI DPL0 Frame(CFA_SP, 4)
        CFI DPH0 Frame(CFA_SP, 5)
        CFI CFA_SP SP+-5
        CFI Block cfiCond5 Using cfiCommon0
        CFI (cfiCond5) NoFunction
        CFI (cfiCond5) Conditional ??CrossCallReturnLabel_110
        CFI (cfiCond5) DPL0 Frame(CFA_SP, 4)
        CFI (cfiCond5) DPH0 Frame(CFA_SP, 5)
        CFI (cfiCond5) CFA_SP SP+-5
        CFI Block cfiCond6 Using cfiCommon0
        CFI (cfiCond6) NoFunction
        CFI (cfiCond6) Conditional ??CrossCallReturnLabel_111
        CFI (cfiCond6) DPL0 Frame(CFA_SP, 4)
        CFI (cfiCond6) DPH0 Frame(CFA_SP, 5)
        CFI (cfiCond6) CFA_SP SP+-5
        CFI Block cfiPicker7 Using cfiCommon1
        CFI (cfiPicker7) NoFunction
        CFI (cfiPicker7) Picker
        MOVX    @DPTR,A
        LCALL   ?Subroutine75 & 0xFFFF
??CrossCallReturnLabel_113:
        RET
        CFI EndBlock cfiCond4
        CFI EndBlock cfiCond5
        CFI EndBlock cfiCond6
        CFI EndBlock cfiPicker7
//  413 //devtag.pro.security
//  414 #if 0
//  415 void ZDSecMgrMasterKeyInit( void )
//  416 {
//  417   uint16         index;
//  418   uint16         size;
//  419   AddrMgrEntry_t entry;
//  420 
//  421 
//  422   // allocate MASTER key data
//  423   size = (short)( sizeof(ZDSecMgrMasterKeyData_t) * ZDSECMGR_MASTERKEY_MAX );
//  424 
//  425   ZDSecMgrMasterKeyData = osal_mem_alloc( size );
//  426 
//  427   // initialize MASTER key data
//  428   if ( ZDSecMgrMasterKeyData != NULL )
//  429   {
//  430     for ( index = 0; index < ZDSECMGR_MASTERKEY_MAX; index++ )
//  431     {
//  432       ZDSecMgrMasterKeyData[index].ami = INVALID_NODE_ADDR;
//  433     }
//  434 
//  435     // check if preconfigured keys are enabled
//  436     //-------------------------------------------------------------------------
//  437     #if ( ZDSECMGR_PRECONFIG_MAX != 0 )
//  438     //-------------------------------------------------------------------------
//  439     if ( zgPreConfigKeys == TRUE )
//  440     {
//  441       // sync configured data
//  442       entry.user = ADDRMGR_USER_SECURITY;
//  443 
//  444       for ( index = 0; index < ZDSECMGR_PRECONFIG_MAX; index++ )
//  445       {
//  446         // check for Address Manager entry
//  447         AddrMgrExtAddrSet( entry.extAddr,
//  448                            (uint8*)ZDSecMgrPreConfigData[index].extAddr );
//  449 
//  450         if ( AddrMgrEntryLookupExt( &entry ) != TRUE )
//  451         {
//  452           // update Address Manager
//  453           AddrMgrEntryUpdate( &entry );
//  454         }
//  455 
//  456         if ( entry.index != INVALID_NODE_ADDR )
//  457         {
//  458           // sync MASTER keys with Address Manager index
//  459           ZDSecMgrMasterKeyData[index].ami = entry.index;
//  460 
//  461           osal_memcpy( ZDSecMgrMasterKeyData[index].key,
//  462                    (void*)ZDSecMgrPreConfigData[index].key, SEC_KEY_LEN );
//  463         }
//  464       }
//  465     }
//  466     //-------------------------------------------------------------------------
//  467     #endif // ( ZDSECMGR_PRECONFIG_MAX != 0 )
//  468     //-------------------------------------------------------------------------
//  469   }
//  470 }
//  471 #endif
//  472 
//  473 /******************************************************************************
//  474  * @fn          ZDSecMgrAddrStore
//  475  *
//  476  * @brief       Store device addresses.
//  477  *
//  478  * @param       nwkAddr - [in] NWK address
//  479  * @param       extAddr - [in] EXT address
//  480  * @param       ami     - [out] Address Manager index
//  481  *
//  482  * @return      ZStatus_t
//  483  */

        RSEG BANKED_CODE:CODE:NOROOT(0)
//  484 ZStatus_t ZDSecMgrAddrStore( uint16 nwkAddr, uint8* extAddr, uint16* ami )
ZDSecMgrAddrStore:
        CFI Block cfiBlock8 Using cfiCommon0
        CFI Function ZDSecMgrAddrStore
        CODE
//  485 {
        FUNCALL ZDSecMgrAddrStore, AddrMgrExtAddrSet
        LOCFRAME ISTACK, 0, STACK
        LOCFRAME PSTACK, 0, STACK
        LOCFRAME XSTACK, 22, STACK
        LOCFRAME IOVERLAY, 0, STATIC
        LOCFRAME DOVERLAY, 0, STATIC
        ARGFRAME ISTACK, 0, STACK
        ARGFRAME PSTACK, 0, STACK
        ARGFRAME XSTACK, 22, STACK
        ARGFRAME IOVERLAY, 0, STATIC
        ARGFRAME DOVERLAY, 0, STATIC
        FUNCALL ZDSecMgrAddrStore, AddrMgrEntryUpdate
        LOCFRAME ISTACK, 0, STACK
        LOCFRAME PSTACK, 0, STACK
        LOCFRAME XSTACK, 22, STACK
        LOCFRAME IOVERLAY, 0, STATIC
        LOCFRAME DOVERLAY, 0, STATIC
        ARGFRAME ISTACK, 0, STACK
        ARGFRAME PSTACK, 0, STACK
        ARGFRAME XSTACK, 22, STACK
        ARGFRAME IOVERLAY, 0, STATIC
        ARGFRAME DOVERLAY, 0, STATIC
        MOV     A,#-0x9
        LCALL   ?BANKED_ENTER_XDATA
        CFI DPH0 load(1, XDATA, add(CFA_XSP16, literal(-1)))
        CFI DPL0 load(1, XDATA, add(CFA_XSP16, literal(-2)))
        CFI ?BRET_EXT load(1, XDATA, add(CFA_XSP16, literal(-3)))
        CFI ?RET_HIGH load(1, XDATA, add(CFA_XSP16, literal(-4)))
        CFI ?RET_LOW load(1, XDATA, add(CFA_XSP16, literal(-5)))
        CFI R7 load(1, XDATA, add(CFA_XSP16, literal(-6)))
        CFI V0 load(1, XDATA, add(CFA_XSP16, literal(-7)))
        CFI VB load(1, XDATA, add(CFA_XSP16, literal(-8)))
        CFI R6 load(1, XDATA, add(CFA_XSP16, literal(-9)))
        CFI CFA_SP SP+0
        CFI CFA_XSP16 add(XSP16, 9)
        ; Saved register size: 9
        ; Auto size: 13
        MOV     A,#-0xd
        LCALL   ?ALLOC_XSTACK8
        CFI CFA_XSP16 add(XSP16, 22)
        MOV     A,#0x16
        LCALL   ?XSTACK_DISP0_8
        LCALL   ?Subroutine35 & 0xFFFF
//  486   ZStatus_t      status;
//  487   AddrMgrEntry_t entry;
//  488 
//  489 
//  490   // add entry
//  491   entry.user    = ADDRMGR_USER_SECURITY;
//  492   entry.nwkAddr = nwkAddr;
??CrossCallReturnLabel_31:
        LCALL   ?XSTACK_DISP0_8
        LCALL   ??Subroutine86_0 & 0xFFFF
//  493   AddrMgrExtAddrSet( entry.extAddr, extAddr );
??CrossCallReturnLabel_128:
        ; Setup parameters for call to function AddrMgrExtAddrSet
        MOV     A,#0x3
        LCALL   ?XSTACK_DISP0_8
        LCALL   ?Subroutine56 & 0xFFFF
//  494 
//  495   if ( AddrMgrEntryUpdate( &entry ) == TRUE )
??CrossCallReturnLabel_77:
        JNZ     ??ZDSecMgrAddrStore_0
//  496   {
//  497     // return successful results
//  498     *ami   = entry.index;
        MOV     A,#0xb
        LCALL   ?XSTACK_DISP0_8
        LCALL   ?Subroutine26 & 0xFFFF
//  499     status = ZSuccess;
//  500   }
??CrossCallReturnLabel_21:
        SJMP    ??CrossCallReturnLabel_24
//  501   else
//  502   {
//  503     // return failed results
//  504     *ami   = entry.index;
??ZDSecMgrAddrStore_0:
        MOV     A,#0xb
        LCALL   ?XSTACK_DISP0_8
        LCALL   ?Subroutine27 & 0xFFFF
//  505     status = ZNwkUnknownDevice;
//  506   }
//  507 
//  508   return status;
??CrossCallReturnLabel_24:
        LJMP    ?Subroutine5 & 0xFFFF
        CFI EndBlock cfiBlock8
//  509 }
//  510 
//  511 /******************************************************************************
//  512  * @fn          ZDSecMgrExtAddrStore
//  513  *
//  514  * @brief       Store EXT address.
//  515  *
//  516  * @param       extAddr - [in] EXT address
//  517  * @param       ami     - [out] Address Manager index
//  518  *
//  519  * @return      ZStatus_t
//  520  */

        RSEG BANKED_CODE:CODE:NOROOT(0)
//  521 ZStatus_t ZDSecMgrExtAddrStore( uint16 nwkAddr, uint8* extAddr, uint16* ami )
ZDSecMgrExtAddrStore:
        CFI Block cfiBlock9 Using cfiCommon0
        CFI Function ZDSecMgrExtAddrStore
        CODE
//  522 {
        FUNCALL ZDSecMgrExtAddrStore, AddrMgrExtAddrSet
        LOCFRAME ISTACK, 0, STACK
        LOCFRAME PSTACK, 0, STACK
        LOCFRAME XSTACK, 22, STACK
        LOCFRAME IOVERLAY, 0, STATIC
        LOCFRAME DOVERLAY, 0, STATIC
        ARGFRAME ISTACK, 0, STACK
        ARGFRAME PSTACK, 0, STACK
        ARGFRAME XSTACK, 22, STACK
        ARGFRAME IOVERLAY, 0, STATIC
        ARGFRAME DOVERLAY, 0, STATIC
        FUNCALL ZDSecMgrExtAddrStore, AddrMgrEntryUpdate
        LOCFRAME ISTACK, 0, STACK
        LOCFRAME PSTACK, 0, STACK
        LOCFRAME XSTACK, 22, STACK
        LOCFRAME IOVERLAY, 0, STATIC
        LOCFRAME DOVERLAY, 0, STATIC
        ARGFRAME ISTACK, 0, STACK
        ARGFRAME PSTACK, 0, STACK
        ARGFRAME XSTACK, 22, STACK
        ARGFRAME IOVERLAY, 0, STATIC
        ARGFRAME DOVERLAY, 0, STATIC
        MOV     A,#-0x9
        LCALL   ?BANKED_ENTER_XDATA
        CFI DPH0 load(1, XDATA, add(CFA_XSP16, literal(-1)))
        CFI DPL0 load(1, XDATA, add(CFA_XSP16, literal(-2)))
        CFI ?BRET_EXT load(1, XDATA, add(CFA_XSP16, literal(-3)))
        CFI ?RET_HIGH load(1, XDATA, add(CFA_XSP16, literal(-4)))
        CFI ?RET_LOW load(1, XDATA, add(CFA_XSP16, literal(-5)))
        CFI R7 load(1, XDATA, add(CFA_XSP16, literal(-6)))
        CFI V0 load(1, XDATA, add(CFA_XSP16, literal(-7)))
        CFI VB load(1, XDATA, add(CFA_XSP16, literal(-8)))
        CFI R6 load(1, XDATA, add(CFA_XSP16, literal(-9)))
        CFI CFA_SP SP+0
        CFI CFA_XSP16 add(XSP16, 9)
        ; Saved register size: 9
        ; Auto size: 13
        MOV     A,#-0xd
        LCALL   ?ALLOC_XSTACK8
        CFI CFA_XSP16 add(XSP16, 22)
        MOV     A,#0x16
        LCALL   ?XSTACK_DISP0_8
        LCALL   ?Subroutine35 & 0xFFFF
//  523   ZStatus_t      status;
//  524   AddrMgrEntry_t entry;
//  525 
//  526 
//  527   // add entry
//  528   entry.user    = ADDRMGR_USER_SECURITY;
//  529   entry.nwkAddr = nwkAddr;
??CrossCallReturnLabel_32:
        LCALL   ?XSTACK_DISP0_8
        LCALL   ??Subroutine86_0 & 0xFFFF
//  530   AddrMgrExtAddrSet( entry.extAddr, extAddr );
??CrossCallReturnLabel_129:
        ; Setup parameters for call to function AddrMgrExtAddrSet
        MOV     A,#0x3
        LCALL   ?XSTACK_DISP0_8
        LCALL   ?Subroutine56 & 0xFFFF
//  531 
//  532   if ( AddrMgrEntryUpdate( &entry ) == TRUE )
??CrossCallReturnLabel_78:
        JNZ     ??ZDSecMgrExtAddrStore_0
//  533   {
//  534     // return successful results
//  535     *ami   = entry.index;
        MOV     A,#0xb
        LCALL   ?XSTACK_DISP0_8
        LCALL   ?Subroutine26 & 0xFFFF
//  536     status = ZSuccess;
//  537   }
??CrossCallReturnLabel_22:
        SJMP    ??CrossCallReturnLabel_25
//  538   else
//  539   {
//  540     // return failed results
//  541     *ami   = entry.index;
??ZDSecMgrExtAddrStore_0:
        MOV     A,#0xb
        LCALL   ?XSTACK_DISP0_8
        LCALL   ?Subroutine27 & 0xFFFF
//  542     status = ZNwkUnknownDevice;
//  543   }
//  544 
//  545   return status;
??CrossCallReturnLabel_25:
        SJMP    ?Subroutine5
        CFI EndBlock cfiBlock9
//  546 }

        RSEG BANKED_CODE:CODE:NOROOT(0)
?Subroutine56:
        CFI Block cfiCond10 Using cfiCommon0
        CFI NoFunction
        CFI Conditional ??CrossCallReturnLabel_77
        CFI R6 load(1, XDATA, add(CFA_XSP16, literal(-9)))
        CFI VB load(1, XDATA, add(CFA_XSP16, literal(-8)))
        CFI V0 load(1, XDATA, add(CFA_XSP16, literal(-7)))
        CFI R7 load(1, XDATA, add(CFA_XSP16, literal(-6)))
        CFI ?RET_LOW load(1, XDATA, add(CFA_XSP16, literal(-5)))
        CFI ?RET_HIGH load(1, XDATA, add(CFA_XSP16, literal(-4)))
        CFI ?BRET_EXT load(1, XDATA, add(CFA_XSP16, literal(-3)))
        CFI DPL0 load(1, XDATA, add(CFA_XSP16, literal(-2)))
        CFI DPH0 load(1, XDATA, add(CFA_XSP16, literal(-1)))
        CFI CFA_SP SP+0
        CFI CFA_XSP16 add(XSP16, 22)
        CFI Block cfiCond11 Using cfiCommon0
        CFI (cfiCond11) NoFunction
        CFI (cfiCond11) Conditional ??CrossCallReturnLabel_78
        CFI (cfiCond11) R6 load(1, XDATA, add(CFA_XSP16, literal(-9)))
        CFI (cfiCond11) VB load(1, XDATA, add(CFA_XSP16, literal(-8)))
        CFI (cfiCond11) V0 load(1, XDATA, add(CFA_XSP16, literal(-7)))
        CFI (cfiCond11) R7 load(1, XDATA, add(CFA_XSP16, literal(-6)))
        CFI (cfiCond11) ?RET_LOW load(1, XDATA, add(CFA_XSP16, literal(-5)))
        CFI (cfiCond11) ?RET_HIGH load(1, XDATA, add(CFA_XSP16, literal(-4)))
        CFI (cfiCond11) ?BRET_EXT load(1, XDATA, add(CFA_XSP16, literal(-3)))
        CFI (cfiCond11) DPL0 load(1, XDATA, add(CFA_XSP16, literal(-2)))
        CFI (cfiCond11) DPH0 load(1, XDATA, add(CFA_XSP16, literal(-1)))
        CFI (cfiCond11) CFA_SP SP+0
        CFI (cfiCond11) CFA_XSP16 add(XSP16, 22)
        CFI Block cfiPicker12 Using cfiCommon1
        CFI (cfiPicker12) NoFunction
        CFI (cfiPicker12) Picker
        LCALL   ?Subroutine76 & 0xFFFF
??CrossCallReturnLabel_104:
        LCALL   ??AddrMgrEntryUpdate?relay
        MOV     A,R1
        XRL     A,#0x1
        RET
        CFI EndBlock cfiCond10
        CFI EndBlock cfiCond11
        CFI EndBlock cfiPicker12

        RSEG BANKED_CODE:CODE:NOROOT(0)
?Subroutine35:
        CFI Block cfiCond13 Using cfiCommon0
        CFI NoFunction
        CFI Conditional ??CrossCallReturnLabel_31
        CFI R6 load(1, XDATA, add(CFA_XSP16, literal(-9)))
        CFI VB load(1, XDATA, add(CFA_XSP16, literal(-8)))
        CFI V0 load(1, XDATA, add(CFA_XSP16, literal(-7)))
        CFI R7 load(1, XDATA, add(CFA_XSP16, literal(-6)))
        CFI ?RET_LOW load(1, XDATA, add(CFA_XSP16, literal(-5)))
        CFI ?RET_HIGH load(1, XDATA, add(CFA_XSP16, literal(-4)))
        CFI ?BRET_EXT load(1, XDATA, add(CFA_XSP16, literal(-3)))
        CFI DPL0 load(1, XDATA, add(CFA_XSP16, literal(-2)))
        CFI DPH0 load(1, XDATA, add(CFA_XSP16, literal(-1)))
        CFI CFA_SP SP+0
        CFI CFA_XSP16 add(XSP16, 22)
        CFI Block cfiCond14 Using cfiCommon0
        CFI (cfiCond14) NoFunction
        CFI (cfiCond14) Conditional ??CrossCallReturnLabel_32
        CFI (cfiCond14) R6 load(1, XDATA, add(CFA_XSP16, literal(-9)))
        CFI (cfiCond14) VB load(1, XDATA, add(CFA_XSP16, literal(-8)))
        CFI (cfiCond14) V0 load(1, XDATA, add(CFA_XSP16, literal(-7)))
        CFI (cfiCond14) R7 load(1, XDATA, add(CFA_XSP16, literal(-6)))
        CFI (cfiCond14) ?RET_LOW load(1, XDATA, add(CFA_XSP16, literal(-5)))
        CFI (cfiCond14) ?RET_HIGH load(1, XDATA, add(CFA_XSP16, literal(-4)))
        CFI (cfiCond14) ?BRET_EXT load(1, XDATA, add(CFA_XSP16, literal(-3)))
        CFI (cfiCond14) DPL0 load(1, XDATA, add(CFA_XSP16, literal(-2)))
        CFI (cfiCond14) DPH0 load(1, XDATA, add(CFA_XSP16, literal(-1)))
        CFI (cfiCond14) CFA_SP SP+0
        CFI (cfiCond14) CFA_XSP16 add(XSP16, 22)
        CFI Block cfiPicker15 Using cfiCommon1
        CFI (cfiPicker15) NoFunction
        CFI (cfiPicker15) Picker
        MOVX    A,@DPTR
        MOV     R6,A
        INC     DPTR
        MOVX    A,@DPTR
        MOV     R7,A
        MOV     DPL,?XSP + 0
        MOV     DPH,?XSP + 1
        MOV     A,#0x2
        MOVX    @DPTR,A
        DEC     A
        RET
        CFI EndBlock cfiCond13
        CFI EndBlock cfiCond14
        CFI EndBlock cfiPicker15

        RSEG BANKED_CODE:CODE:NOROOT(0)
?Subroutine27:
        CFI Block cfiCond16 Using cfiCommon0
        CFI NoFunction
        CFI Conditional ??CrossCallReturnLabel_24
        CFI R6 load(1, XDATA, add(CFA_XSP16, literal(-9)))
        CFI VB load(1, XDATA, add(CFA_XSP16, literal(-8)))
        CFI V0 load(1, XDATA, add(CFA_XSP16, literal(-7)))
        CFI R7 load(1, XDATA, add(CFA_XSP16, literal(-6)))
        CFI ?RET_LOW load(1, XDATA, add(CFA_XSP16, literal(-5)))
        CFI ?RET_HIGH load(1, XDATA, add(CFA_XSP16, literal(-4)))
        CFI ?BRET_EXT load(1, XDATA, add(CFA_XSP16, literal(-3)))
        CFI DPL0 load(1, XDATA, add(CFA_XSP16, literal(-2)))
        CFI DPH0 load(1, XDATA, add(CFA_XSP16, literal(-1)))
        CFI CFA_SP SP+0
        CFI CFA_XSP16 add(XSP16, 22)
        CFI Block cfiCond17 Using cfiCommon0
        CFI (cfiCond17) NoFunction
        CFI (cfiCond17) Conditional ??CrossCallReturnLabel_25
        CFI (cfiCond17) R6 load(1, XDATA, add(CFA_XSP16, literal(-9)))
        CFI (cfiCond17) VB load(1, XDATA, add(CFA_XSP16, literal(-8)))
        CFI (cfiCond17) V0 load(1, XDATA, add(CFA_XSP16, literal(-7)))
        CFI (cfiCond17) R7 load(1, XDATA, add(CFA_XSP16, literal(-6)))
        CFI (cfiCond17) ?RET_LOW load(1, XDATA, add(CFA_XSP16, literal(-5)))
        CFI (cfiCond17) ?RET_HIGH load(1, XDATA, add(CFA_XSP16, literal(-4)))
        CFI (cfiCond17) ?BRET_EXT load(1, XDATA, add(CFA_XSP16, literal(-3)))
        CFI (cfiCond17) DPL0 load(1, XDATA, add(CFA_XSP16, literal(-2)))
        CFI (cfiCond17) DPH0 load(1, XDATA, add(CFA_XSP16, literal(-1)))
        CFI (cfiCond17) CFA_SP SP+0
        CFI (cfiCond17) CFA_XSP16 add(XSP16, 22)
        CFI Block cfiCond18 Using cfiCommon0
        CFI (cfiCond18) NoFunction
        CFI (cfiCond18) Conditional ??CrossCallReturnLabel_26
        CFI (cfiCond18) R6 load(1, XDATA, add(CFA_XSP16, literal(-9)))
        CFI (cfiCond18) VB load(1, XDATA, add(CFA_XSP16, literal(-8)))
        CFI (cfiCond18) V0 load(1, XDATA, add(CFA_XSP16, literal(-7)))
        CFI (cfiCond18) R7 load(1, XDATA, add(CFA_XSP16, literal(-6)))
        CFI (cfiCond18) ?RET_LOW load(1, XDATA, add(CFA_XSP16, literal(-5)))
        CFI (cfiCond18) ?RET_HIGH load(1, XDATA, add(CFA_XSP16, literal(-4)))
        CFI (cfiCond18) ?BRET_EXT load(1, XDATA, add(CFA_XSP16, literal(-3)))
        CFI (cfiCond18) DPL0 load(1, XDATA, add(CFA_XSP16, literal(-2)))
        CFI (cfiCond18) DPH0 load(1, XDATA, add(CFA_XSP16, literal(-1)))
        CFI (cfiCond18) CFA_SP SP+0
        CFI (cfiCond18) CFA_XSP16 add(XSP16, 22)
        CFI Block cfiPicker19 Using cfiCommon1
        CFI (cfiPicker19) NoFunction
        CFI (cfiPicker19) Picker
        LCALL   ?Subroutine63 & 0xFFFF
??CrossCallReturnLabel_91:
        MOV     R1,#-0x38
        RET
        CFI EndBlock cfiCond16
        CFI EndBlock cfiCond17
        CFI EndBlock cfiCond18
        CFI EndBlock cfiPicker19

        RSEG BANKED_CODE:CODE:NOROOT(0)
?Subroutine26:
        CFI Block cfiCond20 Using cfiCommon0
        CFI NoFunction
        CFI Conditional ??CrossCallReturnLabel_21
        CFI R6 load(1, XDATA, add(CFA_XSP16, literal(-9)))
        CFI VB load(1, XDATA, add(CFA_XSP16, literal(-8)))
        CFI V0 load(1, XDATA, add(CFA_XSP16, literal(-7)))
        CFI R7 load(1, XDATA, add(CFA_XSP16, literal(-6)))
        CFI ?RET_LOW load(1, XDATA, add(CFA_XSP16, literal(-5)))
        CFI ?RET_HIGH load(1, XDATA, add(CFA_XSP16, literal(-4)))
        CFI ?BRET_EXT load(1, XDATA, add(CFA_XSP16, literal(-3)))
        CFI DPL0 load(1, XDATA, add(CFA_XSP16, literal(-2)))
        CFI DPH0 load(1, XDATA, add(CFA_XSP16, literal(-1)))
        CFI CFA_SP SP+0
        CFI CFA_XSP16 add(XSP16, 22)
        CFI Block cfiCond21 Using cfiCommon0
        CFI (cfiCond21) NoFunction
        CFI (cfiCond21) Conditional ??CrossCallReturnLabel_22
        CFI (cfiCond21) R6 load(1, XDATA, add(CFA_XSP16, literal(-9)))
        CFI (cfiCond21) VB load(1, XDATA, add(CFA_XSP16, literal(-8)))
        CFI (cfiCond21) V0 load(1, XDATA, add(CFA_XSP16, literal(-7)))
        CFI (cfiCond21) R7 load(1, XDATA, add(CFA_XSP16, literal(-6)))
        CFI (cfiCond21) ?RET_LOW load(1, XDATA, add(CFA_XSP16, literal(-5)))
        CFI (cfiCond21) ?RET_HIGH load(1, XDATA, add(CFA_XSP16, literal(-4)))
        CFI (cfiCond21) ?BRET_EXT load(1, XDATA, add(CFA_XSP16, literal(-3)))
        CFI (cfiCond21) DPL0 load(1, XDATA, add(CFA_XSP16, literal(-2)))
        CFI (cfiCond21) DPH0 load(1, XDATA, add(CFA_XSP16, literal(-1)))
        CFI (cfiCond21) CFA_SP SP+0
        CFI (cfiCond21) CFA_XSP16 add(XSP16, 22)
        CFI Block cfiCond22 Using cfiCommon0
        CFI (cfiCond22) NoFunction
        CFI (cfiCond22) Conditional ??CrossCallReturnLabel_23
        CFI (cfiCond22) R6 load(1, XDATA, add(CFA_XSP16, literal(-9)))
        CFI (cfiCond22) VB load(1, XDATA, add(CFA_XSP16, literal(-8)))
        CFI (cfiCond22) V0 load(1, XDATA, add(CFA_XSP16, literal(-7)))
        CFI (cfiCond22) R7 load(1, XDATA, add(CFA_XSP16, literal(-6)))
        CFI (cfiCond22) ?RET_LOW load(1, XDATA, add(CFA_XSP16, literal(-5)))
        CFI (cfiCond22) ?RET_HIGH load(1, XDATA, add(CFA_XSP16, literal(-4)))
        CFI (cfiCond22) ?BRET_EXT load(1, XDATA, add(CFA_XSP16, literal(-3)))
        CFI (cfiCond22) DPL0 load(1, XDATA, add(CFA_XSP16, literal(-2)))
        CFI (cfiCond22) DPH0 load(1, XDATA, add(CFA_XSP16, literal(-1)))
        CFI (cfiCond22) CFA_SP SP+0
        CFI (cfiCond22) CFA_XSP16 add(XSP16, 22)
        CFI Block cfiPicker23 Using cfiCommon1
        CFI (cfiPicker23) NoFunction
        CFI (cfiPicker23) Picker
        LCALL   ?Subroutine63 & 0xFFFF
??CrossCallReturnLabel_90:
        MOV     R1,#0x0
        RET
        CFI EndBlock cfiCond20
        CFI EndBlock cfiCond21
        CFI EndBlock cfiCond22
        CFI EndBlock cfiPicker23

        RSEG BANKED_CODE:CODE:NOROOT(0)
?Subroutine63:
        CFI Block cfiCond24 Using cfiCommon0
        CFI NoFunction
        CFI Conditional ??CrossCallReturnLabel_91, ??CrossCallReturnLabel_24
        CFI R6 load(1, XDATA, add(CFA_XSP16, literal(-9)))
        CFI VB load(1, XDATA, add(CFA_XSP16, literal(-8)))
        CFI V0 load(1, XDATA, add(CFA_XSP16, literal(-7)))
        CFI R7 load(1, XDATA, add(CFA_XSP16, literal(-6)))
        CFI ?RET_LOW load(1, XDATA, add(CFA_XSP16, literal(-5)))
        CFI ?RET_HIGH load(1, XDATA, add(CFA_XSP16, literal(-4)))
        CFI ?BRET_EXT load(1, XDATA, add(CFA_XSP16, literal(-3)))
        CFI DPL0 load(1, XDATA, add(CFA_XSP16, literal(-2)))
        CFI DPH0 load(1, XDATA, add(CFA_XSP16, literal(-1)))
        CFI CFA_SP SP+0
        CFI CFA_XSP16 add(XSP16, 22)
        CFI Block cfiCond25 Using cfiCommon0
        CFI (cfiCond25) NoFunction
        CFI (cfiCond25) Conditional ??CrossCallReturnLabel_91, ??CrossCallReturnLabel_25
        CFI (cfiCond25) R6 load(1, XDATA, add(CFA_XSP16, literal(-9)))
        CFI (cfiCond25) VB load(1, XDATA, add(CFA_XSP16, literal(-8)))
        CFI (cfiCond25) V0 load(1, XDATA, add(CFA_XSP16, literal(-7)))
        CFI (cfiCond25) R7 load(1, XDATA, add(CFA_XSP16, literal(-6)))
        CFI (cfiCond25) ?RET_LOW load(1, XDATA, add(CFA_XSP16, literal(-5)))
        CFI (cfiCond25) ?RET_HIGH load(1, XDATA, add(CFA_XSP16, literal(-4)))
        CFI (cfiCond25) ?BRET_EXT load(1, XDATA, add(CFA_XSP16, literal(-3)))
        CFI (cfiCond25) DPL0 load(1, XDATA, add(CFA_XSP16, literal(-2)))
        CFI (cfiCond25) DPH0 load(1, XDATA, add(CFA_XSP16, literal(-1)))
        CFI (cfiCond25) CFA_SP SP+0
        CFI (cfiCond25) CFA_XSP16 add(XSP16, 22)
        CFI Block cfiCond26 Using cfiCommon0
        CFI (cfiCond26) NoFunction
        CFI (cfiCond26) Conditional ??CrossCallReturnLabel_91, ??CrossCallReturnLabel_26
        CFI (cfiCond26) R6 load(1, XDATA, add(CFA_XSP16, literal(-9)))
        CFI (cfiCond26) VB load(1, XDATA, add(CFA_XSP16, literal(-8)))
        CFI (cfiCond26) V0 load(1, XDATA, add(CFA_XSP16, literal(-7)))
        CFI (cfiCond26) R7 load(1, XDATA, add(CFA_XSP16, literal(-6)))
        CFI (cfiCond26) ?RET_LOW load(1, XDATA, add(CFA_XSP16, literal(-5)))
        CFI (cfiCond26) ?RET_HIGH load(1, XDATA, add(CFA_XSP16, literal(-4)))
        CFI (cfiCond26) ?BRET_EXT load(1, XDATA, add(CFA_XSP16, literal(-3)))
        CFI (cfiCond26) DPL0 load(1, XDATA, add(CFA_XSP16, literal(-2)))
        CFI (cfiCond26) DPH0 load(1, XDATA, add(CFA_XSP16, literal(-1)))
        CFI (cfiCond26) CFA_SP SP+0
        CFI (cfiCond26) CFA_XSP16 add(XSP16, 22)
        CFI Block cfiCond27 Using cfiCommon0
        CFI (cfiCond27) NoFunction
        CFI (cfiCond27) Conditional ??CrossCallReturnLabel_90, ??CrossCallReturnLabel_21
        CFI (cfiCond27) R6 load(1, XDATA, add(CFA_XSP16, literal(-9)))
        CFI (cfiCond27) VB load(1, XDATA, add(CFA_XSP16, literal(-8)))
        CFI (cfiCond27) V0 load(1, XDATA, add(CFA_XSP16, literal(-7)))
        CFI (cfiCond27) R7 load(1, XDATA, add(CFA_XSP16, literal(-6)))
        CFI (cfiCond27) ?RET_LOW load(1, XDATA, add(CFA_XSP16, literal(-5)))
        CFI (cfiCond27) ?RET_HIGH load(1, XDATA, add(CFA_XSP16, literal(-4)))
        CFI (cfiCond27) ?BRET_EXT load(1, XDATA, add(CFA_XSP16, literal(-3)))
        CFI (cfiCond27) DPL0 load(1, XDATA, add(CFA_XSP16, literal(-2)))
        CFI (cfiCond27) DPH0 load(1, XDATA, add(CFA_XSP16, literal(-1)))
        CFI (cfiCond27) CFA_SP SP+0
        CFI (cfiCond27) CFA_XSP16 add(XSP16, 22)
        CFI Block cfiCond28 Using cfiCommon0
        CFI (cfiCond28) NoFunction
        CFI (cfiCond28) Conditional ??CrossCallReturnLabel_90, ??CrossCallReturnLabel_22
        CFI (cfiCond28) R6 load(1, XDATA, add(CFA_XSP16, literal(-9)))
        CFI (cfiCond28) VB load(1, XDATA, add(CFA_XSP16, literal(-8)))
        CFI (cfiCond28) V0 load(1, XDATA, add(CFA_XSP16, literal(-7)))
        CFI (cfiCond28) R7 load(1, XDATA, add(CFA_XSP16, literal(-6)))
        CFI (cfiCond28) ?RET_LOW load(1, XDATA, add(CFA_XSP16, literal(-5)))
        CFI (cfiCond28) ?RET_HIGH load(1, XDATA, add(CFA_XSP16, literal(-4)))
        CFI (cfiCond28) ?BRET_EXT load(1, XDATA, add(CFA_XSP16, literal(-3)))
        CFI (cfiCond28) DPL0 load(1, XDATA, add(CFA_XSP16, literal(-2)))
        CFI (cfiCond28) DPH0 load(1, XDATA, add(CFA_XSP16, literal(-1)))
        CFI (cfiCond28) CFA_SP SP+0
        CFI (cfiCond28) CFA_XSP16 add(XSP16, 22)
        CFI Block cfiCond29 Using cfiCommon0
        CFI (cfiCond29) NoFunction
        CFI (cfiCond29) Conditional ??CrossCallReturnLabel_90, ??CrossCallReturnLabel_23
        CFI (cfiCond29) R6 load(1, XDATA, add(CFA_XSP16, literal(-9)))
        CFI (cfiCond29) VB load(1, XDATA, add(CFA_XSP16, literal(-8)))
        CFI (cfiCond29) V0 load(1, XDATA, add(CFA_XSP16, literal(-7)))
        CFI (cfiCond29) R7 load(1, XDATA, add(CFA_XSP16, literal(-6)))
        CFI (cfiCond29) ?RET_LOW load(1, XDATA, add(CFA_XSP16, literal(-5)))
        CFI (cfiCond29) ?RET_HIGH load(1, XDATA, add(CFA_XSP16, literal(-4)))
        CFI (cfiCond29) ?BRET_EXT load(1, XDATA, add(CFA_XSP16, literal(-3)))
        CFI (cfiCond29) DPL0 load(1, XDATA, add(CFA_XSP16, literal(-2)))
        CFI (cfiCond29) DPH0 load(1, XDATA, add(CFA_XSP16, literal(-1)))
        CFI (cfiCond29) CFA_SP SP+0
        CFI (cfiCond29) CFA_XSP16 add(XSP16, 22)
        CFI Block cfiPicker30 Using cfiCommon1
        CFI (cfiPicker30) NoFunction
        CFI (cfiPicker30) Picker
        LCALL   ?Subroutine79 & 0xFFFF
??CrossCallReturnLabel_250:
        MOV     R1,A
        MOV     DPL,R6
        MOV     DPH,R7
        LCALL   ?Subroutine77 & 0xFFFF
??CrossCallReturnLabel_221:
        RET
        CFI EndBlock cfiCond24
        CFI EndBlock cfiCond25
        CFI EndBlock cfiCond26
        CFI EndBlock cfiCond27
        CFI EndBlock cfiCond28
        CFI EndBlock cfiCond29
        CFI EndBlock cfiPicker30
//  547 
//  548 /******************************************************************************
//  549  * @fn          ZDSecMgrExtAddrLookup
//  550  *
//  551  * @brief       Lookup index for specified EXT address.
//  552  *
//  553  * @param       extAddr - [in] EXT address
//  554  * @param       ami     - [out] Address Manager index
//  555  *
//  556  * @return      ZStatus_t
//  557  */

        RSEG BANKED_CODE:CODE:NOROOT(0)
//  558 ZStatus_t ZDSecMgrExtAddrLookup( uint8* extAddr, uint16* ami )
ZDSecMgrExtAddrLookup:
        CFI Block cfiBlock31 Using cfiCommon0
        CFI Function ZDSecMgrExtAddrLookup
        CODE
//  559 {
        FUNCALL ZDSecMgrExtAddrLookup, AddrMgrExtAddrSet
        LOCFRAME ISTACK, 0, STACK
        LOCFRAME PSTACK, 0, STACK
        LOCFRAME XSTACK, 22, STACK
        LOCFRAME IOVERLAY, 0, STATIC
        LOCFRAME DOVERLAY, 0, STATIC
        ARGFRAME ISTACK, 0, STACK
        ARGFRAME PSTACK, 0, STACK
        ARGFRAME XSTACK, 22, STACK
        ARGFRAME IOVERLAY, 0, STATIC
        ARGFRAME DOVERLAY, 0, STATIC
        FUNCALL ZDSecMgrExtAddrLookup, AddrMgrEntryLookupExt
        LOCFRAME ISTACK, 0, STACK
        LOCFRAME PSTACK, 0, STACK
        LOCFRAME XSTACK, 22, STACK
        LOCFRAME IOVERLAY, 0, STATIC
        LOCFRAME DOVERLAY, 0, STATIC
        ARGFRAME ISTACK, 0, STACK
        ARGFRAME PSTACK, 0, STACK
        ARGFRAME XSTACK, 22, STACK
        ARGFRAME IOVERLAY, 0, STATIC
        ARGFRAME DOVERLAY, 0, STATIC
        MOV     A,#-0x9
        LCALL   ?BANKED_ENTER_XDATA
        CFI DPH0 load(1, XDATA, add(CFA_XSP16, literal(-1)))
        CFI DPL0 load(1, XDATA, add(CFA_XSP16, literal(-2)))
        CFI ?BRET_EXT load(1, XDATA, add(CFA_XSP16, literal(-3)))
        CFI ?RET_HIGH load(1, XDATA, add(CFA_XSP16, literal(-4)))
        CFI ?RET_LOW load(1, XDATA, add(CFA_XSP16, literal(-5)))
        CFI R7 load(1, XDATA, add(CFA_XSP16, literal(-6)))
        CFI V0 load(1, XDATA, add(CFA_XSP16, literal(-7)))
        CFI VB load(1, XDATA, add(CFA_XSP16, literal(-8)))
        CFI R6 load(1, XDATA, add(CFA_XSP16, literal(-9)))
        CFI CFA_SP SP+0
        CFI CFA_XSP16 add(XSP16, 9)
        ; Saved register size: 9
        ; Auto size: 13
        MOV     A,#-0xd
        LCALL   ?ALLOC_XSTACK8
        CFI CFA_XSP16 add(XSP16, 22)
        MOV     A,R4
        MOV     R6,A
        MOV     A,R5
        MOV     R7,A
//  560   ZStatus_t      status;
//  561   AddrMgrEntry_t entry;
//  562 
//  563 
//  564   // lookup entry
//  565   entry.user = ADDRMGR_USER_SECURITY;
        MOV     DPL,?XSP + 0
        MOV     DPH,?XSP + 1
        MOV     A,#0x2
        MOVX    @DPTR,A
//  566   AddrMgrExtAddrSet( entry.extAddr, extAddr );
        ; Setup parameters for call to function AddrMgrExtAddrSet
        MOV     A,R2
        MOV     R4,A
        MOV     A,R3
        MOV     R5,A
        MOV     A,#0x3
        LCALL   ?XSTACK_DISP0_8
        LCALL   ?Subroutine76 & 0xFFFF
//  567 
//  568   if ( AddrMgrEntryLookupExt( &entry ) == TRUE )
??CrossCallReturnLabel_105:
        LCALL   ??AddrMgrEntryLookupExt?relay
        MOV     A,R1
        XRL     A,#0x1
        JNZ     ??ZDSecMgrExtAddrLookup_0
//  569   {
//  570     // return successful results
//  571     *ami   = entry.index;
        MOV     A,#0xb
        LCALL   ?XSTACK_DISP0_8
        LCALL   ?Subroutine26 & 0xFFFF
//  572     status = ZSuccess;
//  573   }
??CrossCallReturnLabel_23:
        SJMP    ??CrossCallReturnLabel_26
//  574   else
//  575   {
//  576     // return failed results
//  577     *ami   = entry.index;
??ZDSecMgrExtAddrLookup_0:
        MOV     A,#0xb
        LCALL   ?XSTACK_DISP0_8
        LCALL   ?Subroutine27 & 0xFFFF
        CFI EndBlock cfiBlock31
//  578     status = ZNwkUnknownDevice;
//  579   }
//  580 
//  581   return status;
??CrossCallReturnLabel_26:
        REQUIRE ?Subroutine5
        ; // Fall through to label ?Subroutine5
//  582 }

        RSEG BANKED_CODE:CODE:NOROOT(0)
?Subroutine5:
        CFI Block cfiBlock32 Using cfiCommon0
        CFI NoFunction
        CFI CFA_SP SP+0
        CFI CFA_XSP16 add(XSP16, 22)
        CFI VB load(1, XDATA, add(CFA_XSP16, literal(-8)))
        CFI DPL0 load(1, XDATA, add(CFA_XSP16, literal(-2)))
        CFI DPH0 load(1, XDATA, add(CFA_XSP16, literal(-1)))
        CFI R6 load(1, XDATA, add(CFA_XSP16, literal(-9)))
        CFI R7 load(1, XDATA, add(CFA_XSP16, literal(-6)))
        CFI V0 load(1, XDATA, add(CFA_XSP16, literal(-7)))
        CFI ?BRET_EXT load(1, XDATA, add(CFA_XSP16, literal(-3)))
        CFI ?RET_HIGH load(1, XDATA, add(CFA_XSP16, literal(-4)))
        CFI ?RET_LOW load(1, XDATA, add(CFA_XSP16, literal(-5)))
        MOV     A,#0xd
        LJMP    ??Subroutine103_0 & 0xFFFF
        CFI EndBlock cfiBlock32

        RSEG BANKED_CODE:CODE:NOROOT(0)
?Subroutine76:
        CFI Block cfiCond33 Using cfiCommon0
        CFI NoFunction
        CFI Conditional ??CrossCallReturnLabel_104, ??CrossCallReturnLabel_77
        CFI R6 load(1, XDATA, add(CFA_XSP16, literal(-9)))
        CFI VB load(1, XDATA, add(CFA_XSP16, literal(-8)))
        CFI V0 load(1, XDATA, add(CFA_XSP16, literal(-7)))
        CFI R7 load(1, XDATA, add(CFA_XSP16, literal(-6)))
        CFI ?RET_LOW load(1, XDATA, add(CFA_XSP16, literal(-5)))
        CFI ?RET_HIGH load(1, XDATA, add(CFA_XSP16, literal(-4)))
        CFI ?BRET_EXT load(1, XDATA, add(CFA_XSP16, literal(-3)))
        CFI DPL0 load(1, XDATA, add(CFA_XSP16, literal(-2)))
        CFI DPH0 load(1, XDATA, add(CFA_XSP16, literal(-1)))
        CFI CFA_SP SP+0
        CFI CFA_XSP16 add(XSP16, 22)
        CFI Block cfiCond34 Using cfiCommon0
        CFI (cfiCond34) NoFunction
        CFI (cfiCond34) Conditional ??CrossCallReturnLabel_104, ??CrossCallReturnLabel_78
        CFI (cfiCond34) R6 load(1, XDATA, add(CFA_XSP16, literal(-9)))
        CFI (cfiCond34) VB load(1, XDATA, add(CFA_XSP16, literal(-8)))
        CFI (cfiCond34) V0 load(1, XDATA, add(CFA_XSP16, literal(-7)))
        CFI (cfiCond34) R7 load(1, XDATA, add(CFA_XSP16, literal(-6)))
        CFI (cfiCond34) ?RET_LOW load(1, XDATA, add(CFA_XSP16, literal(-5)))
        CFI (cfiCond34) ?RET_HIGH load(1, XDATA, add(CFA_XSP16, literal(-4)))
        CFI (cfiCond34) ?BRET_EXT load(1, XDATA, add(CFA_XSP16, literal(-3)))
        CFI (cfiCond34) DPL0 load(1, XDATA, add(CFA_XSP16, literal(-2)))
        CFI (cfiCond34) DPH0 load(1, XDATA, add(CFA_XSP16, literal(-1)))
        CFI (cfiCond34) CFA_SP SP+0
        CFI (cfiCond34) CFA_XSP16 add(XSP16, 22)
        CFI Block cfiCond35 Using cfiCommon0
        CFI (cfiCond35) NoFunction
        CFI (cfiCond35) Conditional ??CrossCallReturnLabel_105
        CFI (cfiCond35) R6 load(1, XDATA, add(CFA_XSP16, literal(-9)))
        CFI (cfiCond35) VB load(1, XDATA, add(CFA_XSP16, literal(-8)))
        CFI (cfiCond35) V0 load(1, XDATA, add(CFA_XSP16, literal(-7)))
        CFI (cfiCond35) R7 load(1, XDATA, add(CFA_XSP16, literal(-6)))
        CFI (cfiCond35) ?RET_LOW load(1, XDATA, add(CFA_XSP16, literal(-5)))
        CFI (cfiCond35) ?RET_HIGH load(1, XDATA, add(CFA_XSP16, literal(-4)))
        CFI (cfiCond35) ?BRET_EXT load(1, XDATA, add(CFA_XSP16, literal(-3)))
        CFI (cfiCond35) DPL0 load(1, XDATA, add(CFA_XSP16, literal(-2)))
        CFI (cfiCond35) DPH0 load(1, XDATA, add(CFA_XSP16, literal(-1)))
        CFI (cfiCond35) CFA_SP SP+0
        CFI (cfiCond35) CFA_XSP16 add(XSP16, 22)
        CFI Block cfiPicker36 Using cfiCommon1
        CFI (cfiPicker36) NoFunction
        CFI (cfiPicker36) Picker
        MOV     R2,DPL
        MOV     R3,DPH
        LCALL   ??AddrMgrExtAddrSet?relay
        ; Setup parameters for call to function AddrMgrEntryUpdate
        ; Setup parameters for call to function AddrMgrEntryUpdate
        ; Setup parameters for call to function AddrMgrEntryLookupExt
        MOV     DPL,?XSP + 0
        MOV     DPH,?XSP + 1
        MOV     R2,DPL
        MOV     R3,DPH
        RET
        CFI EndBlock cfiCond33
        CFI EndBlock cfiCond34
        CFI EndBlock cfiCond35
        CFI EndBlock cfiPicker36
//  583 
//  584 /******************************************************************************
//  585  * @fn          ZDSecMgrMasterKeyLookup
//  586  *
//  587  * @brief       Lookup MASTER key for specified address index.
//  588  *
//  589  * @param       ami - [in] Address Manager index
//  590  * @param       key - [out] valid MASTER key
//  591  *
//  592  * @return      ZStatus_t
//  593  */

        RSEG BANKED_CODE:CODE:NOROOT(0)
//  594 ZStatus_t ZDSecMgrMasterKeyLookup( uint16 ami, uint8** key )
ZDSecMgrMasterKeyLookup:
        CFI Block cfiBlock37 Using cfiCommon0
        CFI Function ZDSecMgrMasterKeyLookup
        CODE
//  595 {
        MOV     A,#-0xa
        LCALL   ?BANKED_ENTER_XDATA
        CFI DPH0 load(1, XDATA, add(CFA_XSP16, literal(-1)))
        CFI DPL0 load(1, XDATA, add(CFA_XSP16, literal(-2)))
        CFI ?BRET_EXT load(1, XDATA, add(CFA_XSP16, literal(-3)))
        CFI ?RET_HIGH load(1, XDATA, add(CFA_XSP16, literal(-4)))
        CFI ?RET_LOW load(1, XDATA, add(CFA_XSP16, literal(-5)))
        CFI R7 load(1, XDATA, add(CFA_XSP16, literal(-6)))
        CFI V1 load(1, XDATA, add(CFA_XSP16, literal(-7)))
        CFI V0 load(1, XDATA, add(CFA_XSP16, literal(-8)))
        CFI VB load(1, XDATA, add(CFA_XSP16, literal(-9)))
        CFI R6 load(1, XDATA, add(CFA_XSP16, literal(-10)))
        CFI CFA_SP SP+0
        CFI CFA_XSP16 add(XSP16, 10)
        ; Saved register size: 10
        ; Auto size: 0
        LCALL   ?Subroutine73 & 0xFFFF
//  596   ZStatus_t status;
//  597   uint16    index;
//  598 
//  599 
//  600   // initialize results
//  601   *key   = NULL;
//  602   status = ZNwkUnknownDevice;
//  603 
//  604   // verify data is available
//  605   if ( ZDSecMgrMasterKeyData != NULL )
??CrossCallReturnLabel_121:
        MOV     DPTR,#ZDSecMgrMasterKeyData
        LCALL   ??Subroutine97_0 & 0xFFFF
??CrossCallReturnLabel_201:
        JZ      ??ZDSecMgrMasterKeyLookup_0
//  606   {
//  607     for ( index = 0; index < ZDSECMGR_MASTERKEY_MAX ; index++ )
        MOV     R0,#0x0
        MOV     R1,#0x0
//  608     {
//  609       if ( ZDSecMgrMasterKeyData[index].ami == ami )
??ZDSecMgrMasterKeyLookup_1:
        MOV     A,R0
        MOV     R4,A
        MOV     A,R1
        MOV     R5,A
        MOV     A,R4
        MOV     B,#0x12
        MUL     AB
        MOV     R4,A
        MOV     ?V0 + 1,B
        MOV     B,#0x12
        MOV     A,R5
        MUL     AB
        ADD     A,?V0 + 1
        MOV     R5,A
        MOV     DPTR,#ZDSecMgrMasterKeyData
        MOVX    A,@DPTR
        ADD     A,R4
        MOV     R4,A
        INC     DPTR
        MOVX    A,@DPTR
        ADDC    A,R5
        MOV     R5,A
        MOV     DPL,R4
        MOV     DPH,R5
        MOVX    A,@DPTR
        XRL     A,R2
        JNZ     ??ZDSecMgrMasterKeyLookup_2
        INC     DPTR
        MOVX    A,@DPTR
        XRL     A,R3
??ZDSecMgrMasterKeyLookup_2:
        JNZ     ??CrossCallReturnLabel_115
//  610       {
//  611         // return successful results
//  612         *key   = ZDSecMgrMasterKeyData[index].key;
        MOV     A,R4
        ADD     A,#0x2
        MOV     R0,A
        MOV     A,R5
        ADDC    A,#0x0
        LCALL   ?Subroutine13 & 0xFFFF
//  613         status = ZSuccess;
//  614 
//  615         // break from loop
//  616         index  = ZDSECMGR_MASTERKEY_MAX;
//  617       }
//  618     }
??CrossCallReturnLabel_115:
        LCALL   ?Subroutine54 & 0xFFFF
//  619   }
??CrossCallReturnLabel_69:
        JC      ??ZDSecMgrMasterKeyLookup_1
        CFI EndBlock cfiBlock37
//  620 
//  621   return status;
??ZDSecMgrMasterKeyLookup_0:
        REQUIRE ?Subroutine7
        ; // Fall through to label ?Subroutine7
//  622 }

        RSEG BANKED_CODE:CODE:NOROOT(0)
?Subroutine7:
        CFI Block cfiBlock38 Using cfiCommon0
        CFI NoFunction
        CFI CFA_SP SP+0
        CFI CFA_XSP16 add(XSP16, 10)
        CFI VB load(1, XDATA, add(CFA_XSP16, literal(-9)))
        CFI DPL0 load(1, XDATA, add(CFA_XSP16, literal(-2)))
        CFI DPH0 load(1, XDATA, add(CFA_XSP16, literal(-1)))
        CFI R6 load(1, XDATA, add(CFA_XSP16, literal(-10)))
        CFI R7 load(1, XDATA, add(CFA_XSP16, literal(-6)))
        CFI V0 load(1, XDATA, add(CFA_XSP16, literal(-8)))
        CFI V1 load(1, XDATA, add(CFA_XSP16, literal(-7)))
        CFI ?BRET_EXT load(1, XDATA, add(CFA_XSP16, literal(-3)))
        CFI ?RET_HIGH load(1, XDATA, add(CFA_XSP16, literal(-4)))
        CFI ?RET_LOW load(1, XDATA, add(CFA_XSP16, literal(-5)))
        MOV     R1,?V0 + 0
        LJMP    ??Subroutine101_0 & 0xFFFF
        CFI EndBlock cfiBlock38

        RSEG BANKED_CODE:CODE:NOROOT(0)
?Subroutine73:
        CFI Block cfiCond39 Using cfiCommon0
        CFI NoFunction
        CFI Conditional ??CrossCallReturnLabel_121
        CFI R6 load(1, XDATA, add(CFA_XSP16, literal(-10)))
        CFI VB load(1, XDATA, add(CFA_XSP16, literal(-9)))
        CFI V0 load(1, XDATA, add(CFA_XSP16, literal(-8)))
        CFI V1 load(1, XDATA, add(CFA_XSP16, literal(-7)))
        CFI R7 load(1, XDATA, add(CFA_XSP16, literal(-6)))
        CFI ?RET_LOW load(1, XDATA, add(CFA_XSP16, literal(-5)))
        CFI ?RET_HIGH load(1, XDATA, add(CFA_XSP16, literal(-4)))
        CFI ?BRET_EXT load(1, XDATA, add(CFA_XSP16, literal(-3)))
        CFI DPL0 load(1, XDATA, add(CFA_XSP16, literal(-2)))
        CFI DPH0 load(1, XDATA, add(CFA_XSP16, literal(-1)))
        CFI CFA_SP SP+0
        CFI CFA_XSP16 add(XSP16, 10)
        CFI Block cfiCond40 Using cfiCommon0
        CFI (cfiCond40) NoFunction
        CFI (cfiCond40) Conditional ??CrossCallReturnLabel_122
        CFI (cfiCond40) R6 load(1, XDATA, add(CFA_XSP16, literal(-9)))
        CFI (cfiCond40) VB load(1, XDATA, add(CFA_XSP16, literal(-8)))
        CFI (cfiCond40) V0 load(1, XDATA, add(CFA_XSP16, literal(-7)))
        CFI (cfiCond40) R7 load(1, XDATA, add(CFA_XSP16, literal(-6)))
        CFI (cfiCond40) ?RET_LOW load(1, XDATA, add(CFA_XSP16, literal(-5)))
        CFI (cfiCond40) ?RET_HIGH load(1, XDATA, add(CFA_XSP16, literal(-4)))
        CFI (cfiCond40) ?BRET_EXT load(1, XDATA, add(CFA_XSP16, literal(-3)))
        CFI (cfiCond40) DPL0 load(1, XDATA, add(CFA_XSP16, literal(-2)))
        CFI (cfiCond40) DPH0 load(1, XDATA, add(CFA_XSP16, literal(-1)))
        CFI (cfiCond40) CFA_SP SP+0
        CFI (cfiCond40) CFA_XSP16 add(XSP16, 11)
        CFI Block cfiPicker41 Using cfiCommon1
        CFI (cfiPicker41) NoFunction
        CFI (cfiPicker41) Picker
        MOV     A,R4
        MOV     R6,A
        MOV     A,R5
        MOV     R7,A
        MOV     DPL,R6
        MOV     DPH,R7
        CFI EndBlock cfiCond39
        CFI EndBlock cfiCond40
        CFI EndBlock cfiPicker41
        REQUIRE ??Subroutine81_0
        ; // Fall through to label ??Subroutine81_0

        RSEG BANKED_CODE:CODE:NOROOT(0)
??Subroutine81_0:
        CFI Block cfiCond42 Using cfiCommon0
        CFI NoFunction
        CFI Conditional ??CrossCallReturnLabel_123, ??CrossCallReturnLabel_118
        CFI R6 load(1, XDATA, add(CFA_XSP16, literal(-10)))
        CFI VB load(1, XDATA, add(CFA_XSP16, literal(-9)))
        CFI V0 load(1, XDATA, add(CFA_XSP16, literal(-8)))
        CFI V1 load(1, XDATA, add(CFA_XSP16, literal(-7)))
        CFI R7 load(1, XDATA, add(CFA_XSP16, literal(-6)))
        CFI ?RET_LOW load(1, XDATA, add(CFA_XSP16, literal(-5)))
        CFI ?RET_HIGH load(1, XDATA, add(CFA_XSP16, literal(-4)))
        CFI ?BRET_EXT load(1, XDATA, add(CFA_XSP16, literal(-3)))
        CFI DPL0 load(1, XDATA, add(CFA_XSP16, literal(-2)))
        CFI DPH0 load(1, XDATA, add(CFA_XSP16, literal(-1)))
        CFI CFA_SP SP+0
        CFI CFA_XSP16 add(XSP16, 23)
        CFI Block cfiCond43 Using cfiCommon0
        CFI (cfiCond43) NoFunction
        CFI (cfiCond43) Conditional ??CrossCallReturnLabel_123, ??CrossCallReturnLabel_119
        CFI (cfiCond43) R6 load(1, XDATA, add(CFA_XSP16, literal(-10)))
        CFI (cfiCond43) VB load(1, XDATA, add(CFA_XSP16, literal(-9)))
        CFI (cfiCond43) V0 load(1, XDATA, add(CFA_XSP16, literal(-8)))
        CFI (cfiCond43) V1 load(1, XDATA, add(CFA_XSP16, literal(-7)))
        CFI (cfiCond43) R7 load(1, XDATA, add(CFA_XSP16, literal(-6)))
        CFI (cfiCond43) ?RET_LOW load(1, XDATA, add(CFA_XSP16, literal(-5)))
        CFI (cfiCond43) ?RET_HIGH load(1, XDATA, add(CFA_XSP16, literal(-4)))
        CFI (cfiCond43) ?BRET_EXT load(1, XDATA, add(CFA_XSP16, literal(-3)))
        CFI (cfiCond43) DPL0 load(1, XDATA, add(CFA_XSP16, literal(-2)))
        CFI (cfiCond43) DPH0 load(1, XDATA, add(CFA_XSP16, literal(-1)))
        CFI (cfiCond43) CFA_SP SP+0
        CFI (cfiCond43) CFA_XSP16 add(XSP16, 10)
        CFI Block cfiCond44 Using cfiCommon0
        CFI (cfiCond44) NoFunction
        CFI (cfiCond44) Conditional ??CrossCallReturnLabel_123, ??CrossCallReturnLabel_120
        CFI (cfiCond44) R6 load(1, XDATA, add(CFA_XSP16, literal(-10)))
        CFI (cfiCond44) VB load(1, XDATA, add(CFA_XSP16, literal(-9)))
        CFI (cfiCond44) V0 load(1, XDATA, add(CFA_XSP16, literal(-8)))
        CFI (cfiCond44) V1 load(1, XDATA, add(CFA_XSP16, literal(-7)))
        CFI (cfiCond44) R7 load(1, XDATA, add(CFA_XSP16, literal(-6)))
        CFI (cfiCond44) ?RET_LOW load(1, XDATA, add(CFA_XSP16, literal(-5)))
        CFI (cfiCond44) ?RET_HIGH load(1, XDATA, add(CFA_XSP16, literal(-4)))
        CFI (cfiCond44) ?BRET_EXT load(1, XDATA, add(CFA_XSP16, literal(-3)))
        CFI (cfiCond44) DPL0 load(1, XDATA, add(CFA_XSP16, literal(-2)))
        CFI (cfiCond44) DPH0 load(1, XDATA, add(CFA_XSP16, literal(-1)))
        CFI (cfiCond44) CFA_SP SP+0
        CFI (cfiCond44) CFA_XSP16 add(XSP16, 10)
        CFI Block cfiCond45 Using cfiCommon0
        CFI (cfiCond45) NoFunction
        CFI (cfiCond45) Conditional ??CrossCallReturnLabel_121
        CFI (cfiCond45) R6 load(1, XDATA, add(CFA_XSP16, literal(-10)))
        CFI (cfiCond45) VB load(1, XDATA, add(CFA_XSP16, literal(-9)))
        CFI (cfiCond45) V0 load(1, XDATA, add(CFA_XSP16, literal(-8)))
        CFI (cfiCond45) V1 load(1, XDATA, add(CFA_XSP16, literal(-7)))
        CFI (cfiCond45) R7 load(1, XDATA, add(CFA_XSP16, literal(-6)))
        CFI (cfiCond45) ?RET_LOW load(1, XDATA, add(CFA_XSP16, literal(-5)))
        CFI (cfiCond45) ?RET_HIGH load(1, XDATA, add(CFA_XSP16, literal(-4)))
        CFI (cfiCond45) ?BRET_EXT load(1, XDATA, add(CFA_XSP16, literal(-3)))
        CFI (cfiCond45) DPL0 load(1, XDATA, add(CFA_XSP16, literal(-2)))
        CFI (cfiCond45) DPH0 load(1, XDATA, add(CFA_XSP16, literal(-1)))
        CFI (cfiCond45) CFA_SP SP+0
        CFI (cfiCond45) CFA_XSP16 add(XSP16, 10)
        CFI Block cfiCond46 Using cfiCommon0
        CFI (cfiCond46) NoFunction
        CFI (cfiCond46) Conditional ??CrossCallReturnLabel_122
        CFI (cfiCond46) R6 load(1, XDATA, add(CFA_XSP16, literal(-9)))
        CFI (cfiCond46) VB load(1, XDATA, add(CFA_XSP16, literal(-8)))
        CFI (cfiCond46) V0 load(1, XDATA, add(CFA_XSP16, literal(-7)))
        CFI (cfiCond46) R7 load(1, XDATA, add(CFA_XSP16, literal(-6)))
        CFI (cfiCond46) ?RET_LOW load(1, XDATA, add(CFA_XSP16, literal(-5)))
        CFI (cfiCond46) ?RET_HIGH load(1, XDATA, add(CFA_XSP16, literal(-4)))
        CFI (cfiCond46) ?BRET_EXT load(1, XDATA, add(CFA_XSP16, literal(-3)))
        CFI (cfiCond46) DPL0 load(1, XDATA, add(CFA_XSP16, literal(-2)))
        CFI (cfiCond46) DPH0 load(1, XDATA, add(CFA_XSP16, literal(-1)))
        CFI (cfiCond46) CFA_SP SP+0
        CFI (cfiCond46) CFA_XSP16 add(XSP16, 11)
        CFI Block cfiPicker47 Using cfiCommon1
        CFI (cfiPicker47) NoFunction
        CFI (cfiPicker47) Picker
        CLR     A
        MOVX    @DPTR,A
        INC     DPTR
        MOVX    @DPTR,A
        MOV     ?V0 + 0,#-0x38
        RET
        CFI EndBlock cfiCond42
        CFI EndBlock cfiCond43
        CFI EndBlock cfiCond44
        CFI EndBlock cfiCond45
        CFI EndBlock cfiCond46
        CFI EndBlock cfiPicker47

        RSEG BANKED_CODE:CODE:NOROOT(0)
?Subroutine13:
        CFI Block cfiCond48 Using cfiCommon0
        CFI NoFunction
        CFI Conditional ??CrossCallReturnLabel_115
        CFI R6 load(1, XDATA, add(CFA_XSP16, literal(-10)))
        CFI VB load(1, XDATA, add(CFA_XSP16, literal(-9)))
        CFI V0 load(1, XDATA, add(CFA_XSP16, literal(-8)))
        CFI V1 load(1, XDATA, add(CFA_XSP16, literal(-7)))
        CFI R7 load(1, XDATA, add(CFA_XSP16, literal(-6)))
        CFI ?RET_LOW load(1, XDATA, add(CFA_XSP16, literal(-5)))
        CFI ?RET_HIGH load(1, XDATA, add(CFA_XSP16, literal(-4)))
        CFI ?BRET_EXT load(1, XDATA, add(CFA_XSP16, literal(-3)))
        CFI DPL0 load(1, XDATA, add(CFA_XSP16, literal(-2)))
        CFI DPH0 load(1, XDATA, add(CFA_XSP16, literal(-1)))
        CFI CFA_SP SP+0
        CFI CFA_XSP16 add(XSP16, 10)
        CFI Block cfiCond49 Using cfiCommon0
        CFI (cfiCond49) NoFunction
        CFI (cfiCond49) Conditional ??CrossCallReturnLabel_116
        CFI (cfiCond49) R6 load(1, XDATA, add(CFA_XSP16, literal(-10)))
        CFI (cfiCond49) VB load(1, XDATA, add(CFA_XSP16, literal(-9)))
        CFI (cfiCond49) V0 load(1, XDATA, add(CFA_XSP16, literal(-8)))
        CFI (cfiCond49) V1 load(1, XDATA, add(CFA_XSP16, literal(-7)))
        CFI (cfiCond49) R7 load(1, XDATA, add(CFA_XSP16, literal(-6)))
        CFI (cfiCond49) ?RET_LOW load(1, XDATA, add(CFA_XSP16, literal(-5)))
        CFI (cfiCond49) ?RET_HIGH load(1, XDATA, add(CFA_XSP16, literal(-4)))
        CFI (cfiCond49) ?BRET_EXT load(1, XDATA, add(CFA_XSP16, literal(-3)))
        CFI (cfiCond49) DPL0 load(1, XDATA, add(CFA_XSP16, literal(-2)))
        CFI (cfiCond49) DPH0 load(1, XDATA, add(CFA_XSP16, literal(-1)))
        CFI (cfiCond49) CFA_SP SP+0
        CFI (cfiCond49) CFA_XSP16 add(XSP16, 23)
        CFI Block cfiPicker50 Using cfiCommon1
        CFI (cfiPicker50) NoFunction
        CFI (cfiPicker50) Picker
        MOV     R1,A
        MOV     DPL,R6
        MOV     DPH,R7
        CFI EndBlock cfiCond48
        CFI EndBlock cfiCond49
        CFI EndBlock cfiPicker50
        REQUIRE ??Subroutine82_0
        ; // Fall through to label ??Subroutine82_0

        RSEG BANKED_CODE:CODE:NOROOT(0)
??Subroutine82_0:
        CFI Block cfiCond51 Using cfiCommon0
        CFI NoFunction
        CFI Conditional ??CrossCallReturnLabel_117
        CFI R6 load(1, XDATA, add(CFA_XSP16, literal(-10)))
        CFI VB load(1, XDATA, add(CFA_XSP16, literal(-9)))
        CFI V0 load(1, XDATA, add(CFA_XSP16, literal(-8)))
        CFI V1 load(1, XDATA, add(CFA_XSP16, literal(-7)))
        CFI R7 load(1, XDATA, add(CFA_XSP16, literal(-6)))
        CFI ?RET_LOW load(1, XDATA, add(CFA_XSP16, literal(-5)))
        CFI ?RET_HIGH load(1, XDATA, add(CFA_XSP16, literal(-4)))
        CFI ?BRET_EXT load(1, XDATA, add(CFA_XSP16, literal(-3)))
        CFI DPL0 load(1, XDATA, add(CFA_XSP16, literal(-2)))
        CFI DPH0 load(1, XDATA, add(CFA_XSP16, literal(-1)))
        CFI CFA_SP SP+0
        CFI CFA_XSP16 add(XSP16, 10)
        CFI Block cfiCond52 Using cfiCommon0
        CFI (cfiCond52) NoFunction
        CFI (cfiCond52) Conditional ??CrossCallReturnLabel_115
        CFI (cfiCond52) R6 load(1, XDATA, add(CFA_XSP16, literal(-10)))
        CFI (cfiCond52) VB load(1, XDATA, add(CFA_XSP16, literal(-9)))
        CFI (cfiCond52) V0 load(1, XDATA, add(CFA_XSP16, literal(-8)))
        CFI (cfiCond52) V1 load(1, XDATA, add(CFA_XSP16, literal(-7)))
        CFI (cfiCond52) R7 load(1, XDATA, add(CFA_XSP16, literal(-6)))
        CFI (cfiCond52) ?RET_LOW load(1, XDATA, add(CFA_XSP16, literal(-5)))
        CFI (cfiCond52) ?RET_HIGH load(1, XDATA, add(CFA_XSP16, literal(-4)))
        CFI (cfiCond52) ?BRET_EXT load(1, XDATA, add(CFA_XSP16, literal(-3)))
        CFI (cfiCond52) DPL0 load(1, XDATA, add(CFA_XSP16, literal(-2)))
        CFI (cfiCond52) DPH0 load(1, XDATA, add(CFA_XSP16, literal(-1)))
        CFI (cfiCond52) CFA_SP SP+0
        CFI (cfiCond52) CFA_XSP16 add(XSP16, 10)
        CFI Block cfiCond53 Using cfiCommon0
        CFI (cfiCond53) NoFunction
        CFI (cfiCond53) Conditional ??CrossCallReturnLabel_116
        CFI (cfiCond53) R6 load(1, XDATA, add(CFA_XSP16, literal(-10)))
        CFI (cfiCond53) VB load(1, XDATA, add(CFA_XSP16, literal(-9)))
        CFI (cfiCond53) V0 load(1, XDATA, add(CFA_XSP16, literal(-8)))
        CFI (cfiCond53) V1 load(1, XDATA, add(CFA_XSP16, literal(-7)))
        CFI (cfiCond53) R7 load(1, XDATA, add(CFA_XSP16, literal(-6)))
        CFI (cfiCond53) ?RET_LOW load(1, XDATA, add(CFA_XSP16, literal(-5)))
        CFI (cfiCond53) ?RET_HIGH load(1, XDATA, add(CFA_XSP16, literal(-4)))
        CFI (cfiCond53) ?BRET_EXT load(1, XDATA, add(CFA_XSP16, literal(-3)))
        CFI (cfiCond53) DPL0 load(1, XDATA, add(CFA_XSP16, literal(-2)))
        CFI (cfiCond53) DPH0 load(1, XDATA, add(CFA_XSP16, literal(-1)))
        CFI (cfiCond53) CFA_SP SP+0
        CFI (cfiCond53) CFA_XSP16 add(XSP16, 23)
        CFI Block cfiPicker54 Using cfiCommon1
        CFI (cfiPicker54) NoFunction
        CFI (cfiPicker54) Picker
        LCALL   ?Subroutine77 & 0xFFFF
??CrossCallReturnLabel_222:
        MOV     ?V0 + 0,#0x0
        MOV     R0,#0x3
        MOV     R1,#0x0
        RET
        CFI EndBlock cfiCond51
        CFI EndBlock cfiCond52
        CFI EndBlock cfiCond53
        CFI EndBlock cfiPicker54
//  623 
//  624 /******************************************************************************
//  625  * @fn          ZDSecMgrMasterKeyStore
//  626  *
//  627  * @brief       Store MASTER key for specified address index.
//  628  *
//  629  * @param       ami - [in] Address Manager index
//  630  * @param       key - [in] valid key to store
//  631  *
//  632  * @return      ZStatus_t
//  633  */

        RSEG BANKED_CODE:CODE:NOROOT(0)
//  634 ZStatus_t ZDSecMgrMasterKeyStore( uint16 ami, uint8* key )
ZDSecMgrMasterKeyStore:
        CFI Block cfiBlock55 Using cfiCommon0
        CFI Function ZDSecMgrMasterKeyStore
        CODE
//  635 {
        FUNCALL ZDSecMgrMasterKeyStore, osal_memcpy
        LOCFRAME ISTACK, 0, STACK
        LOCFRAME PSTACK, 0, STACK
        LOCFRAME XSTACK, 17, STACK
        LOCFRAME IOVERLAY, 0, STATIC
        LOCFRAME DOVERLAY, 0, STATIC
        ARGFRAME ISTACK, 0, STACK
        ARGFRAME PSTACK, 0, STACK
        ARGFRAME XSTACK, 17, STACK
        ARGFRAME IOVERLAY, 0, STATIC
        ARGFRAME DOVERLAY, 0, STATIC
        FUNCALL ZDSecMgrMasterKeyStore, osal_memset
        LOCFRAME ISTACK, 0, STACK
        LOCFRAME PSTACK, 0, STACK
        LOCFRAME XSTACK, 14, STACK
        LOCFRAME IOVERLAY, 0, STATIC
        LOCFRAME DOVERLAY, 0, STATIC
        ARGFRAME ISTACK, 0, STACK
        ARGFRAME PSTACK, 0, STACK
        ARGFRAME XSTACK, 14, STACK
        ARGFRAME IOVERLAY, 0, STATIC
        ARGFRAME DOVERLAY, 0, STATIC
        MOV     A,#-0xe
        LCALL   ?BANKED_ENTER_XDATA
        CFI DPH0 load(1, XDATA, add(CFA_XSP16, literal(-1)))
        CFI DPL0 load(1, XDATA, add(CFA_XSP16, literal(-2)))
        CFI ?BRET_EXT load(1, XDATA, add(CFA_XSP16, literal(-3)))
        CFI ?RET_HIGH load(1, XDATA, add(CFA_XSP16, literal(-4)))
        CFI ?RET_LOW load(1, XDATA, add(CFA_XSP16, literal(-5)))
        CFI R7 load(1, XDATA, add(CFA_XSP16, literal(-6)))
        CFI V5 load(1, XDATA, add(CFA_XSP16, literal(-7)))
        CFI V4 load(1, XDATA, add(CFA_XSP16, literal(-8)))
        CFI V3 load(1, XDATA, add(CFA_XSP16, literal(-9)))
        CFI V2 load(1, XDATA, add(CFA_XSP16, literal(-10)))
        CFI V1 load(1, XDATA, add(CFA_XSP16, literal(-11)))
        CFI V0 load(1, XDATA, add(CFA_XSP16, literal(-12)))
        CFI VB load(1, XDATA, add(CFA_XSP16, literal(-13)))
        CFI R6 load(1, XDATA, add(CFA_XSP16, literal(-14)))
        CFI CFA_SP SP+0
        CFI CFA_XSP16 add(XSP16, 14)
        ; Saved register size: 14
        ; Auto size: 0
        MOV     ?V0 + 4,R2
        MOV     ?V0 + 5,R3
        MOV     A,R4
        MOV     R6,A
        MOV     A,R5
        MOV     R7,A
//  636   ZStatus_t status;
//  637   uint16    index;
//  638   uint8*    entry;
//  639 
//  640 
//  641   // initialize results
//  642   status = ZNwkUnknownDevice;
        MOV     R4,#-0x38
//  643 
//  644   // verify data is available
//  645   if ( ZDSecMgrMasterKeyData != NULL )
        MOV     DPTR,#ZDSecMgrMasterKeyData
        LCALL   ??Subroutine97_0 & 0xFFFF
??CrossCallReturnLabel_202:
        JZ      ??ZDSecMgrMasterKeyStore_0
//  646   {
//  647     for ( index = 0; index < ZDSECMGR_MASTERKEY_MAX ; index++ )
        MOV     R0,#0x0
        MOV     R1,#0x0
//  648     {
//  649       if ( ZDSecMgrMasterKeyData[index].ami == INVALID_NODE_ADDR )
??ZDSecMgrMasterKeyStore_1:
        MOV     A,R0
        MOV     R2,A
        MOV     A,R1
        MOV     R3,A
        MOV     A,R2
        MOV     B,#0x12
        MUL     AB
        MOV     R2,A
        MOV     R5,B
        MOV     B,#0x12
        MOV     A,R3
        MUL     AB
        ADD     A,R5
        MOV     R3,A
        MOV     DPTR,#ZDSecMgrMasterKeyData
        LCALL   ?Subroutine40 & 0xFFFF
??CrossCallReturnLabel_43:
        XRL     A,#0xfe
        JNZ     ??ZDSecMgrMasterKeyStore_2
        INC     DPTR
        MOVX    A,@DPTR
        CPL     A
??ZDSecMgrMasterKeyStore_2:
        JNZ     ??ZDSecMgrMasterKeyStore_3
//  650       {
//  651         // store EXT address index
//  652         ZDSecMgrMasterKeyData[index].ami = ami;
        MOV     DPL,R2
        MOV     DPH,R3
        MOV     A,?V0 + 4
        MOVX    @DPTR,A
        INC     DPTR
        MOV     A,?V0 + 5
        MOVX    @DPTR,A
//  653 
//  654         entry = ZDSecMgrMasterKeyData[index].key;
        LCALL   ?Subroutine61 & 0xFFFF
//  655 
//  656         if ( key != NULL )
??CrossCallReturnLabel_85:
        MOV     A,R6
        ORL     A,R7
        JZ      ??ZDSecMgrMasterKeyStore_4
//  657         {
//  658           osal_memcpy( entry, key,  SEC_KEY_LEN );
        ; Setup parameters for call to function osal_memcpy
        MOV     ?V0 + 0,R6
        MOV     ?V0 + 1,R7
        MOV     ?V0 + 2,#0x0
        MOV     R0,#?V0 + 0
        LCALL   ?PUSH_XSTACK_I_THREE
        CFI CFA_XSP16 add(XSP16, 17)
        MOV     R4,#0x10
        MOV     R5,#0x0
        LCALL   ??osal_memcpy?relay
        MOV     A,#0x3
        LCALL   ?DEALLOC_XSTACK8
        CFI CFA_XSP16 add(XSP16, 14)
        SJMP    ??ZDSecMgrMasterKeyStore_5
//  659         }
//  660         else
//  661         {
//  662           osal_memset( entry, 0, SEC_KEY_LEN );
??ZDSecMgrMasterKeyStore_4:
        ; Setup parameters for call to function osal_memset
        MOV     R4,#0x10
        MOV     R5,#0x0
        MOV     R1,#0x0
        LCALL   ??osal_memset?relay
//  663         }
//  664 
//  665         // return successful results
//  666         status = ZSuccess;
??ZDSecMgrMasterKeyStore_5:
        MOV     R4,#0x0
//  667 
//  668         // break from loop
//  669         index  = ZDSECMGR_MASTERKEY_MAX;
        MOV     R0,#0x3
        MOV     R1,#0x0
//  670       }
//  671     }
??ZDSecMgrMasterKeyStore_3:
        LCALL   ?Subroutine54 & 0xFFFF
//  672   }
??CrossCallReturnLabel_70:
        JC      ??ZDSecMgrMasterKeyStore_1
//  673 
//  674   return status;
??ZDSecMgrMasterKeyStore_0:
        MOV     A,R4
        MOV     R1,A
        MOV     R7,#0x6
        LJMP    ?BANKED_LEAVE_XDATA
        CFI EndBlock cfiBlock55
//  675 }
//  676 
//  677 /******************************************************************************
//  678  * @fn          ZDSecMgrEntryInit
//  679  *
//  680  * @brief       Initialize entry sub module
//  681  *
//  682  * @param       none
//  683  *
//  684  * @return      none
//  685  */

        RSEG BANKED_CODE:CODE:NOROOT(0)
//  686 void ZDSecMgrEntryInit( void )
ZDSecMgrEntryInit:
        CFI Block cfiBlock56 Using cfiCommon0
        CFI Function ZDSecMgrEntryInit
        CODE
//  687 {
        FUNCALL ZDSecMgrEntryInit, osal_mem_alloc
        LOCFRAME ISTACK, 2, STACK
        LOCFRAME PSTACK, 0, STACK
        LOCFRAME XSTACK, 0, STACK
        LOCFRAME IOVERLAY, 0, STATIC
        LOCFRAME DOVERLAY, 0, STATIC
        ARGFRAME ISTACK, 2, STACK
        ARGFRAME PSTACK, 0, STACK
        ARGFRAME XSTACK, 0, STACK
        ARGFRAME IOVERLAY, 0, STATIC
        ARGFRAME DOVERLAY, 0, STATIC
        FUNCALL ZDSecMgrEntryInit, ZDSecMgrRestoreFromNV
        LOCFRAME ISTACK, 2, STACK
        LOCFRAME PSTACK, 0, STACK
        LOCFRAME XSTACK, 0, STACK
        LOCFRAME IOVERLAY, 0, STATIC
        LOCFRAME DOVERLAY, 0, STATIC
        ARGFRAME ISTACK, 2, STACK
        ARGFRAME PSTACK, 0, STACK
        ARGFRAME XSTACK, 0, STACK
        ARGFRAME IOVERLAY, 0, STATIC
        ARGFRAME DOVERLAY, 0, STATIC
        PUSH    DPL
        CFI DPL0 Frame(CFA_SP, 4)
        CFI CFA_SP SP+-4
        PUSH    DPH
        CFI DPH0 Frame(CFA_SP, 5)
        CFI CFA_SP SP+-5
        ; Saved register size: 2
        ; Auto size: 0
//  688   uint16 size;
//  689   uint16 index;
//  690 
//  691   // allocate entry data
//  692   size = (short)( sizeof(ZDSecMgrEntry_t) * ZDSECMGR_ENTRY_MAX );
//  693 
//  694   ZDSecMgrEntries = osal_mem_alloc( size );
        ; Setup parameters for call to function osal_mem_alloc
        MOV     R2,#0x57
        MOV     R3,#0x0
        LCALL   ??osal_mem_alloc?relay
        MOV     DPTR,#ZDSecMgrEntries
        LCALL   ??Subroutine86_0 & 0xFFFF
//  695 
//  696   // initialize data
//  697   if ( ZDSecMgrEntries != NULL )
??CrossCallReturnLabel_130:
        MOV     DPTR,#ZDSecMgrEntries
        LCALL   ??Subroutine97_0 & 0xFFFF
??CrossCallReturnLabel_203:
        JZ      ??ZDSecMgrEntryInit_0
//  698   {
//  699     for( index = 0; index < ZDSECMGR_ENTRY_MAX; index++ )
        MOV     R0,#0x0
        MOV     R1,#0x0
//  700     {
//  701       ZDSecMgrEntries[index].ami = INVALID_NODE_ADDR;
??ZDSecMgrEntryInit_1:
        MOV     A,R0
        MOV     R2,A
        MOV     A,R1
        MOV     R3,A
        MOV     A,R2
        MOV     B,#0x1d
        MUL     AB
        MOV     R2,A
        MOV     R4,B
        MOV     B,#0x1d
        MOV     A,R3
        MUL     AB
        ADD     A,R4
        MOV     R3,A
        MOV     DPTR,#ZDSecMgrEntries
        LCALL   ?Subroutine12 & 0xFFFF
//  702     }
//  703   }
??CrossCallReturnLabel_111:
        JC      ??ZDSecMgrEntryInit_1
//  704   ZDSecMgrRestoreFromNV();
??ZDSecMgrEntryInit_0:
        ; Setup parameters for call to function ZDSecMgrRestoreFromNV
        LCALL   ??ZDSecMgrRestoreFromNV?relay
//  705 }
        LJMP    ??Subroutine91_0 & 0xFFFF
        CFI EndBlock cfiBlock56
//  706 
//  707 /******************************************************************************
//  708  * @fn          ZDSecMgrEntryLookup
//  709  *
//  710  * @brief       Lookup entry index using specified NWK address.
//  711  *
//  712  * @param       nwkAddr - [in] NWK address
//  713  * @param       entry   - [out] valid entry
//  714  *
//  715  * @return      ZStatus_t
//  716  */

        RSEG BANKED_CODE:CODE:NOROOT(0)
//  717 ZStatus_t ZDSecMgrEntryLookup( uint16 nwkAddr, ZDSecMgrEntry_t** entry )
ZDSecMgrEntryLookup:
        CFI Block cfiBlock57 Using cfiCommon0
        CFI Function ZDSecMgrEntryLookup
        CODE
//  718 {
        FUNCALL ZDSecMgrEntryLookup, AddrMgrEntryLookupNwk
        LOCFRAME ISTACK, 0, STACK
        LOCFRAME PSTACK, 0, STACK
        LOCFRAME XSTACK, 23, STACK
        LOCFRAME IOVERLAY, 0, STATIC
        LOCFRAME DOVERLAY, 0, STATIC
        ARGFRAME ISTACK, 0, STACK
        ARGFRAME PSTACK, 0, STACK
        ARGFRAME XSTACK, 23, STACK
        ARGFRAME IOVERLAY, 0, STATIC
        ARGFRAME DOVERLAY, 0, STATIC
        MOV     A,#-0xa
        LCALL   ?BANKED_ENTER_XDATA
        CFI DPH0 load(1, XDATA, add(CFA_XSP16, literal(-1)))
        CFI DPL0 load(1, XDATA, add(CFA_XSP16, literal(-2)))
        CFI ?BRET_EXT load(1, XDATA, add(CFA_XSP16, literal(-3)))
        CFI ?RET_HIGH load(1, XDATA, add(CFA_XSP16, literal(-4)))
        CFI ?RET_LOW load(1, XDATA, add(CFA_XSP16, literal(-5)))
        CFI R7 load(1, XDATA, add(CFA_XSP16, literal(-6)))
        CFI V1 load(1, XDATA, add(CFA_XSP16, literal(-7)))
        CFI V0 load(1, XDATA, add(CFA_XSP16, literal(-8)))
        CFI VB load(1, XDATA, add(CFA_XSP16, literal(-9)))
        CFI R6 load(1, XDATA, add(CFA_XSP16, literal(-10)))
        CFI CFA_SP SP+0
        CFI CFA_XSP16 add(XSP16, 10)
        ; Saved register size: 10
        ; Auto size: 13
        MOV     A,#-0xd
        LCALL   ?ALLOC_XSTACK8
        CFI CFA_XSP16 add(XSP16, 23)
        MOV     A,R4
        MOV     R6,A
        MOV     A,R5
        LCALL   ?Subroutine11 & 0xFFFF
//  719   ZStatus_t      status;
//  720   uint16         index;
//  721   AddrMgrEntry_t addrMgrEntry;
//  722 
//  723 
//  724   // initialize results
//  725   *entry = NULL;
//  726   status = ZNwkUnknownDevice;
//  727 
//  728   // verify data is available
//  729   if ( ZDSecMgrEntries != NULL )
??CrossCallReturnLabel_118:
        JZ      ??ZDSecMgrEntryLookup_0
//  730   {
//  731     addrMgrEntry.user    = ADDRMGR_USER_SECURITY;
        MOV     DPL,?XSP + 0
        MOV     DPH,?XSP + 1
        MOV     A,#0x2
        MOVX    @DPTR,A
//  732     addrMgrEntry.nwkAddr = nwkAddr;
        DEC     A
        LCALL   ?XSTACK_DISP0_8
        LCALL   ?Subroutine17 & 0xFFFF
//  733 
//  734     if ( AddrMgrEntryLookupNwk( &addrMgrEntry ) == TRUE )
??CrossCallReturnLabel_183:
        LCALL   ??AddrMgrEntryLookupNwk?relay
        MOV     A,R1
        XRL     A,#0x1
        JNZ     ??ZDSecMgrEntryLookup_0
//  735     {
//  736       for ( index = 0; index < ZDSECMGR_ENTRY_MAX ; index++ )
        MOV     R0,#0x0
        MOV     R1,#0x0
//  737       {
//  738         if ( addrMgrEntry.index == ZDSecMgrEntries[index].ami )
??ZDSecMgrEntryLookup_1:
        MOV     A,R0
        MOV     R2,A
        MOV     A,R1
        MOV     R3,A
        MOV     A,R2
        MOV     B,#0x1d
        MUL     AB
        MOV     R2,A
        MOV     R4,B
        MOV     B,#0x1d
        MOV     A,R3
        MUL     AB
        ADD     A,R4
        MOV     R3,A
        MOV     DPTR,#ZDSecMgrEntries
        MOVX    A,@DPTR
        ADD     A,R2
        MOV     R2,A
        INC     DPTR
        MOVX    A,@DPTR
        ADDC    A,R3
        MOV     R3,A
        MOV     A,#0xb
        LCALL   ?XSTACK_DISP0_8
        LCALL   ?Subroutine78 & 0xFFFF
??CrossCallReturnLabel_106:
        MOV     DPL,R2
        MOV     DPH,R3
        MOVX    A,@DPTR
        XRL     A,R4
        JNZ     ??ZDSecMgrEntryLookup_2
        INC     DPTR
        MOVX    A,@DPTR
        XRL     A,R5
??ZDSecMgrEntryLookup_2:
        JNZ     ??CrossCallReturnLabel_116
//  739         {
//  740           // return successful results
//  741           *entry = &ZDSecMgrEntries[index];
        MOV     A,R2
        MOV     R0,A
        MOV     A,R3
        LCALL   ?Subroutine13 & 0xFFFF
//  742           status = ZSuccess;
//  743 
//  744           // break from loop
//  745           index = ZDSECMGR_ENTRY_MAX;
//  746         }
//  747       }
??CrossCallReturnLabel_116:
        LCALL   ?Subroutine54 & 0xFFFF
//  748     }
//  749   }
??CrossCallReturnLabel_71:
        JC      ??ZDSecMgrEntryLookup_1
//  750 
//  751   return status;
??ZDSecMgrEntryLookup_0:
        MOV     R1,?V0 + 0
        CFI EndBlock cfiBlock57
        REQUIRE ?Subroutine8
        ; // Fall through to label ?Subroutine8
//  752 }

        RSEG BANKED_CODE:CODE:NOROOT(0)
?Subroutine8:
        CFI Block cfiBlock58 Using cfiCommon0
        CFI NoFunction
        CFI CFA_SP SP+0
        CFI CFA_XSP16 add(XSP16, 23)
        CFI VB load(1, XDATA, add(CFA_XSP16, literal(-9)))
        CFI DPL0 load(1, XDATA, add(CFA_XSP16, literal(-2)))
        CFI DPH0 load(1, XDATA, add(CFA_XSP16, literal(-1)))
        CFI R6 load(1, XDATA, add(CFA_XSP16, literal(-10)))
        CFI R7 load(1, XDATA, add(CFA_XSP16, literal(-6)))
        CFI V0 load(1, XDATA, add(CFA_XSP16, literal(-8)))
        CFI V1 load(1, XDATA, add(CFA_XSP16, literal(-7)))
        CFI ?BRET_EXT load(1, XDATA, add(CFA_XSP16, literal(-3)))
        CFI ?RET_HIGH load(1, XDATA, add(CFA_XSP16, literal(-4)))
        CFI ?RET_LOW load(1, XDATA, add(CFA_XSP16, literal(-5)))
        MOV     A,#0xd
        LJMP    ??Subroutine100_0 & 0xFFFF
        CFI EndBlock cfiBlock58

        RSEG BANKED_CODE:CODE:NOROOT(0)
?Subroutine11:
        CFI Block cfiCond59 Using cfiCommon0
        CFI NoFunction
        CFI Conditional ??CrossCallReturnLabel_118
        CFI R6 load(1, XDATA, add(CFA_XSP16, literal(-10)))
        CFI VB load(1, XDATA, add(CFA_XSP16, literal(-9)))
        CFI V0 load(1, XDATA, add(CFA_XSP16, literal(-8)))
        CFI V1 load(1, XDATA, add(CFA_XSP16, literal(-7)))
        CFI R7 load(1, XDATA, add(CFA_XSP16, literal(-6)))
        CFI ?RET_LOW load(1, XDATA, add(CFA_XSP16, literal(-5)))
        CFI ?RET_HIGH load(1, XDATA, add(CFA_XSP16, literal(-4)))
        CFI ?BRET_EXT load(1, XDATA, add(CFA_XSP16, literal(-3)))
        CFI DPL0 load(1, XDATA, add(CFA_XSP16, literal(-2)))
        CFI DPH0 load(1, XDATA, add(CFA_XSP16, literal(-1)))
        CFI CFA_SP SP+0
        CFI CFA_XSP16 add(XSP16, 23)
        CFI Block cfiCond60 Using cfiCommon0
        CFI (cfiCond60) NoFunction
        CFI (cfiCond60) Conditional ??CrossCallReturnLabel_119
        CFI (cfiCond60) R6 load(1, XDATA, add(CFA_XSP16, literal(-10)))
        CFI (cfiCond60) VB load(1, XDATA, add(CFA_XSP16, literal(-9)))
        CFI (cfiCond60) V0 load(1, XDATA, add(CFA_XSP16, literal(-8)))
        CFI (cfiCond60) V1 load(1, XDATA, add(CFA_XSP16, literal(-7)))
        CFI (cfiCond60) R7 load(1, XDATA, add(CFA_XSP16, literal(-6)))
        CFI (cfiCond60) ?RET_LOW load(1, XDATA, add(CFA_XSP16, literal(-5)))
        CFI (cfiCond60) ?RET_HIGH load(1, XDATA, add(CFA_XSP16, literal(-4)))
        CFI (cfiCond60) ?BRET_EXT load(1, XDATA, add(CFA_XSP16, literal(-3)))
        CFI (cfiCond60) DPL0 load(1, XDATA, add(CFA_XSP16, literal(-2)))
        CFI (cfiCond60) DPH0 load(1, XDATA, add(CFA_XSP16, literal(-1)))
        CFI (cfiCond60) CFA_SP SP+0
        CFI (cfiCond60) CFA_XSP16 add(XSP16, 10)
        CFI Block cfiPicker61 Using cfiCommon1
        CFI (cfiPicker61) NoFunction
        CFI (cfiPicker61) Picker
        MOV     R7,A
        MOV     DPL,R6
        MOV     DPH,R7
        CFI EndBlock cfiCond59
        CFI EndBlock cfiCond60
        CFI EndBlock cfiPicker61
        REQUIRE ??Subroutine83_0
        ; // Fall through to label ??Subroutine83_0

        RSEG BANKED_CODE:CODE:NOROOT(0)
??Subroutine83_0:
        CFI Block cfiCond62 Using cfiCommon0
        CFI NoFunction
        CFI Conditional ??CrossCallReturnLabel_120
        CFI R6 load(1, XDATA, add(CFA_XSP16, literal(-10)))
        CFI VB load(1, XDATA, add(CFA_XSP16, literal(-9)))
        CFI V0 load(1, XDATA, add(CFA_XSP16, literal(-8)))
        CFI V1 load(1, XDATA, add(CFA_XSP16, literal(-7)))
        CFI R7 load(1, XDATA, add(CFA_XSP16, literal(-6)))
        CFI ?RET_LOW load(1, XDATA, add(CFA_XSP16, literal(-5)))
        CFI ?RET_HIGH load(1, XDATA, add(CFA_XSP16, literal(-4)))
        CFI ?BRET_EXT load(1, XDATA, add(CFA_XSP16, literal(-3)))
        CFI DPL0 load(1, XDATA, add(CFA_XSP16, literal(-2)))
        CFI DPH0 load(1, XDATA, add(CFA_XSP16, literal(-1)))
        CFI CFA_SP SP+0
        CFI CFA_XSP16 add(XSP16, 10)
        CFI Block cfiCond63 Using cfiCommon0
        CFI (cfiCond63) NoFunction
        CFI (cfiCond63) Conditional ??CrossCallReturnLabel_118
        CFI (cfiCond63) R6 load(1, XDATA, add(CFA_XSP16, literal(-10)))
        CFI (cfiCond63) VB load(1, XDATA, add(CFA_XSP16, literal(-9)))
        CFI (cfiCond63) V0 load(1, XDATA, add(CFA_XSP16, literal(-8)))
        CFI (cfiCond63) V1 load(1, XDATA, add(CFA_XSP16, literal(-7)))
        CFI (cfiCond63) R7 load(1, XDATA, add(CFA_XSP16, literal(-6)))
        CFI (cfiCond63) ?RET_LOW load(1, XDATA, add(CFA_XSP16, literal(-5)))
        CFI (cfiCond63) ?RET_HIGH load(1, XDATA, add(CFA_XSP16, literal(-4)))
        CFI (cfiCond63) ?BRET_EXT load(1, XDATA, add(CFA_XSP16, literal(-3)))
        CFI (cfiCond63) DPL0 load(1, XDATA, add(CFA_XSP16, literal(-2)))
        CFI (cfiCond63) DPH0 load(1, XDATA, add(CFA_XSP16, literal(-1)))
        CFI (cfiCond63) CFA_SP SP+0
        CFI (cfiCond63) CFA_XSP16 add(XSP16, 23)
        CFI Block cfiCond64 Using cfiCommon0
        CFI (cfiCond64) NoFunction
        CFI (cfiCond64) Conditional ??CrossCallReturnLabel_119
        CFI (cfiCond64) R6 load(1, XDATA, add(CFA_XSP16, literal(-10)))
        CFI (cfiCond64) VB load(1, XDATA, add(CFA_XSP16, literal(-9)))
        CFI (cfiCond64) V0 load(1, XDATA, add(CFA_XSP16, literal(-8)))
        CFI (cfiCond64) V1 load(1, XDATA, add(CFA_XSP16, literal(-7)))
        CFI (cfiCond64) R7 load(1, XDATA, add(CFA_XSP16, literal(-6)))
        CFI (cfiCond64) ?RET_LOW load(1, XDATA, add(CFA_XSP16, literal(-5)))
        CFI (cfiCond64) ?RET_HIGH load(1, XDATA, add(CFA_XSP16, literal(-4)))
        CFI (cfiCond64) ?BRET_EXT load(1, XDATA, add(CFA_XSP16, literal(-3)))
        CFI (cfiCond64) DPL0 load(1, XDATA, add(CFA_XSP16, literal(-2)))
        CFI (cfiCond64) DPH0 load(1, XDATA, add(CFA_XSP16, literal(-1)))
        CFI (cfiCond64) CFA_SP SP+0
        CFI (cfiCond64) CFA_XSP16 add(XSP16, 10)
        CFI Block cfiPicker65 Using cfiCommon1
        CFI (cfiPicker65) NoFunction
        CFI (cfiPicker65) Picker
        LCALL   ??Subroutine81_0 & 0xFFFF
??CrossCallReturnLabel_123:
        MOV     DPTR,#ZDSecMgrEntries
        LCALL   ?Subroutine66 & 0xFFFF
??CrossCallReturnLabel_213:
        RET
        CFI EndBlock cfiCond62
        CFI EndBlock cfiCond63
        CFI EndBlock cfiCond64
        CFI EndBlock cfiPicker65
//  753 
//  754 /******************************************************************************
//  755  * @fn          ZDSecMgrEntryLookupAMI
//  756  *
//  757  * @brief       Lookup entry using specified address index
//  758  *
//  759  * @param       ami   - [in] Address Manager index
//  760  * @param       entry - [out] valid entry
//  761  *
//  762  * @return      ZStatus_t
//  763  */

        RSEG BANKED_CODE:CODE:NOROOT(0)
//  764 ZStatus_t ZDSecMgrEntryLookupAMI( uint16 ami, ZDSecMgrEntry_t** entry )
ZDSecMgrEntryLookupAMI:
        CFI Block cfiBlock66 Using cfiCommon0
        CFI Function ZDSecMgrEntryLookupAMI
        CODE
//  765 {
        MOV     A,#-0xa
        LCALL   ?BANKED_ENTER_XDATA
        CFI DPH0 load(1, XDATA, add(CFA_XSP16, literal(-1)))
        CFI DPL0 load(1, XDATA, add(CFA_XSP16, literal(-2)))
        CFI ?BRET_EXT load(1, XDATA, add(CFA_XSP16, literal(-3)))
        CFI ?RET_HIGH load(1, XDATA, add(CFA_XSP16, literal(-4)))
        CFI ?RET_LOW load(1, XDATA, add(CFA_XSP16, literal(-5)))
        CFI R7 load(1, XDATA, add(CFA_XSP16, literal(-6)))
        CFI V1 load(1, XDATA, add(CFA_XSP16, literal(-7)))
        CFI V0 load(1, XDATA, add(CFA_XSP16, literal(-8)))
        CFI VB load(1, XDATA, add(CFA_XSP16, literal(-9)))
        CFI R6 load(1, XDATA, add(CFA_XSP16, literal(-10)))
        CFI CFA_SP SP+0
        CFI CFA_XSP16 add(XSP16, 10)
        ; Saved register size: 10
        ; Auto size: 0
        MOV     A,R2
        MOV     R6,A
        MOV     A,R3
        MOV     R7,A
//  766   ZStatus_t status;
//  767   uint16    index;
//  768 
//  769 
//  770   // initialize results
//  771   *entry = NULL;
        MOV     DPL,R4
        MOV     DPH,R5
        LCALL   ??Subroutine83_0 & 0xFFFF
//  772   status = ZNwkUnknownDevice;
//  773 
//  774   // verify data is available
//  775   if ( ZDSecMgrEntries != NULL )
??CrossCallReturnLabel_120:
        JZ      ??ZDSecMgrEntryLookupAMI_0
//  776   {
//  777     for ( index = 0; index < ZDSECMGR_ENTRY_MAX ; index++ )
        MOV     R0,#0x0
        MOV     R1,#0x0
//  778     {
//  779       if ( ZDSecMgrEntries[index].ami == ami )
??ZDSecMgrEntryLookupAMI_1:
        MOV     A,R0
        MOV     R2,A
        MOV     A,R1
        MOV     R3,A
        MOV     A,R2
        MOV     B,#0x1d
        MUL     AB
        MOV     R2,A
        MOV     ?V0 + 1,B
        MOV     B,#0x1d
        MOV     A,R3
        MUL     AB
        ADD     A,?V0 + 1
        MOV     R3,A
        MOV     DPTR,#ZDSecMgrEntries
        LCALL   ?Subroutine40 & 0xFFFF
??CrossCallReturnLabel_44:
        XRL     A,R6
        JNZ     ??ZDSecMgrEntryLookupAMI_2
        INC     DPTR
        MOVX    A,@DPTR
        XRL     A,R7
??ZDSecMgrEntryLookupAMI_2:
        JNZ     ??CrossCallReturnLabel_117
//  780       {
//  781         // return successful results
//  782         *entry = &ZDSecMgrEntries[index];
        MOV     A,R2
        MOV     R0,A
        MOV     A,R3
        MOV     R1,A
        MOV     DPL,R4
        MOV     DPH,R5
        LCALL   ??Subroutine82_0 & 0xFFFF
//  783         status = ZSuccess;
//  784 
//  785         // break from loop
//  786         index = ZDSECMGR_ENTRY_MAX;
//  787       }
//  788     }
??CrossCallReturnLabel_117:
        LCALL   ?Subroutine54 & 0xFFFF
//  789   }
??CrossCallReturnLabel_72:
        JC      ??ZDSecMgrEntryLookupAMI_1
//  790 
//  791   return status;
??ZDSecMgrEntryLookupAMI_0:
        LJMP    ?Subroutine7 & 0xFFFF
        CFI EndBlock cfiBlock66
//  792 }

        RSEG BANKED_CODE:CODE:NOROOT(0)
?Subroutine54:
        CFI Block cfiCond67 Using cfiCommon0
        CFI NoFunction
        CFI Conditional ??CrossCallReturnLabel_69
        CFI R6 load(1, XDATA, add(CFA_XSP16, literal(-10)))
        CFI VB load(1, XDATA, add(CFA_XSP16, literal(-9)))
        CFI V0 load(1, XDATA, add(CFA_XSP16, literal(-8)))
        CFI V1 load(1, XDATA, add(CFA_XSP16, literal(-7)))
        CFI R7 load(1, XDATA, add(CFA_XSP16, literal(-6)))
        CFI ?RET_LOW load(1, XDATA, add(CFA_XSP16, literal(-5)))
        CFI ?RET_HIGH load(1, XDATA, add(CFA_XSP16, literal(-4)))
        CFI ?BRET_EXT load(1, XDATA, add(CFA_XSP16, literal(-3)))
        CFI DPL0 load(1, XDATA, add(CFA_XSP16, literal(-2)))
        CFI DPH0 load(1, XDATA, add(CFA_XSP16, literal(-1)))
        CFI CFA_SP SP+0
        CFI CFA_XSP16 add(XSP16, 10)
        CFI Block cfiCond68 Using cfiCommon0
        CFI (cfiCond68) NoFunction
        CFI (cfiCond68) Conditional ??CrossCallReturnLabel_70
        CFI (cfiCond68) R6 load(1, XDATA, add(CFA_XSP16, literal(-14)))
        CFI (cfiCond68) VB load(1, XDATA, add(CFA_XSP16, literal(-13)))
        CFI (cfiCond68) V0 load(1, XDATA, add(CFA_XSP16, literal(-12)))
        CFI (cfiCond68) V1 load(1, XDATA, add(CFA_XSP16, literal(-11)))
        CFI (cfiCond68) V2 load(1, XDATA, add(CFA_XSP16, literal(-10)))
        CFI (cfiCond68) V3 load(1, XDATA, add(CFA_XSP16, literal(-9)))
        CFI (cfiCond68) V4 load(1, XDATA, add(CFA_XSP16, literal(-8)))
        CFI (cfiCond68) V5 load(1, XDATA, add(CFA_XSP16, literal(-7)))
        CFI (cfiCond68) R7 load(1, XDATA, add(CFA_XSP16, literal(-6)))
        CFI (cfiCond68) ?RET_LOW load(1, XDATA, add(CFA_XSP16, literal(-5)))
        CFI (cfiCond68) ?RET_HIGH load(1, XDATA, add(CFA_XSP16, literal(-4)))
        CFI (cfiCond68) ?BRET_EXT load(1, XDATA, add(CFA_XSP16, literal(-3)))
        CFI (cfiCond68) DPL0 load(1, XDATA, add(CFA_XSP16, literal(-2)))
        CFI (cfiCond68) DPH0 load(1, XDATA, add(CFA_XSP16, literal(-1)))
        CFI (cfiCond68) CFA_SP SP+0
        CFI (cfiCond68) CFA_XSP16 add(XSP16, 14)
        CFI Block cfiCond69 Using cfiCommon0
        CFI (cfiCond69) NoFunction
        CFI (cfiCond69) Conditional ??CrossCallReturnLabel_71
        CFI (cfiCond69) R6 load(1, XDATA, add(CFA_XSP16, literal(-10)))
        CFI (cfiCond69) VB load(1, XDATA, add(CFA_XSP16, literal(-9)))
        CFI (cfiCond69) V0 load(1, XDATA, add(CFA_XSP16, literal(-8)))
        CFI (cfiCond69) V1 load(1, XDATA, add(CFA_XSP16, literal(-7)))
        CFI (cfiCond69) R7 load(1, XDATA, add(CFA_XSP16, literal(-6)))
        CFI (cfiCond69) ?RET_LOW load(1, XDATA, add(CFA_XSP16, literal(-5)))
        CFI (cfiCond69) ?RET_HIGH load(1, XDATA, add(CFA_XSP16, literal(-4)))
        CFI (cfiCond69) ?BRET_EXT load(1, XDATA, add(CFA_XSP16, literal(-3)))
        CFI (cfiCond69) DPL0 load(1, XDATA, add(CFA_XSP16, literal(-2)))
        CFI (cfiCond69) DPH0 load(1, XDATA, add(CFA_XSP16, literal(-1)))
        CFI (cfiCond69) CFA_SP SP+0
        CFI (cfiCond69) CFA_XSP16 add(XSP16, 23)
        CFI Block cfiCond70 Using cfiCommon0
        CFI (cfiCond70) NoFunction
        CFI (cfiCond70) Conditional ??CrossCallReturnLabel_72
        CFI (cfiCond70) R6 load(1, XDATA, add(CFA_XSP16, literal(-10)))
        CFI (cfiCond70) VB load(1, XDATA, add(CFA_XSP16, literal(-9)))
        CFI (cfiCond70) V0 load(1, XDATA, add(CFA_XSP16, literal(-8)))
        CFI (cfiCond70) V1 load(1, XDATA, add(CFA_XSP16, literal(-7)))
        CFI (cfiCond70) R7 load(1, XDATA, add(CFA_XSP16, literal(-6)))
        CFI (cfiCond70) ?RET_LOW load(1, XDATA, add(CFA_XSP16, literal(-5)))
        CFI (cfiCond70) ?RET_HIGH load(1, XDATA, add(CFA_XSP16, literal(-4)))
        CFI (cfiCond70) ?BRET_EXT load(1, XDATA, add(CFA_XSP16, literal(-3)))
        CFI (cfiCond70) DPL0 load(1, XDATA, add(CFA_XSP16, literal(-2)))
        CFI (cfiCond70) DPH0 load(1, XDATA, add(CFA_XSP16, literal(-1)))
        CFI (cfiCond70) CFA_SP SP+0
        CFI (cfiCond70) CFA_XSP16 add(XSP16, 10)
        CFI Block cfiCond71 Using cfiCommon0
        CFI (cfiCond71) NoFunction
        CFI (cfiCond71) Conditional ??CrossCallReturnLabel_73
        CFI (cfiCond71) R6 load(1, XDATA, add(CFA_XSP16, literal(-10)))
        CFI (cfiCond71) VB load(1, XDATA, add(CFA_XSP16, literal(-9)))
        CFI (cfiCond71) V0 load(1, XDATA, add(CFA_XSP16, literal(-8)))
        CFI (cfiCond71) V1 load(1, XDATA, add(CFA_XSP16, literal(-7)))
        CFI (cfiCond71) R7 load(1, XDATA, add(CFA_XSP16, literal(-6)))
        CFI (cfiCond71) ?RET_LOW load(1, XDATA, add(CFA_XSP16, literal(-5)))
        CFI (cfiCond71) ?RET_HIGH load(1, XDATA, add(CFA_XSP16, literal(-4)))
        CFI (cfiCond71) ?BRET_EXT load(1, XDATA, add(CFA_XSP16, literal(-3)))
        CFI (cfiCond71) DPL0 load(1, XDATA, add(CFA_XSP16, literal(-2)))
        CFI (cfiCond71) DPH0 load(1, XDATA, add(CFA_XSP16, literal(-1)))
        CFI (cfiCond71) CFA_SP SP+0
        CFI (cfiCond71) CFA_XSP16 add(XSP16, 10)
        CFI Block cfiCond72 Using cfiCommon0
        CFI (cfiCond72) NoFunction
        CFI (cfiCond72) Conditional ??CrossCallReturnLabel_74
        CFI (cfiCond72) R6 load(1, XDATA, add(CFA_XSP16, literal(-12)))
        CFI (cfiCond72) VB load(1, XDATA, add(CFA_XSP16, literal(-11)))
        CFI (cfiCond72) V0 load(1, XDATA, add(CFA_XSP16, literal(-10)))
        CFI (cfiCond72) V1 load(1, XDATA, add(CFA_XSP16, literal(-9)))
        CFI (cfiCond72) V2 load(1, XDATA, add(CFA_XSP16, literal(-8)))
        CFI (cfiCond72) V3 load(1, XDATA, add(CFA_XSP16, literal(-7)))
        CFI (cfiCond72) R7 load(1, XDATA, add(CFA_XSP16, literal(-6)))
        CFI (cfiCond72) ?RET_LOW load(1, XDATA, add(CFA_XSP16, literal(-5)))
        CFI (cfiCond72) ?RET_HIGH load(1, XDATA, add(CFA_XSP16, literal(-4)))
        CFI (cfiCond72) ?BRET_EXT load(1, XDATA, add(CFA_XSP16, literal(-3)))
        CFI (cfiCond72) DPL0 load(1, XDATA, add(CFA_XSP16, literal(-2)))
        CFI (cfiCond72) DPH0 load(1, XDATA, add(CFA_XSP16, literal(-1)))
        CFI (cfiCond72) CFA_SP SP+0
        CFI (cfiCond72) CFA_XSP16 add(XSP16, 12)
        CFI Block cfiPicker73 Using cfiCommon1
        CFI (cfiPicker73) NoFunction
        CFI (cfiPicker73) Picker
        LCALL   ?Subroutine75 & 0xFFFF
??CrossCallReturnLabel_114:
        RET
        CFI EndBlock cfiCond67
        CFI EndBlock cfiCond68
        CFI EndBlock cfiCond69
        CFI EndBlock cfiCond70
        CFI EndBlock cfiCond71
        CFI EndBlock cfiCond72
        CFI EndBlock cfiPicker73

        RSEG BANKED_CODE:CODE:NOROOT(0)
?Subroutine75:
        CFI Block cfiCond74 Using cfiCommon0
        CFI NoFunction
        CFI Conditional ??CrossCallReturnLabel_113, ??CrossCallReturnLabel_110
        CFI DPL0 Frame(CFA_SP, 4)
        CFI DPH0 Frame(CFA_SP, 5)
        CFI CFA_SP SP+-5
        CFI Block cfiCond75 Using cfiCommon0
        CFI (cfiCond75) NoFunction
        CFI (cfiCond75) Conditional ??CrossCallReturnLabel_113, ??CrossCallReturnLabel_111
        CFI (cfiCond75) DPL0 Frame(CFA_SP, 4)
        CFI (cfiCond75) DPH0 Frame(CFA_SP, 5)
        CFI (cfiCond75) CFA_SP SP+-5
        CFI Block cfiCond76 Using cfiCommon0
        CFI (cfiCond76) NoFunction
        CFI (cfiCond76) Conditional ??CrossCallReturnLabel_113, ??CrossCallReturnLabel_112
        CFI (cfiCond76) DPL0 Frame(CFA_SP, 4)
        CFI (cfiCond76) DPH0 Frame(CFA_SP, 5)
        CFI (cfiCond76) CFA_SP SP+-5
        CFI Block cfiCond77 Using cfiCommon0
        CFI (cfiCond77) NoFunction
        CFI (cfiCond77) Conditional ??CrossCallReturnLabel_114, ??CrossCallReturnLabel_69
        CFI (cfiCond77) R6 load(1, XDATA, add(CFA_XSP16, literal(-10)))
        CFI (cfiCond77) VB load(1, XDATA, add(CFA_XSP16, literal(-9)))
        CFI (cfiCond77) V0 load(1, XDATA, add(CFA_XSP16, literal(-8)))
        CFI (cfiCond77) V1 load(1, XDATA, add(CFA_XSP16, literal(-7)))
        CFI (cfiCond77) R7 load(1, XDATA, add(CFA_XSP16, literal(-6)))
        CFI (cfiCond77) ?RET_LOW load(1, XDATA, add(CFA_XSP16, literal(-5)))
        CFI (cfiCond77) ?RET_HIGH load(1, XDATA, add(CFA_XSP16, literal(-4)))
        CFI (cfiCond77) ?BRET_EXT load(1, XDATA, add(CFA_XSP16, literal(-3)))
        CFI (cfiCond77) DPL0 load(1, XDATA, add(CFA_XSP16, literal(-2)))
        CFI (cfiCond77) DPH0 load(1, XDATA, add(CFA_XSP16, literal(-1)))
        CFI (cfiCond77) CFA_SP SP+0
        CFI (cfiCond77) CFA_XSP16 add(XSP16, 10)
        CFI Block cfiCond78 Using cfiCommon0
        CFI (cfiCond78) NoFunction
        CFI (cfiCond78) Conditional ??CrossCallReturnLabel_114, ??CrossCallReturnLabel_70
        CFI (cfiCond78) R6 load(1, XDATA, add(CFA_XSP16, literal(-14)))
        CFI (cfiCond78) VB load(1, XDATA, add(CFA_XSP16, literal(-13)))
        CFI (cfiCond78) V0 load(1, XDATA, add(CFA_XSP16, literal(-12)))
        CFI (cfiCond78) V1 load(1, XDATA, add(CFA_XSP16, literal(-11)))
        CFI (cfiCond78) V2 load(1, XDATA, add(CFA_XSP16, literal(-10)))
        CFI (cfiCond78) V3 load(1, XDATA, add(CFA_XSP16, literal(-9)))
        CFI (cfiCond78) V4 load(1, XDATA, add(CFA_XSP16, literal(-8)))
        CFI (cfiCond78) V5 load(1, XDATA, add(CFA_XSP16, literal(-7)))
        CFI (cfiCond78) R7 load(1, XDATA, add(CFA_XSP16, literal(-6)))
        CFI (cfiCond78) ?RET_LOW load(1, XDATA, add(CFA_XSP16, literal(-5)))
        CFI (cfiCond78) ?RET_HIGH load(1, XDATA, add(CFA_XSP16, literal(-4)))
        CFI (cfiCond78) ?BRET_EXT load(1, XDATA, add(CFA_XSP16, literal(-3)))
        CFI (cfiCond78) DPL0 load(1, XDATA, add(CFA_XSP16, literal(-2)))
        CFI (cfiCond78) DPH0 load(1, XDATA, add(CFA_XSP16, literal(-1)))
        CFI (cfiCond78) CFA_SP SP+0
        CFI (cfiCond78) CFA_XSP16 add(XSP16, 14)
        CFI Block cfiCond79 Using cfiCommon0
        CFI (cfiCond79) NoFunction
        CFI (cfiCond79) Conditional ??CrossCallReturnLabel_114, ??CrossCallReturnLabel_71
        CFI (cfiCond79) R6 load(1, XDATA, add(CFA_XSP16, literal(-10)))
        CFI (cfiCond79) VB load(1, XDATA, add(CFA_XSP16, literal(-9)))
        CFI (cfiCond79) V0 load(1, XDATA, add(CFA_XSP16, literal(-8)))
        CFI (cfiCond79) V1 load(1, XDATA, add(CFA_XSP16, literal(-7)))
        CFI (cfiCond79) R7 load(1, XDATA, add(CFA_XSP16, literal(-6)))
        CFI (cfiCond79) ?RET_LOW load(1, XDATA, add(CFA_XSP16, literal(-5)))
        CFI (cfiCond79) ?RET_HIGH load(1, XDATA, add(CFA_XSP16, literal(-4)))
        CFI (cfiCond79) ?BRET_EXT load(1, XDATA, add(CFA_XSP16, literal(-3)))
        CFI (cfiCond79) DPL0 load(1, XDATA, add(CFA_XSP16, literal(-2)))
        CFI (cfiCond79) DPH0 load(1, XDATA, add(CFA_XSP16, literal(-1)))
        CFI (cfiCond79) CFA_SP SP+0
        CFI (cfiCond79) CFA_XSP16 add(XSP16, 23)
        CFI Block cfiCond80 Using cfiCommon0
        CFI (cfiCond80) NoFunction
        CFI (cfiCond80) Conditional ??CrossCallReturnLabel_114, ??CrossCallReturnLabel_72
        CFI (cfiCond80) R6 load(1, XDATA, add(CFA_XSP16, literal(-10)))
        CFI (cfiCond80) VB load(1, XDATA, add(CFA_XSP16, literal(-9)))
        CFI (cfiCond80) V0 load(1, XDATA, add(CFA_XSP16, literal(-8)))
        CFI (cfiCond80) V1 load(1, XDATA, add(CFA_XSP16, literal(-7)))
        CFI (cfiCond80) R7 load(1, XDATA, add(CFA_XSP16, literal(-6)))
        CFI (cfiCond80) ?RET_LOW load(1, XDATA, add(CFA_XSP16, literal(-5)))
        CFI (cfiCond80) ?RET_HIGH load(1, XDATA, add(CFA_XSP16, literal(-4)))
        CFI (cfiCond80) ?BRET_EXT load(1, XDATA, add(CFA_XSP16, literal(-3)))
        CFI (cfiCond80) DPL0 load(1, XDATA, add(CFA_XSP16, literal(-2)))
        CFI (cfiCond80) DPH0 load(1, XDATA, add(CFA_XSP16, literal(-1)))
        CFI (cfiCond80) CFA_SP SP+0
        CFI (cfiCond80) CFA_XSP16 add(XSP16, 10)
        CFI Block cfiCond81 Using cfiCommon0
        CFI (cfiCond81) NoFunction
        CFI (cfiCond81) Conditional ??CrossCallReturnLabel_114, ??CrossCallReturnLabel_73
        CFI (cfiCond81) R6 load(1, XDATA, add(CFA_XSP16, literal(-10)))
        CFI (cfiCond81) VB load(1, XDATA, add(CFA_XSP16, literal(-9)))
        CFI (cfiCond81) V0 load(1, XDATA, add(CFA_XSP16, literal(-8)))
        CFI (cfiCond81) V1 load(1, XDATA, add(CFA_XSP16, literal(-7)))
        CFI (cfiCond81) R7 load(1, XDATA, add(CFA_XSP16, literal(-6)))
        CFI (cfiCond81) ?RET_LOW load(1, XDATA, add(CFA_XSP16, literal(-5)))
        CFI (cfiCond81) ?RET_HIGH load(1, XDATA, add(CFA_XSP16, literal(-4)))
        CFI (cfiCond81) ?BRET_EXT load(1, XDATA, add(CFA_XSP16, literal(-3)))
        CFI (cfiCond81) DPL0 load(1, XDATA, add(CFA_XSP16, literal(-2)))
        CFI (cfiCond81) DPH0 load(1, XDATA, add(CFA_XSP16, literal(-1)))
        CFI (cfiCond81) CFA_SP SP+0
        CFI (cfiCond81) CFA_XSP16 add(XSP16, 10)
        CFI Block cfiCond82 Using cfiCommon0
        CFI (cfiCond82) NoFunction
        CFI (cfiCond82) Conditional ??CrossCallReturnLabel_114, ??CrossCallReturnLabel_74
        CFI (cfiCond82) R6 load(1, XDATA, add(CFA_XSP16, literal(-12)))
        CFI (cfiCond82) VB load(1, XDATA, add(CFA_XSP16, literal(-11)))
        CFI (cfiCond82) V0 load(1, XDATA, add(CFA_XSP16, literal(-10)))
        CFI (cfiCond82) V1 load(1, XDATA, add(CFA_XSP16, literal(-9)))
        CFI (cfiCond82) V2 load(1, XDATA, add(CFA_XSP16, literal(-8)))
        CFI (cfiCond82) V3 load(1, XDATA, add(CFA_XSP16, literal(-7)))
        CFI (cfiCond82) R7 load(1, XDATA, add(CFA_XSP16, literal(-6)))
        CFI (cfiCond82) ?RET_LOW load(1, XDATA, add(CFA_XSP16, literal(-5)))
        CFI (cfiCond82) ?RET_HIGH load(1, XDATA, add(CFA_XSP16, literal(-4)))
        CFI (cfiCond82) ?BRET_EXT load(1, XDATA, add(CFA_XSP16, literal(-3)))
        CFI (cfiCond82) DPL0 load(1, XDATA, add(CFA_XSP16, literal(-2)))
        CFI (cfiCond82) DPH0 load(1, XDATA, add(CFA_XSP16, literal(-1)))
        CFI (cfiCond82) CFA_SP SP+0
        CFI (cfiCond82) CFA_XSP16 add(XSP16, 12)
        CFI Block cfiPicker83 Using cfiCommon1
        CFI (cfiPicker83) NoFunction
        CFI (cfiPicker83) Picker
        MOV     A,R0
        ADD     A,#0x1
        INC     R0
        MOV     A,R1
        ADDC    A,#0x0
        MOV     R1,A
        CLR     C
        MOV     A,R0
        SUBB    A,#0x3
        MOV     A,R1
        SUBB    A,#0x0
        RET
        CFI EndBlock cfiCond74
        CFI EndBlock cfiCond75
        CFI EndBlock cfiCond76
        CFI EndBlock cfiCond77
        CFI EndBlock cfiCond78
        CFI EndBlock cfiCond79
        CFI EndBlock cfiCond80
        CFI EndBlock cfiCond81
        CFI EndBlock cfiCond82
        CFI EndBlock cfiPicker83

        RSEG BANKED_CODE:CODE:NOROOT(0)
?Subroutine40:
        CFI Block cfiCond84 Using cfiCommon0
        CFI NoFunction
        CFI Conditional ??CrossCallReturnLabel_43
        CFI R6 load(1, XDATA, add(CFA_XSP16, literal(-14)))
        CFI VB load(1, XDATA, add(CFA_XSP16, literal(-13)))
        CFI V0 load(1, XDATA, add(CFA_XSP16, literal(-12)))
        CFI V1 load(1, XDATA, add(CFA_XSP16, literal(-11)))
        CFI V2 load(1, XDATA, add(CFA_XSP16, literal(-10)))
        CFI V3 load(1, XDATA, add(CFA_XSP16, literal(-9)))
        CFI V4 load(1, XDATA, add(CFA_XSP16, literal(-8)))
        CFI V5 load(1, XDATA, add(CFA_XSP16, literal(-7)))
        CFI R7 load(1, XDATA, add(CFA_XSP16, literal(-6)))
        CFI ?RET_LOW load(1, XDATA, add(CFA_XSP16, literal(-5)))
        CFI ?RET_HIGH load(1, XDATA, add(CFA_XSP16, literal(-4)))
        CFI ?BRET_EXT load(1, XDATA, add(CFA_XSP16, literal(-3)))
        CFI DPL0 load(1, XDATA, add(CFA_XSP16, literal(-2)))
        CFI DPH0 load(1, XDATA, add(CFA_XSP16, literal(-1)))
        CFI CFA_SP SP+0
        CFI CFA_XSP16 add(XSP16, 14)
        CFI Block cfiCond85 Using cfiCommon0
        CFI (cfiCond85) NoFunction
        CFI (cfiCond85) Conditional ??CrossCallReturnLabel_44
        CFI (cfiCond85) R6 load(1, XDATA, add(CFA_XSP16, literal(-10)))
        CFI (cfiCond85) VB load(1, XDATA, add(CFA_XSP16, literal(-9)))
        CFI (cfiCond85) V0 load(1, XDATA, add(CFA_XSP16, literal(-8)))
        CFI (cfiCond85) V1 load(1, XDATA, add(CFA_XSP16, literal(-7)))
        CFI (cfiCond85) R7 load(1, XDATA, add(CFA_XSP16, literal(-6)))
        CFI (cfiCond85) ?RET_LOW load(1, XDATA, add(CFA_XSP16, literal(-5)))
        CFI (cfiCond85) ?RET_HIGH load(1, XDATA, add(CFA_XSP16, literal(-4)))
        CFI (cfiCond85) ?BRET_EXT load(1, XDATA, add(CFA_XSP16, literal(-3)))
        CFI (cfiCond85) DPL0 load(1, XDATA, add(CFA_XSP16, literal(-2)))
        CFI (cfiCond85) DPH0 load(1, XDATA, add(CFA_XSP16, literal(-1)))
        CFI (cfiCond85) CFA_SP SP+0
        CFI (cfiCond85) CFA_XSP16 add(XSP16, 10)
        CFI Block cfiPicker86 Using cfiCommon1
        CFI (cfiPicker86) NoFunction
        CFI (cfiPicker86) Picker
        LCALL   ?Subroutine65 & 0xFFFF
??CrossCallReturnLabel_93:
        MOVX    A,@DPTR
        RET
        CFI EndBlock cfiCond84
        CFI EndBlock cfiCond85
        CFI EndBlock cfiPicker86
//  793 
//  794 /******************************************************************************
//  795  * @fn          ZDSecMgrEntryLookupExt
//  796  *
//  797  * @brief       Lookup entry index using specified EXT address.
//  798  *
//  799  * @param       extAddr - [in] EXT address
//  800  * @param       entry   - [out] valid entry
//  801  *
//  802  * @return      ZStatus_t
//  803  */

        RSEG BANKED_CODE:CODE:NOROOT(0)
//  804 ZStatus_t ZDSecMgrEntryLookupExt( uint8* extAddr, ZDSecMgrEntry_t** entry )
ZDSecMgrEntryLookupExt:
        CFI Block cfiBlock87 Using cfiCommon0
        CFI Function ZDSecMgrEntryLookupExt
        CODE
//  805 {
        FUNCALL ZDSecMgrEntryLookupExt, ZDSecMgrExtAddrLookup
        LOCFRAME ISTACK, 0, STACK
        LOCFRAME PSTACK, 0, STACK
        LOCFRAME XSTACK, 11, STACK
        LOCFRAME IOVERLAY, 0, STATIC
        LOCFRAME DOVERLAY, 0, STATIC
        ARGFRAME ISTACK, 0, STACK
        ARGFRAME PSTACK, 0, STACK
        ARGFRAME XSTACK, 11, STACK
        ARGFRAME IOVERLAY, 0, STATIC
        ARGFRAME DOVERLAY, 0, STATIC
        FUNCALL ZDSecMgrEntryLookupExt, ZDSecMgrEntryLookupAMI
        LOCFRAME ISTACK, 0, STACK
        LOCFRAME PSTACK, 0, STACK
        LOCFRAME XSTACK, 11, STACK
        LOCFRAME IOVERLAY, 0, STATIC
        LOCFRAME DOVERLAY, 0, STATIC
        ARGFRAME ISTACK, 0, STACK
        ARGFRAME PSTACK, 0, STACK
        ARGFRAME XSTACK, 11, STACK
        ARGFRAME IOVERLAY, 0, STATIC
        ARGFRAME DOVERLAY, 0, STATIC
        MOV     A,#-0x9
        LCALL   ?BANKED_ENTER_XDATA
        CFI DPH0 load(1, XDATA, add(CFA_XSP16, literal(-1)))
        CFI DPL0 load(1, XDATA, add(CFA_XSP16, literal(-2)))
        CFI ?BRET_EXT load(1, XDATA, add(CFA_XSP16, literal(-3)))
        CFI ?RET_HIGH load(1, XDATA, add(CFA_XSP16, literal(-4)))
        CFI ?RET_LOW load(1, XDATA, add(CFA_XSP16, literal(-5)))
        CFI R7 load(1, XDATA, add(CFA_XSP16, literal(-6)))
        CFI V0 load(1, XDATA, add(CFA_XSP16, literal(-7)))
        CFI VB load(1, XDATA, add(CFA_XSP16, literal(-8)))
        CFI R6 load(1, XDATA, add(CFA_XSP16, literal(-9)))
        CFI CFA_SP SP+0
        CFI CFA_XSP16 add(XSP16, 9)
        ; Saved register size: 9
        ; Auto size: 2
        MOV     A,#-0x2
        LCALL   ?ALLOC_XSTACK8
        CFI CFA_XSP16 add(XSP16, 11)
        LCALL   ?Subroutine73 & 0xFFFF
//  806   ZStatus_t status;
//  807   uint16    ami;
//  808 
//  809 
//  810   // initialize results
//  811   *entry = NULL;
//  812   status = ZNwkUnknownDevice;
//  813 
//  814   // lookup address index
//  815   if ( ZDSecMgrExtAddrLookup( extAddr, &ami ) == ZSuccess )
??CrossCallReturnLabel_122:
        ; Setup parameters for call to function ZDSecMgrExtAddrLookup
        MOV     DPL,?XSP + 0
        MOV     DPH,?XSP + 1
        MOV     R4,DPL
        MOV     R5,DPH
        LCALL   ??ZDSecMgrExtAddrLookup?relay
        MOV     A,R1
        JNZ     ??ZDSecMgrEntryLookupExt_0
//  816   {
//  817     status = ZDSecMgrEntryLookupAMI( ami, entry );
        ; Setup parameters for call to function ZDSecMgrEntryLookupAMI
        MOV     A,R6
        MOV     R4,A
        MOV     A,R7
        MOV     R5,A
        MOV     DPL,?XSP + 0
        MOV     DPH,?XSP + 1
        LCALL   ?Subroutine47 & 0xFFFF
//  818   }
??CrossCallReturnLabel_57:
        MOV     A,R1
        MOV     ?V0 + 0,A
//  819 
//  820   return status;
??ZDSecMgrEntryLookupExt_0:
        LJMP    ?Subroutine1 & 0xFFFF
        CFI EndBlock cfiBlock87
//  821 }
//  822 
//  823 /******************************************************************************
//  824  * @fn          ZDSecMgrEntryFree
//  825  *
//  826  * @brief       Free entry.
//  827  *
//  828  * @param       entry - [in] valid entry
//  829  *
//  830  * @return      ZStatus_t
//  831  */

        RSEG BANKED_CODE:CODE:NOROOT(0)
//  832 void ZDSecMgrEntryFree( ZDSecMgrEntry_t* entry )
ZDSecMgrEntryFree:
        CFI Block cfiBlock88 Using cfiCommon0
        CFI Function ZDSecMgrEntryFree
        CODE
//  833 {
        PUSH    DPL
        CFI DPL0 Frame(CFA_SP, 4)
        CFI CFA_SP SP+-4
        PUSH    DPH
        CFI DPH0 Frame(CFA_SP, 5)
        CFI CFA_SP SP+-5
        ; Saved register size: 2
        ; Auto size: 0
//  834   entry->ami = INVALID_NODE_ADDR;
        MOV     DPL,R2
        MOV     DPH,R3
        MOV     A,#-0x2
        MOVX    @DPTR,A
        INC     DPTR
        INC     A
        MOVX    @DPTR,A
//  835 }
        LJMP    ??Subroutine91_0 & 0xFFFF
        CFI EndBlock cfiBlock88
//  836 
//  837 /******************************************************************************
//  838  * @fn          ZDSecMgrEntryNew
//  839  *
//  840  * @brief       Get a new entry.
//  841  *
//  842  * @param       entry - [out] valid entry
//  843  *
//  844  * @return      ZStatus_t
//  845  */

        RSEG BANKED_CODE:CODE:NOROOT(0)
//  846 ZStatus_t ZDSecMgrEntryNew( ZDSecMgrEntry_t** entry )
ZDSecMgrEntryNew:
        CFI Block cfiBlock89 Using cfiCommon0
        CFI Function ZDSecMgrEntryNew
        CODE
//  847 {
        MOV     A,#-0xa
        LCALL   ?BANKED_ENTER_XDATA
        CFI DPH0 load(1, XDATA, add(CFA_XSP16, literal(-1)))
        CFI DPL0 load(1, XDATA, add(CFA_XSP16, literal(-2)))
        CFI ?BRET_EXT load(1, XDATA, add(CFA_XSP16, literal(-3)))
        CFI ?RET_HIGH load(1, XDATA, add(CFA_XSP16, literal(-4)))
        CFI ?RET_LOW load(1, XDATA, add(CFA_XSP16, literal(-5)))
        CFI R7 load(1, XDATA, add(CFA_XSP16, literal(-6)))
        CFI V1 load(1, XDATA, add(CFA_XSP16, literal(-7)))
        CFI V0 load(1, XDATA, add(CFA_XSP16, literal(-8)))
        CFI VB load(1, XDATA, add(CFA_XSP16, literal(-9)))
        CFI R6 load(1, XDATA, add(CFA_XSP16, literal(-10)))
        CFI CFA_SP SP+0
        CFI CFA_XSP16 add(XSP16, 10)
        ; Saved register size: 10
        ; Auto size: 0
        MOV     A,R2
        MOV     R6,A
        MOV     A,R3
        LCALL   ?Subroutine11 & 0xFFFF
//  848   ZStatus_t status;
//  849   uint16    index;
//  850 
//  851 
//  852   // initialize results
//  853   *entry = NULL;
//  854   status = ZNwkUnknownDevice;
//  855 
//  856   // verify data is available
//  857   if ( ZDSecMgrEntries != NULL )
??CrossCallReturnLabel_119:
        JZ      ??ZDSecMgrEntryNew_0
//  858   {
//  859     // find available entry
//  860     for ( index = 0; index < ZDSECMGR_ENTRY_MAX ; index++ )
        MOV     R2,#0x0
        MOV     R3,#0x0
//  861     {
//  862       if ( ZDSecMgrEntries[index].ami == INVALID_NODE_ADDR )
??ZDSecMgrEntryNew_1:
        MOV     A,R2
        MOV     R0,A
        MOV     A,R3
        MOV     R1,A
        MOV     A,R0
        MOV     B,#0x1d
        MUL     AB
        MOV     R0,A
        MOV     R4,B
        MOV     B,#0x1d
        MOV     A,R1
        MUL     AB
        ADD     A,R4
        MOV     R1,A
        MOV     DPTR,#ZDSecMgrEntries
        MOVX    A,@DPTR
        ADD     A,R0
        MOV     R4,A
        INC     DPTR
        MOVX    A,@DPTR
        ADDC    A,R1
        MOV     R5,A
        MOV     DPL,R4
        MOV     DPH,R5
        MOVX    A,@DPTR
        XRL     A,#0xfe
        JNZ     ??ZDSecMgrEntryNew_2
        INC     DPTR
        MOVX    A,@DPTR
        CPL     A
??ZDSecMgrEntryNew_2:
        JNZ     ??ZDSecMgrEntryNew_3
//  863       {
//  864         // return successful result
//  865         *entry = &ZDSecMgrEntries[index];
        MOV     A,R4
        MOV     R2,A
        MOV     A,R5
        LCALL   ?Subroutine24 & 0xFFFF
//  866         status = ZSuccess;
??CrossCallReturnLabel_134:
        MOV     ?V0 + 0,#0x0
//  867 
//  868         // Set the authentication option to default
//  869         ZDSecMgrEntries[index].authenticateOption = ZDSecMgr_Not_Authenticated;
        MOV     DPTR,#ZDSecMgrEntries
        MOVX    A,@DPTR
        ADD     A,R0
        MOV     R0,A
        INC     DPTR
        MOVX    A,@DPTR
        ADDC    A,R1
        MOV     R1,A
        MOV     A,R0
        ADD     A,#0x1c
        MOV     DPL,A
        MOV     A,R1
        ADDC    A,#0x0
        MOV     DPH,A
        CLR     A
        MOVX    @DPTR,A
//  870 
//  871         // break from loop
//  872         index = ZDSECMGR_ENTRY_MAX;
        MOV     R2,#0x3
        MOV     R3,A
//  873       }
//  874     }
??ZDSecMgrEntryNew_3:
        MOV     A,R2
        ADD     A,#0x1
        INC     R2
        MOV     A,R3
        ADDC    A,#0x0
        MOV     R3,A
        CLR     C
        MOV     A,R2
        SUBB    A,#0x3
        MOV     A,R3
        SUBB    A,#0x0
        JC      ??ZDSecMgrEntryNew_1
//  875   }
//  876 
//  877   return status;
??ZDSecMgrEntryNew_0:
        LJMP    ?Subroutine7 & 0xFFFF
        CFI EndBlock cfiBlock89
//  878 }
//  879 
//  880 /******************************************************************************
//  881  * @fn          ZDSecMgrCtrlInit
//  882  *
//  883  * @brief       Initialize control sub module
//  884  *
//  885  * @param       none
//  886  *
//  887  * @return      none
//  888  */

        RSEG BANKED_CODE:CODE:NOROOT(0)
//  889 void ZDSecMgrCtrlInit( void )
ZDSecMgrCtrlInit:
        CFI Block cfiBlock90 Using cfiCommon0
        CFI Function ZDSecMgrCtrlInit
        CODE
//  890 {
        FUNCALL ZDSecMgrCtrlInit, osal_mem_alloc
        LOCFRAME ISTACK, 2, STACK
        LOCFRAME PSTACK, 0, STACK
        LOCFRAME XSTACK, 0, STACK
        LOCFRAME IOVERLAY, 0, STATIC
        LOCFRAME DOVERLAY, 0, STATIC
        ARGFRAME ISTACK, 2, STACK
        ARGFRAME PSTACK, 0, STACK
        ARGFRAME XSTACK, 0, STACK
        ARGFRAME IOVERLAY, 0, STATIC
        ARGFRAME DOVERLAY, 0, STATIC
        PUSH    DPL
        CFI DPL0 Frame(CFA_SP, 4)
        CFI CFA_SP SP+-4
        PUSH    DPH
        CFI DPH0 Frame(CFA_SP, 5)
        CFI CFA_SP SP+-5
        ; Saved register size: 2
        ; Auto size: 0
//  891   uint16 size;
//  892   uint16 index;
//  893 
//  894   // allocate entry data
//  895   size = (short)( sizeof(ZDSecMgrCtrl_t) * ZDSECMGR_CTRL_MAX );
//  896 
//  897   ZDSecMgrCtrlData = osal_mem_alloc( size );
        ; Setup parameters for call to function osal_mem_alloc
        MOV     R2,#0x15
        MOV     R3,#0x0
        LCALL   ??osal_mem_alloc?relay
        MOV     DPTR,#ZDSecMgrCtrlData
        MOV     A,R2
        MOVX    @DPTR,A
        INC     DPTR
        MOV     A,R3
        LCALL   ?Subroutine20 & 0xFFFF
//  898 
//  899   // initialize data
//  900   if ( ZDSecMgrCtrlData != NULL )
??CrossCallReturnLabel_12:
        JZ      ??ZDSecMgrCtrlInit_0
//  901   {
//  902     for( index = 0; index < ZDSECMGR_CTRL_MAX; index++ )
        MOV     R0,#0x0
        MOV     R1,#0x0
//  903     {
//  904       ZDSecMgrCtrlData[index].state = ZDSECMGR_CTRL_NONE;
??ZDSecMgrCtrlInit_1:
        MOV     A,R0
        MOV     R2,A
        MOV     A,R1
        MOV     R3,A
        MOV     A,R2
        MOV     B,#0x7
        MUL     AB
        MOV     R2,A
        MOV     R4,B
        MOV     B,#0x7
        MOV     A,R3
        MUL     AB
        ADD     A,R4
        MOV     R3,A
        MOV     DPTR,#ZDSecMgrCtrlData
        LCALL   ?Subroutine68 & 0xFFFF
//  905     }
//  906   }
??CrossCallReturnLabel_94:
        INC     DPTR
        INC     DPTR
        INC     DPTR
        INC     DPTR
        INC     DPTR
        CLR     A
        LCALL   ??Subroutine80_0 & 0xFFFF
??CrossCallReturnLabel_112:
        JC      ??ZDSecMgrCtrlInit_1
//  907 }
??ZDSecMgrCtrlInit_0:
        LJMP    ??Subroutine91_0 & 0xFFFF
        CFI EndBlock cfiBlock90

        RSEG BANKED_CODE:CODE:NOROOT(0)
?Subroutine68:
        CFI Block cfiCond91 Using cfiCommon0
        CFI NoFunction
        CFI Conditional ??CrossCallReturnLabel_95, ??CrossCallReturnLabel_110
        CFI DPL0 Frame(CFA_SP, 4)
        CFI DPH0 Frame(CFA_SP, 5)
        CFI CFA_SP SP+-5
        CFI Block cfiCond92 Using cfiCommon0
        CFI (cfiCond92) NoFunction
        CFI (cfiCond92) Conditional ??CrossCallReturnLabel_95, ??CrossCallReturnLabel_111
        CFI (cfiCond92) DPL0 Frame(CFA_SP, 4)
        CFI (cfiCond92) DPH0 Frame(CFA_SP, 5)
        CFI (cfiCond92) CFA_SP SP+-5
        CFI Block cfiCond93 Using cfiCommon0
        CFI (cfiCond93) NoFunction
        CFI (cfiCond93) Conditional ??CrossCallReturnLabel_94
        CFI (cfiCond93) DPL0 Frame(CFA_SP, 4)
        CFI (cfiCond93) DPH0 Frame(CFA_SP, 5)
        CFI (cfiCond93) CFA_SP SP+-5
        CFI Block cfiPicker94 Using cfiCommon1
        CFI (cfiPicker94) NoFunction
        CFI (cfiPicker94) Picker
        MOVX    A,@DPTR
        ADD     A,R2
        MOV     R4,A
        INC     DPTR
        MOVX    A,@DPTR
        ADDC    A,R3
        MOV     DPL,R4
        MOV     DPH,A
        RET
        CFI EndBlock cfiCond91
        CFI EndBlock cfiCond92
        CFI EndBlock cfiCond93
        CFI EndBlock cfiPicker94
//  908 
//  909 /******************************************************************************
//  910  * @fn          ZDSecMgrCtrlRelease
//  911  *
//  912  * @brief       Release control data.
//  913  *
//  914  * @param       ctrl - [in] valid control data
//  915  *
//  916  * @return      none
//  917  */

        RSEG BANKED_CODE:CODE:NOROOT(0)
//  918 void ZDSecMgrCtrlRelease( ZDSecMgrCtrl_t* ctrl )
ZDSecMgrCtrlRelease:
        CFI Block cfiBlock95 Using cfiCommon0
        CFI Function ZDSecMgrCtrlRelease
        CODE
//  919 {
        PUSH    DPL
        CFI DPL0 Frame(CFA_SP, 4)
        CFI CFA_SP SP+-4
        PUSH    DPH
        CFI DPH0 Frame(CFA_SP, 5)
        CFI CFA_SP SP+-5
        ; Saved register size: 2
        ; Auto size: 0
//  920   // should always be enough entry control data
//  921   ctrl->state = ZDSECMGR_CTRL_NONE;
        MOV     DPL,R2
        MOV     DPH,R3
        INC     DPTR
        INC     DPTR
        INC     DPTR
        INC     DPTR
        INC     DPTR
        CLR     A
        MOVX    @DPTR,A
//  922 }
        LJMP    ??Subroutine91_0 & 0xFFFF
        CFI EndBlock cfiBlock95
//  923 
//  924 /******************************************************************************
//  925  * @fn          ZDSecMgrCtrlLookup
//  926  *
//  927  * @brief       Lookup control data.
//  928  *
//  929  * @param       entry - [in] valid entry data
//  930  * @param       ctrl  - [out] control data - NULL if not found
//  931  *
//  932  * @return      none
//  933  */

        RSEG BANKED_CODE:CODE:NOROOT(0)
//  934 void ZDSecMgrCtrlLookup( ZDSecMgrEntry_t* entry, ZDSecMgrCtrl_t** ctrl )
ZDSecMgrCtrlLookup:
        CFI Block cfiBlock96 Using cfiCommon0
        CFI Function ZDSecMgrCtrlLookup
        CODE
//  935 {
        MOV     A,#-0xa
        LCALL   ?BANKED_ENTER_XDATA
        CFI DPH0 load(1, XDATA, add(CFA_XSP16, literal(-1)))
        CFI DPL0 load(1, XDATA, add(CFA_XSP16, literal(-2)))
        CFI ?BRET_EXT load(1, XDATA, add(CFA_XSP16, literal(-3)))
        CFI ?RET_HIGH load(1, XDATA, add(CFA_XSP16, literal(-4)))
        CFI ?RET_LOW load(1, XDATA, add(CFA_XSP16, literal(-5)))
        CFI R7 load(1, XDATA, add(CFA_XSP16, literal(-6)))
        CFI V1 load(1, XDATA, add(CFA_XSP16, literal(-7)))
        CFI V0 load(1, XDATA, add(CFA_XSP16, literal(-8)))
        CFI VB load(1, XDATA, add(CFA_XSP16, literal(-9)))
        CFI R6 load(1, XDATA, add(CFA_XSP16, literal(-10)))
        CFI CFA_SP SP+0
        CFI CFA_XSP16 add(XSP16, 10)
        ; Saved register size: 10
        ; Auto size: 0
        MOV     A,R2
        MOV     R6,A
        MOV     A,R3
        MOV     R7,A
//  936   uint16 index;
//  937 
//  938 
//  939   // initialize search results
//  940   *ctrl = NULL;
        MOV     DPL,R4
        MOV     DPH,R5
        CLR     A
        MOVX    @DPTR,A
        INC     DPTR
        LCALL   ?Subroutine20 & 0xFFFF
//  941 
//  942   // verify data is available
//  943   if ( ZDSecMgrCtrlData != NULL )
??CrossCallReturnLabel_13:
        JZ      ??ZDSecMgrCtrlLookup_0
//  944   {
//  945     for ( index = 0; index < ZDSECMGR_CTRL_MAX; index++ )
        MOV     R0,#0x0
        MOV     R1,#0x0
//  946     {
//  947       // make sure control data is in use
//  948       if ( ZDSecMgrCtrlData[index].state != ZDSECMGR_CTRL_NONE )
??ZDSecMgrCtrlLookup_1:
        MOV     A,R0
        MOV     R2,A
        MOV     A,R1
        MOV     R3,A
        MOV     A,R2
        MOV     B,#0x7
        MUL     AB
        MOV     R2,A
        MOV     ?V0 + 0,B
        MOV     B,#0x7
        MOV     A,R3
        MUL     AB
        ADD     A,?V0 + 0
        LCALL   ?Subroutine34 & 0xFFFF
??CrossCallReturnLabel_29:
        JZ      ??ZDSecMgrCtrlLookup_2
//  949       {
//  950         // check for entry match
//  951         if ( ZDSecMgrCtrlData[index].entry == entry )
        MOV     DPL,R2
        MOV     DPH,R3
        MOVX    A,@DPTR
        MOV     ?V0 + 0,A
        INC     DPTR
        MOVX    A,@DPTR
        MOV     ?V0 + 1,A
        MOV     A,R6
        XRL     A,?V0 + 0
        JNZ     ??ZDSecMgrCtrlLookup_3
        MOV     A,R7
        XRL     A,?V0 + 1
??ZDSecMgrCtrlLookup_3:
        JNZ     ??ZDSecMgrCtrlLookup_2
//  952         {
//  953           // return this control data
//  954           *ctrl = &ZDSecMgrCtrlData[index];
        MOV     A,R2
        MOV     R0,A
        MOV     A,R3
        MOV     R1,A
        MOV     DPL,R4
        MOV     DPH,R5
        LCALL   ??Subroutine93_0 & 0xFFFF
//  955 
//  956           // break from loop
//  957           index = ZDSECMGR_CTRL_MAX;
??CrossCallReturnLabel_166:
        MOV     R0,#0x3
        MOV     R1,#0x0
//  958         }
//  959       }
//  960     }
??ZDSecMgrCtrlLookup_2:
        LCALL   ?Subroutine54 & 0xFFFF
//  961   }
??CrossCallReturnLabel_73:
        JC      ??ZDSecMgrCtrlLookup_1
//  962 }
??ZDSecMgrCtrlLookup_0:
        LJMP    ??Subroutine101_0 & 0xFFFF
        CFI EndBlock cfiBlock96

        RSEG BANKED_CODE:CODE:NOROOT(0)
?Subroutine20:
        CFI Block cfiCond97 Using cfiCommon0
        CFI NoFunction
        CFI Conditional ??CrossCallReturnLabel_12
        CFI DPL0 Frame(CFA_SP, 4)
        CFI DPH0 Frame(CFA_SP, 5)
        CFI CFA_SP SP+-5
        CFI Block cfiCond98 Using cfiCommon0
        CFI (cfiCond98) NoFunction
        CFI (cfiCond98) Conditional ??CrossCallReturnLabel_13
        CFI (cfiCond98) R6 load(1, XDATA, add(CFA_XSP16, literal(-10)))
        CFI (cfiCond98) VB load(1, XDATA, add(CFA_XSP16, literal(-9)))
        CFI (cfiCond98) V0 load(1, XDATA, add(CFA_XSP16, literal(-8)))
        CFI (cfiCond98) V1 load(1, XDATA, add(CFA_XSP16, literal(-7)))
        CFI (cfiCond98) R7 load(1, XDATA, add(CFA_XSP16, literal(-6)))
        CFI (cfiCond98) ?RET_LOW load(1, XDATA, add(CFA_XSP16, literal(-5)))
        CFI (cfiCond98) ?RET_HIGH load(1, XDATA, add(CFA_XSP16, literal(-4)))
        CFI (cfiCond98) ?BRET_EXT load(1, XDATA, add(CFA_XSP16, literal(-3)))
        CFI (cfiCond98) DPL0 load(1, XDATA, add(CFA_XSP16, literal(-2)))
        CFI (cfiCond98) DPH0 load(1, XDATA, add(CFA_XSP16, literal(-1)))
        CFI (cfiCond98) CFA_SP SP+0
        CFI (cfiCond98) CFA_XSP16 add(XSP16, 10)
        CFI Block cfiPicker99 Using cfiCommon1
        CFI (cfiPicker99) NoFunction
        CFI (cfiPicker99) Picker
        MOVX    @DPTR,A
        MOV     DPTR,#ZDSecMgrCtrlData
        LCALL   ?Subroutine66 & 0xFFFF
??CrossCallReturnLabel_212:
        RET
        CFI EndBlock cfiCond97
        CFI EndBlock cfiCond98
        CFI EndBlock cfiPicker99

        RSEG BANKED_CODE:CODE:NOROOT(0)
?Subroutine66:
        CFI Block cfiCond100 Using cfiCommon0
        CFI NoFunction
        CFI Conditional ??CrossCallReturnLabel_213, ??CrossCallReturnLabel_118
        CFI R6 load(1, XDATA, add(CFA_XSP16, literal(-10)))
        CFI VB load(1, XDATA, add(CFA_XSP16, literal(-9)))
        CFI V0 load(1, XDATA, add(CFA_XSP16, literal(-8)))
        CFI V1 load(1, XDATA, add(CFA_XSP16, literal(-7)))
        CFI R7 load(1, XDATA, add(CFA_XSP16, literal(-6)))
        CFI ?RET_LOW load(1, XDATA, add(CFA_XSP16, literal(-5)))
        CFI ?RET_HIGH load(1, XDATA, add(CFA_XSP16, literal(-4)))
        CFI ?BRET_EXT load(1, XDATA, add(CFA_XSP16, literal(-3)))
        CFI DPL0 load(1, XDATA, add(CFA_XSP16, literal(-2)))
        CFI DPH0 load(1, XDATA, add(CFA_XSP16, literal(-1)))
        CFI CFA_SP SP+0
        CFI CFA_XSP16 add(XSP16, 23)
        CFI Block cfiCond101 Using cfiCommon0
        CFI (cfiCond101) NoFunction
        CFI (cfiCond101) Conditional ??CrossCallReturnLabel_213, ??CrossCallReturnLabel_119
        CFI (cfiCond101) R6 load(1, XDATA, add(CFA_XSP16, literal(-10)))
        CFI (cfiCond101) VB load(1, XDATA, add(CFA_XSP16, literal(-9)))
        CFI (cfiCond101) V0 load(1, XDATA, add(CFA_XSP16, literal(-8)))
        CFI (cfiCond101) V1 load(1, XDATA, add(CFA_XSP16, literal(-7)))
        CFI (cfiCond101) R7 load(1, XDATA, add(CFA_XSP16, literal(-6)))
        CFI (cfiCond101) ?RET_LOW load(1, XDATA, add(CFA_XSP16, literal(-5)))
        CFI (cfiCond101) ?RET_HIGH load(1, XDATA, add(CFA_XSP16, literal(-4)))
        CFI (cfiCond101) ?BRET_EXT load(1, XDATA, add(CFA_XSP16, literal(-3)))
        CFI (cfiCond101) DPL0 load(1, XDATA, add(CFA_XSP16, literal(-2)))
        CFI (cfiCond101) DPH0 load(1, XDATA, add(CFA_XSP16, literal(-1)))
        CFI (cfiCond101) CFA_SP SP+0
        CFI (cfiCond101) CFA_XSP16 add(XSP16, 10)
        CFI Block cfiCond102 Using cfiCommon0
        CFI (cfiCond102) NoFunction
        CFI (cfiCond102) Conditional ??CrossCallReturnLabel_213, ??CrossCallReturnLabel_120
        CFI (cfiCond102) R6 load(1, XDATA, add(CFA_XSP16, literal(-10)))
        CFI (cfiCond102) VB load(1, XDATA, add(CFA_XSP16, literal(-9)))
        CFI (cfiCond102) V0 load(1, XDATA, add(CFA_XSP16, literal(-8)))
        CFI (cfiCond102) V1 load(1, XDATA, add(CFA_XSP16, literal(-7)))
        CFI (cfiCond102) R7 load(1, XDATA, add(CFA_XSP16, literal(-6)))
        CFI (cfiCond102) ?RET_LOW load(1, XDATA, add(CFA_XSP16, literal(-5)))
        CFI (cfiCond102) ?RET_HIGH load(1, XDATA, add(CFA_XSP16, literal(-4)))
        CFI (cfiCond102) ?BRET_EXT load(1, XDATA, add(CFA_XSP16, literal(-3)))
        CFI (cfiCond102) DPL0 load(1, XDATA, add(CFA_XSP16, literal(-2)))
        CFI (cfiCond102) DPH0 load(1, XDATA, add(CFA_XSP16, literal(-1)))
        CFI (cfiCond102) CFA_SP SP+0
        CFI (cfiCond102) CFA_XSP16 add(XSP16, 10)
        CFI Block cfiCond103 Using cfiCommon0
        CFI (cfiCond103) NoFunction
        CFI (cfiCond103) Conditional ??CrossCallReturnLabel_212, ??CrossCallReturnLabel_12
        CFI (cfiCond103) DPL0 Frame(CFA_SP, 4)
        CFI (cfiCond103) DPH0 Frame(CFA_SP, 5)
        CFI (cfiCond103) CFA_SP SP+-5
        CFI Block cfiCond104 Using cfiCommon0
        CFI (cfiCond104) NoFunction
        CFI (cfiCond104) Conditional ??CrossCallReturnLabel_212, ??CrossCallReturnLabel_13
        CFI (cfiCond104) R6 load(1, XDATA, add(CFA_XSP16, literal(-10)))
        CFI (cfiCond104) VB load(1, XDATA, add(CFA_XSP16, literal(-9)))
        CFI (cfiCond104) V0 load(1, XDATA, add(CFA_XSP16, literal(-8)))
        CFI (cfiCond104) V1 load(1, XDATA, add(CFA_XSP16, literal(-7)))
        CFI (cfiCond104) R7 load(1, XDATA, add(CFA_XSP16, literal(-6)))
        CFI (cfiCond104) ?RET_LOW load(1, XDATA, add(CFA_XSP16, literal(-5)))
        CFI (cfiCond104) ?RET_HIGH load(1, XDATA, add(CFA_XSP16, literal(-4)))
        CFI (cfiCond104) ?BRET_EXT load(1, XDATA, add(CFA_XSP16, literal(-3)))
        CFI (cfiCond104) DPL0 load(1, XDATA, add(CFA_XSP16, literal(-2)))
        CFI (cfiCond104) DPH0 load(1, XDATA, add(CFA_XSP16, literal(-1)))
        CFI (cfiCond104) CFA_SP SP+0
        CFI (cfiCond104) CFA_XSP16 add(XSP16, 10)
        CFI Block cfiCond105 Using cfiCommon0
        CFI (cfiCond105) NoFunction
        CFI (cfiCond105) Conditional ??CrossCallReturnLabel_214, ??CrossCallReturnLabel_197
        CFI (cfiCond105) R6 load(1, XDATA, add(CFA_XSP16, literal(-10)))
        CFI (cfiCond105) VB load(1, XDATA, add(CFA_XSP16, literal(-9)))
        CFI (cfiCond105) V0 load(1, XDATA, add(CFA_XSP16, literal(-8)))
        CFI (cfiCond105) V1 load(1, XDATA, add(CFA_XSP16, literal(-7)))
        CFI (cfiCond105) R7 load(1, XDATA, add(CFA_XSP16, literal(-6)))
        CFI (cfiCond105) ?RET_LOW load(1, XDATA, add(CFA_XSP16, literal(-5)))
        CFI (cfiCond105) ?RET_HIGH load(1, XDATA, add(CFA_XSP16, literal(-4)))
        CFI (cfiCond105) ?BRET_EXT load(1, XDATA, add(CFA_XSP16, literal(-3)))
        CFI (cfiCond105) DPL0 load(1, XDATA, add(CFA_XSP16, literal(-2)))
        CFI (cfiCond105) DPH0 load(1, XDATA, add(CFA_XSP16, literal(-1)))
        CFI (cfiCond105) CFA_SP SP+0
        CFI (cfiCond105) CFA_XSP16 add(XSP16, 12)
        CFI Block cfiCond106 Using cfiCommon0
        CFI (cfiCond106) NoFunction
        CFI (cfiCond106) Conditional ??CrossCallReturnLabel_214, ??CrossCallReturnLabel_198
        CFI (cfiCond106) R6 load(1, XDATA, add(CFA_XSP16, literal(-9)))
        CFI (cfiCond106) VB load(1, XDATA, add(CFA_XSP16, literal(-8)))
        CFI (cfiCond106) V0 load(1, XDATA, add(CFA_XSP16, literal(-7)))
        CFI (cfiCond106) R7 load(1, XDATA, add(CFA_XSP16, literal(-6)))
        CFI (cfiCond106) ?RET_LOW load(1, XDATA, add(CFA_XSP16, literal(-5)))
        CFI (cfiCond106) ?RET_HIGH load(1, XDATA, add(CFA_XSP16, literal(-4)))
        CFI (cfiCond106) ?BRET_EXT load(1, XDATA, add(CFA_XSP16, literal(-3)))
        CFI (cfiCond106) DPL0 load(1, XDATA, add(CFA_XSP16, literal(-2)))
        CFI (cfiCond106) DPH0 load(1, XDATA, add(CFA_XSP16, literal(-1)))
        CFI (cfiCond106) CFA_SP SP+0
        CFI (cfiCond106) CFA_XSP16 add(XSP16, 13)
        CFI Block cfiCond107 Using cfiCommon0
        CFI (cfiCond107) NoFunction
        CFI (cfiCond107) Conditional ??CrossCallReturnLabel_214, ??CrossCallReturnLabel_199
        CFI (cfiCond107) DPL0 Frame(CFA_SP, 4)
        CFI (cfiCond107) DPH0 Frame(CFA_SP, 5)
        CFI (cfiCond107) CFA_SP SP+-5
        CFI (cfiCond107) CFA_XSP16 add(XSP16, 2)
        CFI Block cfiCond108 Using cfiCommon0
        CFI (cfiCond108) NoFunction
        CFI (cfiCond108) Conditional ??CrossCallReturnLabel_214, ??CrossCallReturnLabel_210
        CFI (cfiCond108) R6 load(1, XDATA, add(CFA_XSP16, literal(-12)))
        CFI (cfiCond108) VB load(1, XDATA, add(CFA_XSP16, literal(-11)))
        CFI (cfiCond108) V0 load(1, XDATA, add(CFA_XSP16, literal(-10)))
        CFI (cfiCond108) V1 load(1, XDATA, add(CFA_XSP16, literal(-9)))
        CFI (cfiCond108) V2 load(1, XDATA, add(CFA_XSP16, literal(-8)))
        CFI (cfiCond108) V3 load(1, XDATA, add(CFA_XSP16, literal(-7)))
        CFI (cfiCond108) R7 load(1, XDATA, add(CFA_XSP16, literal(-6)))
        CFI (cfiCond108) ?RET_LOW load(1, XDATA, add(CFA_XSP16, literal(-5)))
        CFI (cfiCond108) ?RET_HIGH load(1, XDATA, add(CFA_XSP16, literal(-4)))
        CFI (cfiCond108) ?BRET_EXT load(1, XDATA, add(CFA_XSP16, literal(-3)))
        CFI (cfiCond108) DPL0 load(1, XDATA, add(CFA_XSP16, literal(-2)))
        CFI (cfiCond108) DPH0 load(1, XDATA, add(CFA_XSP16, literal(-1)))
        CFI (cfiCond108) CFA_SP SP+0
        CFI (cfiCond108) CFA_XSP16 add(XSP16, 14)
        CFI Block cfiCond109 Using cfiCommon0
        CFI (cfiCond109) NoFunction
        CFI (cfiCond109) Conditional ??CrossCallReturnLabel_214, ??CrossCallReturnLabel_211
        CFI (cfiCond109) R6 load(1, XDATA, add(CFA_XSP16, literal(-12)))
        CFI (cfiCond109) VB load(1, XDATA, add(CFA_XSP16, literal(-11)))
        CFI (cfiCond109) V0 load(1, XDATA, add(CFA_XSP16, literal(-10)))
        CFI (cfiCond109) V1 load(1, XDATA, add(CFA_XSP16, literal(-9)))
        CFI (cfiCond109) V2 load(1, XDATA, add(CFA_XSP16, literal(-8)))
        CFI (cfiCond109) V3 load(1, XDATA, add(CFA_XSP16, literal(-7)))
        CFI (cfiCond109) R7 load(1, XDATA, add(CFA_XSP16, literal(-6)))
        CFI (cfiCond109) ?RET_LOW load(1, XDATA, add(CFA_XSP16, literal(-5)))
        CFI (cfiCond109) ?RET_HIGH load(1, XDATA, add(CFA_XSP16, literal(-4)))
        CFI (cfiCond109) ?BRET_EXT load(1, XDATA, add(CFA_XSP16, literal(-3)))
        CFI (cfiCond109) DPL0 load(1, XDATA, add(CFA_XSP16, literal(-2)))
        CFI (cfiCond109) DPH0 load(1, XDATA, add(CFA_XSP16, literal(-1)))
        CFI (cfiCond109) CFA_SP SP+0
        CFI (cfiCond109) CFA_XSP16 add(XSP16, 16)
        CFI Block cfiCond110 Using cfiCommon0
        CFI (cfiCond110) NoFunction
        CFI (cfiCond110) Conditional ??CrossCallReturnLabel_214, ??CrossCallReturnLabel_200
        CFI (cfiCond110) DPL0 Frame(CFA_SP, 4)
        CFI (cfiCond110) DPH0 Frame(CFA_SP, 5)
        CFI (cfiCond110) CFA_SP SP+-5
        CFI Block cfiCond111 Using cfiCommon0
        CFI (cfiCond111) NoFunction
        CFI (cfiCond111) Conditional ??CrossCallReturnLabel_214, ??CrossCallReturnLabel_201
        CFI (cfiCond111) R6 load(1, XDATA, add(CFA_XSP16, literal(-10)))
        CFI (cfiCond111) VB load(1, XDATA, add(CFA_XSP16, literal(-9)))
        CFI (cfiCond111) V0 load(1, XDATA, add(CFA_XSP16, literal(-8)))
        CFI (cfiCond111) V1 load(1, XDATA, add(CFA_XSP16, literal(-7)))
        CFI (cfiCond111) R7 load(1, XDATA, add(CFA_XSP16, literal(-6)))
        CFI (cfiCond111) ?RET_LOW load(1, XDATA, add(CFA_XSP16, literal(-5)))
        CFI (cfiCond111) ?RET_HIGH load(1, XDATA, add(CFA_XSP16, literal(-4)))
        CFI (cfiCond111) ?BRET_EXT load(1, XDATA, add(CFA_XSP16, literal(-3)))
        CFI (cfiCond111) DPL0 load(1, XDATA, add(CFA_XSP16, literal(-2)))
        CFI (cfiCond111) DPH0 load(1, XDATA, add(CFA_XSP16, literal(-1)))
        CFI (cfiCond111) CFA_SP SP+0
        CFI (cfiCond111) CFA_XSP16 add(XSP16, 10)
        CFI Block cfiCond112 Using cfiCommon0
        CFI (cfiCond112) NoFunction
        CFI (cfiCond112) Conditional ??CrossCallReturnLabel_214, ??CrossCallReturnLabel_202
        CFI (cfiCond112) R6 load(1, XDATA, add(CFA_XSP16, literal(-14)))
        CFI (cfiCond112) VB load(1, XDATA, add(CFA_XSP16, literal(-13)))
        CFI (cfiCond112) V0 load(1, XDATA, add(CFA_XSP16, literal(-12)))
        CFI (cfiCond112) V1 load(1, XDATA, add(CFA_XSP16, literal(-11)))
        CFI (cfiCond112) V2 load(1, XDATA, add(CFA_XSP16, literal(-10)))
        CFI (cfiCond112) V3 load(1, XDATA, add(CFA_XSP16, literal(-9)))
        CFI (cfiCond112) V4 load(1, XDATA, add(CFA_XSP16, literal(-8)))
        CFI (cfiCond112) V5 load(1, XDATA, add(CFA_XSP16, literal(-7)))
        CFI (cfiCond112) R7 load(1, XDATA, add(CFA_XSP16, literal(-6)))
        CFI (cfiCond112) ?RET_LOW load(1, XDATA, add(CFA_XSP16, literal(-5)))
        CFI (cfiCond112) ?RET_HIGH load(1, XDATA, add(CFA_XSP16, literal(-4)))
        CFI (cfiCond112) ?BRET_EXT load(1, XDATA, add(CFA_XSP16, literal(-3)))
        CFI (cfiCond112) DPL0 load(1, XDATA, add(CFA_XSP16, literal(-2)))
        CFI (cfiCond112) DPH0 load(1, XDATA, add(CFA_XSP16, literal(-1)))
        CFI (cfiCond112) CFA_SP SP+0
        CFI (cfiCond112) CFA_XSP16 add(XSP16, 14)
        CFI Block cfiCond113 Using cfiCommon0
        CFI (cfiCond113) NoFunction
        CFI (cfiCond113) Conditional ??CrossCallReturnLabel_214, ??CrossCallReturnLabel_203
        CFI (cfiCond113) DPL0 Frame(CFA_SP, 4)
        CFI (cfiCond113) DPH0 Frame(CFA_SP, 5)
        CFI (cfiCond113) CFA_SP SP+-5
        CFI Block cfiCond114 Using cfiCommon0
        CFI (cfiCond114) NoFunction
        CFI (cfiCond114) Conditional ??CrossCallReturnLabel_214, ??CrossCallReturnLabel_204
        CFI (cfiCond114) R6 load(1, XDATA, add(CFA_XSP16, literal(-12)))
        CFI (cfiCond114) VB load(1, XDATA, add(CFA_XSP16, literal(-11)))
        CFI (cfiCond114) V0 load(1, XDATA, add(CFA_XSP16, literal(-10)))
        CFI (cfiCond114) V1 load(1, XDATA, add(CFA_XSP16, literal(-9)))
        CFI (cfiCond114) V2 load(1, XDATA, add(CFA_XSP16, literal(-8)))
        CFI (cfiCond114) V3 load(1, XDATA, add(CFA_XSP16, literal(-7)))
        CFI (cfiCond114) R7 load(1, XDATA, add(CFA_XSP16, literal(-6)))
        CFI (cfiCond114) ?RET_LOW load(1, XDATA, add(CFA_XSP16, literal(-5)))
        CFI (cfiCond114) ?RET_HIGH load(1, XDATA, add(CFA_XSP16, literal(-4)))
        CFI (cfiCond114) ?BRET_EXT load(1, XDATA, add(CFA_XSP16, literal(-3)))
        CFI (cfiCond114) DPL0 load(1, XDATA, add(CFA_XSP16, literal(-2)))
        CFI (cfiCond114) DPH0 load(1, XDATA, add(CFA_XSP16, literal(-1)))
        CFI (cfiCond114) CFA_SP SP+0
        CFI (cfiCond114) CFA_XSP16 add(XSP16, 12)
        CFI Block cfiCond115 Using cfiCommon0
        CFI (cfiCond115) NoFunction
        CFI (cfiCond115) Conditional ??CrossCallReturnLabel_214, ??CrossCallReturnLabel_205
        CFI (cfiCond115) DPL0 Frame(CFA_SP, 4)
        CFI (cfiCond115) DPH0 Frame(CFA_SP, 5)
        CFI (cfiCond115) CFA_SP SP+-5
        CFI Block cfiCond116 Using cfiCommon0
        CFI (cfiCond116) NoFunction
        CFI (cfiCond116) Conditional ??CrossCallReturnLabel_214, ??CrossCallReturnLabel_206
        CFI (cfiCond116) R6 load(1, XDATA, add(CFA_XSP16, literal(-9)))
        CFI (cfiCond116) VB load(1, XDATA, add(CFA_XSP16, literal(-8)))
        CFI (cfiCond116) V0 load(1, XDATA, add(CFA_XSP16, literal(-7)))
        CFI (cfiCond116) R7 load(1, XDATA, add(CFA_XSP16, literal(-6)))
        CFI (cfiCond116) ?RET_LOW load(1, XDATA, add(CFA_XSP16, literal(-5)))
        CFI (cfiCond116) ?RET_HIGH load(1, XDATA, add(CFA_XSP16, literal(-4)))
        CFI (cfiCond116) ?BRET_EXT load(1, XDATA, add(CFA_XSP16, literal(-3)))
        CFI (cfiCond116) DPL0 load(1, XDATA, add(CFA_XSP16, literal(-2)))
        CFI (cfiCond116) DPH0 load(1, XDATA, add(CFA_XSP16, literal(-1)))
        CFI (cfiCond116) CFA_SP SP+0
        CFI (cfiCond116) CFA_XSP16 add(XSP16, 13)
        CFI Block cfiCond117 Using cfiCommon0
        CFI (cfiCond117) NoFunction
        CFI (cfiCond117) Conditional ??CrossCallReturnLabel_214, ??CrossCallReturnLabel_207
        CFI (cfiCond117) R6 load(1, XDATA, add(CFA_XSP16, literal(-10)))
        CFI (cfiCond117) VB load(1, XDATA, add(CFA_XSP16, literal(-9)))
        CFI (cfiCond117) V0 load(1, XDATA, add(CFA_XSP16, literal(-8)))
        CFI (cfiCond117) V1 load(1, XDATA, add(CFA_XSP16, literal(-7)))
        CFI (cfiCond117) R7 load(1, XDATA, add(CFA_XSP16, literal(-6)))
        CFI (cfiCond117) ?RET_LOW load(1, XDATA, add(CFA_XSP16, literal(-5)))
        CFI (cfiCond117) ?RET_HIGH load(1, XDATA, add(CFA_XSP16, literal(-4)))
        CFI (cfiCond117) ?BRET_EXT load(1, XDATA, add(CFA_XSP16, literal(-3)))
        CFI (cfiCond117) DPL0 load(1, XDATA, add(CFA_XSP16, literal(-2)))
        CFI (cfiCond117) DPH0 load(1, XDATA, add(CFA_XSP16, literal(-1)))
        CFI (cfiCond117) CFA_SP SP+0
        CFI (cfiCond117) CFA_XSP16 add(XSP16, 33)
        CFI Block cfiCond118 Using cfiCommon0
        CFI (cfiCond118) NoFunction
        CFI (cfiCond118) Conditional ??CrossCallReturnLabel_214, ??CrossCallReturnLabel_208
        CFI (cfiCond118) R6 load(1, XDATA, add(CFA_XSP16, literal(-9)))
        CFI (cfiCond118) VB load(1, XDATA, add(CFA_XSP16, literal(-8)))
        CFI (cfiCond118) V0 load(1, XDATA, add(CFA_XSP16, literal(-7)))
        CFI (cfiCond118) R7 load(1, XDATA, add(CFA_XSP16, literal(-6)))
        CFI (cfiCond118) ?RET_LOW load(1, XDATA, add(CFA_XSP16, literal(-5)))
        CFI (cfiCond118) ?RET_HIGH load(1, XDATA, add(CFA_XSP16, literal(-4)))
        CFI (cfiCond118) ?BRET_EXT load(1, XDATA, add(CFA_XSP16, literal(-3)))
        CFI (cfiCond118) DPL0 load(1, XDATA, add(CFA_XSP16, literal(-2)))
        CFI (cfiCond118) DPH0 load(1, XDATA, add(CFA_XSP16, literal(-1)))
        CFI (cfiCond118) CFA_SP SP+0
        CFI (cfiCond118) CFA_XSP16 add(XSP16, 19)
        CFI Block cfiCond119 Using cfiCommon0
        CFI (cfiCond119) NoFunction
        CFI (cfiCond119) Conditional ??CrossCallReturnLabel_214, ??CrossCallReturnLabel_209
        CFI (cfiCond119) R6 load(1, XDATA, add(CFA_XSP16, literal(-9)))
        CFI (cfiCond119) VB load(1, XDATA, add(CFA_XSP16, literal(-8)))
        CFI (cfiCond119) V0 load(1, XDATA, add(CFA_XSP16, literal(-7)))
        CFI (cfiCond119) R7 load(1, XDATA, add(CFA_XSP16, literal(-6)))
        CFI (cfiCond119) ?RET_LOW load(1, XDATA, add(CFA_XSP16, literal(-5)))
        CFI (cfiCond119) ?RET_HIGH load(1, XDATA, add(CFA_XSP16, literal(-4)))
        CFI (cfiCond119) ?BRET_EXT load(1, XDATA, add(CFA_XSP16, literal(-3)))
        CFI (cfiCond119) DPL0 load(1, XDATA, add(CFA_XSP16, literal(-2)))
        CFI (cfiCond119) DPH0 load(1, XDATA, add(CFA_XSP16, literal(-1)))
        CFI (cfiCond119) CFA_SP SP+0
        CFI (cfiCond119) CFA_XSP16 add(XSP16, 9)
        CFI Block cfiPicker120 Using cfiCommon1
        CFI (cfiPicker120) NoFunction
        CFI (cfiPicker120) Picker
        LCALL   ?Subroutine79 & 0xFFFF
??CrossCallReturnLabel_252:
        MOV     R1,A
        MOV     A,R0
        ORL     A,R1
        RET
        CFI EndBlock cfiCond100
        CFI EndBlock cfiCond101
        CFI EndBlock cfiCond102
        CFI EndBlock cfiCond103
        CFI EndBlock cfiCond104
        CFI EndBlock cfiCond105
        CFI EndBlock cfiCond106
        CFI EndBlock cfiCond107
        CFI EndBlock cfiCond108
        CFI EndBlock cfiCond109
        CFI EndBlock cfiCond110
        CFI EndBlock cfiCond111
        CFI EndBlock cfiCond112
        CFI EndBlock cfiCond113
        CFI EndBlock cfiCond114
        CFI EndBlock cfiCond115
        CFI EndBlock cfiCond116
        CFI EndBlock cfiCond117
        CFI EndBlock cfiCond118
        CFI EndBlock cfiCond119
        CFI EndBlock cfiPicker120
//  963 
//  964 /******************************************************************************
//  965  * @fn          ZDSecMgrCtrlSet
//  966  *
//  967  * @brief       Set control data.
//  968  *
//  969  * @param       device - [in] valid device data
//  970  * @param       entry  - [in] valid entry data
//  971  * @param       ctrl   - [in] valid control data
//  972  *
//  973  * @return      none
//  974  */

        RSEG BANKED_CODE:CODE:NOROOT(0)
//  975 void ZDSecMgrCtrlSet( ZDSecMgrDevice_t* device,
ZDSecMgrCtrlSet:
        CFI Block cfiBlock121 Using cfiCommon0
        CFI Function ZDSecMgrCtrlSet
        CODE
//  976                       ZDSecMgrEntry_t*  entry,
//  977                       ZDSecMgrCtrl_t*   ctrl )
//  978 {
        MOV     A,#-0x9
        LCALL   ?BANKED_ENTER_XDATA
        CFI DPH0 load(1, XDATA, add(CFA_XSP16, literal(-1)))
        CFI DPL0 load(1, XDATA, add(CFA_XSP16, literal(-2)))
        CFI ?BRET_EXT load(1, XDATA, add(CFA_XSP16, literal(-3)))
        CFI ?RET_HIGH load(1, XDATA, add(CFA_XSP16, literal(-4)))
        CFI ?RET_LOW load(1, XDATA, add(CFA_XSP16, literal(-5)))
        CFI R7 load(1, XDATA, add(CFA_XSP16, literal(-6)))
        CFI V0 load(1, XDATA, add(CFA_XSP16, literal(-7)))
        CFI VB load(1, XDATA, add(CFA_XSP16, literal(-8)))
        CFI R6 load(1, XDATA, add(CFA_XSP16, literal(-9)))
        CFI CFA_SP SP+0
        CFI CFA_XSP16 add(XSP16, 9)
        ; Saved register size: 9
        ; Auto size: 0
        MOV     A,#0x9
        LCALL   ?XSTACK_DISP0_8
        LCALL   ??Subroutine106_0 & 0xFFFF
//  979   // set control date
//  980   ctrl->parentAddr = device->parentAddr;
??CrossCallReturnLabel_229:
        MOV     DPL,R2
        MOV     DPH,R3
        INC     DPTR
        INC     DPTR
        INC     DPTR
        INC     DPTR
        LCALL   ?Subroutine48 & 0xFFFF
??CrossCallReturnLabel_60:
        INC     DPTR
        INC     DPTR
        MOV     A,R6
        MOVX    @DPTR,A
        INC     DPTR
        MOV     A,R7
        LCALL   ?Subroutine21 & 0xFFFF
//  981   ctrl->secure     = device->secure;
??CrossCallReturnLabel_14:
        MOVX    A,@DPTR
        MOV     DPL,R0
        MOV     DPH,R1
        INC     DPTR
        INC     DPTR
        INC     DPTR
        INC     DPTR
        MOVX    @DPTR,A
//  982   ctrl->entry      = entry;
        MOV     DPL,R0
        MOV     DPH,R1
        MOV     A,R4
        MOVX    @DPTR,A
        INC     DPTR
        MOV     A,R5
        LCALL   ?Subroutine22 & 0xFFFF
//  983   ctrl->state      = ZDSECMGR_CTRL_INIT;
??CrossCallReturnLabel_16:
        MOV     A,#0x1
        LCALL   ?Subroutine22 & 0xFFFF
//  984   ctrl->cntr       = 0;
??CrossCallReturnLabel_17:
        INC     DPTR
        CLR     A
        LCALL   ?Subroutine21 & 0xFFFF
//  985 
//  986   // set device pointer
//  987   device->ctrl = ctrl;
??CrossCallReturnLabel_15:
        INC     DPTR
        INC     DPTR
        LCALL   ??Subroutine93_0 & 0xFFFF
//  988 }
??CrossCallReturnLabel_167:
        LJMP    ??Subroutine104_0 & 0xFFFF
        CFI EndBlock cfiBlock121

        RSEG BANKED_CODE:CODE:NOROOT(0)
?Subroutine22:
        CFI Block cfiCond122 Using cfiCommon0
        CFI NoFunction
        CFI Conditional ??CrossCallReturnLabel_16
        CFI R6 load(1, XDATA, add(CFA_XSP16, literal(-9)))
        CFI VB load(1, XDATA, add(CFA_XSP16, literal(-8)))
        CFI V0 load(1, XDATA, add(CFA_XSP16, literal(-7)))
        CFI R7 load(1, XDATA, add(CFA_XSP16, literal(-6)))
        CFI ?RET_LOW load(1, XDATA, add(CFA_XSP16, literal(-5)))
        CFI ?RET_HIGH load(1, XDATA, add(CFA_XSP16, literal(-4)))
        CFI ?BRET_EXT load(1, XDATA, add(CFA_XSP16, literal(-3)))
        CFI DPL0 load(1, XDATA, add(CFA_XSP16, literal(-2)))
        CFI DPH0 load(1, XDATA, add(CFA_XSP16, literal(-1)))
        CFI CFA_SP SP+0
        CFI CFA_XSP16 add(XSP16, 9)
        CFI Block cfiCond123 Using cfiCommon0
        CFI (cfiCond123) NoFunction
        CFI (cfiCond123) Conditional ??CrossCallReturnLabel_17
        CFI (cfiCond123) R6 load(1, XDATA, add(CFA_XSP16, literal(-9)))
        CFI (cfiCond123) VB load(1, XDATA, add(CFA_XSP16, literal(-8)))
        CFI (cfiCond123) V0 load(1, XDATA, add(CFA_XSP16, literal(-7)))
        CFI (cfiCond123) R7 load(1, XDATA, add(CFA_XSP16, literal(-6)))
        CFI (cfiCond123) ?RET_LOW load(1, XDATA, add(CFA_XSP16, literal(-5)))
        CFI (cfiCond123) ?RET_HIGH load(1, XDATA, add(CFA_XSP16, literal(-4)))
        CFI (cfiCond123) ?BRET_EXT load(1, XDATA, add(CFA_XSP16, literal(-3)))
        CFI (cfiCond123) DPL0 load(1, XDATA, add(CFA_XSP16, literal(-2)))
        CFI (cfiCond123) DPH0 load(1, XDATA, add(CFA_XSP16, literal(-1)))
        CFI (cfiCond123) CFA_SP SP+0
        CFI (cfiCond123) CFA_XSP16 add(XSP16, 9)
        CFI Block cfiPicker124 Using cfiCommon1
        CFI (cfiPicker124) NoFunction
        CFI (cfiPicker124) Picker
        MOVX    @DPTR,A
        MOV     DPL,R0
        MOV     DPH,R1
        INC     DPTR
        INC     DPTR
        INC     DPTR
        INC     DPTR
        INC     DPTR
        RET
        CFI EndBlock cfiCond122
        CFI EndBlock cfiCond123
        CFI EndBlock cfiPicker124

        RSEG BANKED_CODE:CODE:NOROOT(0)
?Subroutine21:
        CFI Block cfiCond125 Using cfiCommon0
        CFI NoFunction
        CFI Conditional ??CrossCallReturnLabel_14
        CFI R6 load(1, XDATA, add(CFA_XSP16, literal(-9)))
        CFI VB load(1, XDATA, add(CFA_XSP16, literal(-8)))
        CFI V0 load(1, XDATA, add(CFA_XSP16, literal(-7)))
        CFI R7 load(1, XDATA, add(CFA_XSP16, literal(-6)))
        CFI ?RET_LOW load(1, XDATA, add(CFA_XSP16, literal(-5)))
        CFI ?RET_HIGH load(1, XDATA, add(CFA_XSP16, literal(-4)))
        CFI ?BRET_EXT load(1, XDATA, add(CFA_XSP16, literal(-3)))
        CFI DPL0 load(1, XDATA, add(CFA_XSP16, literal(-2)))
        CFI DPH0 load(1, XDATA, add(CFA_XSP16, literal(-1)))
        CFI CFA_SP SP+0
        CFI CFA_XSP16 add(XSP16, 9)
        CFI Block cfiCond126 Using cfiCommon0
        CFI (cfiCond126) NoFunction
        CFI (cfiCond126) Conditional ??CrossCallReturnLabel_15
        CFI (cfiCond126) R6 load(1, XDATA, add(CFA_XSP16, literal(-9)))
        CFI (cfiCond126) VB load(1, XDATA, add(CFA_XSP16, literal(-8)))
        CFI (cfiCond126) V0 load(1, XDATA, add(CFA_XSP16, literal(-7)))
        CFI (cfiCond126) R7 load(1, XDATA, add(CFA_XSP16, literal(-6)))
        CFI (cfiCond126) ?RET_LOW load(1, XDATA, add(CFA_XSP16, literal(-5)))
        CFI (cfiCond126) ?RET_HIGH load(1, XDATA, add(CFA_XSP16, literal(-4)))
        CFI (cfiCond126) ?BRET_EXT load(1, XDATA, add(CFA_XSP16, literal(-3)))
        CFI (cfiCond126) DPL0 load(1, XDATA, add(CFA_XSP16, literal(-2)))
        CFI (cfiCond126) DPH0 load(1, XDATA, add(CFA_XSP16, literal(-1)))
        CFI (cfiCond126) CFA_SP SP+0
        CFI (cfiCond126) CFA_XSP16 add(XSP16, 9)
        CFI Block cfiPicker127 Using cfiCommon1
        CFI (cfiPicker127) NoFunction
        CFI (cfiPicker127) Picker
        LCALL   ?Subroutine74 & 0xFFFF
??CrossCallReturnLabel_100:
        INC     DPTR
        INC     DPTR
        INC     DPTR
        INC     DPTR
        INC     DPTR
        INC     DPTR
        RET
        CFI EndBlock cfiCond125
        CFI EndBlock cfiCond126
        CFI EndBlock cfiPicker127
//  989 
//  990 /******************************************************************************
//  991  * @fn          ZDSecMgrCtrlAdd
//  992  *
//  993  * @brief       Add control data.
//  994  *
//  995  * @param       device - [in] valid device data
//  996  * @param       entry  - [in] valid entry data
//  997  *
//  998  * @return      ZStatus_t
//  999  */

        RSEG BANKED_CODE:CODE:NOROOT(0)
// 1000 ZStatus_t ZDSecMgrCtrlAdd( ZDSecMgrDevice_t* device, ZDSecMgrEntry_t*  entry )
ZDSecMgrCtrlAdd:
        CFI Block cfiBlock128 Using cfiCommon0
        CFI Function ZDSecMgrCtrlAdd
        CODE
// 1001 {
        FUNCALL ZDSecMgrCtrlAdd, ZDSecMgrCtrlSet
        LOCFRAME ISTACK, 0, STACK
        LOCFRAME PSTACK, 0, STACK
        LOCFRAME XSTACK, 14, STACK
        LOCFRAME IOVERLAY, 0, STATIC
        LOCFRAME DOVERLAY, 0, STATIC
        ARGFRAME ISTACK, 0, STACK
        ARGFRAME PSTACK, 0, STACK
        ARGFRAME XSTACK, 14, STACK
        ARGFRAME IOVERLAY, 0, STATIC
        ARGFRAME DOVERLAY, 0, STATIC
        MOV     A,#-0xc
        LCALL   ?BANKED_ENTER_XDATA
        CFI DPH0 load(1, XDATA, add(CFA_XSP16, literal(-1)))
        CFI DPL0 load(1, XDATA, add(CFA_XSP16, literal(-2)))
        CFI ?BRET_EXT load(1, XDATA, add(CFA_XSP16, literal(-3)))
        CFI ?RET_HIGH load(1, XDATA, add(CFA_XSP16, literal(-4)))
        CFI ?RET_LOW load(1, XDATA, add(CFA_XSP16, literal(-5)))
        CFI R7 load(1, XDATA, add(CFA_XSP16, literal(-6)))
        CFI V3 load(1, XDATA, add(CFA_XSP16, literal(-7)))
        CFI V2 load(1, XDATA, add(CFA_XSP16, literal(-8)))
        CFI V1 load(1, XDATA, add(CFA_XSP16, literal(-9)))
        CFI V0 load(1, XDATA, add(CFA_XSP16, literal(-10)))
        CFI VB load(1, XDATA, add(CFA_XSP16, literal(-11)))
        CFI R6 load(1, XDATA, add(CFA_XSP16, literal(-12)))
        CFI CFA_SP SP+0
        CFI CFA_XSP16 add(XSP16, 12)
        ; Saved register size: 12
        ; Auto size: 0
        MOV     ?V0 + 0,R2
        MOV     ?V0 + 1,R3
        MOV     A,R4
        MOV     R6,A
        MOV     A,R5
        MOV     R7,A
// 1002   ZStatus_t status;
// 1003   uint16    index;
// 1004 
// 1005 
// 1006   // initialize results
// 1007   status = ZNwkUnknownDevice;
        MOV     R4,#-0x38
// 1008 
// 1009   // verify data is available
// 1010   if ( ZDSecMgrCtrlData != NULL )
        MOV     DPTR,#ZDSecMgrCtrlData
        LCALL   ??Subroutine97_0 & 0xFFFF
??CrossCallReturnLabel_204:
        JZ      ??ZDSecMgrCtrlAdd_0
// 1011   {
// 1012     // look for an empty slot
// 1013     for ( index = 0; index < ZDSECMGR_CTRL_MAX; index++ )
        MOV     R0,#0x0
        MOV     R1,#0x0
// 1014     {
// 1015       if ( ZDSecMgrCtrlData[index].state == ZDSECMGR_CTRL_NONE )
??ZDSecMgrCtrlAdd_1:
        MOV     A,R0
        MOV     R2,A
        MOV     A,R1
        MOV     R3,A
        MOV     A,R2
        MOV     B,#0x7
        MUL     AB
        MOV     R2,A
        MOV     R5,B
        MOV     B,#0x7
        MOV     A,R3
        MUL     AB
        ADD     A,R5
        LCALL   ?Subroutine34 & 0xFFFF
??CrossCallReturnLabel_30:
        JNZ     ??ZDSecMgrCtrlAdd_2
// 1016       {
// 1017         // return successful results
// 1018         ZDSecMgrCtrlSet( device, entry, &ZDSecMgrCtrlData[index] );
        ; Setup parameters for call to function ZDSecMgrCtrlSet
        MOV     ?V0 + 2,R2
        MOV     ?V0 + 3,R3
        MOV     R0,#?V0 + 2
        LCALL   ?PUSH_XSTACK_I_TWO
        CFI CFA_XSP16 add(XSP16, 14)
        MOV     A,R6
        MOV     R4,A
        MOV     A,R7
        MOV     R5,A
        MOV     R2,?V0 + 0
        MOV     R3,?V0 + 1
        LCALL   ??ZDSecMgrCtrlSet?relay
        MOV     A,#0x2
        LCALL   ?DEALLOC_XSTACK8
        CFI CFA_XSP16 add(XSP16, 12)
// 1019 
// 1020         status = ZSuccess;
        MOV     R4,#0x0
// 1021 
// 1022         // break from loop
// 1023         index = ZDSECMGR_CTRL_MAX;
        MOV     R0,#0x3
        MOV     R1,#0x0
// 1024       }
// 1025     }
??ZDSecMgrCtrlAdd_2:
        LCALL   ?Subroutine54 & 0xFFFF
// 1026   }
??CrossCallReturnLabel_74:
        JC      ??ZDSecMgrCtrlAdd_1
// 1027 
// 1028   return status;
??ZDSecMgrCtrlAdd_0:
        MOV     A,R4
        MOV     R1,A
        LJMP    ??Subroutine109_0 & 0xFFFF
        CFI EndBlock cfiBlock128
// 1029 }

        RSEG BANKED_CODE:CODE:NOROOT(0)
?Subroutine34:
        CFI Block cfiCond129 Using cfiCommon0
        CFI NoFunction
        CFI Conditional ??CrossCallReturnLabel_29
        CFI R6 load(1, XDATA, add(CFA_XSP16, literal(-10)))
        CFI VB load(1, XDATA, add(CFA_XSP16, literal(-9)))
        CFI V0 load(1, XDATA, add(CFA_XSP16, literal(-8)))
        CFI V1 load(1, XDATA, add(CFA_XSP16, literal(-7)))
        CFI R7 load(1, XDATA, add(CFA_XSP16, literal(-6)))
        CFI ?RET_LOW load(1, XDATA, add(CFA_XSP16, literal(-5)))
        CFI ?RET_HIGH load(1, XDATA, add(CFA_XSP16, literal(-4)))
        CFI ?BRET_EXT load(1, XDATA, add(CFA_XSP16, literal(-3)))
        CFI DPL0 load(1, XDATA, add(CFA_XSP16, literal(-2)))
        CFI DPH0 load(1, XDATA, add(CFA_XSP16, literal(-1)))
        CFI CFA_SP SP+0
        CFI CFA_XSP16 add(XSP16, 10)
        CFI Block cfiCond130 Using cfiCommon0
        CFI (cfiCond130) NoFunction
        CFI (cfiCond130) Conditional ??CrossCallReturnLabel_30
        CFI (cfiCond130) R6 load(1, XDATA, add(CFA_XSP16, literal(-12)))
        CFI (cfiCond130) VB load(1, XDATA, add(CFA_XSP16, literal(-11)))
        CFI (cfiCond130) V0 load(1, XDATA, add(CFA_XSP16, literal(-10)))
        CFI (cfiCond130) V1 load(1, XDATA, add(CFA_XSP16, literal(-9)))
        CFI (cfiCond130) V2 load(1, XDATA, add(CFA_XSP16, literal(-8)))
        CFI (cfiCond130) V3 load(1, XDATA, add(CFA_XSP16, literal(-7)))
        CFI (cfiCond130) R7 load(1, XDATA, add(CFA_XSP16, literal(-6)))
        CFI (cfiCond130) ?RET_LOW load(1, XDATA, add(CFA_XSP16, literal(-5)))
        CFI (cfiCond130) ?RET_HIGH load(1, XDATA, add(CFA_XSP16, literal(-4)))
        CFI (cfiCond130) ?BRET_EXT load(1, XDATA, add(CFA_XSP16, literal(-3)))
        CFI (cfiCond130) DPL0 load(1, XDATA, add(CFA_XSP16, literal(-2)))
        CFI (cfiCond130) DPH0 load(1, XDATA, add(CFA_XSP16, literal(-1)))
        CFI (cfiCond130) CFA_SP SP+0
        CFI (cfiCond130) CFA_XSP16 add(XSP16, 12)
        CFI Block cfiPicker131 Using cfiCommon1
        CFI (cfiPicker131) NoFunction
        CFI (cfiPicker131) Picker
        MOV     R3,A
        MOV     DPTR,#ZDSecMgrCtrlData
        LCALL   ?Subroutine65 & 0xFFFF
??CrossCallReturnLabel_92:
        INC     DPTR
        INC     DPTR
        INC     DPTR
        INC     DPTR
        INC     DPTR
        MOVX    A,@DPTR
        RET
        CFI EndBlock cfiCond129
        CFI EndBlock cfiCond130
        CFI EndBlock cfiPicker131

        RSEG BANKED_CODE:CODE:NOROOT(0)
?Subroutine65:
        CFI Block cfiCond132 Using cfiCommon0
        CFI NoFunction
        CFI Conditional ??CrossCallReturnLabel_93, ??CrossCallReturnLabel_43
        CFI R6 load(1, XDATA, add(CFA_XSP16, literal(-14)))
        CFI VB load(1, XDATA, add(CFA_XSP16, literal(-13)))
        CFI V0 load(1, XDATA, add(CFA_XSP16, literal(-12)))
        CFI V1 load(1, XDATA, add(CFA_XSP16, literal(-11)))
        CFI V2 load(1, XDATA, add(CFA_XSP16, literal(-10)))
        CFI V3 load(1, XDATA, add(CFA_XSP16, literal(-9)))
        CFI V4 load(1, XDATA, add(CFA_XSP16, literal(-8)))
        CFI V5 load(1, XDATA, add(CFA_XSP16, literal(-7)))
        CFI R7 load(1, XDATA, add(CFA_XSP16, literal(-6)))
        CFI ?RET_LOW load(1, XDATA, add(CFA_XSP16, literal(-5)))
        CFI ?RET_HIGH load(1, XDATA, add(CFA_XSP16, literal(-4)))
        CFI ?BRET_EXT load(1, XDATA, add(CFA_XSP16, literal(-3)))
        CFI DPL0 load(1, XDATA, add(CFA_XSP16, literal(-2)))
        CFI DPH0 load(1, XDATA, add(CFA_XSP16, literal(-1)))
        CFI CFA_SP SP+0
        CFI CFA_XSP16 add(XSP16, 14)
        CFI Block cfiCond133 Using cfiCommon0
        CFI (cfiCond133) NoFunction
        CFI (cfiCond133) Conditional ??CrossCallReturnLabel_93, ??CrossCallReturnLabel_44
        CFI (cfiCond133) R6 load(1, XDATA, add(CFA_XSP16, literal(-10)))
        CFI (cfiCond133) VB load(1, XDATA, add(CFA_XSP16, literal(-9)))
        CFI (cfiCond133) V0 load(1, XDATA, add(CFA_XSP16, literal(-8)))
        CFI (cfiCond133) V1 load(1, XDATA, add(CFA_XSP16, literal(-7)))
        CFI (cfiCond133) R7 load(1, XDATA, add(CFA_XSP16, literal(-6)))
        CFI (cfiCond133) ?RET_LOW load(1, XDATA, add(CFA_XSP16, literal(-5)))
        CFI (cfiCond133) ?RET_HIGH load(1, XDATA, add(CFA_XSP16, literal(-4)))
        CFI (cfiCond133) ?BRET_EXT load(1, XDATA, add(CFA_XSP16, literal(-3)))
        CFI (cfiCond133) DPL0 load(1, XDATA, add(CFA_XSP16, literal(-2)))
        CFI (cfiCond133) DPH0 load(1, XDATA, add(CFA_XSP16, literal(-1)))
        CFI (cfiCond133) CFA_SP SP+0
        CFI (cfiCond133) CFA_XSP16 add(XSP16, 10)
        CFI Block cfiCond134 Using cfiCommon0
        CFI (cfiCond134) NoFunction
        CFI (cfiCond134) Conditional ??CrossCallReturnLabel_92, ??CrossCallReturnLabel_29
        CFI (cfiCond134) R6 load(1, XDATA, add(CFA_XSP16, literal(-10)))
        CFI (cfiCond134) VB load(1, XDATA, add(CFA_XSP16, literal(-9)))
        CFI (cfiCond134) V0 load(1, XDATA, add(CFA_XSP16, literal(-8)))
        CFI (cfiCond134) V1 load(1, XDATA, add(CFA_XSP16, literal(-7)))
        CFI (cfiCond134) R7 load(1, XDATA, add(CFA_XSP16, literal(-6)))
        CFI (cfiCond134) ?RET_LOW load(1, XDATA, add(CFA_XSP16, literal(-5)))
        CFI (cfiCond134) ?RET_HIGH load(1, XDATA, add(CFA_XSP16, literal(-4)))
        CFI (cfiCond134) ?BRET_EXT load(1, XDATA, add(CFA_XSP16, literal(-3)))
        CFI (cfiCond134) DPL0 load(1, XDATA, add(CFA_XSP16, literal(-2)))
        CFI (cfiCond134) DPH0 load(1, XDATA, add(CFA_XSP16, literal(-1)))
        CFI (cfiCond134) CFA_SP SP+0
        CFI (cfiCond134) CFA_XSP16 add(XSP16, 10)
        CFI Block cfiCond135 Using cfiCommon0
        CFI (cfiCond135) NoFunction
        CFI (cfiCond135) Conditional ??CrossCallReturnLabel_92, ??CrossCallReturnLabel_30
        CFI (cfiCond135) R6 load(1, XDATA, add(CFA_XSP16, literal(-12)))
        CFI (cfiCond135) VB load(1, XDATA, add(CFA_XSP16, literal(-11)))
        CFI (cfiCond135) V0 load(1, XDATA, add(CFA_XSP16, literal(-10)))
        CFI (cfiCond135) V1 load(1, XDATA, add(CFA_XSP16, literal(-9)))
        CFI (cfiCond135) V2 load(1, XDATA, add(CFA_XSP16, literal(-8)))
        CFI (cfiCond135) V3 load(1, XDATA, add(CFA_XSP16, literal(-7)))
        CFI (cfiCond135) R7 load(1, XDATA, add(CFA_XSP16, literal(-6)))
        CFI (cfiCond135) ?RET_LOW load(1, XDATA, add(CFA_XSP16, literal(-5)))
        CFI (cfiCond135) ?RET_HIGH load(1, XDATA, add(CFA_XSP16, literal(-4)))
        CFI (cfiCond135) ?BRET_EXT load(1, XDATA, add(CFA_XSP16, literal(-3)))
        CFI (cfiCond135) DPL0 load(1, XDATA, add(CFA_XSP16, literal(-2)))
        CFI (cfiCond135) DPH0 load(1, XDATA, add(CFA_XSP16, literal(-1)))
        CFI (cfiCond135) CFA_SP SP+0
        CFI (cfiCond135) CFA_XSP16 add(XSP16, 12)
        CFI Block cfiPicker136 Using cfiCommon1
        CFI (cfiPicker136) NoFunction
        CFI (cfiPicker136) Picker
        MOVX    A,@DPTR
        ADD     A,R2
        MOV     R2,A
        INC     DPTR
        MOVX    A,@DPTR
        ADDC    A,R3
        MOV     R3,A
        MOV     DPL,R2
        MOV     DPH,R3
        RET
        CFI EndBlock cfiCond132
        CFI EndBlock cfiCond133
        CFI EndBlock cfiCond134
        CFI EndBlock cfiCond135
        CFI EndBlock cfiPicker136
// 1030 
// 1031 /******************************************************************************
// 1032  * @fn          ZDSecMgrCtrlTerm
// 1033  *
// 1034  * @brief       Terminate device control.
// 1035  *
// 1036  * @param       entry - [in] valid entry data
// 1037  *
// 1038  * @return      none
// 1039  */

        RSEG BANKED_CODE:CODE:NOROOT(0)
// 1040 void ZDSecMgrCtrlTerm( ZDSecMgrEntry_t* entry )
ZDSecMgrCtrlTerm:
        CFI Block cfiBlock137 Using cfiCommon0
        CFI Function ZDSecMgrCtrlTerm
        CODE
// 1041 {
        FUNCALL ZDSecMgrCtrlTerm, ZDSecMgrCtrlLookup
        LOCFRAME ISTACK, 2, STACK
        LOCFRAME PSTACK, 0, STACK
        LOCFRAME XSTACK, 2, STACK
        LOCFRAME IOVERLAY, 0, STATIC
        LOCFRAME DOVERLAY, 0, STATIC
        ARGFRAME ISTACK, 2, STACK
        ARGFRAME PSTACK, 0, STACK
        ARGFRAME XSTACK, 2, STACK
        ARGFRAME IOVERLAY, 0, STATIC
        ARGFRAME DOVERLAY, 0, STATIC
        PUSH    DPL
        CFI DPL0 Frame(CFA_SP, 4)
        CFI CFA_SP SP+-4
        PUSH    DPH
        CFI DPH0 Frame(CFA_SP, 5)
        CFI CFA_SP SP+-5
        ; Saved register size: 2
        ; Auto size: 2
        MOV     A,#-0x2
        LCALL   ?ALLOC_XSTACK8
        CFI CFA_XSP16 add(XSP16, 2)
// 1042   ZDSecMgrCtrl_t* ctrl;
// 1043 
// 1044   // remove device from control data
// 1045   ZDSecMgrCtrlLookup ( entry, &ctrl );
        ; Setup parameters for call to function ZDSecMgrCtrlLookup
        MOV     DPL,?XSP + 0
        MOV     DPH,?XSP + 1
        MOV     R4,DPL
        MOV     R5,DPH
        LCALL   ??Subroutine95_0 & 0xFFFF
// 1046 
// 1047   if ( ctrl != NULL )
??CrossCallReturnLabel_199:
        JZ      ??ZDSecMgrCtrlTerm_0
// 1048   {
// 1049     ZDSecMgrCtrlRelease ( ctrl );
        MOV     DPL,?XSP + 0
        MOV     DPH,?XSP + 1
        INC     DPTR
        MOVX    A,@DPTR
        MOV     DPH,A
        MOV     DPL,R0
        INC     DPTR
        INC     DPTR
        INC     DPTR
        INC     DPTR
        INC     DPTR
        CLR     A
        MOVX    @DPTR,A
// 1050   }
// 1051 }
??ZDSecMgrCtrlTerm_0:
        MOV     A,#0x2
        SJMP    ??Subroutine84_0
        CFI EndBlock cfiBlock137

        RSEG XDATA_I:XDATA:NOROOT(0)
ZDSecMgrAppKeyType:
        DATA8
        DS 1
        REQUIRE `?<Initializer for ZDSecMgrAppKeyType>`
        REQUIRE __INIT_XDATA_I

        RSEG BANKED_CODE:CODE:NOROOT(0)
?Subroutine4:
        CFI Block cfiBlock138 Using cfiCommon0
        CFI NoFunction
        CFI CFA_SP SP+-5
        CFI CFA_XSP16 add(XSP16, 10)
        CFI DPL0 Frame(CFA_SP, 4)
        CFI DPH0 Frame(CFA_SP, 5)
        MOV     A,#0xa
        CFI EndBlock cfiBlock138
        REQUIRE ??Subroutine84_0
        ; // Fall through to label ??Subroutine84_0

        RSEG BANKED_CODE:CODE:NOROOT(0)
??Subroutine84_0:
        CFI Block cfiBlock139 Using cfiCommon0
        CFI NoFunction
        CFI CFA_SP SP+-5
        CFI CFA_XSP16 add(XSP16, 2)
        CFI DPL0 Frame(CFA_SP, 4)
        CFI DPH0 Frame(CFA_SP, 5)
        CFI Invalid
        LCALL   ?DEALLOC_XSTACK8
        CFI CFA_XSP16 XSP16+0
        CFI Valid
        LJMP    ??Subroutine91_0 & 0xFFFF
        CFI EndBlock cfiBlock139
// 1052 
// 1053 /******************************************************************************
// 1054  * @fn          ZDSecMgrCtrlReset
// 1055  *
// 1056  * @brief       Reset control data.
// 1057  *
// 1058  * @param       device - [in] valid device data
// 1059  * @param       entry  - [in] valid entry data
// 1060  *
// 1061  * @return      ZStatus_t
// 1062  */

        RSEG BANKED_CODE:CODE:NOROOT(0)
// 1063 ZStatus_t ZDSecMgrCtrlReset( ZDSecMgrDevice_t* device, ZDSecMgrEntry_t* entry )
ZDSecMgrCtrlReset:
        CFI Block cfiBlock140 Using cfiCommon0
        CFI Function ZDSecMgrCtrlReset
        CODE
// 1064 {
        FUNCALL ZDSecMgrCtrlReset, ZDSecMgrCtrlLookup
        LOCFRAME ISTACK, 0, STACK
        LOCFRAME PSTACK, 0, STACK
        LOCFRAME XSTACK, 12, STACK
        LOCFRAME IOVERLAY, 0, STATIC
        LOCFRAME DOVERLAY, 0, STATIC
        ARGFRAME ISTACK, 0, STACK
        ARGFRAME PSTACK, 0, STACK
        ARGFRAME XSTACK, 12, STACK
        ARGFRAME IOVERLAY, 0, STATIC
        ARGFRAME DOVERLAY, 0, STATIC
        FUNCALL ZDSecMgrCtrlReset, ZDSecMgrCtrlSet
        LOCFRAME ISTACK, 0, STACK
        LOCFRAME PSTACK, 0, STACK
        LOCFRAME XSTACK, 14, STACK
        LOCFRAME IOVERLAY, 0, STATIC
        LOCFRAME DOVERLAY, 0, STATIC
        ARGFRAME ISTACK, 0, STACK
        ARGFRAME PSTACK, 0, STACK
        ARGFRAME XSTACK, 14, STACK
        ARGFRAME IOVERLAY, 0, STATIC
        ARGFRAME DOVERLAY, 0, STATIC
        FUNCALL ZDSecMgrCtrlReset, ZDSecMgrCtrlAdd
        LOCFRAME ISTACK, 0, STACK
        LOCFRAME PSTACK, 0, STACK
        LOCFRAME XSTACK, 12, STACK
        LOCFRAME IOVERLAY, 0, STATIC
        LOCFRAME DOVERLAY, 0, STATIC
        ARGFRAME ISTACK, 0, STACK
        ARGFRAME PSTACK, 0, STACK
        ARGFRAME XSTACK, 12, STACK
        ARGFRAME IOVERLAY, 0, STATIC
        ARGFRAME DOVERLAY, 0, STATIC
        MOV     A,#-0xa
        LCALL   ?BANKED_ENTER_XDATA
        CFI DPH0 load(1, XDATA, add(CFA_XSP16, literal(-1)))
        CFI DPL0 load(1, XDATA, add(CFA_XSP16, literal(-2)))
        CFI ?BRET_EXT load(1, XDATA, add(CFA_XSP16, literal(-3)))
        CFI ?RET_HIGH load(1, XDATA, add(CFA_XSP16, literal(-4)))
        CFI ?RET_LOW load(1, XDATA, add(CFA_XSP16, literal(-5)))
        CFI R7 load(1, XDATA, add(CFA_XSP16, literal(-6)))
        CFI V1 load(1, XDATA, add(CFA_XSP16, literal(-7)))
        CFI V0 load(1, XDATA, add(CFA_XSP16, literal(-8)))
        CFI VB load(1, XDATA, add(CFA_XSP16, literal(-9)))
        CFI R6 load(1, XDATA, add(CFA_XSP16, literal(-10)))
        CFI CFA_SP SP+0
        CFI CFA_XSP16 add(XSP16, 10)
        ; Saved register size: 10
        ; Auto size: 2
        MOV     A,#-0x2
        LCALL   ?ALLOC_XSTACK8
        CFI CFA_XSP16 add(XSP16, 12)
        MOV     ?V0 + 0,R2
        MOV     ?V0 + 1,R3
        MOV     A,R4
        MOV     R6,A
        MOV     A,R5
        MOV     R7,A
// 1065   ZStatus_t       status;
// 1066   ZDSecMgrCtrl_t* ctrl;
// 1067 
// 1068 
// 1069   // initialize results
// 1070   status = ZNwkUnknownDevice;
// 1071 
// 1072   // look for a match for the entry
// 1073   ZDSecMgrCtrlLookup( entry, &ctrl );
        ; Setup parameters for call to function ZDSecMgrCtrlLookup
        MOV     DPL,?XSP + 0
        MOV     DPH,?XSP + 1
        MOV     R4,DPL
        MOV     R5,DPH
        MOV     A,R6
        MOV     R2,A
        MOV     A,R7
        LCALL   ?Subroutine32 & 0xFFFF
// 1074 
// 1075   if ( ctrl != NULL )
??CrossCallReturnLabel_197:
        JZ      ??ZDSecMgrCtrlReset_0
// 1076   {
// 1077     ZDSecMgrCtrlSet( device, entry, ctrl );
        ; Setup parameters for call to function ZDSecMgrCtrlSet
        MOV     DPL,?XSP + 0
        MOV     DPH,?XSP + 1
        LCALL   ?PUSH_XSTACK8_X_TWO
        CFI CFA_XSP16 add(XSP16, 14)
        MOV     A,R6
        MOV     R4,A
        MOV     A,R7
        MOV     R5,A
        MOV     R2,?V0 + 0
        MOV     R3,?V0 + 1
        LCALL   ??ZDSecMgrCtrlSet?relay
        MOV     A,#0x2
        LCALL   ?DEALLOC_XSTACK8
        CFI CFA_XSP16 add(XSP16, 12)
// 1078 
// 1079     status = ZSuccess;
        MOV     R1,#0x0
        SJMP    ??ZDSecMgrCtrlReset_1
// 1080   }
// 1081   else
// 1082   {
// 1083     status = ZDSecMgrCtrlAdd( device, entry );
??ZDSecMgrCtrlReset_0:
        ; Setup parameters for call to function ZDSecMgrCtrlAdd
        MOV     A,R6
        MOV     R4,A
        MOV     A,R7
        MOV     R5,A
        MOV     R2,?V0 + 0
        MOV     R3,?V0 + 1
        LCALL   ??ZDSecMgrCtrlAdd?relay
// 1084   }
// 1085 
// 1086   return status;
??ZDSecMgrCtrlReset_1:
        LJMP    ??Subroutine99_0 & 0xFFFF
        CFI EndBlock cfiBlock140
// 1087 }
// 1088 
// 1089 /******************************************************************************
// 1090  * @fn          ZDSecMgrMasterKeyLoad
// 1091  *
// 1092  * @brief       Load the MASTER key for device with specified EXT
// 1093  *              address.
// 1094  *
// 1095  * @param       extAddr - [in] EXT address of device
// 1096  * @param       key     - [in] MASTER key shared with device
// 1097  *
// 1098  * @return      ZStatus_t
// 1099  */

        RSEG BANKED_CODE:CODE:NOROOT(0)
// 1100 ZStatus_t ZDSecMgrMasterKeyLoad( uint8* extAddr, uint8* key )
ZDSecMgrMasterKeyLoad:
        CFI Block cfiBlock141 Using cfiCommon0
        CFI Function ZDSecMgrMasterKeyLoad
        CODE
// 1101 {
        FUNCALL ZDSecMgrMasterKeyLoad, ZDSecMgrExtAddrLookup
        LOCFRAME ISTACK, 0, STACK
        LOCFRAME PSTACK, 0, STACK
        LOCFRAME XSTACK, 19, STACK
        LOCFRAME IOVERLAY, 0, STATIC
        LOCFRAME DOVERLAY, 0, STATIC
        ARGFRAME ISTACK, 0, STACK
        ARGFRAME PSTACK, 0, STACK
        ARGFRAME XSTACK, 19, STACK
        ARGFRAME IOVERLAY, 0, STATIC
        ARGFRAME DOVERLAY, 0, STATIC
        FUNCALL ZDSecMgrMasterKeyLoad, ZDSecMgrMasterKeyLookup
        LOCFRAME ISTACK, 0, STACK
        LOCFRAME PSTACK, 0, STACK
        LOCFRAME XSTACK, 19, STACK
        LOCFRAME IOVERLAY, 0, STATIC
        LOCFRAME DOVERLAY, 0, STATIC
        ARGFRAME ISTACK, 0, STACK
        ARGFRAME PSTACK, 0, STACK
        ARGFRAME XSTACK, 19, STACK
        ARGFRAME IOVERLAY, 0, STATIC
        ARGFRAME DOVERLAY, 0, STATIC
        FUNCALL ZDSecMgrMasterKeyLoad, osal_memcpy
        LOCFRAME ISTACK, 0, STACK
        LOCFRAME PSTACK, 0, STACK
        LOCFRAME XSTACK, 22, STACK
        LOCFRAME IOVERLAY, 0, STATIC
        LOCFRAME DOVERLAY, 0, STATIC
        ARGFRAME ISTACK, 0, STACK
        ARGFRAME PSTACK, 0, STACK
        ARGFRAME XSTACK, 22, STACK
        ARGFRAME IOVERLAY, 0, STATIC
        ARGFRAME DOVERLAY, 0, STATIC
        FUNCALL ZDSecMgrMasterKeyLoad, ZDSecMgrMasterKeyStore
        LOCFRAME ISTACK, 0, STACK
        LOCFRAME PSTACK, 0, STACK
        LOCFRAME XSTACK, 19, STACK
        LOCFRAME IOVERLAY, 0, STATIC
        LOCFRAME DOVERLAY, 0, STATIC
        ARGFRAME ISTACK, 0, STACK
        ARGFRAME PSTACK, 0, STACK
        ARGFRAME XSTACK, 19, STACK
        ARGFRAME IOVERLAY, 0, STATIC
        ARGFRAME DOVERLAY, 0, STATIC
        MOV     A,#-0xf
        LCALL   ?BANKED_ENTER_XDATA
        CFI DPH0 load(1, XDATA, add(CFA_XSP16, literal(-1)))
        CFI DPL0 load(1, XDATA, add(CFA_XSP16, literal(-2)))
        CFI ?BRET_EXT load(1, XDATA, add(CFA_XSP16, literal(-3)))
        CFI ?RET_HIGH load(1, XDATA, add(CFA_XSP16, literal(-4)))
        CFI ?RET_LOW load(1, XDATA, add(CFA_XSP16, literal(-5)))
        CFI R7 load(1, XDATA, add(CFA_XSP16, literal(-6)))
        CFI V6 load(1, XDATA, add(CFA_XSP16, literal(-7)))
        CFI V5 load(1, XDATA, add(CFA_XSP16, literal(-8)))
        CFI V4 load(1, XDATA, add(CFA_XSP16, literal(-9)))
        CFI V3 load(1, XDATA, add(CFA_XSP16, literal(-10)))
        CFI V2 load(1, XDATA, add(CFA_XSP16, literal(-11)))
        CFI V1 load(1, XDATA, add(CFA_XSP16, literal(-12)))
        CFI V0 load(1, XDATA, add(CFA_XSP16, literal(-13)))
        CFI VB load(1, XDATA, add(CFA_XSP16, literal(-14)))
        CFI R6 load(1, XDATA, add(CFA_XSP16, literal(-15)))
        CFI CFA_SP SP+0
        CFI CFA_XSP16 add(XSP16, 15)
        ; Saved register size: 15
        ; Auto size: 4
        MOV     A,#-0x4
        LCALL   ?ALLOC_XSTACK8
        CFI CFA_XSP16 add(XSP16, 19)
        MOV     A,R4
        MOV     R6,A
        MOV     A,R5
        MOV     R7,A
// 1102   ZStatus_t status;
// 1103   uint8*    loaded;
// 1104   uint16    ami;
// 1105 
// 1106 
// 1107   // set status based on policy
// 1108   status = ZDSecMgrExtAddrLookup( extAddr, &ami );
        ; Setup parameters for call to function ZDSecMgrExtAddrLookup
        MOV     DPL,?XSP + 0
        MOV     DPH,?XSP + 1
        MOV     R4,DPL
        MOV     R5,DPH
        LCALL   ??ZDSecMgrExtAddrLookup?relay
        MOV     A,R1
        MOV     ?V0 + 0,A
// 1109 
// 1110   if ( status == ZSuccess )
        JNZ     ??ZDSecMgrMasterKeyLoad_0
// 1111   {
// 1112     // get the address index
// 1113     if ( ZDSecMgrMasterKeyLookup( ami, &loaded ) == ZSuccess )
        ; Setup parameters for call to function ZDSecMgrMasterKeyLookup
        MOV     A,#0x2
        LCALL   ?XSTACK_DISP0_8
        LCALL   ?Subroutine36 & 0xFFFF
??CrossCallReturnLabel_33:
        JNZ     ??ZDSecMgrMasterKeyLoad_1
// 1114     {
// 1115       // overwrite old key
// 1116       osal_memcpy( loaded, key, SEC_KEY_LEN );
        ; Setup parameters for call to function osal_memcpy
        MOV     ?V0 + 4,R6
        MOV     ?V0 + 5,R7
        MOV     ?V0 + 6,#0x0
        MOV     R0,#?V0 + 4
        LCALL   ?PUSH_XSTACK_I_THREE
        CFI CFA_XSP16 add(XSP16, 22)
        MOV     R4,#0x10
        MOV     R5,#0x0
        MOV     A,#0x5
        LCALL   ?XSTACK_DISP0_8
        LCALL   ??Subroutine89_0 & 0xFFFF
// 1117     }
??CrossCallReturnLabel_146:
        LCALL   ??osal_memcpy?relay
        MOV     A,#0x3
        LCALL   ?DEALLOC_XSTACK8
        CFI CFA_XSP16 add(XSP16, 19)
        SJMP    ??ZDSecMgrMasterKeyLoad_0
// 1118     else
// 1119     {
// 1120       // store new key -- NULL will zero key
// 1121       status = ZDSecMgrMasterKeyStore( ami, key );
??ZDSecMgrMasterKeyLoad_1:
        ; Setup parameters for call to function ZDSecMgrMasterKeyStore
        MOV     A,R6
        MOV     R4,A
        MOV     A,R7
        MOV     R5,A
        LCALL   ?Subroutine49 & 0xFFFF
// 1122     }
// 1123   }
??CrossCallReturnLabel_61:
        MOV     A,R1
        MOV     ?V0 + 0,A
// 1124 
// 1125   return status;
??ZDSecMgrMasterKeyLoad_0:
        MOV     R1,?V0 + 0
        MOV     A,#0x4
        LCALL   ?DEALLOC_XSTACK8
        CFI CFA_XSP16 add(XSP16, 15)
        MOV     R7,#0x7
        LJMP    ?BANKED_LEAVE_XDATA
        CFI EndBlock cfiBlock141
// 1126 }
// 1127 
// 1128 /******************************************************************************
// 1129  * @fn          ZDSecMgrAppKeyGet
// 1130  *
// 1131  * @brief       get an APP key - option APP(MASTER or LINK) key
// 1132  *
// 1133  * @param       initNwkAddr - [in] NWK address of initiator device
// 1134  * @param       initExtAddr - [in] EXT address of initiator device
// 1135  * @param       partNwkAddr - [in] NWK address of partner device
// 1136  * @param       partExtAddr - [in] EXT address of partner device
// 1137  * @param       key         - [out] APP(MASTER or LINK) key
// 1138  * @param       keyType     - [out] APP(MASTER or LINK) key type
// 1139  *
// 1140  * @return      ZStatus_t
// 1141  */
// 1142 uint8 ZDSecMgrAppKeyType = KEY_TYPE_APP_LINK;    // Set the default key type
// 1143                                                  // to KEY_TYPE_APP_LINK since
// 1144                                                  // only specific requirement
// 1145                                                  // right now comes from SE profile
// 1146 

        RSEG BANKED_CODE:CODE:NOROOT(0)
// 1147 ZStatus_t ZDSecMgrAppKeyGet( uint16  initNwkAddr,
ZDSecMgrAppKeyGet:
        CFI Block cfiBlock142 Using cfiCommon0
        CFI Function ZDSecMgrAppKeyGet
        CODE
// 1148                              uint8*  initExtAddr,
// 1149                              uint16  partNwkAddr,
// 1150                              uint8*  partExtAddr,
// 1151                              uint8** key,
// 1152                              uint8*  keyType )
// 1153 {
        FUNCALL ZDSecMgrAppKeyGet, SSP_GetTrueRand
        LOCFRAME ISTACK, 0, STACK
        LOCFRAME PSTACK, 0, STACK
        LOCFRAME XSTACK, 9, STACK
        LOCFRAME IOVERLAY, 0, STATIC
        LOCFRAME DOVERLAY, 0, STATIC
        ARGFRAME ISTACK, 0, STACK
        ARGFRAME PSTACK, 0, STACK
        ARGFRAME XSTACK, 9, STACK
        ARGFRAME IOVERLAY, 0, STATIC
        ARGFRAME DOVERLAY, 0, STATIC
        MOV     A,#-0x9
        LCALL   ?BANKED_ENTER_XDATA
        CFI DPH0 load(1, XDATA, add(CFA_XSP16, literal(-1)))
        CFI DPL0 load(1, XDATA, add(CFA_XSP16, literal(-2)))
        CFI ?BRET_EXT load(1, XDATA, add(CFA_XSP16, literal(-3)))
        CFI ?RET_HIGH load(1, XDATA, add(CFA_XSP16, literal(-4)))
        CFI ?RET_LOW load(1, XDATA, add(CFA_XSP16, literal(-5)))
        CFI R7 load(1, XDATA, add(CFA_XSP16, literal(-6)))
        CFI V0 load(1, XDATA, add(CFA_XSP16, literal(-7)))
        CFI VB load(1, XDATA, add(CFA_XSP16, literal(-8)))
        CFI R6 load(1, XDATA, add(CFA_XSP16, literal(-9)))
        CFI CFA_SP SP+0
        CFI CFA_XSP16 add(XSP16, 9)
        ; Saved register size: 9
        ; Auto size: 0
        MOV     A,#0xd
        LCALL   ?XSTACK_DISP0_8
        LCALL   ??Subroutine106_0 & 0xFFFF
??CrossCallReturnLabel_230:
        MOV     A,#0xf
        LCALL   ?XSTACK_DISP0_8
        LCALL   ?Subroutine48 & 0xFFFF
// 1154   // Intentionally unreferenced parameters
// 1155   (void)initNwkAddr;
// 1156   (void)initExtAddr;
// 1157   (void)partNwkAddr;
// 1158   (void)partExtAddr;
// 1159   
// 1160   //---------------------------------------------------------------------------
// 1161   // note:
// 1162   // should use a robust mechanism to generate keys, for example
// 1163   // combine EXT addresses and call a hash function
// 1164   //---------------------------------------------------------------------------
// 1165   SSP_GetTrueRand( SEC_KEY_LEN, *key );
??CrossCallReturnLabel_59:
        LCALL   ??Subroutine89_0 & 0xFFFF
??CrossCallReturnLabel_147:
        MOV     R1,#0x10
        LCALL   ??SSP_GetTrueRand?relay
// 1166 
// 1167   *keyType = ZDSecMgrAppKeyType;
        MOV     DPTR,#ZDSecMgrAppKeyType
        MOVX    A,@DPTR
        MOV     DPL,R6
        MOV     DPH,R7
        MOVX    @DPTR,A
// 1168 
// 1169   return ZSuccess;
        MOV     R1,#0x0
        LJMP    ??Subroutine104_0 & 0xFFFF
        CFI EndBlock cfiBlock142
// 1170 }

        RSEG BANKED_CODE:CODE:NOROOT(0)
?Subroutine48:
        CFI Block cfiCond143 Using cfiCommon0
        CFI NoFunction
        CFI Conditional ??CrossCallReturnLabel_60
        CFI R6 load(1, XDATA, add(CFA_XSP16, literal(-9)))
        CFI VB load(1, XDATA, add(CFA_XSP16, literal(-8)))
        CFI V0 load(1, XDATA, add(CFA_XSP16, literal(-7)))
        CFI R7 load(1, XDATA, add(CFA_XSP16, literal(-6)))
        CFI ?RET_LOW load(1, XDATA, add(CFA_XSP16, literal(-5)))
        CFI ?RET_HIGH load(1, XDATA, add(CFA_XSP16, literal(-4)))
        CFI ?BRET_EXT load(1, XDATA, add(CFA_XSP16, literal(-3)))
        CFI DPL0 load(1, XDATA, add(CFA_XSP16, literal(-2)))
        CFI DPH0 load(1, XDATA, add(CFA_XSP16, literal(-1)))
        CFI CFA_SP SP+0
        CFI CFA_XSP16 add(XSP16, 9)
        CFI Block cfiCond144 Using cfiCommon0
        CFI (cfiCond144) NoFunction
        CFI (cfiCond144) Conditional ??CrossCallReturnLabel_59
        CFI (cfiCond144) R6 load(1, XDATA, add(CFA_XSP16, literal(-9)))
        CFI (cfiCond144) VB load(1, XDATA, add(CFA_XSP16, literal(-8)))
        CFI (cfiCond144) V0 load(1, XDATA, add(CFA_XSP16, literal(-7)))
        CFI (cfiCond144) R7 load(1, XDATA, add(CFA_XSP16, literal(-6)))
        CFI (cfiCond144) ?RET_LOW load(1, XDATA, add(CFA_XSP16, literal(-5)))
        CFI (cfiCond144) ?RET_HIGH load(1, XDATA, add(CFA_XSP16, literal(-4)))
        CFI (cfiCond144) ?BRET_EXT load(1, XDATA, add(CFA_XSP16, literal(-3)))
        CFI (cfiCond144) DPL0 load(1, XDATA, add(CFA_XSP16, literal(-2)))
        CFI (cfiCond144) DPH0 load(1, XDATA, add(CFA_XSP16, literal(-1)))
        CFI (cfiCond144) CFA_SP SP+0
        CFI (cfiCond144) CFA_XSP16 add(XSP16, 9)
        CFI Block cfiPicker145 Using cfiCommon1
        CFI (cfiPicker145) NoFunction
        CFI (cfiPicker145) Picker
        MOVX    A,@DPTR
        MOV     R6,A
        INC     DPTR
        MOVX    A,@DPTR
        MOV     R7,A
        ; Setup parameters for call to function SSP_GetTrueRand
        MOV     DPL,R0
        MOV     DPH,R1
        RET
        CFI EndBlock cfiCond143
        CFI EndBlock cfiCond144
        CFI EndBlock cfiPicker145
// 1171 
// 1172 /******************************************************************************
// 1173  * @fn          ZDSecMgrAppKeyReq
// 1174  *
// 1175  * @brief       Process request for APP key between two devices.
// 1176  *
// 1177  * @param       device - [in] ZDO_RequestKeyInd_t, request info
// 1178  *
// 1179  * @return      none
// 1180  */

        RSEG BANKED_CODE:CODE:NOROOT(0)
// 1181 void ZDSecMgrAppKeyReq( ZDO_RequestKeyInd_t* ind )
ZDSecMgrAppKeyReq:
        CFI Block cfiBlock146 Using cfiCommon0
        CFI Function ZDSecMgrAppKeyReq
        CODE
// 1182 {
        FUNCALL ZDSecMgrAppKeyReq, APSME_LookupNwkAddr
        LOCFRAME ISTACK, 0, STACK
        LOCFRAME PSTACK, 0, STACK
        LOCFRAME XSTACK, 49, STACK
        LOCFRAME IOVERLAY, 0, STATIC
        LOCFRAME DOVERLAY, 0, STATIC
        ARGFRAME ISTACK, 0, STACK
        ARGFRAME PSTACK, 0, STACK
        ARGFRAME XSTACK, 49, STACK
        ARGFRAME IOVERLAY, 0, STATIC
        ARGFRAME DOVERLAY, 0, STATIC
        FUNCALL ZDSecMgrAppKeyReq, APSME_LookupExtAddr
        LOCFRAME ISTACK, 0, STACK
        LOCFRAME PSTACK, 0, STACK
        LOCFRAME XSTACK, 49, STACK
        LOCFRAME IOVERLAY, 0, STATIC
        LOCFRAME DOVERLAY, 0, STATIC
        ARGFRAME ISTACK, 0, STACK
        ARGFRAME PSTACK, 0, STACK
        ARGFRAME XSTACK, 49, STACK
        ARGFRAME IOVERLAY, 0, STATIC
        ARGFRAME DOVERLAY, 0, STATIC
        FUNCALL ZDSecMgrAppKeyReq, SSP_GetTrueRand
        LOCFRAME ISTACK, 0, STACK
        LOCFRAME PSTACK, 0, STACK
        LOCFRAME XSTACK, 49, STACK
        LOCFRAME IOVERLAY, 0, STATIC
        LOCFRAME DOVERLAY, 0, STATIC
        ARGFRAME ISTACK, 0, STACK
        ARGFRAME PSTACK, 0, STACK
        ARGFRAME XSTACK, 49, STACK
        ARGFRAME IOVERLAY, 0, STATIC
        ARGFRAME DOVERLAY, 0, STATIC
        FUNCALL ZDSecMgrAppKeyReq, APSME_TransportKeyReq
        LOCFRAME ISTACK, 0, STACK
        LOCFRAME PSTACK, 0, STACK
        LOCFRAME XSTACK, 49, STACK
        LOCFRAME IOVERLAY, 0, STATIC
        LOCFRAME DOVERLAY, 0, STATIC
        ARGFRAME ISTACK, 0, STACK
        ARGFRAME PSTACK, 0, STACK
        ARGFRAME XSTACK, 49, STACK
        ARGFRAME IOVERLAY, 0, STATIC
        ARGFRAME DOVERLAY, 0, STATIC
        FUNCALL ZDSecMgrAppKeyReq, APSME_TransportKeyReq
        LOCFRAME ISTACK, 0, STACK
        LOCFRAME PSTACK, 0, STACK
        LOCFRAME XSTACK, 49, STACK
        LOCFRAME IOVERLAY, 0, STATIC
        LOCFRAME DOVERLAY, 0, STATIC
        ARGFRAME ISTACK, 0, STACK
        ARGFRAME PSTACK, 0, STACK
        ARGFRAME XSTACK, 49, STACK
        ARGFRAME IOVERLAY, 0, STATIC
        ARGFRAME DOVERLAY, 0, STATIC
        MOV     A,#-0xa
        LCALL   ?BANKED_ENTER_XDATA
        CFI DPH0 load(1, XDATA, add(CFA_XSP16, literal(-1)))
        CFI DPL0 load(1, XDATA, add(CFA_XSP16, literal(-2)))
        CFI ?BRET_EXT load(1, XDATA, add(CFA_XSP16, literal(-3)))
        CFI ?RET_HIGH load(1, XDATA, add(CFA_XSP16, literal(-4)))
        CFI ?RET_LOW load(1, XDATA, add(CFA_XSP16, literal(-5)))
        CFI R7 load(1, XDATA, add(CFA_XSP16, literal(-6)))
        CFI V1 load(1, XDATA, add(CFA_XSP16, literal(-7)))
        CFI V0 load(1, XDATA, add(CFA_XSP16, literal(-8)))
        CFI VB load(1, XDATA, add(CFA_XSP16, literal(-9)))
        CFI R6 load(1, XDATA, add(CFA_XSP16, literal(-10)))
        CFI CFA_SP SP+0
        CFI CFA_XSP16 add(XSP16, 10)
        ; Saved register size: 10
        ; Auto size: 39
        MOV     A,#-0x27
        LCALL   ?ALLOC_XSTACK8
        CFI CFA_XSP16 add(XSP16, 49)
        MOV     A,R2
        MOV     R6,A
        MOV     A,R3
        MOV     R7,A
// 1183   APSME_TransportKeyReq_t req;
// 1184   uint8                   initExtAddr[Z_EXTADDR_LEN];
// 1185   uint16                  partNwkAddr;
// 1186   uint8                   key[SEC_KEY_LEN];
// 1187 
// 1188 
// 1189   // validate initiator and partner
// 1190   if ( ( APSME_LookupNwkAddr( ind->partExtAddr, &partNwkAddr ) == TRUE ) &&
// 1191        ( APSME_LookupExtAddr( ind->srcAddr, initExtAddr ) == TRUE      )   )
        MOV     A,R6
        ADD     A,#0x5
        LCALL   ?Subroutine58 & 0xFFFF
??CrossCallReturnLabel_79:
        MOV     R4,DPL
        MOV     R5,DPH
        MOV     R2,?V0 + 0
        MOV     R3,A
        LCALL   ??APSME_LookupNwkAddr?relay
        MOV     A,R1
        XRL     A,#0x1
        JZ      $+5
        LJMP    ??ZDSecMgrAppKeyReq_0 & 0xFFFF
        MOV     A,R6
        ADD     A,#0x2
        INC     R6
        INC     R6
        MOV     A,R7
        ADDC    A,#0x0
        MOV     R7,A
        ; Setup parameters for call to function APSME_LookupExtAddr
        MOV     A,#0xf
        LCALL   ?XSTACK_DISP0_8
        MOV     R4,DPL
        MOV     R5,DPH
        LCALL   ?Subroutine52 & 0xFFFF
??CrossCallReturnLabel_154:
        LCALL   ??APSME_LookupExtAddr?relay
        MOV     A,R1
        XRL     A,#0x1
        JZ      $+5
        LJMP    ??ZDSecMgrAppKeyReq_0 & 0xFFFF
// 1192   {
// 1193     // point the key to some memory
// 1194     req.key = key;
        MOV     A,#0x17
        LCALL   ?XSTACK_DISP0_8
        MOV     R0,DPL
        MOV     R1,DPH
        MOV     A,#0x6
        LCALL   ?XSTACK_DISP0_8
        LCALL   ??Subroutine93_0 & 0xFFFF
// 1195 
// 1196     // get an APP key - option APP (MASTER or LINK) key
// 1197     if ( ZDSecMgrAppKeyGet( ind->srcAddr,
// 1198                             initExtAddr,
// 1199                             partNwkAddr,
// 1200                             ind->partExtAddr,
// 1201                             &req.key,
// 1202                             &req.keyType ) == ZSuccess )
??CrossCallReturnLabel_168:
        ; Setup parameters for call to function SSP_GetTrueRand
        MOV     A,#0x17
        LCALL   ?XSTACK_DISP0_8
        MOV     R2,DPL
        MOV     R3,DPH
        MOV     R1,#0x10
        LCALL   ??SSP_GetTrueRand?relay
        MOV     DPTR,#ZDSecMgrAppKeyType
        MOVX    A,@DPTR
        PUSH    A
        CFI CFA_SP SP+-1
        MOV     A,#0x4
        LCALL   ?XSTACK_DISP0_8
        POP     A
        CFI CFA_SP SP+0
        MOVX    @DPTR,A
// 1203     {
// 1204       // always secure
// 1205       req.nwkSecure = TRUE;
        MOV     A,#0xc
        LCALL   ?XSTACK_DISP0_8
        MOV     A,#0x1
        MOVX    @DPTR,A
// 1206       req.apsSecure = TRUE;
        MOV     A,#0xb
        LCALL   ?XSTACK_DISP0_8
        MOV     A,#0x1
        MOVX    @DPTR,A
// 1207       req.tunnel    = NULL;
        MOV     A,#0xd
        LCALL   ?XSTACK_DISP0_8
        CLR     A
        MOVX    @DPTR,A
        INC     DPTR
        LCALL   ?Subroutine31 & 0xFFFF
// 1208 
// 1209       // send key to initiator device
// 1210       req.dstAddr   = ind->srcAddr;
??CrossCallReturnLabel_27:
        MOV     R1,A
        MOV     A,#0x2
        LCALL   ?XSTACK_DISP0_8
        LCALL   ??Subroutine93_0 & 0xFFFF
// 1211       req.extAddr   = ind->partExtAddr;
??CrossCallReturnLabel_169:
        MOV     A,#0x8
        LCALL   ?XSTACK_DISP0_8
        MOV     A,?V0 + 0
        MOVX    @DPTR,A
        INC     DPTR
        MOV     A,?V0 + 1
        MOVX    @DPTR,A
// 1212       req.initiator = TRUE;
        MOV     A,#0xa
        LCALL   ?XSTACK_DISP0_8
        MOV     A,#0x1
        MOVX    @DPTR,A
// 1213       APSME_TransportKeyReq( &req );
        ; Setup parameters for call to function APSME_TransportKeyReq
        INC     A
        LCALL   ?XSTACK_DISP0_8
        MOV     R2,DPL
        MOV     R3,DPH
        LCALL   ??APSME_TransportKeyReq?relay
// 1214 
// 1215       // send key to partner device
// 1216       req.dstAddr   = partNwkAddr;
        MOV     DPL,?XSP + 0
        MOV     DPH,?XSP + 1
        LCALL   ?Subroutine43 & 0xFFFF
??CrossCallReturnLabel_50:
        LCALL   ?XSTACK_DISP0_8
        LCALL   ??Subroutine93_0 & 0xFFFF
// 1217       req.extAddr   = initExtAddr;
??CrossCallReturnLabel_170:
        MOV     A,#0xf
        LCALL   ?XSTACK_DISP0_8
        MOV     R0,DPL
        MOV     R1,DPH
        MOV     A,#0x8
        LCALL   ?XSTACK_DISP0_8
        LCALL   ??Subroutine98_0 & 0xFFFF
// 1218       req.initiator = FALSE;
??CrossCallReturnLabel_217:
        LCALL   ?XSTACK_DISP0_8
        CLR     A
        MOVX    @DPTR,A
// 1219 
// 1220       APSME_TransportKeyReq( &req );
        ; Setup parameters for call to function APSME_TransportKeyReq
        MOV     A,#0x2
        LCALL   ?XSTACK_DISP0_8
        MOV     R2,DPL
        MOV     R3,DPH
        LCALL   ??APSME_TransportKeyReq?relay
// 1221     }
// 1222   }
// 1223 }
??ZDSecMgrAppKeyReq_0:
        MOV     A,#0x27
        LJMP    ??Subroutine100_0 & 0xFFFF
        CFI EndBlock cfiBlock146
// 1224 
// 1225 /******************************************************************************
// 1226  * @fn          ZDSecMgrEstablishKey
// 1227  *
// 1228  * @brief       Start SKKE with device joining network.
// 1229  *
// 1230  * @param       device - [in] ZDSecMgrDevice_t, device info
// 1231  *
// 1232  * @return      ZStatus_t
// 1233  */

        RSEG BANKED_CODE:CODE:NOROOT(0)
// 1234 ZStatus_t ZDSecMgrEstablishKey( ZDSecMgrDevice_t* device )
ZDSecMgrEstablishKey:
        CFI Block cfiBlock147 Using cfiCommon0
        CFI Function ZDSecMgrEstablishKey
        CODE
// 1235 {
        FUNCALL ZDSecMgrEstablishKey, NLME_GetShortAddr
        LOCFRAME ISTACK, 0, STACK
        LOCFRAME PSTACK, 0, STACK
        LOCFRAME XSTACK, 17, STACK
        LOCFRAME IOVERLAY, 0, STATIC
        LOCFRAME DOVERLAY, 0, STATIC
        ARGFRAME ISTACK, 0, STACK
        ARGFRAME PSTACK, 0, STACK
        ARGFRAME XSTACK, 17, STACK
        ARGFRAME IOVERLAY, 0, STATIC
        ARGFRAME DOVERLAY, 0, STATIC
        FUNCALL ZDSecMgrEstablishKey, APSME_EstablishKeyReq
        LOCFRAME ISTACK, 0, STACK
        LOCFRAME PSTACK, 0, STACK
        LOCFRAME XSTACK, 17, STACK
        LOCFRAME IOVERLAY, 0, STATIC
        LOCFRAME DOVERLAY, 0, STATIC
        ARGFRAME ISTACK, 0, STACK
        ARGFRAME PSTACK, 0, STACK
        ARGFRAME XSTACK, 17, STACK
        ARGFRAME IOVERLAY, 0, STATIC
        ARGFRAME DOVERLAY, 0, STATIC
        MOV     A,#-0xa
        LCALL   ?BANKED_ENTER_XDATA
        CFI DPH0 load(1, XDATA, add(CFA_XSP16, literal(-1)))
        CFI DPL0 load(1, XDATA, add(CFA_XSP16, literal(-2)))
        CFI ?BRET_EXT load(1, XDATA, add(CFA_XSP16, literal(-3)))
        CFI ?RET_HIGH load(1, XDATA, add(CFA_XSP16, literal(-4)))
        CFI ?RET_LOW load(1, XDATA, add(CFA_XSP16, literal(-5)))
        CFI R7 load(1, XDATA, add(CFA_XSP16, literal(-6)))
        CFI V1 load(1, XDATA, add(CFA_XSP16, literal(-7)))
        CFI V0 load(1, XDATA, add(CFA_XSP16, literal(-8)))
        CFI VB load(1, XDATA, add(CFA_XSP16, literal(-9)))
        CFI R6 load(1, XDATA, add(CFA_XSP16, literal(-10)))
        CFI CFA_SP SP+0
        CFI CFA_XSP16 add(XSP16, 10)
        ; Saved register size: 10
        ; Auto size: 7
        MOV     A,#-0x7
        LCALL   ?ALLOC_XSTACK8
        CFI CFA_XSP16 add(XSP16, 17)
        MOV     A,R2
        MOV     R6,A
        MOV     A,R3
        MOV     R7,A
// 1236   ZStatus_t               status;
// 1237   APSME_EstablishKeyReq_t req;
// 1238 
// 1239 
// 1240   req.respExtAddr = device->extAddr;
        MOV     DPL,R6
        MOV     DPH,R7
        INC     DPTR
        INC     DPTR
        LCALL   ?Subroutine43 & 0xFFFF
??CrossCallReturnLabel_51:
        LCALL   ?XSTACK_DISP0_8
        LCALL   ??Subroutine93_0 & 0xFFFF
// 1241   req.method      = APSME_SKKE_METHOD;
??CrossCallReturnLabel_171:
        MOV     A,#0x4
        LCALL   ?XSTACK_DISP0_8
        CLR     A
        MOVX    @DPTR,A
// 1242 
// 1243   if ( device->parentAddr == NLME_GetShortAddr() )
        ; Setup parameters for call to function NLME_GetShortAddr
        LCALL   ?Subroutine45 & 0xFFFF
??CrossCallReturnLabel_227:
        MOV     A,R2
        XRL     A,R0
        JNZ     ??ZDSecMgrEstablishKey_0
        MOV     A,R3
        XRL     A,R1
??ZDSecMgrEstablishKey_0:
        JNZ     ??ZDSecMgrEstablishKey_1
// 1244   {
// 1245     req.dstAddr   = device->nwkAddr;
        MOV     DPL,R6
        MOV     DPH,R7
        LCALL   ??Subroutine106_0 & 0xFFFF
??CrossCallReturnLabel_231:
        LCALL   ?Subroutine28 & 0xFFFF
// 1246     //devtag.0604.todo - remove obsolete
// 1247     req.apsSecure = FALSE;
??CrossCallReturnLabel_124:
        LCALL   ?XSTACK_DISP0_8
        CLR     A
        MOVX    @DPTR,A
// 1248     req.nwkSecure = FALSE;
        MOV     A,#0x6
        LCALL   ?XSTACK_DISP0_8
        CLR     A
        SJMP    ??ZDSecMgrEstablishKey_2
// 1249   }
// 1250   else
// 1251   {
// 1252     req.dstAddr   = device->parentAddr;
??ZDSecMgrEstablishKey_1:
        LCALL   ?Subroutine28 & 0xFFFF
// 1253     //devtag.0604.todo - remove obsolete
// 1254     req.apsSecure = TRUE;
??CrossCallReturnLabel_125:
        LCALL   ?XSTACK_DISP0_8
        MOV     A,#0x1
        MOVX    @DPTR,A
// 1255     req.nwkSecure = TRUE;
        MOV     A,#0x6
        LCALL   ?XSTACK_DISP0_8
        MOV     A,#0x1
// 1256   }
??ZDSecMgrEstablishKey_2:
        LCALL   ??Subroutine94_0 & 0xFFFF
// 1257 
// 1258   status = APSME_EstablishKeyReq( &req );
// 1259 
// 1260   return status;
??CrossCallReturnLabel_185:
        LCALL   ??APSME_EstablishKeyReq?relay
        MOV     A,#0x7
        LJMP    ??Subroutine100_0 & 0xFFFF
        CFI EndBlock cfiBlock147
// 1261 }

        RSEG BANKED_CODE:CODE:NOROOT(0)
?Subroutine43:
        CFI Block cfiCond148 Using cfiCommon0
        CFI NoFunction
        CFI Conditional ??CrossCallReturnLabel_50
        CFI R6 load(1, XDATA, add(CFA_XSP16, literal(-10)))
        CFI VB load(1, XDATA, add(CFA_XSP16, literal(-9)))
        CFI V0 load(1, XDATA, add(CFA_XSP16, literal(-8)))
        CFI V1 load(1, XDATA, add(CFA_XSP16, literal(-7)))
        CFI R7 load(1, XDATA, add(CFA_XSP16, literal(-6)))
        CFI ?RET_LOW load(1, XDATA, add(CFA_XSP16, literal(-5)))
        CFI ?RET_HIGH load(1, XDATA, add(CFA_XSP16, literal(-4)))
        CFI ?BRET_EXT load(1, XDATA, add(CFA_XSP16, literal(-3)))
        CFI DPL0 load(1, XDATA, add(CFA_XSP16, literal(-2)))
        CFI DPH0 load(1, XDATA, add(CFA_XSP16, literal(-1)))
        CFI CFA_SP SP+0
        CFI CFA_XSP16 add(XSP16, 49)
        CFI Block cfiCond149 Using cfiCommon0
        CFI (cfiCond149) NoFunction
        CFI (cfiCond149) Conditional ??CrossCallReturnLabel_51
        CFI (cfiCond149) R6 load(1, XDATA, add(CFA_XSP16, literal(-10)))
        CFI (cfiCond149) VB load(1, XDATA, add(CFA_XSP16, literal(-9)))
        CFI (cfiCond149) V0 load(1, XDATA, add(CFA_XSP16, literal(-8)))
        CFI (cfiCond149) V1 load(1, XDATA, add(CFA_XSP16, literal(-7)))
        CFI (cfiCond149) R7 load(1, XDATA, add(CFA_XSP16, literal(-6)))
        CFI (cfiCond149) ?RET_LOW load(1, XDATA, add(CFA_XSP16, literal(-5)))
        CFI (cfiCond149) ?RET_HIGH load(1, XDATA, add(CFA_XSP16, literal(-4)))
        CFI (cfiCond149) ?BRET_EXT load(1, XDATA, add(CFA_XSP16, literal(-3)))
        CFI (cfiCond149) DPL0 load(1, XDATA, add(CFA_XSP16, literal(-2)))
        CFI (cfiCond149) DPH0 load(1, XDATA, add(CFA_XSP16, literal(-1)))
        CFI (cfiCond149) CFA_SP SP+0
        CFI (cfiCond149) CFA_XSP16 add(XSP16, 17)
        CFI Block cfiCond150 Using cfiCommon0
        CFI (cfiCond150) NoFunction
        CFI (cfiCond150) Conditional ??CrossCallReturnLabel_52
        CFI (cfiCond150) DPL0 Frame(CFA_SP, 4)
        CFI (cfiCond150) DPH0 Frame(CFA_SP, 5)
        CFI (cfiCond150) CFA_SP SP+-5
        CFI (cfiCond150) CFA_XSP16 add(XSP16, 8)
        CFI Block cfiPicker151 Using cfiCommon1
        CFI (cfiPicker151) NoFunction
        CFI (cfiPicker151) Picker
        LCALL   ??Subroutine107_0 & 0xFFFF
??CrossCallReturnLabel_243:
        MOV     A,#0x2
        RET
        CFI EndBlock cfiCond148
        CFI EndBlock cfiCond149
        CFI EndBlock cfiCond150
        CFI EndBlock cfiPicker151

        RSEG BANKED_CODE:CODE:NOROOT(0)
?Subroutine28:
        CFI Block cfiCond152 Using cfiCommon0
        CFI NoFunction
        CFI Conditional ??CrossCallReturnLabel_124
        CFI R6 load(1, XDATA, add(CFA_XSP16, literal(-10)))
        CFI VB load(1, XDATA, add(CFA_XSP16, literal(-9)))
        CFI V0 load(1, XDATA, add(CFA_XSP16, literal(-8)))
        CFI V1 load(1, XDATA, add(CFA_XSP16, literal(-7)))
        CFI R7 load(1, XDATA, add(CFA_XSP16, literal(-6)))
        CFI ?RET_LOW load(1, XDATA, add(CFA_XSP16, literal(-5)))
        CFI ?RET_HIGH load(1, XDATA, add(CFA_XSP16, literal(-4)))
        CFI ?BRET_EXT load(1, XDATA, add(CFA_XSP16, literal(-3)))
        CFI DPL0 load(1, XDATA, add(CFA_XSP16, literal(-2)))
        CFI DPH0 load(1, XDATA, add(CFA_XSP16, literal(-1)))
        CFI CFA_SP SP+0
        CFI CFA_XSP16 add(XSP16, 17)
        CFI Block cfiCond153 Using cfiCommon0
        CFI (cfiCond153) NoFunction
        CFI (cfiCond153) Conditional ??CrossCallReturnLabel_125
        CFI (cfiCond153) R6 load(1, XDATA, add(CFA_XSP16, literal(-10)))
        CFI (cfiCond153) VB load(1, XDATA, add(CFA_XSP16, literal(-9)))
        CFI (cfiCond153) V0 load(1, XDATA, add(CFA_XSP16, literal(-8)))
        CFI (cfiCond153) V1 load(1, XDATA, add(CFA_XSP16, literal(-7)))
        CFI (cfiCond153) R7 load(1, XDATA, add(CFA_XSP16, literal(-6)))
        CFI (cfiCond153) ?RET_LOW load(1, XDATA, add(CFA_XSP16, literal(-5)))
        CFI (cfiCond153) ?RET_HIGH load(1, XDATA, add(CFA_XSP16, literal(-4)))
        CFI (cfiCond153) ?BRET_EXT load(1, XDATA, add(CFA_XSP16, literal(-3)))
        CFI (cfiCond153) DPL0 load(1, XDATA, add(CFA_XSP16, literal(-2)))
        CFI (cfiCond153) DPH0 load(1, XDATA, add(CFA_XSP16, literal(-1)))
        CFI (cfiCond153) CFA_SP SP+0
        CFI (cfiCond153) CFA_XSP16 add(XSP16, 17)
        CFI Block cfiPicker154 Using cfiCommon1
        CFI (cfiPicker154) NoFunction
        CFI (cfiPicker154) Picker
        MOV     DPL,?XSP + 0
        MOV     DPH,?XSP + 1
        CFI EndBlock cfiCond152
        CFI EndBlock cfiCond153
        CFI EndBlock cfiPicker154
        REQUIRE ??Subroutine85_0
        ; // Fall through to label ??Subroutine85_0

        RSEG BANKED_CODE:CODE:NOROOT(0)
??Subroutine85_0:
        CFI Block cfiCond155 Using cfiCommon0
        CFI NoFunction
        CFI Conditional ??CrossCallReturnLabel_126
        CFI R6 load(1, XDATA, add(CFA_XSP16, literal(-10)))
        CFI VB load(1, XDATA, add(CFA_XSP16, literal(-9)))
        CFI V0 load(1, XDATA, add(CFA_XSP16, literal(-8)))
        CFI V1 load(1, XDATA, add(CFA_XSP16, literal(-7)))
        CFI R7 load(1, XDATA, add(CFA_XSP16, literal(-6)))
        CFI ?RET_LOW load(1, XDATA, add(CFA_XSP16, literal(-5)))
        CFI ?RET_HIGH load(1, XDATA, add(CFA_XSP16, literal(-4)))
        CFI ?BRET_EXT load(1, XDATA, add(CFA_XSP16, literal(-3)))
        CFI DPL0 load(1, XDATA, add(CFA_XSP16, literal(-2)))
        CFI DPH0 load(1, XDATA, add(CFA_XSP16, literal(-1)))
        CFI CFA_SP SP+0
        CFI CFA_XSP16 add(XSP16, 19)
        CFI Block cfiCond156 Using cfiCommon0
        CFI (cfiCond156) NoFunction
        CFI (cfiCond156) Conditional ??CrossCallReturnLabel_124
        CFI (cfiCond156) R6 load(1, XDATA, add(CFA_XSP16, literal(-10)))
        CFI (cfiCond156) VB load(1, XDATA, add(CFA_XSP16, literal(-9)))
        CFI (cfiCond156) V0 load(1, XDATA, add(CFA_XSP16, literal(-8)))
        CFI (cfiCond156) V1 load(1, XDATA, add(CFA_XSP16, literal(-7)))
        CFI (cfiCond156) R7 load(1, XDATA, add(CFA_XSP16, literal(-6)))
        CFI (cfiCond156) ?RET_LOW load(1, XDATA, add(CFA_XSP16, literal(-5)))
        CFI (cfiCond156) ?RET_HIGH load(1, XDATA, add(CFA_XSP16, literal(-4)))
        CFI (cfiCond156) ?BRET_EXT load(1, XDATA, add(CFA_XSP16, literal(-3)))
        CFI (cfiCond156) DPL0 load(1, XDATA, add(CFA_XSP16, literal(-2)))
        CFI (cfiCond156) DPH0 load(1, XDATA, add(CFA_XSP16, literal(-1)))
        CFI (cfiCond156) CFA_SP SP+0
        CFI (cfiCond156) CFA_XSP16 add(XSP16, 17)
        CFI Block cfiCond157 Using cfiCommon0
        CFI (cfiCond157) NoFunction
        CFI (cfiCond157) Conditional ??CrossCallReturnLabel_125
        CFI (cfiCond157) R6 load(1, XDATA, add(CFA_XSP16, literal(-10)))
        CFI (cfiCond157) VB load(1, XDATA, add(CFA_XSP16, literal(-9)))
        CFI (cfiCond157) V0 load(1, XDATA, add(CFA_XSP16, literal(-8)))
        CFI (cfiCond157) V1 load(1, XDATA, add(CFA_XSP16, literal(-7)))
        CFI (cfiCond157) R7 load(1, XDATA, add(CFA_XSP16, literal(-6)))
        CFI (cfiCond157) ?RET_LOW load(1, XDATA, add(CFA_XSP16, literal(-5)))
        CFI (cfiCond157) ?RET_HIGH load(1, XDATA, add(CFA_XSP16, literal(-4)))
        CFI (cfiCond157) ?BRET_EXT load(1, XDATA, add(CFA_XSP16, literal(-3)))
        CFI (cfiCond157) DPL0 load(1, XDATA, add(CFA_XSP16, literal(-2)))
        CFI (cfiCond157) DPH0 load(1, XDATA, add(CFA_XSP16, literal(-1)))
        CFI (cfiCond157) CFA_SP SP+0
        CFI (cfiCond157) CFA_XSP16 add(XSP16, 17)
        CFI Block cfiPicker158 Using cfiCommon1
        CFI (cfiPicker158) NoFunction
        CFI (cfiPicker158) Picker
        LCALL   ?Subroutine77 & 0xFFFF
??CrossCallReturnLabel_223:
        ; Setup parameters for call to function APSME_RemoveDeviceReq
        MOV     A,#0x5
        RET
        CFI EndBlock cfiCond155
        CFI EndBlock cfiCond156
        CFI EndBlock cfiCond157
        CFI EndBlock cfiPicker158
// 1262 
// 1263 /******************************************************************************
// 1264  * @fn          ZDSecMgrSendMasterKey
// 1265  *
// 1266  * @brief       Send MASTER key to device joining network.
// 1267  *
// 1268  * @param       device - [in] ZDSecMgrDevice_t, device info
// 1269  *
// 1270  * @return      ZStatus_t
// 1271  */

        RSEG BANKED_CODE:CODE:NOROOT(0)
// 1272 ZStatus_t ZDSecMgrSendMasterKey( ZDSecMgrDevice_t* device )
ZDSecMgrSendMasterKey:
        CFI Block cfiBlock159 Using cfiCommon0
        CFI Function ZDSecMgrSendMasterKey
        CODE
// 1273 {
        FUNCALL ZDSecMgrSendMasterKey, ZDSecMgrMasterKeyLookup
        LOCFRAME ISTACK, 0, STACK
        LOCFRAME PSTACK, 0, STACK
        LOCFRAME XSTACK, 23, STACK
        LOCFRAME IOVERLAY, 0, STATIC
        LOCFRAME DOVERLAY, 0, STATIC
        ARGFRAME ISTACK, 0, STACK
        ARGFRAME PSTACK, 0, STACK
        ARGFRAME XSTACK, 23, STACK
        ARGFRAME IOVERLAY, 0, STATIC
        ARGFRAME DOVERLAY, 0, STATIC
        FUNCALL ZDSecMgrSendMasterKey, NLME_GetShortAddr
        LOCFRAME ISTACK, 0, STACK
        LOCFRAME PSTACK, 0, STACK
        LOCFRAME XSTACK, 23, STACK
        LOCFRAME IOVERLAY, 0, STATIC
        LOCFRAME DOVERLAY, 0, STATIC
        ARGFRAME ISTACK, 0, STACK
        ARGFRAME PSTACK, 0, STACK
        ARGFRAME XSTACK, 23, STACK
        ARGFRAME IOVERLAY, 0, STATIC
        ARGFRAME DOVERLAY, 0, STATIC
        FUNCALL ZDSecMgrSendMasterKey, APSME_TransportKeyReq
        LOCFRAME ISTACK, 0, STACK
        LOCFRAME PSTACK, 0, STACK
        LOCFRAME XSTACK, 23, STACK
        LOCFRAME IOVERLAY, 0, STATIC
        LOCFRAME DOVERLAY, 0, STATIC
        ARGFRAME ISTACK, 0, STACK
        ARGFRAME PSTACK, 0, STACK
        ARGFRAME XSTACK, 23, STACK
        ARGFRAME IOVERLAY, 0, STATIC
        ARGFRAME DOVERLAY, 0, STATIC
        MOV     A,#-0xa
        LCALL   ?BANKED_ENTER_XDATA
        CFI DPH0 load(1, XDATA, add(CFA_XSP16, literal(-1)))
        CFI DPL0 load(1, XDATA, add(CFA_XSP16, literal(-2)))
        CFI ?BRET_EXT load(1, XDATA, add(CFA_XSP16, literal(-3)))
        CFI ?RET_HIGH load(1, XDATA, add(CFA_XSP16, literal(-4)))
        CFI ?RET_LOW load(1, XDATA, add(CFA_XSP16, literal(-5)))
        CFI R7 load(1, XDATA, add(CFA_XSP16, literal(-6)))
        CFI V1 load(1, XDATA, add(CFA_XSP16, literal(-7)))
        CFI V0 load(1, XDATA, add(CFA_XSP16, literal(-8)))
        CFI VB load(1, XDATA, add(CFA_XSP16, literal(-9)))
        CFI R6 load(1, XDATA, add(CFA_XSP16, literal(-10)))
        CFI CFA_SP SP+0
        CFI CFA_XSP16 add(XSP16, 10)
        ; Saved register size: 10
        ; Auto size: 13
        MOV     A,#-0xd
        LCALL   ?ALLOC_XSTACK8
        CFI CFA_XSP16 add(XSP16, 23)
        MOV     A,R2
        MOV     R6,A
        MOV     A,R3
        MOV     R7,A
// 1274   ZStatus_t               status;
// 1275   APSME_TransportKeyReq_t req;
// 1276 
// 1277 
// 1278   req.keyType = KEY_TYPE_TC_MASTER;
        MOV     A,#0x2
        LCALL   ?XSTACK_DISP0_8
        CLR     A
        LCALL   ?Subroutine18 & 0xFFFF
// 1279   req.extAddr = device->extAddr;
??CrossCallReturnLabel_8:
        LCALL   ?XSTACK_DISP0_8
        LCALL   ??Subroutine93_0 & 0xFFFF
// 1280   req.tunnel  = NULL;
??CrossCallReturnLabel_172:
        MOV     A,#0xb
        LCALL   ?XSTACK_DISP0_8
        CLR     A
        MOVX    @DPTR,A
        INC     DPTR
        MOVX    @DPTR,A
// 1281 
// 1282   ZDSecMgrMasterKeyLookup( device->ctrl->entry->ami, &req.key );
        ; Setup parameters for call to function ZDSecMgrMasterKeyLookup
        MOV     A,#0x4
        LCALL   ?XSTACK_DISP0_8
        MOV     R4,DPL
        MOV     R5,DPH
        MOV     DPL,R6
        MOV     DPH,R7
        INC     DPTR
        INC     DPTR
        INC     DPTR
        INC     DPTR
        INC     DPTR
        INC     DPTR
        INC     DPTR
        INC     DPTR
        LCALL   ?Subroutine41 & 0xFFFF
??CrossCallReturnLabel_45:
        MOV     DPH,A
        MOV     DPL,R0
        LCALL   ?Subroutine50 & 0xFFFF
// 1283 
// 1284   //check if using secure hop to to parent
// 1285   if ( device->parentAddr != NLME_GetShortAddr() )
??CrossCallReturnLabel_63:
        ; Setup parameters for call to function NLME_GetShortAddr
        LCALL   ?Subroutine45 & 0xFFFF
??CrossCallReturnLabel_228:
        MOV     A,R2
        XRL     A,R0
        JNZ     ??ZDSecMgrSendMasterKey_0
        MOV     A,R3
        XRL     A,R1
??ZDSecMgrSendMasterKey_0:
        JZ      ??ZDSecMgrSendMasterKey_1
// 1286   {
// 1287     //send to parent with security
// 1288     req.dstAddr   = device->parentAddr;
        LCALL   ?Subroutine14 & 0xFFFF
// 1289     req.nwkSecure = TRUE;
??CrossCallReturnLabel_215:
        LCALL   ?XSTACK_DISP0_8
        MOV     A,#0x1
        MOVX    @DPTR,A
// 1290     req.apsSecure = TRUE;
        MOV     A,#0x9
        LCALL   ?XSTACK_DISP0_8
        MOV     A,#0x1
        SJMP    ??ZDSecMgrSendMasterKey_2
// 1291   }
// 1292   else
// 1293   {
// 1294     //direct with no security
// 1295     req.dstAddr   = device->nwkAddr;
??ZDSecMgrSendMasterKey_1:
        MOV     DPL,R6
        MOV     DPH,R7
        LCALL   ??Subroutine106_0 & 0xFFFF
??CrossCallReturnLabel_232:
        LCALL   ?Subroutine14 & 0xFFFF
// 1296     req.nwkSecure = FALSE;
??CrossCallReturnLabel_216:
        LCALL   ?XSTACK_DISP0_8
        CLR     A
        MOVX    @DPTR,A
// 1297     req.apsSecure = FALSE;
        MOV     A,#0x9
        LCALL   ?XSTACK_DISP0_8
        CLR     A
// 1298   }
??ZDSecMgrSendMasterKey_2:
        LCALL   ?Subroutine16 & 0xFFFF
// 1299 
// 1300   status = APSME_TransportKeyReq( &req );
// 1301 
// 1302   return status;
??CrossCallReturnLabel_6:
        LJMP    ?Subroutine8 & 0xFFFF
        CFI EndBlock cfiBlock159
// 1303 }
// 1304 
// 1305 /******************************************************************************
// 1306  * @fn          ZDSecMgrSendNwkKey
// 1307  *
// 1308  * @brief       Send NWK key to device joining network.
// 1309  *
// 1310  * @param       device - [in] ZDSecMgrDevice_t, device info
// 1311  *
// 1312  * @return      ZStatus_t
// 1313  */

        RSEG BANKED_CODE:CODE:NOROOT(0)
// 1314 ZStatus_t ZDSecMgrSendNwkKey( ZDSecMgrDevice_t* device )
ZDSecMgrSendNwkKey:
        CFI Block cfiBlock160 Using cfiCommon0
        CFI Function ZDSecMgrSendNwkKey
        CODE
// 1315 {
        FUNCALL ZDSecMgrSendNwkKey, NLME_GetShortAddr
        LOCFRAME ISTACK, 0, STACK
        LOCFRAME PSTACK, 0, STACK
        LOCFRAME XSTACK, 25, STACK
        LOCFRAME IOVERLAY, 0, STATIC
        LOCFRAME DOVERLAY, 0, STATIC
        ARGFRAME ISTACK, 0, STACK
        ARGFRAME PSTACK, 0, STACK
        ARGFRAME XSTACK, 25, STACK
        ARGFRAME IOVERLAY, 0, STATIC
        ARGFRAME DOVERLAY, 0, STATIC
        FUNCALL ZDSecMgrSendNwkKey, NLME_GetShortAddr
        LOCFRAME ISTACK, 0, STACK
        LOCFRAME PSTACK, 0, STACK
        LOCFRAME XSTACK, 25, STACK
        LOCFRAME IOVERLAY, 0, STATIC
        LOCFRAME DOVERLAY, 0, STATIC
        ARGFRAME ISTACK, 0, STACK
        ARGFRAME PSTACK, 0, STACK
        ARGFRAME XSTACK, 25, STACK
        ARGFRAME IOVERLAY, 0, STATIC
        ARGFRAME DOVERLAY, 0, STATIC
        FUNCALL ZDSecMgrSendNwkKey, APSME_TransportKeyReq
        LOCFRAME ISTACK, 0, STACK
        LOCFRAME PSTACK, 0, STACK
        LOCFRAME XSTACK, 25, STACK
        LOCFRAME IOVERLAY, 0, STATIC
        LOCFRAME DOVERLAY, 0, STATIC
        ARGFRAME ISTACK, 0, STACK
        ARGFRAME PSTACK, 0, STACK
        ARGFRAME XSTACK, 25, STACK
        ARGFRAME IOVERLAY, 0, STATIC
        ARGFRAME DOVERLAY, 0, STATIC
        MOV     A,#-0xc
        LCALL   ?BANKED_ENTER_XDATA
        CFI DPH0 load(1, XDATA, add(CFA_XSP16, literal(-1)))
        CFI DPL0 load(1, XDATA, add(CFA_XSP16, literal(-2)))
        CFI ?BRET_EXT load(1, XDATA, add(CFA_XSP16, literal(-3)))
        CFI ?RET_HIGH load(1, XDATA, add(CFA_XSP16, literal(-4)))
        CFI ?RET_LOW load(1, XDATA, add(CFA_XSP16, literal(-5)))
        CFI R7 load(1, XDATA, add(CFA_XSP16, literal(-6)))
        CFI V3 load(1, XDATA, add(CFA_XSP16, literal(-7)))
        CFI V2 load(1, XDATA, add(CFA_XSP16, literal(-8)))
        CFI V1 load(1, XDATA, add(CFA_XSP16, literal(-9)))
        CFI V0 load(1, XDATA, add(CFA_XSP16, literal(-10)))
        CFI VB load(1, XDATA, add(CFA_XSP16, literal(-11)))
        CFI R6 load(1, XDATA, add(CFA_XSP16, literal(-12)))
        CFI CFA_SP SP+0
        CFI CFA_XSP16 add(XSP16, 12)
        ; Saved register size: 12
        ; Auto size: 13
        MOV     A,#-0xd
        LCALL   ?ALLOC_XSTACK8
        CFI CFA_XSP16 add(XSP16, 25)
        MOV     A,R2
        MOV     R6,A
        MOV     A,R3
        MOV     R7,A
// 1316   ZStatus_t               status;
// 1317   APSME_TransportKeyReq_t req;
// 1318   APSDE_FrameTunnel_t     tunnel;
// 1319 
// 1320   req.dstAddr   = device->nwkAddr;
        MOV     DPL,R6
        MOV     DPH,R7
        LCALL   ?Subroutine44 & 0xFFFF
??CrossCallReturnLabel_53:
        MOV     A,R0
        MOVX    @DPTR,A
        INC     DPTR
        MOV     A,R1
        LCALL   ?Subroutine18 & 0xFFFF
// 1321   req.extAddr   = device->extAddr;
??CrossCallReturnLabel_9:
        LCALL   ?XSTACK_DISP0_8
        LCALL   ??Subroutine88_0 & 0xFFFF
// 1322 
// 1323   if ( ZG_CHECK_SECURITY_MODE == ZG_SECURITY_PRO_HIGH )
// 1324     req.keyType   = KEY_TYPE_NWK_HIGH;
// 1325   else
// 1326     req.keyType   = KEY_TYPE_NWK;
??CrossCallReturnLabel_145:
        LCALL   ?XSTACK_DISP0_8
        MOV     A,#0x1
        MOVX    @DPTR,A
// 1327 
// 1328   if ( (ZG_CHECK_SECURITY_MODE == ZG_SECURITY_PRO_HIGH)
// 1329       || (ZG_CHECK_SECURITY_MODE == ZG_SECURITY_SE_STANDARD) )
// 1330   {
// 1331     // set values
// 1332     req.keySeqNum = _NIB.nwkActiveKey.keySeqNum;
// 1333     req.key       = _NIB.nwkActiveKey.key;
// 1334     //devtag.pro.security.todo - make sure that if there is no link key the NWK
// 1335     //key isn't used to secure the frame at the APS layer -- since the receiving
// 1336     //device may not have a NWK key yet
// 1337     req.apsSecure = TRUE;
// 1338 
// 1339     // check if using secure hop to to parent
// 1340     if ( device->parentAddr == NLME_GetShortAddr() )
// 1341     {
// 1342       req.nwkSecure = FALSE;
// 1343       req.tunnel    = NULL;
// 1344     }
// 1345     else
// 1346     {
// 1347       req.nwkSecure   = TRUE;
// 1348       req.tunnel      = &tunnel;
// 1349       req.tunnel->tna = device->parentAddr;
// 1350       req.tunnel->dea = device->extAddr;
// 1351     }
// 1352   }
// 1353   else
// 1354   {
// 1355     // default values
// 1356     //devtag.0604.verify
// 1357     req.nwkSecure = TRUE;
        MOV     A,#0xa
        LCALL   ?XSTACK_DISP0_8
        MOV     A,#0x1
        MOVX    @DPTR,A
// 1358     req.apsSecure = FALSE;
        MOV     A,#0x9
        LCALL   ?XSTACK_DISP0_8
        CLR     A
        MOVX    @DPTR,A
// 1359     req.tunnel    = NULL;
        MOV     A,#0xb
        LCALL   ?XSTACK_DISP0_8
        CLR     A
        MOVX    @DPTR,A
        INC     DPTR
        MOVX    @DPTR,A
// 1360 
// 1361     if ( device->parentAddr != NLME_GetShortAddr() )
        ; Setup parameters for call to function NLME_GetShortAddr
        LCALL   ??NLME_GetShortAddr?relay
        MOV     ?V0 + 0,R2
        MOV     ?V0 + 1,R3
        MOV     R0,?V0 + 0
        MOV     R1,?V0 + 1
        LCALL   ?Subroutine62 & 0xFFFF
??CrossCallReturnLabel_87:
        MOV     DPL,?V0 + 0
        MOV     DPH,A
        LCALL   ??Subroutine89_0 & 0xFFFF
??CrossCallReturnLabel_148:
        MOV     A,R0
        XRL     A,R2
        JNZ     ??ZDSecMgrSendNwkKey_0
        MOV     A,R1
        XRL     A,R3
??ZDSecMgrSendNwkKey_0:
        JZ      ??CrossCallReturnLabel_131
// 1362     {
// 1363       req.dstAddr = device->parentAddr;
        MOV     DPL,?XSP + 0
        MOV     DPH,?XSP + 1
        LCALL   ??Subroutine86_0 & 0xFFFF
// 1364     }
// 1365 
// 1366     // special cases
// 1367     //devtag.0604.todo - modify to preconfig flag
// 1368     if ( device->secure == FALSE )
??CrossCallReturnLabel_131:
        MOV     DPL,R6
        MOV     DPH,R7
        INC     DPTR
        INC     DPTR
        INC     DPTR
        INC     DPTR
        INC     DPTR
        INC     DPTR
        MOVX    A,@DPTR
        JNZ     ??ZDSecMgrSendNwkKey_1
// 1369     {
// 1370       req.keySeqNum = _NIB.nwkActiveKey.keySeqNum;
        MOV     DPTR,#_NIB + 62
        MOVX    A,@DPTR
        PUSH    A
        CFI CFA_SP SP+-1
        MOV     A,#0x3
        LCALL   ?XSTACK_DISP0_8
        POP     A
        CFI CFA_SP SP+0
        MOVX    @DPTR,A
// 1371       req.key       = _NIB.nwkActiveKey.key;
        MOV     A,#0x4
        LCALL   ?XSTACK_DISP0_8
        MOV     A,#(_NIB + 63) & 0xff
        MOVX    @DPTR,A
        INC     DPTR
        MOV     A,#((_NIB + 63) >> 8) & 0xff
        MOVX    @DPTR,A
// 1372 
// 1373       // check if using secure hop to to parent
// 1374       if ( device->parentAddr == NLME_GetShortAddr() )
        ; Setup parameters for call to function NLME_GetShortAddr
        LCALL   ??NLME_GetShortAddr?relay
        MOV     ?V0 + 2,R2
        MOV     ?V0 + 3,R3
        MOV     R0,?V0 + 2
        MOV     R1,?V0 + 3
        MOV     DPL,?V0 + 0
        MOV     DPH,?V0 + 1
        MOVX    A,@DPTR
        XRL     A,R0
        JNZ     ??ZDSecMgrSendNwkKey_2
        INC     DPTR
        MOVX    A,@DPTR
        XRL     A,R1
??ZDSecMgrSendNwkKey_2:
        JNZ     ??ZDSecMgrSendNwkKey_3
// 1375       {
// 1376         req.nwkSecure = FALSE;
        MOV     A,#0xa
        SJMP    ??ZDSecMgrSendNwkKey_4
// 1377       }
// 1378     }
// 1379     else
// 1380     {
// 1381       req.key       = NULL;
??ZDSecMgrSendNwkKey_1:
        MOV     A,#0x4
        LCALL   ?XSTACK_DISP0_8
        CLR     A
        MOVX    @DPTR,A
        INC     DPTR
        MOVX    @DPTR,A
// 1382       req.keySeqNum = 0;
        MOV     A,#0x3
??ZDSecMgrSendNwkKey_4:
        LCALL   ?XSTACK_DISP0_8
        CLR     A
        MOVX    @DPTR,A
// 1383     }
// 1384   }
// 1385 
// 1386   status = APSME_TransportKeyReq( &req );
// 1387 
// 1388   return status;
??ZDSecMgrSendNwkKey_3:
        ; Setup parameters for call to function APSME_TransportKeyReq
        MOV     DPL,?XSP + 0
        MOV     DPH,?XSP + 1
        MOV     R2,DPL
        MOV     R3,DPH
        LCALL   ??APSME_TransportKeyReq?relay
        MOV     A,#0xd
        LJMP    ??Subroutine108_0 & 0xFFFF
        CFI EndBlock cfiBlock160
// 1389 }

        RSEG BANKED_CODE:CODE:NOROOT(0)
?Subroutine24:
        CFI Block cfiCond161 Using cfiCommon0
        CFI NoFunction
        CFI Conditional ??CrossCallReturnLabel_134
        CFI R6 load(1, XDATA, add(CFA_XSP16, literal(-10)))
        CFI VB load(1, XDATA, add(CFA_XSP16, literal(-9)))
        CFI V0 load(1, XDATA, add(CFA_XSP16, literal(-8)))
        CFI V1 load(1, XDATA, add(CFA_XSP16, literal(-7)))
        CFI R7 load(1, XDATA, add(CFA_XSP16, literal(-6)))
        CFI ?RET_LOW load(1, XDATA, add(CFA_XSP16, literal(-5)))
        CFI ?RET_HIGH load(1, XDATA, add(CFA_XSP16, literal(-4)))
        CFI ?BRET_EXT load(1, XDATA, add(CFA_XSP16, literal(-3)))
        CFI DPL0 load(1, XDATA, add(CFA_XSP16, literal(-2)))
        CFI DPH0 load(1, XDATA, add(CFA_XSP16, literal(-1)))
        CFI CFA_SP SP+0
        CFI CFA_XSP16 add(XSP16, 10)
        CFI Block cfiCond162 Using cfiCommon0
        CFI (cfiCond162) NoFunction
        CFI (cfiCond162) Conditional ??CrossCallReturnLabel_135
        CFI (cfiCond162) R6 load(1, XDATA, add(CFA_XSP16, literal(-9)))
        CFI (cfiCond162) VB load(1, XDATA, add(CFA_XSP16, literal(-8)))
        CFI (cfiCond162) V0 load(1, XDATA, add(CFA_XSP16, literal(-7)))
        CFI (cfiCond162) R7 load(1, XDATA, add(CFA_XSP16, literal(-6)))
        CFI (cfiCond162) ?RET_LOW load(1, XDATA, add(CFA_XSP16, literal(-5)))
        CFI (cfiCond162) ?RET_HIGH load(1, XDATA, add(CFA_XSP16, literal(-4)))
        CFI (cfiCond162) ?BRET_EXT load(1, XDATA, add(CFA_XSP16, literal(-3)))
        CFI (cfiCond162) DPL0 load(1, XDATA, add(CFA_XSP16, literal(-2)))
        CFI (cfiCond162) DPH0 load(1, XDATA, add(CFA_XSP16, literal(-1)))
        CFI (cfiCond162) CFA_SP SP+0
        CFI (cfiCond162) CFA_XSP16 add(XSP16, 11)
        CFI Block cfiPicker163 Using cfiCommon1
        CFI (cfiPicker163) NoFunction
        CFI (cfiPicker163) Picker
        MOV     R3,A
        MOV     DPL,R6
        MOV     DPH,R7
        CFI EndBlock cfiCond161
        CFI EndBlock cfiCond162
        CFI EndBlock cfiPicker163
        REQUIRE ??Subroutine86_0
        ; // Fall through to label ??Subroutine86_0

        RSEG BANKED_CODE:CODE:NOROOT(0)
??Subroutine86_0:
        CFI Block cfiCond164 Using cfiCommon0
        CFI NoFunction
        CFI Conditional ??CrossCallReturnLabel_127
        CFI DPL0 Frame(CFA_SP, 4)
        CFI DPH0 Frame(CFA_SP, 5)
        CFI CFA_SP SP+-5
        CFI Block cfiCond165 Using cfiCommon0
        CFI (cfiCond165) NoFunction
        CFI (cfiCond165) Conditional ??CrossCallReturnLabel_128
        CFI (cfiCond165) R6 load(1, XDATA, add(CFA_XSP16, literal(-9)))
        CFI (cfiCond165) VB load(1, XDATA, add(CFA_XSP16, literal(-8)))
        CFI (cfiCond165) V0 load(1, XDATA, add(CFA_XSP16, literal(-7)))
        CFI (cfiCond165) R7 load(1, XDATA, add(CFA_XSP16, literal(-6)))
        CFI (cfiCond165) ?RET_LOW load(1, XDATA, add(CFA_XSP16, literal(-5)))
        CFI (cfiCond165) ?RET_HIGH load(1, XDATA, add(CFA_XSP16, literal(-4)))
        CFI (cfiCond165) ?BRET_EXT load(1, XDATA, add(CFA_XSP16, literal(-3)))
        CFI (cfiCond165) DPL0 load(1, XDATA, add(CFA_XSP16, literal(-2)))
        CFI (cfiCond165) DPH0 load(1, XDATA, add(CFA_XSP16, literal(-1)))
        CFI (cfiCond165) CFA_SP SP+0
        CFI (cfiCond165) CFA_XSP16 add(XSP16, 22)
        CFI Block cfiCond166 Using cfiCommon0
        CFI (cfiCond166) NoFunction
        CFI (cfiCond166) Conditional ??CrossCallReturnLabel_129
        CFI (cfiCond166) R6 load(1, XDATA, add(CFA_XSP16, literal(-9)))
        CFI (cfiCond166) VB load(1, XDATA, add(CFA_XSP16, literal(-8)))
        CFI (cfiCond166) V0 load(1, XDATA, add(CFA_XSP16, literal(-7)))
        CFI (cfiCond166) R7 load(1, XDATA, add(CFA_XSP16, literal(-6)))
        CFI (cfiCond166) ?RET_LOW load(1, XDATA, add(CFA_XSP16, literal(-5)))
        CFI (cfiCond166) ?RET_HIGH load(1, XDATA, add(CFA_XSP16, literal(-4)))
        CFI (cfiCond166) ?BRET_EXT load(1, XDATA, add(CFA_XSP16, literal(-3)))
        CFI (cfiCond166) DPL0 load(1, XDATA, add(CFA_XSP16, literal(-2)))
        CFI (cfiCond166) DPH0 load(1, XDATA, add(CFA_XSP16, literal(-1)))
        CFI (cfiCond166) CFA_SP SP+0
        CFI (cfiCond166) CFA_XSP16 add(XSP16, 22)
        CFI Block cfiCond167 Using cfiCommon0
        CFI (cfiCond167) NoFunction
        CFI (cfiCond167) Conditional ??CrossCallReturnLabel_130
        CFI (cfiCond167) DPL0 Frame(CFA_SP, 4)
        CFI (cfiCond167) DPH0 Frame(CFA_SP, 5)
        CFI (cfiCond167) CFA_SP SP+-5
        CFI Block cfiCond168 Using cfiCommon0
        CFI (cfiCond168) NoFunction
        CFI (cfiCond168) Conditional ??CrossCallReturnLabel_131
        CFI (cfiCond168) R6 load(1, XDATA, add(CFA_XSP16, literal(-12)))
        CFI (cfiCond168) VB load(1, XDATA, add(CFA_XSP16, literal(-11)))
        CFI (cfiCond168) V0 load(1, XDATA, add(CFA_XSP16, literal(-10)))
        CFI (cfiCond168) V1 load(1, XDATA, add(CFA_XSP16, literal(-9)))
        CFI (cfiCond168) V2 load(1, XDATA, add(CFA_XSP16, literal(-8)))
        CFI (cfiCond168) V3 load(1, XDATA, add(CFA_XSP16, literal(-7)))
        CFI (cfiCond168) R7 load(1, XDATA, add(CFA_XSP16, literal(-6)))
        CFI (cfiCond168) ?RET_LOW load(1, XDATA, add(CFA_XSP16, literal(-5)))
        CFI (cfiCond168) ?RET_HIGH load(1, XDATA, add(CFA_XSP16, literal(-4)))
        CFI (cfiCond168) ?BRET_EXT load(1, XDATA, add(CFA_XSP16, literal(-3)))
        CFI (cfiCond168) DPL0 load(1, XDATA, add(CFA_XSP16, literal(-2)))
        CFI (cfiCond168) DPH0 load(1, XDATA, add(CFA_XSP16, literal(-1)))
        CFI (cfiCond168) CFA_SP SP+0
        CFI (cfiCond168) CFA_XSP16 add(XSP16, 25)
        CFI Block cfiCond169 Using cfiCommon0
        CFI (cfiCond169) NoFunction
        CFI (cfiCond169) Conditional ??CrossCallReturnLabel_132
        CFI (cfiCond169) R6 load(1, XDATA, add(CFA_XSP16, literal(-12)))
        CFI (cfiCond169) VB load(1, XDATA, add(CFA_XSP16, literal(-11)))
        CFI (cfiCond169) V0 load(1, XDATA, add(CFA_XSP16, literal(-10)))
        CFI (cfiCond169) V1 load(1, XDATA, add(CFA_XSP16, literal(-9)))
        CFI (cfiCond169) V2 load(1, XDATA, add(CFA_XSP16, literal(-8)))
        CFI (cfiCond169) V3 load(1, XDATA, add(CFA_XSP16, literal(-7)))
        CFI (cfiCond169) R7 load(1, XDATA, add(CFA_XSP16, literal(-6)))
        CFI (cfiCond169) ?RET_LOW load(1, XDATA, add(CFA_XSP16, literal(-5)))
        CFI (cfiCond169) ?RET_HIGH load(1, XDATA, add(CFA_XSP16, literal(-4)))
        CFI (cfiCond169) ?BRET_EXT load(1, XDATA, add(CFA_XSP16, literal(-3)))
        CFI (cfiCond169) DPL0 load(1, XDATA, add(CFA_XSP16, literal(-2)))
        CFI (cfiCond169) DPH0 load(1, XDATA, add(CFA_XSP16, literal(-1)))
        CFI (cfiCond169) CFA_SP SP+0
        CFI (cfiCond169) CFA_XSP16 add(XSP16, 35)
        CFI Block cfiCond170 Using cfiCommon0
        CFI (cfiCond170) NoFunction
        CFI (cfiCond170) Conditional ??CrossCallReturnLabel_133
        CFI (cfiCond170) R6 load(1, XDATA, add(CFA_XSP16, literal(-10)))
        CFI (cfiCond170) VB load(1, XDATA, add(CFA_XSP16, literal(-9)))
        CFI (cfiCond170) V0 load(1, XDATA, add(CFA_XSP16, literal(-8)))
        CFI (cfiCond170) V1 load(1, XDATA, add(CFA_XSP16, literal(-7)))
        CFI (cfiCond170) R7 load(1, XDATA, add(CFA_XSP16, literal(-6)))
        CFI (cfiCond170) ?RET_LOW load(1, XDATA, add(CFA_XSP16, literal(-5)))
        CFI (cfiCond170) ?RET_HIGH load(1, XDATA, add(CFA_XSP16, literal(-4)))
        CFI (cfiCond170) ?BRET_EXT load(1, XDATA, add(CFA_XSP16, literal(-3)))
        CFI (cfiCond170) DPL0 load(1, XDATA, add(CFA_XSP16, literal(-2)))
        CFI (cfiCond170) DPH0 load(1, XDATA, add(CFA_XSP16, literal(-1)))
        CFI (cfiCond170) CFA_SP SP+0
        CFI (cfiCond170) CFA_XSP16 add(XSP16, 33)
        CFI Block cfiCond171 Using cfiCommon0
        CFI (cfiCond171) NoFunction
        CFI (cfiCond171) Conditional ??CrossCallReturnLabel_134
        CFI (cfiCond171) R6 load(1, XDATA, add(CFA_XSP16, literal(-10)))
        CFI (cfiCond171) VB load(1, XDATA, add(CFA_XSP16, literal(-9)))
        CFI (cfiCond171) V0 load(1, XDATA, add(CFA_XSP16, literal(-8)))
        CFI (cfiCond171) V1 load(1, XDATA, add(CFA_XSP16, literal(-7)))
        CFI (cfiCond171) R7 load(1, XDATA, add(CFA_XSP16, literal(-6)))
        CFI (cfiCond171) ?RET_LOW load(1, XDATA, add(CFA_XSP16, literal(-5)))
        CFI (cfiCond171) ?RET_HIGH load(1, XDATA, add(CFA_XSP16, literal(-4)))
        CFI (cfiCond171) ?BRET_EXT load(1, XDATA, add(CFA_XSP16, literal(-3)))
        CFI (cfiCond171) DPL0 load(1, XDATA, add(CFA_XSP16, literal(-2)))
        CFI (cfiCond171) DPH0 load(1, XDATA, add(CFA_XSP16, literal(-1)))
        CFI (cfiCond171) CFA_SP SP+0
        CFI (cfiCond171) CFA_XSP16 add(XSP16, 10)
        CFI Block cfiCond172 Using cfiCommon0
        CFI (cfiCond172) NoFunction
        CFI (cfiCond172) Conditional ??CrossCallReturnLabel_135
        CFI (cfiCond172) R6 load(1, XDATA, add(CFA_XSP16, literal(-9)))
        CFI (cfiCond172) VB load(1, XDATA, add(CFA_XSP16, literal(-8)))
        CFI (cfiCond172) V0 load(1, XDATA, add(CFA_XSP16, literal(-7)))
        CFI (cfiCond172) R7 load(1, XDATA, add(CFA_XSP16, literal(-6)))
        CFI (cfiCond172) ?RET_LOW load(1, XDATA, add(CFA_XSP16, literal(-5)))
        CFI (cfiCond172) ?RET_HIGH load(1, XDATA, add(CFA_XSP16, literal(-4)))
        CFI (cfiCond172) ?BRET_EXT load(1, XDATA, add(CFA_XSP16, literal(-3)))
        CFI (cfiCond172) DPL0 load(1, XDATA, add(CFA_XSP16, literal(-2)))
        CFI (cfiCond172) DPH0 load(1, XDATA, add(CFA_XSP16, literal(-1)))
        CFI (cfiCond172) CFA_SP SP+0
        CFI (cfiCond172) CFA_XSP16 add(XSP16, 11)
        CFI Block cfiPicker173 Using cfiCommon1
        CFI (cfiPicker173) NoFunction
        CFI (cfiPicker173) Picker
        MOV     A,R2
        MOVX    @DPTR,A
        INC     DPTR
        MOV     A,R3
        MOVX    @DPTR,A
        RET
        CFI EndBlock cfiCond164
        CFI EndBlock cfiCond165
        CFI EndBlock cfiCond166
        CFI EndBlock cfiCond167
        CFI EndBlock cfiCond168
        CFI EndBlock cfiCond169
        CFI EndBlock cfiCond170
        CFI EndBlock cfiCond171
        CFI EndBlock cfiCond172
        CFI EndBlock cfiPicker173

        RSEG BANKED_CODE:CODE:NOROOT(0)
?Subroutine18:
        CFI Block cfiCond174 Using cfiCommon0
        CFI NoFunction
        CFI Conditional ??CrossCallReturnLabel_8
        CFI R6 load(1, XDATA, add(CFA_XSP16, literal(-10)))
        CFI VB load(1, XDATA, add(CFA_XSP16, literal(-9)))
        CFI V0 load(1, XDATA, add(CFA_XSP16, literal(-8)))
        CFI V1 load(1, XDATA, add(CFA_XSP16, literal(-7)))
        CFI R7 load(1, XDATA, add(CFA_XSP16, literal(-6)))
        CFI ?RET_LOW load(1, XDATA, add(CFA_XSP16, literal(-5)))
        CFI ?RET_HIGH load(1, XDATA, add(CFA_XSP16, literal(-4)))
        CFI ?BRET_EXT load(1, XDATA, add(CFA_XSP16, literal(-3)))
        CFI DPL0 load(1, XDATA, add(CFA_XSP16, literal(-2)))
        CFI DPH0 load(1, XDATA, add(CFA_XSP16, literal(-1)))
        CFI CFA_SP SP+0
        CFI CFA_XSP16 add(XSP16, 23)
        CFI Block cfiCond175 Using cfiCommon0
        CFI (cfiCond175) NoFunction
        CFI (cfiCond175) Conditional ??CrossCallReturnLabel_9
        CFI (cfiCond175) R6 load(1, XDATA, add(CFA_XSP16, literal(-12)))
        CFI (cfiCond175) VB load(1, XDATA, add(CFA_XSP16, literal(-11)))
        CFI (cfiCond175) V0 load(1, XDATA, add(CFA_XSP16, literal(-10)))
        CFI (cfiCond175) V1 load(1, XDATA, add(CFA_XSP16, literal(-9)))
        CFI (cfiCond175) V2 load(1, XDATA, add(CFA_XSP16, literal(-8)))
        CFI (cfiCond175) V3 load(1, XDATA, add(CFA_XSP16, literal(-7)))
        CFI (cfiCond175) R7 load(1, XDATA, add(CFA_XSP16, literal(-6)))
        CFI (cfiCond175) ?RET_LOW load(1, XDATA, add(CFA_XSP16, literal(-5)))
        CFI (cfiCond175) ?RET_HIGH load(1, XDATA, add(CFA_XSP16, literal(-4)))
        CFI (cfiCond175) ?BRET_EXT load(1, XDATA, add(CFA_XSP16, literal(-3)))
        CFI (cfiCond175) DPL0 load(1, XDATA, add(CFA_XSP16, literal(-2)))
        CFI (cfiCond175) DPH0 load(1, XDATA, add(CFA_XSP16, literal(-1)))
        CFI (cfiCond175) CFA_SP SP+0
        CFI (cfiCond175) CFA_XSP16 add(XSP16, 25)
        CFI Block cfiPicker176 Using cfiCommon1
        CFI (cfiPicker176) NoFunction
        CFI (cfiPicker176) Picker
        MOVX    @DPTR,A
        MOV     DPL,R6
        MOV     DPH,R7
        LCALL   ?Subroutine67 & 0xFFFF
??CrossCallReturnLabel_246:
        MOV     A,#0x6
        RET
        CFI EndBlock cfiCond174
        CFI EndBlock cfiCond175
        CFI EndBlock cfiPicker176
// 1390 
// 1391 /******************************************************************************
// 1392  * @fn          ZDSecMgrDeviceEntryRemove
// 1393  *
// 1394  * @brief       Remove device entry.
// 1395  *
// 1396  * @param       entry - [in] valid entry
// 1397  *
// 1398  * @return      none
// 1399  */

        RSEG BANKED_CODE:CODE:NOROOT(0)
// 1400 void ZDSecMgrDeviceEntryRemove( ZDSecMgrEntry_t* entry )
ZDSecMgrDeviceEntryRemove:
        CFI Block cfiBlock177 Using cfiCommon0
        CFI Function ZDSecMgrDeviceEntryRemove
        CODE
// 1401 {
        FUNCALL ZDSecMgrDeviceEntryRemove, ZDSecMgrCtrlTerm
        LOCFRAME ISTACK, 0, STACK
        LOCFRAME PSTACK, 0, STACK
        LOCFRAME XSTACK, 9, STACK
        LOCFRAME IOVERLAY, 0, STATIC
        LOCFRAME DOVERLAY, 0, STATIC
        ARGFRAME ISTACK, 0, STACK
        ARGFRAME PSTACK, 0, STACK
        ARGFRAME XSTACK, 9, STACK
        ARGFRAME IOVERLAY, 0, STATIC
        ARGFRAME DOVERLAY, 0, STATIC
        MOV     A,#-0x9
        LCALL   ?BANKED_ENTER_XDATA
        CFI DPH0 load(1, XDATA, add(CFA_XSP16, literal(-1)))
        CFI DPL0 load(1, XDATA, add(CFA_XSP16, literal(-2)))
        CFI ?BRET_EXT load(1, XDATA, add(CFA_XSP16, literal(-3)))
        CFI ?RET_HIGH load(1, XDATA, add(CFA_XSP16, literal(-4)))
        CFI ?RET_LOW load(1, XDATA, add(CFA_XSP16, literal(-5)))
        CFI R7 load(1, XDATA, add(CFA_XSP16, literal(-6)))
        CFI V0 load(1, XDATA, add(CFA_XSP16, literal(-7)))
        CFI VB load(1, XDATA, add(CFA_XSP16, literal(-8)))
        CFI R6 load(1, XDATA, add(CFA_XSP16, literal(-9)))
        CFI CFA_SP SP+0
        CFI CFA_XSP16 add(XSP16, 9)
        ; Saved register size: 9
        ; Auto size: 0
        MOV     A,R2
        MOV     R6,A
        MOV     A,R3
        MOV     R7,A
// 1402   // terminate device control
// 1403   if ( ( ZG_BUILD_COORDINATOR_TYPE ) && ( ZG_DEVICE_COORDINATOR_TYPE ) )
// 1404   {
// 1405     ZDSecMgrCtrlTerm( entry );
        ; Setup parameters for call to function ZDSecMgrCtrlTerm
        LCALL   ??ZDSecMgrCtrlTerm?relay
// 1406   }
// 1407 
// 1408   // remove device from entry data
// 1409   ZDSecMgrEntryFree( entry );
        MOV     DPL,R6
        MOV     DPH,R7
        MOV     A,#-0x2
        MOVX    @DPTR,A
        INC     DPTR
        INC     A
        MOVX    @DPTR,A
// 1410 
// 1411   // remove EXT address
// 1412   //ZDSecMgrExtAddrRelease( aiOld );
// 1413 }
        LJMP    ??Subroutine104_0 & 0xFFFF
        CFI EndBlock cfiBlock177
// 1414 
// 1415 /******************************************************************************
// 1416  * @fn          ZDSecMgrDeviceEntryAdd
// 1417  *
// 1418  * @brief       Add entry.
// 1419  *
// 1420  * @param       device - [in] ZDSecMgrDevice_t, device info
// 1421  * @param       ami    - [in] Address Manager index
// 1422  *
// 1423  * @return      ZStatus_t
// 1424  */

        RSEG BANKED_CODE:CODE:NOROOT(0)
// 1425 void ZDSecMgrAddrMgrUpdate( uint16 ami, uint16 nwkAddr )
ZDSecMgrAddrMgrUpdate:
        CFI Block cfiBlock178 Using cfiCommon0
        CFI Function ZDSecMgrAddrMgrUpdate
        CODE
// 1426 {
        FUNCALL ZDSecMgrAddrMgrUpdate, AddrMgrEntryGet
        LOCFRAME ISTACK, 0, STACK
        LOCFRAME PSTACK, 0, STACK
        LOCFRAME XSTACK, 22, STACK
        LOCFRAME IOVERLAY, 0, STATIC
        LOCFRAME DOVERLAY, 0, STATIC
        ARGFRAME ISTACK, 0, STACK
        ARGFRAME PSTACK, 0, STACK
        ARGFRAME XSTACK, 22, STACK
        ARGFRAME IOVERLAY, 0, STATIC
        ARGFRAME DOVERLAY, 0, STATIC
        FUNCALL ZDSecMgrAddrMgrUpdate, AddrMgrEntryUpdate
        LOCFRAME ISTACK, 0, STACK
        LOCFRAME PSTACK, 0, STACK
        LOCFRAME XSTACK, 22, STACK
        LOCFRAME IOVERLAY, 0, STATIC
        LOCFRAME DOVERLAY, 0, STATIC
        ARGFRAME ISTACK, 0, STACK
        ARGFRAME PSTACK, 0, STACK
        ARGFRAME XSTACK, 22, STACK
        ARGFRAME IOVERLAY, 0, STATIC
        ARGFRAME DOVERLAY, 0, STATIC
        MOV     A,#-0x9
        LCALL   ?BANKED_ENTER_XDATA
        CFI DPH0 load(1, XDATA, add(CFA_XSP16, literal(-1)))
        CFI DPL0 load(1, XDATA, add(CFA_XSP16, literal(-2)))
        CFI ?BRET_EXT load(1, XDATA, add(CFA_XSP16, literal(-3)))
        CFI ?RET_HIGH load(1, XDATA, add(CFA_XSP16, literal(-4)))
        CFI ?RET_LOW load(1, XDATA, add(CFA_XSP16, literal(-5)))
        CFI R7 load(1, XDATA, add(CFA_XSP16, literal(-6)))
        CFI V0 load(1, XDATA, add(CFA_XSP16, literal(-7)))
        CFI VB load(1, XDATA, add(CFA_XSP16, literal(-8)))
        CFI R6 load(1, XDATA, add(CFA_XSP16, literal(-9)))
        CFI CFA_SP SP+0
        CFI CFA_XSP16 add(XSP16, 9)
        ; Saved register size: 9
        ; Auto size: 13
        MOV     A,#-0xd
        LCALL   ?ALLOC_XSTACK8
        CFI CFA_XSP16 add(XSP16, 22)
        MOV     A,R4
        MOV     R6,A
        MOV     A,R5
        MOV     R7,A
// 1427   AddrMgrEntry_t entry;
// 1428 
// 1429   // get the ami data
// 1430   entry.user  = ADDRMGR_USER_SECURITY;
        MOV     DPL,?XSP + 0
        MOV     DPH,?XSP + 1
        MOV     A,#0x2
        MOVX    @DPTR,A
// 1431   entry.index = ami;
        MOV     A,#0xb
        LCALL   ?XSTACK_DISP0_8
        LCALL   ?Subroutine17 & 0xFFFF
// 1432 
// 1433   AddrMgrEntryGet( &entry );
??CrossCallReturnLabel_184:
        LCALL   ??AddrMgrEntryGet?relay
// 1434 
// 1435   // check if NWK address is same
// 1436   if ( entry.nwkAddr != nwkAddr )
        MOV     A,#0x1
        LCALL   ?XSTACK_DISP0_8
        MOVX    A,@DPTR
        XRL     A,R6
        JNZ     ??ZDSecMgrAddrMgrUpdate_0
        INC     DPTR
        MOVX    A,@DPTR
        XRL     A,R7
??ZDSecMgrAddrMgrUpdate_0:
        JZ      ??ZDSecMgrAddrMgrUpdate_1
// 1437   {
// 1438     // update NWK address
// 1439     entry.nwkAddr = nwkAddr;
        MOV     A,#0x1
        LCALL   ?XSTACK_DISP0_8
        MOV     A,R6
        MOVX    @DPTR,A
        INC     DPTR
        MOV     A,R7
        LCALL   ??Subroutine94_0 & 0xFFFF
// 1440 
// 1441     AddrMgrEntryUpdate( &entry );
// 1442   }
??CrossCallReturnLabel_186:
        LCALL   ??AddrMgrEntryUpdate?relay
// 1443 }
??ZDSecMgrAddrMgrUpdate_1:
        LJMP    ?Subroutine5 & 0xFFFF
        CFI EndBlock cfiBlock178
// 1444 

        RSEG BANKED_CODE:CODE:NOROOT(0)
// 1445 ZStatus_t ZDSecMgrDeviceEntryAdd( ZDSecMgrDevice_t* device, uint16 ami )
ZDSecMgrDeviceEntryAdd:
        CFI Block cfiBlock179 Using cfiCommon0
        CFI Function ZDSecMgrDeviceEntryAdd
        CODE
// 1446 {
        FUNCALL ZDSecMgrDeviceEntryAdd, ZDSecMgrEntryLookup
        LOCFRAME ISTACK, 0, STACK
        LOCFRAME PSTACK, 0, STACK
        LOCFRAME XSTACK, 14, STACK
        LOCFRAME IOVERLAY, 0, STATIC
        LOCFRAME DOVERLAY, 0, STATIC
        ARGFRAME ISTACK, 0, STACK
        ARGFRAME PSTACK, 0, STACK
        ARGFRAME XSTACK, 14, STACK
        ARGFRAME IOVERLAY, 0, STATIC
        ARGFRAME DOVERLAY, 0, STATIC
        FUNCALL ZDSecMgrDeviceEntryAdd, ZDSecMgrDeviceEntryRemove
        LOCFRAME ISTACK, 0, STACK
        LOCFRAME PSTACK, 0, STACK
        LOCFRAME XSTACK, 14, STACK
        LOCFRAME IOVERLAY, 0, STATIC
        LOCFRAME DOVERLAY, 0, STATIC
        ARGFRAME ISTACK, 0, STACK
        ARGFRAME PSTACK, 0, STACK
        ARGFRAME XSTACK, 14, STACK
        ARGFRAME IOVERLAY, 0, STATIC
        ARGFRAME DOVERLAY, 0, STATIC
        FUNCALL ZDSecMgrDeviceEntryAdd, ZDSecMgrEntryLookupAMI
        LOCFRAME ISTACK, 0, STACK
        LOCFRAME PSTACK, 0, STACK
        LOCFRAME XSTACK, 14, STACK
        LOCFRAME IOVERLAY, 0, STATIC
        LOCFRAME DOVERLAY, 0, STATIC
        ARGFRAME ISTACK, 0, STACK
        ARGFRAME PSTACK, 0, STACK
        ARGFRAME XSTACK, 14, STACK
        ARGFRAME IOVERLAY, 0, STATIC
        ARGFRAME DOVERLAY, 0, STATIC
        FUNCALL ZDSecMgrDeviceEntryAdd, ZDSecMgrAddrMgrUpdate
        LOCFRAME ISTACK, 0, STACK
        LOCFRAME PSTACK, 0, STACK
        LOCFRAME XSTACK, 14, STACK
        LOCFRAME IOVERLAY, 0, STATIC
        LOCFRAME DOVERLAY, 0, STATIC
        ARGFRAME ISTACK, 0, STACK
        ARGFRAME PSTACK, 0, STACK
        ARGFRAME XSTACK, 14, STACK
        ARGFRAME IOVERLAY, 0, STATIC
        ARGFRAME DOVERLAY, 0, STATIC
        FUNCALL ZDSecMgrDeviceEntryAdd, ZDSecMgrEntryLookupAMI
        LOCFRAME ISTACK, 0, STACK
        LOCFRAME PSTACK, 0, STACK
        LOCFRAME XSTACK, 14, STACK
        LOCFRAME IOVERLAY, 0, STATIC
        LOCFRAME DOVERLAY, 0, STATIC
        ARGFRAME ISTACK, 0, STACK
        ARGFRAME PSTACK, 0, STACK
        ARGFRAME XSTACK, 14, STACK
        ARGFRAME IOVERLAY, 0, STATIC
        ARGFRAME DOVERLAY, 0, STATIC
        FUNCALL ZDSecMgrDeviceEntryAdd, ZDSecMgrEntryNew
        LOCFRAME ISTACK, 0, STACK
        LOCFRAME PSTACK, 0, STACK
        LOCFRAME XSTACK, 14, STACK
        LOCFRAME IOVERLAY, 0, STATIC
        LOCFRAME DOVERLAY, 0, STATIC
        ARGFRAME ISTACK, 0, STACK
        ARGFRAME PSTACK, 0, STACK
        ARGFRAME XSTACK, 14, STACK
        ARGFRAME IOVERLAY, 0, STATIC
        ARGFRAME DOVERLAY, 0, STATIC
        FUNCALL ZDSecMgrDeviceEntryAdd, ZDSecMgrAddrMgrUpdate
        LOCFRAME ISTACK, 0, STACK
        LOCFRAME PSTACK, 0, STACK
        LOCFRAME XSTACK, 14, STACK
        LOCFRAME IOVERLAY, 0, STATIC
        LOCFRAME DOVERLAY, 0, STATIC
        ARGFRAME ISTACK, 0, STACK
        ARGFRAME PSTACK, 0, STACK
        ARGFRAME XSTACK, 14, STACK
        ARGFRAME IOVERLAY, 0, STATIC
        ARGFRAME DOVERLAY, 0, STATIC
        FUNCALL ZDSecMgrDeviceEntryAdd, ZDSecMgrCtrlAdd
        LOCFRAME ISTACK, 0, STACK
        LOCFRAME PSTACK, 0, STACK
        LOCFRAME XSTACK, 14, STACK
        LOCFRAME IOVERLAY, 0, STATIC
        LOCFRAME DOVERLAY, 0, STATIC
        ARGFRAME ISTACK, 0, STACK
        ARGFRAME PSTACK, 0, STACK
        ARGFRAME XSTACK, 14, STACK
        ARGFRAME IOVERLAY, 0, STATIC
        ARGFRAME DOVERLAY, 0, STATIC
        FUNCALL ZDSecMgrDeviceEntryAdd, ZDSecMgrCtrlReset
        LOCFRAME ISTACK, 0, STACK
        LOCFRAME PSTACK, 0, STACK
        LOCFRAME XSTACK, 14, STACK
        LOCFRAME IOVERLAY, 0, STATIC
        LOCFRAME DOVERLAY, 0, STATIC
        ARGFRAME ISTACK, 0, STACK
        ARGFRAME PSTACK, 0, STACK
        ARGFRAME XSTACK, 14, STACK
        ARGFRAME IOVERLAY, 0, STATIC
        ARGFRAME DOVERLAY, 0, STATIC
        MOV     A,#-0xc
        LCALL   ?BANKED_ENTER_XDATA
        CFI DPH0 load(1, XDATA, add(CFA_XSP16, literal(-1)))
        CFI DPL0 load(1, XDATA, add(CFA_XSP16, literal(-2)))
        CFI ?BRET_EXT load(1, XDATA, add(CFA_XSP16, literal(-3)))
        CFI ?RET_HIGH load(1, XDATA, add(CFA_XSP16, literal(-4)))
        CFI ?RET_LOW load(1, XDATA, add(CFA_XSP16, literal(-5)))
        CFI R7 load(1, XDATA, add(CFA_XSP16, literal(-6)))
        CFI V3 load(1, XDATA, add(CFA_XSP16, literal(-7)))
        CFI V2 load(1, XDATA, add(CFA_XSP16, literal(-8)))
        CFI V1 load(1, XDATA, add(CFA_XSP16, literal(-9)))
        CFI V0 load(1, XDATA, add(CFA_XSP16, literal(-10)))
        CFI VB load(1, XDATA, add(CFA_XSP16, literal(-11)))
        CFI R6 load(1, XDATA, add(CFA_XSP16, literal(-12)))
        CFI CFA_SP SP+0
        CFI CFA_XSP16 add(XSP16, 12)
        ; Saved register size: 12
        ; Auto size: 2
        MOV     A,#-0x2
        LCALL   ?ALLOC_XSTACK8
        CFI CFA_XSP16 add(XSP16, 14)
        MOV     ?V0 + 2,R2
        MOV     ?V0 + 3,R3
        MOV     A,R4
        MOV     R6,A
        MOV     A,R5
        MOV     R7,A
// 1447   ZStatus_t        status;
// 1448   ZDSecMgrEntry_t* entry;
// 1449 
// 1450 
// 1451   // initialize as unknown until completion
// 1452   status = ZNwkUnknownDevice;
        MOV     ?V0 + 0,#-0x38
// 1453 
// 1454   device->ctrl = NULL;
        MOV     DPL,R2
        MOV     DPH,R3
        INC     DPTR
        INC     DPTR
        INC     DPTR
        INC     DPTR
        INC     DPTR
        INC     DPTR
        INC     DPTR
        INC     DPTR
        CLR     A
        MOVX    @DPTR,A
        INC     DPTR
        LCALL   ?Subroutine25 & 0xFFFF
// 1455 
// 1456   // make sure not already registered
// 1457   if ( ZDSecMgrEntryLookup( device->nwkAddr, &entry ) == ZSuccess )
??CrossCallReturnLabel_18:
        MOV     R4,DPL
        MOV     R5,DPH
        MOV     DPL,R2
        MOV     DPH,R3
        LCALL   ??Subroutine89_0 & 0xFFFF
??CrossCallReturnLabel_149:
        LCALL   ??ZDSecMgrEntryLookup?relay
        MOV     A,R1
        MOV     DPL,?XSP + 0
        MOV     DPH,?XSP + 1
        JNZ     ??ZDSecMgrDeviceEntryAdd_0
// 1458   {
// 1459     // verify that address index is same
// 1460     if ( entry->ami != ami )
        LCALL   ?Subroutine42 & 0xFFFF
??CrossCallReturnLabel_47:
        MOVX    A,@DPTR
        XRL     A,R6
        JNZ     ??ZDSecMgrDeviceEntryAdd_1
        INC     DPTR
        MOVX    A,@DPTR
        XRL     A,R7
??ZDSecMgrDeviceEntryAdd_1:
        JZ      ??ZDSecMgrDeviceEntryAdd_2
// 1461     {
// 1462       // remove conflicting entry
// 1463       ZDSecMgrDeviceEntryRemove( entry );
        ; Setup parameters for call to function ZDSecMgrDeviceEntryRemove
        MOV     DPL,?XSP + 0
        MOV     DPH,?XSP + 1
        LCALL   ??Subroutine89_0 & 0xFFFF
??CrossCallReturnLabel_150:
        LCALL   ??ZDSecMgrDeviceEntryRemove?relay
// 1464 
// 1465       if ( ZDSecMgrEntryLookupAMI( ami, &entry ) == ZSuccess )
        ; Setup parameters for call to function ZDSecMgrEntryLookupAMI
        MOV     DPL,?XSP + 0
        MOV     DPH,?XSP + 1
        MOV     R4,DPL
        MOV     R5,DPH
        MOV     A,R6
        MOV     R2,A
        MOV     A,R7
        MOV     R3,A
        LCALL   ??ZDSecMgrEntryLookupAMI?relay
        MOV     A,R1
        JNZ     ??ZDSecMgrDeviceEntryAdd_2
// 1466       {
// 1467         // update NWK address
// 1468         ZDSecMgrAddrMgrUpdate( ami, device->nwkAddr );
??ZDSecMgrDeviceEntryAdd_3:
        ; Setup parameters for call to function ZDSecMgrAddrMgrUpdate
        LCALL   ?Subroutine37 & 0xFFFF
// 1469       }
// 1470     }
// 1471   }
??CrossCallReturnLabel_36:
        SJMP    ??ZDSecMgrDeviceEntryAdd_2
// 1472   else if ( ZDSecMgrEntryLookupAMI( ami, &entry ) == ZSuccess )
??ZDSecMgrDeviceEntryAdd_0:
        ; Setup parameters for call to function ZDSecMgrEntryLookupAMI
        MOV     R4,DPL
        MOV     R5,DPH
        MOV     A,R6
        MOV     R2,A
        MOV     A,R7
        MOV     R3,A
        LCALL   ??ZDSecMgrEntryLookupAMI?relay
        MOV     A,R1
        JZ      ??ZDSecMgrDeviceEntryAdd_3
// 1473   {
// 1474     // update NWK address
// 1475     ZDSecMgrAddrMgrUpdate( ami, device->nwkAddr );
// 1476   }
// 1477 
// 1478   // check if a new entry needs to be created
// 1479   if ( entry == NULL )
??ZDSecMgrDeviceEntryAdd_2:
        LCALL   ??Subroutine96_0 & 0xFFFF
??CrossCallReturnLabel_210:
        MOV     DPL,?XSP + 0
        MOV     DPH,?XSP + 1
        JNZ     ??ZDSecMgrDeviceEntryAdd_4
// 1480   {
// 1481     // get new entry
// 1482     if ( ZDSecMgrEntryNew( &entry ) == ZSuccess )
        ; Setup parameters for call to function ZDSecMgrEntryNew
        MOV     R2,DPL
        MOV     R3,DPH
        LCALL   ??ZDSecMgrEntryNew?relay
        MOV     A,R1
        JNZ     ??ZDSecMgrDeviceEntryAdd_5
// 1483     {
// 1484       // reset entry lkd
// 1485 
// 1486       // finish setting up entry
// 1487       entry->ami = ami;
        MOV     DPL,?XSP + 0
        MOV     DPH,?XSP + 1
        LCALL   ?Subroutine42 & 0xFFFF
??CrossCallReturnLabel_48:
        MOV     A,R6
        MOVX    @DPTR,A
        INC     DPTR
        MOV     A,R7
        MOVX    @DPTR,A
// 1488 
// 1489       // update NWK address
// 1490       ZDSecMgrAddrMgrUpdate( ami, device->nwkAddr );
        ; Setup parameters for call to function ZDSecMgrAddrMgrUpdate
        LCALL   ?Subroutine37 & 0xFFFF
// 1491 
// 1492       // enter new device into device control
// 1493       if ( ( ZG_BUILD_COORDINATOR_TYPE ) && ( ZG_DEVICE_COORDINATOR_TYPE ) )
// 1494       {
// 1495         status = ZDSecMgrCtrlAdd( device, entry );
??CrossCallReturnLabel_37:
        ; Setup parameters for call to function ZDSecMgrCtrlAdd
        MOV     DPL,?XSP + 0
        MOV     DPH,?XSP + 1
        LCALL   ?Subroutine46 & 0xFFFF
// 1496       }
// 1497       else
// 1498       {
// 1499         status = ZSuccess;
// 1500       }
// 1501     }
// 1502   }
??CrossCallReturnLabel_55:
        LCALL   ??ZDSecMgrCtrlAdd?relay
        SJMP    ??ZDSecMgrDeviceEntryAdd_6
// 1503   else
// 1504   {
// 1505     // reset entry lkd
// 1506 
// 1507     // reset entry in entry control
// 1508     if ( ( ZG_BUILD_COORDINATOR_TYPE ) && ( ZG_DEVICE_COORDINATOR_TYPE ) )
// 1509     {
// 1510       status = ZDSecMgrCtrlReset( device, entry );
??ZDSecMgrDeviceEntryAdd_4:
        ; Setup parameters for call to function ZDSecMgrCtrlReset
        LCALL   ?Subroutine46 & 0xFFFF
// 1511     }
// 1512     else
// 1513     {
// 1514       status = ZSuccess;
// 1515     }
// 1516   }
??CrossCallReturnLabel_56:
        LCALL   ??ZDSecMgrCtrlReset?relay
??ZDSecMgrDeviceEntryAdd_6:
        MOV     A,R1
        MOV     ?V0 + 0,A
// 1517 
// 1518   return status;
??ZDSecMgrDeviceEntryAdd_5:
        MOV     R1,?V0 + 0
        LJMP    ?Subroutine3 & 0xFFFF
        CFI EndBlock cfiBlock179
// 1519 }

        RSEG BANKED_CODE:CODE:NOROOT(0)
?Subroutine46:
        CFI Block cfiCond180 Using cfiCommon0
        CFI NoFunction
        CFI Conditional ??CrossCallReturnLabel_55
        CFI R6 load(1, XDATA, add(CFA_XSP16, literal(-12)))
        CFI VB load(1, XDATA, add(CFA_XSP16, literal(-11)))
        CFI V0 load(1, XDATA, add(CFA_XSP16, literal(-10)))
        CFI V1 load(1, XDATA, add(CFA_XSP16, literal(-9)))
        CFI V2 load(1, XDATA, add(CFA_XSP16, literal(-8)))
        CFI V3 load(1, XDATA, add(CFA_XSP16, literal(-7)))
        CFI R7 load(1, XDATA, add(CFA_XSP16, literal(-6)))
        CFI ?RET_LOW load(1, XDATA, add(CFA_XSP16, literal(-5)))
        CFI ?RET_HIGH load(1, XDATA, add(CFA_XSP16, literal(-4)))
        CFI ?BRET_EXT load(1, XDATA, add(CFA_XSP16, literal(-3)))
        CFI DPL0 load(1, XDATA, add(CFA_XSP16, literal(-2)))
        CFI DPH0 load(1, XDATA, add(CFA_XSP16, literal(-1)))
        CFI CFA_SP SP+0
        CFI CFA_XSP16 add(XSP16, 14)
        CFI Block cfiCond181 Using cfiCommon0
        CFI (cfiCond181) NoFunction
        CFI (cfiCond181) Conditional ??CrossCallReturnLabel_56
        CFI (cfiCond181) R6 load(1, XDATA, add(CFA_XSP16, literal(-12)))
        CFI (cfiCond181) VB load(1, XDATA, add(CFA_XSP16, literal(-11)))
        CFI (cfiCond181) V0 load(1, XDATA, add(CFA_XSP16, literal(-10)))
        CFI (cfiCond181) V1 load(1, XDATA, add(CFA_XSP16, literal(-9)))
        CFI (cfiCond181) V2 load(1, XDATA, add(CFA_XSP16, literal(-8)))
        CFI (cfiCond181) V3 load(1, XDATA, add(CFA_XSP16, literal(-7)))
        CFI (cfiCond181) R7 load(1, XDATA, add(CFA_XSP16, literal(-6)))
        CFI (cfiCond181) ?RET_LOW load(1, XDATA, add(CFA_XSP16, literal(-5)))
        CFI (cfiCond181) ?RET_HIGH load(1, XDATA, add(CFA_XSP16, literal(-4)))
        CFI (cfiCond181) ?BRET_EXT load(1, XDATA, add(CFA_XSP16, literal(-3)))
        CFI (cfiCond181) DPL0 load(1, XDATA, add(CFA_XSP16, literal(-2)))
        CFI (cfiCond181) DPH0 load(1, XDATA, add(CFA_XSP16, literal(-1)))
        CFI (cfiCond181) CFA_SP SP+0
        CFI (cfiCond181) CFA_XSP16 add(XSP16, 14)
        CFI Block cfiPicker182 Using cfiCommon1
        CFI (cfiPicker182) NoFunction
        CFI (cfiPicker182) Picker
        LCALL   ?Subroutine78 & 0xFFFF
??CrossCallReturnLabel_108:
        MOV     R2,?V0 + 2
        MOV     R3,?V0 + 3
        RET
        CFI EndBlock cfiCond180
        CFI EndBlock cfiCond181
        CFI EndBlock cfiPicker182

        RSEG BANKED_CODE:CODE:NOROOT(0)
?Subroutine37:
        CFI Block cfiCond183 Using cfiCommon0
        CFI NoFunction
        CFI Conditional ??CrossCallReturnLabel_36
        CFI R6 load(1, XDATA, add(CFA_XSP16, literal(-12)))
        CFI VB load(1, XDATA, add(CFA_XSP16, literal(-11)))
        CFI V0 load(1, XDATA, add(CFA_XSP16, literal(-10)))
        CFI V1 load(1, XDATA, add(CFA_XSP16, literal(-9)))
        CFI V2 load(1, XDATA, add(CFA_XSP16, literal(-8)))
        CFI V3 load(1, XDATA, add(CFA_XSP16, literal(-7)))
        CFI R7 load(1, XDATA, add(CFA_XSP16, literal(-6)))
        CFI ?RET_LOW load(1, XDATA, add(CFA_XSP16, literal(-5)))
        CFI ?RET_HIGH load(1, XDATA, add(CFA_XSP16, literal(-4)))
        CFI ?BRET_EXT load(1, XDATA, add(CFA_XSP16, literal(-3)))
        CFI DPL0 load(1, XDATA, add(CFA_XSP16, literal(-2)))
        CFI DPH0 load(1, XDATA, add(CFA_XSP16, literal(-1)))
        CFI CFA_SP SP+0
        CFI CFA_XSP16 add(XSP16, 14)
        CFI Block cfiCond184 Using cfiCommon0
        CFI (cfiCond184) NoFunction
        CFI (cfiCond184) Conditional ??CrossCallReturnLabel_37
        CFI (cfiCond184) R6 load(1, XDATA, add(CFA_XSP16, literal(-12)))
        CFI (cfiCond184) VB load(1, XDATA, add(CFA_XSP16, literal(-11)))
        CFI (cfiCond184) V0 load(1, XDATA, add(CFA_XSP16, literal(-10)))
        CFI (cfiCond184) V1 load(1, XDATA, add(CFA_XSP16, literal(-9)))
        CFI (cfiCond184) V2 load(1, XDATA, add(CFA_XSP16, literal(-8)))
        CFI (cfiCond184) V3 load(1, XDATA, add(CFA_XSP16, literal(-7)))
        CFI (cfiCond184) R7 load(1, XDATA, add(CFA_XSP16, literal(-6)))
        CFI (cfiCond184) ?RET_LOW load(1, XDATA, add(CFA_XSP16, literal(-5)))
        CFI (cfiCond184) ?RET_HIGH load(1, XDATA, add(CFA_XSP16, literal(-4)))
        CFI (cfiCond184) ?BRET_EXT load(1, XDATA, add(CFA_XSP16, literal(-3)))
        CFI (cfiCond184) DPL0 load(1, XDATA, add(CFA_XSP16, literal(-2)))
        CFI (cfiCond184) DPH0 load(1, XDATA, add(CFA_XSP16, literal(-1)))
        CFI (cfiCond184) CFA_SP SP+0
        CFI (cfiCond184) CFA_XSP16 add(XSP16, 14)
        CFI Block cfiPicker185 Using cfiCommon1
        CFI (cfiPicker185) NoFunction
        CFI (cfiPicker185) Picker
        MOV     DPL,?V0 + 2
        MOV     DPH,?V0 + 3
        LCALL   ?Subroutine69 & 0xFFFF
??CrossCallReturnLabel_96:
        LCALL   ??ZDSecMgrAddrMgrUpdate?relay
        RET
        CFI EndBlock cfiCond183
        CFI EndBlock cfiCond184
        CFI EndBlock cfiPicker185
// 1520 
// 1521 /******************************************************************************
// 1522  * @fn          ZDSecMgrDeviceCtrlHandler
// 1523  *
// 1524  * @brief       Device control handler.
// 1525  *
// 1526  * @param       device - [in] ZDSecMgrDevice_t, device info
// 1527  *
// 1528  * @return      none
// 1529  */

        RSEG BANKED_CODE:CODE:NOROOT(0)
// 1530 void ZDSecMgrDeviceCtrlHandler( ZDSecMgrDevice_t* device )
ZDSecMgrDeviceCtrlHandler:
        CFI Block cfiBlock186 Using cfiCommon0
        CFI Function ZDSecMgrDeviceCtrlHandler
        CODE
// 1531 {
        FUNCALL ZDSecMgrDeviceCtrlHandler, ZDSecMgrSendMasterKey
        LOCFRAME ISTACK, 0, STACK
        LOCFRAME PSTACK, 0, STACK
        LOCFRAME XSTACK, 9, STACK
        LOCFRAME IOVERLAY, 0, STATIC
        LOCFRAME DOVERLAY, 0, STATIC
        ARGFRAME ISTACK, 0, STACK
        ARGFRAME PSTACK, 0, STACK
        ARGFRAME XSTACK, 9, STACK
        ARGFRAME IOVERLAY, 0, STATIC
        ARGFRAME DOVERLAY, 0, STATIC
        FUNCALL ZDSecMgrDeviceCtrlHandler, ZDSecMgrEstablishKey
        LOCFRAME ISTACK, 0, STACK
        LOCFRAME PSTACK, 0, STACK
        LOCFRAME XSTACK, 9, STACK
        LOCFRAME IOVERLAY, 0, STATIC
        LOCFRAME DOVERLAY, 0, STATIC
        ARGFRAME ISTACK, 0, STACK
        ARGFRAME PSTACK, 0, STACK
        ARGFRAME XSTACK, 9, STACK
        ARGFRAME IOVERLAY, 0, STATIC
        ARGFRAME DOVERLAY, 0, STATIC
        FUNCALL ZDSecMgrDeviceCtrlHandler, ZDSecMgrSendNwkKey
        LOCFRAME ISTACK, 0, STACK
        LOCFRAME PSTACK, 0, STACK
        LOCFRAME XSTACK, 9, STACK
        LOCFRAME IOVERLAY, 0, STATIC
        LOCFRAME DOVERLAY, 0, STATIC
        ARGFRAME ISTACK, 0, STACK
        ARGFRAME PSTACK, 0, STACK
        ARGFRAME XSTACK, 9, STACK
        ARGFRAME IOVERLAY, 0, STATIC
        ARGFRAME DOVERLAY, 0, STATIC
        FUNCALL ZDSecMgrDeviceCtrlHandler, osal_start_timerEx
        LOCFRAME ISTACK, 0, STACK
        LOCFRAME PSTACK, 0, STACK
        LOCFRAME XSTACK, 9, STACK
        LOCFRAME IOVERLAY, 0, STATIC
        LOCFRAME DOVERLAY, 0, STATIC
        ARGFRAME ISTACK, 0, STACK
        ARGFRAME PSTACK, 0, STACK
        ARGFRAME XSTACK, 9, STACK
        ARGFRAME IOVERLAY, 0, STATIC
        ARGFRAME DOVERLAY, 0, STATIC
        MOV     A,#-0x9
        LCALL   ?BANKED_ENTER_XDATA
        CFI DPH0 load(1, XDATA, add(CFA_XSP16, literal(-1)))
        CFI DPL0 load(1, XDATA, add(CFA_XSP16, literal(-2)))
        CFI ?BRET_EXT load(1, XDATA, add(CFA_XSP16, literal(-3)))
        CFI ?RET_HIGH load(1, XDATA, add(CFA_XSP16, literal(-4)))
        CFI ?RET_LOW load(1, XDATA, add(CFA_XSP16, literal(-5)))
        CFI R7 load(1, XDATA, add(CFA_XSP16, literal(-6)))
        CFI V0 load(1, XDATA, add(CFA_XSP16, literal(-7)))
        CFI VB load(1, XDATA, add(CFA_XSP16, literal(-8)))
        CFI R6 load(1, XDATA, add(CFA_XSP16, literal(-9)))
        CFI CFA_SP SP+0
        CFI CFA_XSP16 add(XSP16, 9)
        ; Saved register size: 9
        ; Auto size: 0
// 1532   uint8 state;
// 1533   uint8 cntr;
// 1534 
// 1535 
// 1536   state = device->ctrl->state;
        MOV     A,R2
        ADD     A,#0x8
        MOV     R6,A
        MOV     A,R3
        ADDC    A,#0x0
        MOV     R7,A
        LCALL   ?Subroutine33 & 0xFFFF
??CrossCallReturnLabel_137:
        MOVX    A,@DPTR
        MOV     ?V0 + 0,A
// 1537   cntr  = ZDSECMGR_CTRL_BASE_CNTR;
// 1538 
// 1539   switch ( state )
        ADD     A,#-0x2
        JZ      ??ZDSecMgrDeviceCtrlHandler_0
        DEC     A
        JZ      ??ZDSecMgrDeviceCtrlHandler_1
        DEC     A
        JZ      ??ZDSecMgrDeviceCtrlHandler_2
        ADD     A,#-0x3
        JZ      ??ZDSecMgrDeviceCtrlHandler_3
        SJMP    ??ZDSecMgrDeviceCtrlHandler_4
// 1540   {
// 1541     case ZDSECMGR_CTRL_TK_MASTER:
// 1542       if ( ZDSecMgrSendMasterKey( device ) == ZSuccess )
??ZDSecMgrDeviceCtrlHandler_0:
        ; Setup parameters for call to function ZDSecMgrSendMasterKey
        LCALL   ??ZDSecMgrSendMasterKey?relay
        MOV     A,R1
        JNZ     ??ZDSecMgrDeviceCtrlHandler_2
// 1543       {
// 1544         state = ZDSECMGR_CTRL_SKKE_INIT;
        MOV     ?V0 + 0,#0x3
// 1545         cntr  = ZDSECMGR_CTRL_SKKE_INIT_CNTR;
        SJMP    ??ZDSecMgrDeviceCtrlHandler_2
// 1546       }
// 1547       break;
// 1548 
// 1549     case ZDSECMGR_CTRL_SKKE_INIT:
// 1550       if ( ZDSecMgrEstablishKey( device ) == ZSuccess )
??ZDSecMgrDeviceCtrlHandler_1:
        ; Setup parameters for call to function ZDSecMgrEstablishKey
        LCALL   ??ZDSecMgrEstablishKey?relay
        MOV     A,R1
        JNZ     ??ZDSecMgrDeviceCtrlHandler_2
// 1551       {
// 1552         state = ZDSECMGR_CTRL_SKKE_WAIT;
        MOV     ?V0 + 0,#0x4
        SJMP    ??ZDSecMgrDeviceCtrlHandler_2
// 1553       }
// 1554       break;
// 1555 
// 1556     case ZDSECMGR_CTRL_SKKE_WAIT:
// 1557       // continue to wait for SKA control timeout
// 1558       break;
// 1559 
// 1560     case ZDSECMGR_CTRL_TK_NWK:
// 1561       if ( ZDSecMgrSendNwkKey( device ) == ZSuccess )
??ZDSecMgrDeviceCtrlHandler_3:
        ; Setup parameters for call to function ZDSecMgrSendNwkKey
        LCALL   ??ZDSecMgrSendNwkKey?relay
        MOV     A,R1
        JZ      ??ZDSecMgrDeviceCtrlHandler_4
// 1562       {
// 1563         state = ZDSECMGR_CTRL_NONE;
// 1564       }
// 1565       break;
// 1566 
// 1567     default:
// 1568       state = ZDSECMGR_CTRL_NONE;
// 1569       break;
// 1570   }
// 1571 
// 1572   if ( state != ZDSECMGR_CTRL_NONE )
// 1573   {
// 1574     device->ctrl->state = state;
??ZDSecMgrDeviceCtrlHandler_2:
        LCALL   ?Subroutine33 & 0xFFFF
??CrossCallReturnLabel_138:
        MOV     A,?V0 + 0
        LCALL   ?Subroutine31 & 0xFFFF
// 1575     device->ctrl->cntr  = cntr;
??CrossCallReturnLabel_28:
        MOV     DPH,A
        MOV     DPL,R0
        INC     DPTR
        INC     DPTR
        INC     DPTR
        INC     DPTR
        INC     DPTR
        INC     DPTR
        MOV     A,#0x1
        MOVX    @DPTR,A
// 1576 
// 1577     osal_start_timerEx(ZDAppTaskID, ZDO_SECMGR_EVENT, 100 );
        ; Setup parameters for call to function osal_start_timerEx
        MOV     R4,#0x64
        MOV     R5,#0x0
        MOV     R2,#0x0
        MOV     R3,A
        MOV     DPTR,#ZDAppTaskID
        MOVX    A,@DPTR
        MOV     R1,A
        LCALL   ??osal_start_timerEx?relay
        SJMP    ??ZDSecMgrDeviceCtrlHandler_5
// 1578   }
// 1579   else
// 1580   {
// 1581     ZDSecMgrCtrlRelease( device->ctrl );
??ZDSecMgrDeviceCtrlHandler_4:
        LCALL   ?Subroutine33 & 0xFFFF
??CrossCallReturnLabel_139:
        CLR     A
        MOVX    @DPTR,A
// 1582   }
// 1583 }
??ZDSecMgrDeviceCtrlHandler_5:
        LJMP    ??Subroutine104_0 & 0xFFFF
        CFI EndBlock cfiBlock186

        RSEG BANKED_CODE:CODE:NOROOT(0)
?Subroutine33:
        CFI Block cfiCond187 Using cfiCommon0
        CFI NoFunction
        CFI Conditional ??CrossCallReturnLabel_137
        CFI R6 load(1, XDATA, add(CFA_XSP16, literal(-9)))
        CFI VB load(1, XDATA, add(CFA_XSP16, literal(-8)))
        CFI V0 load(1, XDATA, add(CFA_XSP16, literal(-7)))
        CFI R7 load(1, XDATA, add(CFA_XSP16, literal(-6)))
        CFI ?RET_LOW load(1, XDATA, add(CFA_XSP16, literal(-5)))
        CFI ?RET_HIGH load(1, XDATA, add(CFA_XSP16, literal(-4)))
        CFI ?BRET_EXT load(1, XDATA, add(CFA_XSP16, literal(-3)))
        CFI DPL0 load(1, XDATA, add(CFA_XSP16, literal(-2)))
        CFI DPH0 load(1, XDATA, add(CFA_XSP16, literal(-1)))
        CFI CFA_SP SP+0
        CFI CFA_XSP16 add(XSP16, 9)
        CFI Block cfiCond188 Using cfiCommon0
        CFI (cfiCond188) NoFunction
        CFI (cfiCond188) Conditional ??CrossCallReturnLabel_138
        CFI (cfiCond188) R6 load(1, XDATA, add(CFA_XSP16, literal(-9)))
        CFI (cfiCond188) VB load(1, XDATA, add(CFA_XSP16, literal(-8)))
        CFI (cfiCond188) V0 load(1, XDATA, add(CFA_XSP16, literal(-7)))
        CFI (cfiCond188) R7 load(1, XDATA, add(CFA_XSP16, literal(-6)))
        CFI (cfiCond188) ?RET_LOW load(1, XDATA, add(CFA_XSP16, literal(-5)))
        CFI (cfiCond188) ?RET_HIGH load(1, XDATA, add(CFA_XSP16, literal(-4)))
        CFI (cfiCond188) ?BRET_EXT load(1, XDATA, add(CFA_XSP16, literal(-3)))
        CFI (cfiCond188) DPL0 load(1, XDATA, add(CFA_XSP16, literal(-2)))
        CFI (cfiCond188) DPH0 load(1, XDATA, add(CFA_XSP16, literal(-1)))
        CFI (cfiCond188) CFA_SP SP+0
        CFI (cfiCond188) CFA_XSP16 add(XSP16, 9)
        CFI Block cfiCond189 Using cfiCommon0
        CFI (cfiCond189) NoFunction
        CFI (cfiCond189) Conditional ??CrossCallReturnLabel_139
        CFI (cfiCond189) R6 load(1, XDATA, add(CFA_XSP16, literal(-9)))
        CFI (cfiCond189) VB load(1, XDATA, add(CFA_XSP16, literal(-8)))
        CFI (cfiCond189) V0 load(1, XDATA, add(CFA_XSP16, literal(-7)))
        CFI (cfiCond189) R7 load(1, XDATA, add(CFA_XSP16, literal(-6)))
        CFI (cfiCond189) ?RET_LOW load(1, XDATA, add(CFA_XSP16, literal(-5)))
        CFI (cfiCond189) ?RET_HIGH load(1, XDATA, add(CFA_XSP16, literal(-4)))
        CFI (cfiCond189) ?BRET_EXT load(1, XDATA, add(CFA_XSP16, literal(-3)))
        CFI (cfiCond189) DPL0 load(1, XDATA, add(CFA_XSP16, literal(-2)))
        CFI (cfiCond189) DPH0 load(1, XDATA, add(CFA_XSP16, literal(-1)))
        CFI (cfiCond189) CFA_SP SP+0
        CFI (cfiCond189) CFA_XSP16 add(XSP16, 9)
        CFI Block cfiPicker190 Using cfiCommon1
        CFI (cfiPicker190) NoFunction
        CFI (cfiPicker190) Picker
        MOV     DPL,R6
        MOV     DPH,R7
        CFI EndBlock cfiCond187
        CFI EndBlock cfiCond188
        CFI EndBlock cfiCond189
        CFI EndBlock cfiPicker190
        REQUIRE ??Subroutine87_0
        ; // Fall through to label ??Subroutine87_0

        RSEG BANKED_CODE:CODE:NOROOT(0)
??Subroutine87_0:
        CFI Block cfiCond191 Using cfiCommon0
        CFI NoFunction
        CFI Conditional ??CrossCallReturnLabel_136
        CFI R6 load(1, XDATA, add(CFA_XSP16, literal(-9)))
        CFI VB load(1, XDATA, add(CFA_XSP16, literal(-8)))
        CFI V0 load(1, XDATA, add(CFA_XSP16, literal(-7)))
        CFI R7 load(1, XDATA, add(CFA_XSP16, literal(-6)))
        CFI ?RET_LOW load(1, XDATA, add(CFA_XSP16, literal(-5)))
        CFI ?RET_HIGH load(1, XDATA, add(CFA_XSP16, literal(-4)))
        CFI ?BRET_EXT load(1, XDATA, add(CFA_XSP16, literal(-3)))
        CFI DPL0 load(1, XDATA, add(CFA_XSP16, literal(-2)))
        CFI DPH0 load(1, XDATA, add(CFA_XSP16, literal(-1)))
        CFI CFA_SP SP+0
        CFI CFA_XSP16 add(XSP16, 13)
        CFI Block cfiCond192 Using cfiCommon0
        CFI (cfiCond192) NoFunction
        CFI (cfiCond192) Conditional ??CrossCallReturnLabel_137
        CFI (cfiCond192) R6 load(1, XDATA, add(CFA_XSP16, literal(-9)))
        CFI (cfiCond192) VB load(1, XDATA, add(CFA_XSP16, literal(-8)))
        CFI (cfiCond192) V0 load(1, XDATA, add(CFA_XSP16, literal(-7)))
        CFI (cfiCond192) R7 load(1, XDATA, add(CFA_XSP16, literal(-6)))
        CFI (cfiCond192) ?RET_LOW load(1, XDATA, add(CFA_XSP16, literal(-5)))
        CFI (cfiCond192) ?RET_HIGH load(1, XDATA, add(CFA_XSP16, literal(-4)))
        CFI (cfiCond192) ?BRET_EXT load(1, XDATA, add(CFA_XSP16, literal(-3)))
        CFI (cfiCond192) DPL0 load(1, XDATA, add(CFA_XSP16, literal(-2)))
        CFI (cfiCond192) DPH0 load(1, XDATA, add(CFA_XSP16, literal(-1)))
        CFI (cfiCond192) CFA_SP SP+0
        CFI (cfiCond192) CFA_XSP16 add(XSP16, 9)
        CFI Block cfiCond193 Using cfiCommon0
        CFI (cfiCond193) NoFunction
        CFI (cfiCond193) Conditional ??CrossCallReturnLabel_138
        CFI (cfiCond193) R6 load(1, XDATA, add(CFA_XSP16, literal(-9)))
        CFI (cfiCond193) VB load(1, XDATA, add(CFA_XSP16, literal(-8)))
        CFI (cfiCond193) V0 load(1, XDATA, add(CFA_XSP16, literal(-7)))
        CFI (cfiCond193) R7 load(1, XDATA, add(CFA_XSP16, literal(-6)))
        CFI (cfiCond193) ?RET_LOW load(1, XDATA, add(CFA_XSP16, literal(-5)))
        CFI (cfiCond193) ?RET_HIGH load(1, XDATA, add(CFA_XSP16, literal(-4)))
        CFI (cfiCond193) ?BRET_EXT load(1, XDATA, add(CFA_XSP16, literal(-3)))
        CFI (cfiCond193) DPL0 load(1, XDATA, add(CFA_XSP16, literal(-2)))
        CFI (cfiCond193) DPH0 load(1, XDATA, add(CFA_XSP16, literal(-1)))
        CFI (cfiCond193) CFA_SP SP+0
        CFI (cfiCond193) CFA_XSP16 add(XSP16, 9)
        CFI Block cfiCond194 Using cfiCommon0
        CFI (cfiCond194) NoFunction
        CFI (cfiCond194) Conditional ??CrossCallReturnLabel_139
        CFI (cfiCond194) R6 load(1, XDATA, add(CFA_XSP16, literal(-9)))
        CFI (cfiCond194) VB load(1, XDATA, add(CFA_XSP16, literal(-8)))
        CFI (cfiCond194) V0 load(1, XDATA, add(CFA_XSP16, literal(-7)))
        CFI (cfiCond194) R7 load(1, XDATA, add(CFA_XSP16, literal(-6)))
        CFI (cfiCond194) ?RET_LOW load(1, XDATA, add(CFA_XSP16, literal(-5)))
        CFI (cfiCond194) ?RET_HIGH load(1, XDATA, add(CFA_XSP16, literal(-4)))
        CFI (cfiCond194) ?BRET_EXT load(1, XDATA, add(CFA_XSP16, literal(-3)))
        CFI (cfiCond194) DPL0 load(1, XDATA, add(CFA_XSP16, literal(-2)))
        CFI (cfiCond194) DPH0 load(1, XDATA, add(CFA_XSP16, literal(-1)))
        CFI (cfiCond194) CFA_SP SP+0
        CFI (cfiCond194) CFA_XSP16 add(XSP16, 9)
        CFI Block cfiPicker195 Using cfiCommon1
        CFI (cfiPicker195) NoFunction
        CFI (cfiPicker195) Picker
        LCALL   ?Subroutine64 & 0xFFFF
??CrossCallReturnLabel_142:
        INC     DPTR
        INC     DPTR
        INC     DPTR
        INC     DPTR
        INC     DPTR
        RET
        CFI EndBlock cfiCond191
        CFI EndBlock cfiCond192
        CFI EndBlock cfiCond193
        CFI EndBlock cfiCond194
        CFI EndBlock cfiPicker195

        RSEG BANKED_CODE:CODE:NOROOT(0)
?Subroutine31:
        CFI Block cfiCond196 Using cfiCommon0
        CFI NoFunction
        CFI Conditional ??CrossCallReturnLabel_27
        CFI R6 load(1, XDATA, add(CFA_XSP16, literal(-10)))
        CFI VB load(1, XDATA, add(CFA_XSP16, literal(-9)))
        CFI V0 load(1, XDATA, add(CFA_XSP16, literal(-8)))
        CFI V1 load(1, XDATA, add(CFA_XSP16, literal(-7)))
        CFI R7 load(1, XDATA, add(CFA_XSP16, literal(-6)))
        CFI ?RET_LOW load(1, XDATA, add(CFA_XSP16, literal(-5)))
        CFI ?RET_HIGH load(1, XDATA, add(CFA_XSP16, literal(-4)))
        CFI ?BRET_EXT load(1, XDATA, add(CFA_XSP16, literal(-3)))
        CFI DPL0 load(1, XDATA, add(CFA_XSP16, literal(-2)))
        CFI DPH0 load(1, XDATA, add(CFA_XSP16, literal(-1)))
        CFI CFA_SP SP+0
        CFI CFA_XSP16 add(XSP16, 49)
        CFI Block cfiCond197 Using cfiCommon0
        CFI (cfiCond197) NoFunction
        CFI (cfiCond197) Conditional ??CrossCallReturnLabel_28
        CFI (cfiCond197) R6 load(1, XDATA, add(CFA_XSP16, literal(-9)))
        CFI (cfiCond197) VB load(1, XDATA, add(CFA_XSP16, literal(-8)))
        CFI (cfiCond197) V0 load(1, XDATA, add(CFA_XSP16, literal(-7)))
        CFI (cfiCond197) R7 load(1, XDATA, add(CFA_XSP16, literal(-6)))
        CFI (cfiCond197) ?RET_LOW load(1, XDATA, add(CFA_XSP16, literal(-5)))
        CFI (cfiCond197) ?RET_HIGH load(1, XDATA, add(CFA_XSP16, literal(-4)))
        CFI (cfiCond197) ?BRET_EXT load(1, XDATA, add(CFA_XSP16, literal(-3)))
        CFI (cfiCond197) DPL0 load(1, XDATA, add(CFA_XSP16, literal(-2)))
        CFI (cfiCond197) DPH0 load(1, XDATA, add(CFA_XSP16, literal(-1)))
        CFI (cfiCond197) CFA_SP SP+0
        CFI (cfiCond197) CFA_XSP16 add(XSP16, 9)
        CFI Block cfiPicker198 Using cfiCommon1
        CFI (cfiPicker198) NoFunction
        CFI (cfiPicker198) Picker
        MOVX    @DPTR,A
        MOV     DPL,R6
        MOV     DPH,R7
        LCALL   ?Subroutine79 & 0xFFFF
??CrossCallReturnLabel_248:
        RET
        CFI EndBlock cfiCond196
        CFI EndBlock cfiCond197
        CFI EndBlock cfiPicker198
// 1584 
// 1585 /******************************************************************************
// 1586  * @fn          ZDSecMgrDeviceCtrlSetup
// 1587  *
// 1588  * @brief       Setup device control.
// 1589  *
// 1590  * @param       device - [in] ZDSecMgrDevice_t, device info
// 1591  *
// 1592  * @return      ZStatus_t
// 1593  */

        RSEG BANKED_CODE:CODE:NOROOT(0)
// 1594 void ZDSecMgrDeviceCtrlSetup( ZDSecMgrDevice_t* device )
ZDSecMgrDeviceCtrlSetup:
        CFI Block cfiBlock199 Using cfiCommon0
        CFI Function ZDSecMgrDeviceCtrlSetup
        CODE
// 1595 {
        FUNCALL ZDSecMgrDeviceCtrlSetup, ZDSecMgrDeviceCtrlHandler
        LOCFRAME ISTACK, 2, STACK
        LOCFRAME PSTACK, 0, STACK
        LOCFRAME XSTACK, 0, STACK
        LOCFRAME IOVERLAY, 0, STATIC
        LOCFRAME DOVERLAY, 0, STATIC
        ARGFRAME ISTACK, 2, STACK
        ARGFRAME PSTACK, 0, STACK
        ARGFRAME XSTACK, 0, STACK
        ARGFRAME IOVERLAY, 0, STATIC
        ARGFRAME DOVERLAY, 0, STATIC
        PUSH    DPL
        CFI DPL0 Frame(CFA_SP, 4)
        CFI CFA_SP SP+-4
        PUSH    DPH
        CFI DPH0 Frame(CFA_SP, 5)
        CFI CFA_SP SP+-5
        ; Saved register size: 2
        ; Auto size: 0
// 1596   if ( device->ctrl != NULL )
        MOV     DPL,R2
        MOV     DPH,R3
        INC     DPTR
        INC     DPTR
        INC     DPTR
        INC     DPTR
        INC     DPTR
        INC     DPTR
        INC     DPTR
        INC     DPTR
        LCALL   ??Subroutine97_0 & 0xFFFF
??CrossCallReturnLabel_205:
        JZ      ??ZDSecMgrDeviceCtrlSetup_0
// 1597   {
// 1598     if ( device->secure == FALSE )
        MOV     A,R0
        ADD     A,#0x5
        MOV     R0,A
        MOV     A,R1
        ADDC    A,#0x0
        MOV     R1,A
        MOV     DPL,R2
        MOV     DPH,R3
        INC     DPTR
        INC     DPTR
        INC     DPTR
        INC     DPTR
        INC     DPTR
        INC     DPTR
        MOVX    A,@DPTR
        MOV     DPL,R0
        MOV     DPH,R1
        JNZ     ??ZDSecMgrDeviceCtrlSetup_1
// 1599     {
// 1600       // send the master key data to the joining device
// 1601       device->ctrl->state = ZDSECMGR_CTRL_TK_MASTER;
        MOV     A,#0x2
        SJMP    ??ZDSecMgrDeviceCtrlSetup_2
// 1602     }
// 1603     else
// 1604     {
// 1605       // start SKKE
// 1606       device->ctrl->state = ZDSECMGR_CTRL_SKKE_INIT;
??ZDSecMgrDeviceCtrlSetup_1:
        MOV     A,#0x3
??ZDSecMgrDeviceCtrlSetup_2:
        MOVX    @DPTR,A
// 1607     }
// 1608 
// 1609     ZDSecMgrDeviceCtrlHandler( device );
        ; Setup parameters for call to function ZDSecMgrDeviceCtrlHandler
        LCALL   ??ZDSecMgrDeviceCtrlHandler?relay
// 1610   }
// 1611 }
??ZDSecMgrDeviceCtrlSetup_0:
        LJMP    ??Subroutine91_0 & 0xFFFF
        CFI EndBlock cfiBlock199
// 1612 
// 1613 /******************************************************************************
// 1614  * @fn          ZDSecMgrDeviceCtrlUpdate
// 1615  *
// 1616  * @brief       Update control data.
// 1617  *
// 1618  * @param       extAddr - [in] EXT address
// 1619  * @param       state   - [in] new control state
// 1620  *
// 1621  * @return      none
// 1622  */

        RSEG BANKED_CODE:CODE:NOROOT(0)
// 1623 void ZDSecMgrDeviceCtrlUpdate( uint8* extAddr, uint8 state )
ZDSecMgrDeviceCtrlUpdate:
        CFI Block cfiBlock200 Using cfiCommon0
        CFI Function ZDSecMgrDeviceCtrlUpdate
        CODE
// 1624 {
        FUNCALL ZDSecMgrDeviceCtrlUpdate, ZDSecMgrEntryLookupExt
        LOCFRAME ISTACK, 0, STACK
        LOCFRAME PSTACK, 0, STACK
        LOCFRAME XSTACK, 13, STACK
        LOCFRAME IOVERLAY, 0, STATIC
        LOCFRAME DOVERLAY, 0, STATIC
        ARGFRAME ISTACK, 0, STACK
        ARGFRAME PSTACK, 0, STACK
        ARGFRAME XSTACK, 13, STACK
        ARGFRAME IOVERLAY, 0, STATIC
        ARGFRAME DOVERLAY, 0, STATIC
        FUNCALL ZDSecMgrDeviceCtrlUpdate, ZDSecMgrCtrlLookup
        LOCFRAME ISTACK, 0, STACK
        LOCFRAME PSTACK, 0, STACK
        LOCFRAME XSTACK, 13, STACK
        LOCFRAME IOVERLAY, 0, STATIC
        LOCFRAME DOVERLAY, 0, STATIC
        ARGFRAME ISTACK, 0, STACK
        ARGFRAME PSTACK, 0, STACK
        ARGFRAME XSTACK, 13, STACK
        ARGFRAME IOVERLAY, 0, STATIC
        ARGFRAME DOVERLAY, 0, STATIC
        MOV     A,#-0x9
        LCALL   ?BANKED_ENTER_XDATA
        CFI DPH0 load(1, XDATA, add(CFA_XSP16, literal(-1)))
        CFI DPL0 load(1, XDATA, add(CFA_XSP16, literal(-2)))
        CFI ?BRET_EXT load(1, XDATA, add(CFA_XSP16, literal(-3)))
        CFI ?RET_HIGH load(1, XDATA, add(CFA_XSP16, literal(-4)))
        CFI ?RET_LOW load(1, XDATA, add(CFA_XSP16, literal(-5)))
        CFI R7 load(1, XDATA, add(CFA_XSP16, literal(-6)))
        CFI V0 load(1, XDATA, add(CFA_XSP16, literal(-7)))
        CFI VB load(1, XDATA, add(CFA_XSP16, literal(-8)))
        CFI R6 load(1, XDATA, add(CFA_XSP16, literal(-9)))
        CFI CFA_SP SP+0
        CFI CFA_XSP16 add(XSP16, 9)
        ; Saved register size: 9
        ; Auto size: 4
        MOV     A,#-0x4
        LCALL   ?ALLOC_XSTACK8
        CFI CFA_XSP16 add(XSP16, 13)
        MOV     A,R1
        MOV     R6,A
// 1625   ZDSecMgrEntry_t* entry;
// 1626   ZDSecMgrCtrl_t*  ctrl;
// 1627 
// 1628 
// 1629   // lookup device entry data
// 1630   ZDSecMgrEntryLookupExt( extAddr, &entry );
        ; Setup parameters for call to function ZDSecMgrEntryLookupExt
        MOV     A,#0x2
        LCALL   ?XSTACK_DISP0_8
        MOV     R4,DPL
        MOV     R5,DPH
        LCALL   ??ZDSecMgrEntryLookupExt?relay
// 1631 
// 1632   if ( entry != NULL )
        MOV     A,#0x2
        LCALL   ?XSTACK_DISP0_8
        LCALL   ??Subroutine97_0 & 0xFFFF
??CrossCallReturnLabel_206:
        JZ      ??ZDSecMgrDeviceCtrlUpdate_0
// 1633   {
// 1634     // lookup device control data
// 1635     ZDSecMgrCtrlLookup( entry, &ctrl );
        ; Setup parameters for call to function ZDSecMgrCtrlLookup
        MOV     DPL,?XSP + 0
        MOV     DPH,?XSP + 1
        MOV     R4,DPL
        MOV     R5,DPH
        MOV     A,#0x2
        LCALL   ?XSTACK_DISP0_8
        MOVX    A,@DPTR
        MOV     R2,A
        INC     DPTR
        MOVX    A,@DPTR
        LCALL   ?Subroutine32 & 0xFFFF
// 1636 
// 1637     // make sure control data is valid
// 1638     if ( ctrl != NULL )
??CrossCallReturnLabel_198:
        JZ      ??ZDSecMgrDeviceCtrlUpdate_0
// 1639     {
// 1640       // possible state transitions
// 1641       if ( ctrl->state == ZDSECMGR_CTRL_SKKE_WAIT )
        MOV     DPL,?XSP + 0
        MOV     DPH,?XSP + 1
        MOVX    A,@DPTR
        ADD     A,#0x5
        LCALL   ?Subroutine39 & 0xFFFF
??CrossCallReturnLabel_40:
        MOVX    A,@DPTR
        XRL     A,#0x4
        JNZ     ??ZDSecMgrDeviceCtrlUpdate_0
// 1642       {
// 1643         if ( state == ZDSECMGR_CTRL_SKKE_DONE )
        MOV     A,#0x5
        XRL     A,R6
        JNZ     ??ZDSecMgrDeviceCtrlUpdate_1
// 1644         {
// 1645           // send the network key
// 1646           ctrl->state = ZDSECMGR_CTRL_TK_NWK;
        MOV     A,#0x7
        SJMP    ??ZDSecMgrDeviceCtrlUpdate_2
// 1647           ctrl->cntr  = ZDSECMGR_CTRL_TK_NWK_CNTR;
// 1648         }
// 1649         else if ( state == ZDSECMGR_CTRL_SKKE_FAIL )
??ZDSecMgrDeviceCtrlUpdate_1:
        MOV     A,#0x6
        XRL     A,R6
        JNZ     ??ZDSecMgrDeviceCtrlUpdate_0
// 1650         {
// 1651           // force default timeout in order to cleanup control logic
// 1652           ctrl->state = ZDSECMGR_CTRL_SKKE_FAIL;
        MOV     A,#0x6
// 1653           ctrl->cntr  = ZDSECMGR_CTRL_BASE_CNTR;
// 1654         }
// 1655       }
// 1656       // timer should be active
// 1657     }
// 1658   }
??ZDSecMgrDeviceCtrlUpdate_2:
        LCALL   ?Subroutine25 & 0xFFFF
??CrossCallReturnLabel_19:
        LCALL   ??Subroutine87_0 & 0xFFFF
??CrossCallReturnLabel_136:
        INC     DPTR
        MOV     A,#0x1
        MOVX    @DPTR,A
        CFI EndBlock cfiBlock200
// 1659 }
??ZDSecMgrDeviceCtrlUpdate_0:
        REQUIRE ?Subroutine6
        ; // Fall through to label ?Subroutine6

        RSEG BANKED_CODE:CODE:NOROOT(0)
?Subroutine6:
        CFI Block cfiBlock201 Using cfiCommon0
        CFI NoFunction
        CFI CFA_SP SP+0
        CFI CFA_XSP16 add(XSP16, 13)
        CFI VB load(1, XDATA, add(CFA_XSP16, literal(-8)))
        CFI DPL0 load(1, XDATA, add(CFA_XSP16, literal(-2)))
        CFI DPH0 load(1, XDATA, add(CFA_XSP16, literal(-1)))
        CFI R6 load(1, XDATA, add(CFA_XSP16, literal(-9)))
        CFI R7 load(1, XDATA, add(CFA_XSP16, literal(-6)))
        CFI V0 load(1, XDATA, add(CFA_XSP16, literal(-7)))
        CFI ?BRET_EXT load(1, XDATA, add(CFA_XSP16, literal(-3)))
        CFI ?RET_HIGH load(1, XDATA, add(CFA_XSP16, literal(-4)))
        CFI ?RET_LOW load(1, XDATA, add(CFA_XSP16, literal(-5)))
        MOV     A,#0x4
        LJMP    ??Subroutine103_0 & 0xFFFF
        CFI EndBlock cfiBlock201

        RSEG BANKED_CODE:CODE:NOROOT(0)
?Subroutine25:
        CFI Block cfiCond202 Using cfiCommon0
        CFI NoFunction
        CFI Conditional ??CrossCallReturnLabel_18
        CFI R6 load(1, XDATA, add(CFA_XSP16, literal(-12)))
        CFI VB load(1, XDATA, add(CFA_XSP16, literal(-11)))
        CFI V0 load(1, XDATA, add(CFA_XSP16, literal(-10)))
        CFI V1 load(1, XDATA, add(CFA_XSP16, literal(-9)))
        CFI V2 load(1, XDATA, add(CFA_XSP16, literal(-8)))
        CFI V3 load(1, XDATA, add(CFA_XSP16, literal(-7)))
        CFI R7 load(1, XDATA, add(CFA_XSP16, literal(-6)))
        CFI ?RET_LOW load(1, XDATA, add(CFA_XSP16, literal(-5)))
        CFI ?RET_HIGH load(1, XDATA, add(CFA_XSP16, literal(-4)))
        CFI ?BRET_EXT load(1, XDATA, add(CFA_XSP16, literal(-3)))
        CFI DPL0 load(1, XDATA, add(CFA_XSP16, literal(-2)))
        CFI DPH0 load(1, XDATA, add(CFA_XSP16, literal(-1)))
        CFI CFA_SP SP+0
        CFI CFA_XSP16 add(XSP16, 14)
        CFI Block cfiCond203 Using cfiCommon0
        CFI (cfiCond203) NoFunction
        CFI (cfiCond203) Conditional ??CrossCallReturnLabel_19
        CFI (cfiCond203) R6 load(1, XDATA, add(CFA_XSP16, literal(-9)))
        CFI (cfiCond203) VB load(1, XDATA, add(CFA_XSP16, literal(-8)))
        CFI (cfiCond203) V0 load(1, XDATA, add(CFA_XSP16, literal(-7)))
        CFI (cfiCond203) R7 load(1, XDATA, add(CFA_XSP16, literal(-6)))
        CFI (cfiCond203) ?RET_LOW load(1, XDATA, add(CFA_XSP16, literal(-5)))
        CFI (cfiCond203) ?RET_HIGH load(1, XDATA, add(CFA_XSP16, literal(-4)))
        CFI (cfiCond203) ?BRET_EXT load(1, XDATA, add(CFA_XSP16, literal(-3)))
        CFI (cfiCond203) DPL0 load(1, XDATA, add(CFA_XSP16, literal(-2)))
        CFI (cfiCond203) DPH0 load(1, XDATA, add(CFA_XSP16, literal(-1)))
        CFI (cfiCond203) CFA_SP SP+0
        CFI (cfiCond203) CFA_XSP16 add(XSP16, 13)
        CFI Block cfiCond204 Using cfiCommon0
        CFI (cfiCond204) NoFunction
        CFI (cfiCond204) Conditional ??CrossCallReturnLabel_20
        CFI (cfiCond204) R6 load(1, XDATA, add(CFA_XSP16, literal(-10)))
        CFI (cfiCond204) VB load(1, XDATA, add(CFA_XSP16, literal(-9)))
        CFI (cfiCond204) V0 load(1, XDATA, add(CFA_XSP16, literal(-8)))
        CFI (cfiCond204) V1 load(1, XDATA, add(CFA_XSP16, literal(-7)))
        CFI (cfiCond204) R7 load(1, XDATA, add(CFA_XSP16, literal(-6)))
        CFI (cfiCond204) ?RET_LOW load(1, XDATA, add(CFA_XSP16, literal(-5)))
        CFI (cfiCond204) ?RET_HIGH load(1, XDATA, add(CFA_XSP16, literal(-4)))
        CFI (cfiCond204) ?BRET_EXT load(1, XDATA, add(CFA_XSP16, literal(-3)))
        CFI (cfiCond204) DPL0 load(1, XDATA, add(CFA_XSP16, literal(-2)))
        CFI (cfiCond204) DPH0 load(1, XDATA, add(CFA_XSP16, literal(-1)))
        CFI (cfiCond204) CFA_SP SP+0
        CFI (cfiCond204) CFA_XSP16 add(XSP16, 23)
        CFI Block cfiPicker205 Using cfiCommon1
        CFI (cfiPicker205) NoFunction
        CFI (cfiPicker205) Picker
        MOVX    @DPTR,A
        ; Setup parameters for call to function ZDSecMgrEntryLookup
        MOV     DPL,?XSP + 0
        MOV     DPH,?XSP + 1
        RET
        CFI EndBlock cfiCond202
        CFI EndBlock cfiCond203
        CFI EndBlock cfiCond204
        CFI EndBlock cfiPicker205
// 1660 
// 1661 void APSME_SKA_TimerExpired( uint8 initiator, uint8* partExtAddr );

        RSEG BANKED_CODE:CODE:NOROOT(0)
// 1662 void APSME_SKA_TimerExpired( uint8 initiator, uint8* partExtAddr )
APSME_SKA_TimerExpired:
        CFI Block cfiBlock206 Using cfiCommon0
        CFI Function APSME_SKA_TimerExpired
        CODE
// 1663 {
        FUNCALL APSME_SKA_TimerExpired, ZDSecMgrDeviceCtrlUpdate
        LOCFRAME ISTACK, 0, STACK
        LOCFRAME PSTACK, 0, STACK
        LOCFRAME XSTACK, 9, STACK
        LOCFRAME IOVERLAY, 0, STATIC
        LOCFRAME DOVERLAY, 0, STATIC
        ARGFRAME ISTACK, 0, STACK
        ARGFRAME PSTACK, 0, STACK
        ARGFRAME XSTACK, 9, STACK
        ARGFRAME IOVERLAY, 0, STATIC
        ARGFRAME DOVERLAY, 0, STATIC
        MOV     A,#-0x9
        LCALL   ?BANKED_ENTER_XDATA
        CFI DPH0 load(1, XDATA, add(CFA_XSP16, literal(-1)))
        CFI DPL0 load(1, XDATA, add(CFA_XSP16, literal(-2)))
        CFI ?BRET_EXT load(1, XDATA, add(CFA_XSP16, literal(-3)))
        CFI ?RET_HIGH load(1, XDATA, add(CFA_XSP16, literal(-4)))
        CFI ?RET_LOW load(1, XDATA, add(CFA_XSP16, literal(-5)))
        CFI R7 load(1, XDATA, add(CFA_XSP16, literal(-6)))
        CFI V0 load(1, XDATA, add(CFA_XSP16, literal(-7)))
        CFI VB load(1, XDATA, add(CFA_XSP16, literal(-8)))
        CFI R6 load(1, XDATA, add(CFA_XSP16, literal(-9)))
        CFI CFA_SP SP+0
        CFI CFA_XSP16 add(XSP16, 9)
        ; Saved register size: 9
        ; Auto size: 0
        MOV     A,R1
        MOV     R6,A
// 1664   if ( ( ZG_BUILD_COORDINATOR_TYPE ) && ( ZG_DEVICE_COORDINATOR_TYPE ) )
// 1665   {
// 1666     if ( initiator == TRUE )
        MOV     A,#0x1
        XRL     A,R6
        JNZ     ??APSME_SKA_TimerExpired_0
// 1667     {
// 1668       ZDSecMgrDeviceCtrlUpdate( partExtAddr, ZDSECMGR_CTRL_SKKE_FAIL );
        ; Setup parameters for call to function ZDSecMgrDeviceCtrlUpdate
        MOV     R1,#0x6
        LCALL   ??ZDSecMgrDeviceCtrlUpdate?relay
// 1669     }
// 1670   }
// 1671 }
??APSME_SKA_TimerExpired_0:
        LJMP    ??Subroutine104_0 & 0xFFFF
        CFI EndBlock cfiBlock206
// 1672 
// 1673 /******************************************************************************
// 1674  * @fn          ZDSecMgrDeviceRemove
// 1675  *
// 1676  * @brief       Remove device from network.
// 1677  *
// 1678  * @param       device - [in] ZDSecMgrDevice_t, device info
// 1679  *
// 1680  * @return      none
// 1681  */

        RSEG BANKED_CODE:CODE:NOROOT(0)
// 1682 void ZDSecMgrDeviceRemove( ZDSecMgrDevice_t* device )
ZDSecMgrDeviceRemove:
        CFI Block cfiBlock207 Using cfiCommon0
        CFI Function ZDSecMgrDeviceRemove
        CODE
// 1683 {
        FUNCALL ZDSecMgrDeviceRemove, NLME_GetShortAddr
        LOCFRAME ISTACK, 0, STACK
        LOCFRAME PSTACK, 0, STACK
        LOCFRAME XSTACK, 19, STACK
        LOCFRAME IOVERLAY, 0, STATIC
        LOCFRAME DOVERLAY, 0, STATIC
        ARGFRAME ISTACK, 0, STACK
        ARGFRAME PSTACK, 0, STACK
        ARGFRAME XSTACK, 19, STACK
        ARGFRAME IOVERLAY, 0, STATIC
        ARGFRAME DOVERLAY, 0, STATIC
        FUNCALL ZDSecMgrDeviceRemove, AssocGetWithExt
        LOCFRAME ISTACK, 0, STACK
        LOCFRAME PSTACK, 0, STACK
        LOCFRAME XSTACK, 19, STACK
        LOCFRAME IOVERLAY, 0, STATIC
        LOCFRAME DOVERLAY, 0, STATIC
        ARGFRAME ISTACK, 0, STACK
        ARGFRAME PSTACK, 0, STACK
        ARGFRAME XSTACK, 19, STACK
        ARGFRAME IOVERLAY, 0, STATIC
        ARGFRAME DOVERLAY, 0, STATIC
        FUNCALL ZDSecMgrDeviceRemove, NLME_LeaveReq
        LOCFRAME ISTACK, 0, STACK
        LOCFRAME PSTACK, 0, STACK
        LOCFRAME XSTACK, 19, STACK
        LOCFRAME IOVERLAY, 0, STATIC
        LOCFRAME DOVERLAY, 0, STATIC
        ARGFRAME ISTACK, 0, STACK
        ARGFRAME PSTACK, 0, STACK
        ARGFRAME XSTACK, 19, STACK
        ARGFRAME IOVERLAY, 0, STATIC
        ARGFRAME DOVERLAY, 0, STATIC
        FUNCALL ZDSecMgrDeviceRemove, APSME_RemoveDeviceReq
        LOCFRAME ISTACK, 0, STACK
        LOCFRAME PSTACK, 0, STACK
        LOCFRAME XSTACK, 19, STACK
        LOCFRAME IOVERLAY, 0, STATIC
        LOCFRAME DOVERLAY, 0, STATIC
        ARGFRAME ISTACK, 0, STACK
        ARGFRAME PSTACK, 0, STACK
        ARGFRAME XSTACK, 19, STACK
        ARGFRAME IOVERLAY, 0, STATIC
        ARGFRAME DOVERLAY, 0, STATIC
        MOV     A,#-0xa
        LCALL   ?BANKED_ENTER_XDATA
        CFI DPH0 load(1, XDATA, add(CFA_XSP16, literal(-1)))
        CFI DPL0 load(1, XDATA, add(CFA_XSP16, literal(-2)))
        CFI ?BRET_EXT load(1, XDATA, add(CFA_XSP16, literal(-3)))
        CFI ?RET_HIGH load(1, XDATA, add(CFA_XSP16, literal(-4)))
        CFI ?RET_LOW load(1, XDATA, add(CFA_XSP16, literal(-5)))
        CFI R7 load(1, XDATA, add(CFA_XSP16, literal(-6)))
        CFI V1 load(1, XDATA, add(CFA_XSP16, literal(-7)))
        CFI V0 load(1, XDATA, add(CFA_XSP16, literal(-8)))
        CFI VB load(1, XDATA, add(CFA_XSP16, literal(-9)))
        CFI R6 load(1, XDATA, add(CFA_XSP16, literal(-10)))
        CFI CFA_SP SP+0
        CFI CFA_XSP16 add(XSP16, 10)
        ; Saved register size: 10
        ; Auto size: 9
        MOV     A,#-0x9
        LCALL   ?ALLOC_XSTACK8
        CFI CFA_XSP16 add(XSP16, 19)
        MOV     A,R2
        MOV     R6,A
        MOV     A,R3
        MOV     R7,A
// 1684   APSME_RemoveDeviceReq_t remDevReq;
// 1685   NLME_LeaveReq_t         leaveReq;
// 1686   associated_devices_t*   assoc;
// 1687 
// 1688 
// 1689   // check if parent, remove the device
// 1690   if ( device->parentAddr == NLME_GetShortAddr() )
        ; Setup parameters for call to function NLME_GetShortAddr
        LCALL   ??NLME_GetShortAddr?relay
        MOV     ?V0 + 0,R2
        MOV     ?V0 + 1,R3
        MOV     A,R6
        ADD     A,#0x2
        MOV     R0,A
        MOV     A,R7
        ADDC    A,#0x0
        MOV     R1,A
        MOV     A,R0
        MOV     R2,A
        MOV     A,R1
        MOV     R3,A
        MOV     DPL,R2
        MOV     DPH,R3
        LCALL   ??Subroutine106_0 & 0xFFFF
??CrossCallReturnLabel_233:
        MOV     DPL,R6
        MOV     DPH,R7
        INC     DPTR
        INC     DPTR
        INC     DPTR
        INC     DPTR
        MOVX    A,@DPTR
        MOV     R6,A
        INC     DPTR
        MOVX    A,@DPTR
        MOV     R7,A
        MOV     A,?V0 + 0
        XRL     A,R6
        JNZ     ??ZDSecMgrDeviceRemove_0
        MOV     A,?V0 + 1
        XRL     A,R7
??ZDSecMgrDeviceRemove_0:
        JNZ     ??ZDSecMgrDeviceRemove_1
// 1691   {
// 1692     // this is the parent of the device
// 1693     leaveReq.extAddr        = device->extAddr;
        LCALL   ?Subroutine29 & 0xFFFF
// 1694     leaveReq.removeChildren = FALSE;
??CrossCallReturnLabel_143:
        LCALL   ?XSTACK_DISP0_8
        CLR     A
        MOVX    @DPTR,A
// 1695     leaveReq.rejoin         = FALSE;
        MOV     A,#0x3
        LCALL   ?XSTACK_DISP0_8
        CLR     A
        LCALL   ?Subroutine74 & 0xFFFF
// 1696 
// 1697     // find child association
// 1698     assoc = AssocGetWithExt( device->extAddr );
??CrossCallReturnLabel_101:
        LCALL   ?Subroutine51 & 0xFFFF
??CrossCallReturnLabel_65:
        MOV     ?V0 + 0,R2
        MOV     ?V0 + 1,R3
        MOV     R0,?V0 + 0
        MOV     R1,?V0 + 1
// 1699 
// 1700     if ( ( assoc != NULL                            ) &&
// 1701          ( assoc->nodeRelation >= CHILD_RFD         ) &&
// 1702          ( assoc->nodeRelation <= CHILD_FFD_RX_IDLE )    )
        MOV     A,R0
        ORL     A,R1
        JZ      ??ZDSecMgrDeviceRemove_2
        MOV     DPL,R0
        MOV     DPH,R1
        INC     DPTR
        INC     DPTR
        INC     DPTR
        INC     DPTR
        MOVX    A,@DPTR
        DEC     A
        CLR     C
        SUBB    A,#0x4
        JNC     ??ZDSecMgrDeviceRemove_2
// 1703     {
// 1704       // check if associated device is authenticated
// 1705       if ( assoc->devStatus & DEV_SEC_AUTH_STATUS )
        MOV     DPL,R0
        MOV     DPH,R1
        INC     DPTR
        INC     DPTR
        INC     DPTR
        INC     DPTR
        INC     DPTR
        MOVX    A,@DPTR
        MOV     C,0xE0 /* A   */.3
        MOV     A,#0x4
        JNC     ??ZDSecMgrDeviceRemove_3
// 1706       {
// 1707         leaveReq.silent = FALSE;
        LCALL   ?XSTACK_DISP0_8
        CLR     A
        SJMP    ??ZDSecMgrDeviceRemove_4
// 1708       }
// 1709       else
// 1710       {
// 1711         leaveReq.silent = TRUE;
??ZDSecMgrDeviceRemove_3:
        LCALL   ?XSTACK_DISP0_8
        MOV     A,#0x1
// 1712       }
// 1713 
// 1714       NLME_LeaveReq( &leaveReq );
// 1715     }
// 1716   }
??ZDSecMgrDeviceRemove_4:
        LCALL   ??Subroutine94_0 & 0xFFFF
??CrossCallReturnLabel_187:
        LCALL   ??NLME_LeaveReq?relay
        SJMP    ??ZDSecMgrDeviceRemove_2
// 1717   else
// 1718   {
// 1719     // this is not the parent of the device
// 1720     remDevReq.parentAddr   = device->parentAddr;
??ZDSecMgrDeviceRemove_1:
        MOV     A,#0x5
        LCALL   ?XSTACK_DISP0_8
        MOV     A,R6
        MOVX    @DPTR,A
        INC     DPTR
        MOV     A,R7
        MOVX    @DPTR,A
// 1721     remDevReq.childExtAddr = device->extAddr;
        MOV     A,#0x7
        LCALL   ?XSTACK_DISP0_8
        LCALL   ??Subroutine85_0 & 0xFFFF
// 1722 
// 1723     APSME_RemoveDeviceReq( &remDevReq );
// 1724   }
??CrossCallReturnLabel_126:
        LCALL   ?XSTACK_DISP0_8
        MOV     R2,DPL
        MOV     R3,DPH
        LCALL   ??APSME_RemoveDeviceReq?relay
// 1725 }
??ZDSecMgrDeviceRemove_2:
        MOV     A,#0x9
        LJMP    ??Subroutine100_0 & 0xFFFF
        CFI EndBlock cfiBlock207

        RSEG BANKED_CODE:CODE:NOROOT(0)
?Subroutine29:
        CFI Block cfiCond208 Using cfiCommon0
        CFI NoFunction
        CFI Conditional ??CrossCallReturnLabel_143
        CFI R6 load(1, XDATA, add(CFA_XSP16, literal(-10)))
        CFI VB load(1, XDATA, add(CFA_XSP16, literal(-9)))
        CFI V0 load(1, XDATA, add(CFA_XSP16, literal(-8)))
        CFI V1 load(1, XDATA, add(CFA_XSP16, literal(-7)))
        CFI R7 load(1, XDATA, add(CFA_XSP16, literal(-6)))
        CFI ?RET_LOW load(1, XDATA, add(CFA_XSP16, literal(-5)))
        CFI ?RET_HIGH load(1, XDATA, add(CFA_XSP16, literal(-4)))
        CFI ?BRET_EXT load(1, XDATA, add(CFA_XSP16, literal(-3)))
        CFI DPL0 load(1, XDATA, add(CFA_XSP16, literal(-2)))
        CFI DPH0 load(1, XDATA, add(CFA_XSP16, literal(-1)))
        CFI CFA_SP SP+0
        CFI CFA_XSP16 add(XSP16, 19)
        CFI Block cfiCond209 Using cfiCommon0
        CFI (cfiCond209) NoFunction
        CFI (cfiCond209) Conditional ??CrossCallReturnLabel_144
        CFI (cfiCond209) R6 load(1, XDATA, add(CFA_XSP16, literal(-12)))
        CFI (cfiCond209) VB load(1, XDATA, add(CFA_XSP16, literal(-11)))
        CFI (cfiCond209) V0 load(1, XDATA, add(CFA_XSP16, literal(-10)))
        CFI (cfiCond209) V1 load(1, XDATA, add(CFA_XSP16, literal(-9)))
        CFI (cfiCond209) V2 load(1, XDATA, add(CFA_XSP16, literal(-8)))
        CFI (cfiCond209) V3 load(1, XDATA, add(CFA_XSP16, literal(-7)))
        CFI (cfiCond209) R7 load(1, XDATA, add(CFA_XSP16, literal(-6)))
        CFI (cfiCond209) ?RET_LOW load(1, XDATA, add(CFA_XSP16, literal(-5)))
        CFI (cfiCond209) ?RET_HIGH load(1, XDATA, add(CFA_XSP16, literal(-4)))
        CFI (cfiCond209) ?BRET_EXT load(1, XDATA, add(CFA_XSP16, literal(-3)))
        CFI (cfiCond209) DPL0 load(1, XDATA, add(CFA_XSP16, literal(-2)))
        CFI (cfiCond209) DPH0 load(1, XDATA, add(CFA_XSP16, literal(-1)))
        CFI (cfiCond209) CFA_SP SP+0
        CFI (cfiCond209) CFA_XSP16 add(XSP16, 32)
        CFI Block cfiPicker210 Using cfiCommon1
        CFI (cfiPicker210) NoFunction
        CFI (cfiPicker210) Picker
        MOV     DPL,?XSP + 0
        MOV     DPH,?XSP + 1
        CFI EndBlock cfiCond208
        CFI EndBlock cfiCond209
        CFI EndBlock cfiPicker210
        REQUIRE ??Subroutine88_0
        ; // Fall through to label ??Subroutine88_0

        RSEG BANKED_CODE:CODE:NOROOT(0)
??Subroutine88_0:
        CFI Block cfiCond211 Using cfiCommon0
        CFI NoFunction
        CFI Conditional ??CrossCallReturnLabel_145
        CFI R6 load(1, XDATA, add(CFA_XSP16, literal(-12)))
        CFI VB load(1, XDATA, add(CFA_XSP16, literal(-11)))
        CFI V0 load(1, XDATA, add(CFA_XSP16, literal(-10)))
        CFI V1 load(1, XDATA, add(CFA_XSP16, literal(-9)))
        CFI V2 load(1, XDATA, add(CFA_XSP16, literal(-8)))
        CFI V3 load(1, XDATA, add(CFA_XSP16, literal(-7)))
        CFI R7 load(1, XDATA, add(CFA_XSP16, literal(-6)))
        CFI ?RET_LOW load(1, XDATA, add(CFA_XSP16, literal(-5)))
        CFI ?RET_HIGH load(1, XDATA, add(CFA_XSP16, literal(-4)))
        CFI ?BRET_EXT load(1, XDATA, add(CFA_XSP16, literal(-3)))
        CFI DPL0 load(1, XDATA, add(CFA_XSP16, literal(-2)))
        CFI DPH0 load(1, XDATA, add(CFA_XSP16, literal(-1)))
        CFI CFA_SP SP+0
        CFI CFA_XSP16 add(XSP16, 25)
        CFI Block cfiCond212 Using cfiCommon0
        CFI (cfiCond212) NoFunction
        CFI (cfiCond212) Conditional ??CrossCallReturnLabel_143
        CFI (cfiCond212) R6 load(1, XDATA, add(CFA_XSP16, literal(-10)))
        CFI (cfiCond212) VB load(1, XDATA, add(CFA_XSP16, literal(-9)))
        CFI (cfiCond212) V0 load(1, XDATA, add(CFA_XSP16, literal(-8)))
        CFI (cfiCond212) V1 load(1, XDATA, add(CFA_XSP16, literal(-7)))
        CFI (cfiCond212) R7 load(1, XDATA, add(CFA_XSP16, literal(-6)))
        CFI (cfiCond212) ?RET_LOW load(1, XDATA, add(CFA_XSP16, literal(-5)))
        CFI (cfiCond212) ?RET_HIGH load(1, XDATA, add(CFA_XSP16, literal(-4)))
        CFI (cfiCond212) ?BRET_EXT load(1, XDATA, add(CFA_XSP16, literal(-3)))
        CFI (cfiCond212) DPL0 load(1, XDATA, add(CFA_XSP16, literal(-2)))
        CFI (cfiCond212) DPH0 load(1, XDATA, add(CFA_XSP16, literal(-1)))
        CFI (cfiCond212) CFA_SP SP+0
        CFI (cfiCond212) CFA_XSP16 add(XSP16, 19)
        CFI Block cfiCond213 Using cfiCommon0
        CFI (cfiCond213) NoFunction
        CFI (cfiCond213) Conditional ??CrossCallReturnLabel_144
        CFI (cfiCond213) R6 load(1, XDATA, add(CFA_XSP16, literal(-12)))
        CFI (cfiCond213) VB load(1, XDATA, add(CFA_XSP16, literal(-11)))
        CFI (cfiCond213) V0 load(1, XDATA, add(CFA_XSP16, literal(-10)))
        CFI (cfiCond213) V1 load(1, XDATA, add(CFA_XSP16, literal(-9)))
        CFI (cfiCond213) V2 load(1, XDATA, add(CFA_XSP16, literal(-8)))
        CFI (cfiCond213) V3 load(1, XDATA, add(CFA_XSP16, literal(-7)))
        CFI (cfiCond213) R7 load(1, XDATA, add(CFA_XSP16, literal(-6)))
        CFI (cfiCond213) ?RET_LOW load(1, XDATA, add(CFA_XSP16, literal(-5)))
        CFI (cfiCond213) ?RET_HIGH load(1, XDATA, add(CFA_XSP16, literal(-4)))
        CFI (cfiCond213) ?BRET_EXT load(1, XDATA, add(CFA_XSP16, literal(-3)))
        CFI (cfiCond213) DPL0 load(1, XDATA, add(CFA_XSP16, literal(-2)))
        CFI (cfiCond213) DPH0 load(1, XDATA, add(CFA_XSP16, literal(-1)))
        CFI (cfiCond213) CFA_SP SP+0
        CFI (cfiCond213) CFA_XSP16 add(XSP16, 32)
        CFI Block cfiPicker214 Using cfiCommon1
        CFI (cfiPicker214) NoFunction
        CFI (cfiPicker214) Picker
        LCALL   ?Subroutine77 & 0xFFFF
??CrossCallReturnLabel_224:
        MOV     A,#0x2
        RET
        CFI EndBlock cfiCond211
        CFI EndBlock cfiCond212
        CFI EndBlock cfiCond213
        CFI EndBlock cfiPicker214
// 1726 
// 1727 /******************************************************************************
// 1728  * @fn          ZDSecMgrDeviceValidateSKKE
// 1729  *
// 1730  * @brief       Decide whether device is allowed for SKKE.
// 1731  *
// 1732  * @param       device - [in] ZDSecMgrDevice_t, device info
// 1733  *
// 1734  * @return      ZStatus_t
// 1735  */

        RSEG BANKED_CODE:CODE:NOROOT(0)
// 1736 ZStatus_t ZDSecMgrDeviceValidateSKKE( ZDSecMgrDevice_t* device )
ZDSecMgrDeviceValidateSKKE:
        CFI Block cfiBlock215 Using cfiCommon0
        CFI Function ZDSecMgrDeviceValidateSKKE
        CODE
// 1737 {
        FUNCALL ZDSecMgrDeviceValidateSKKE, ZDSecMgrExtAddrLookup
        LOCFRAME ISTACK, 0, STACK
        LOCFRAME PSTACK, 0, STACK
        LOCFRAME XSTACK, 13, STACK
        LOCFRAME IOVERLAY, 0, STATIC
        LOCFRAME DOVERLAY, 0, STATIC
        ARGFRAME ISTACK, 0, STACK
        ARGFRAME PSTACK, 0, STACK
        ARGFRAME XSTACK, 13, STACK
        ARGFRAME IOVERLAY, 0, STATIC
        ARGFRAME DOVERLAY, 0, STATIC
        FUNCALL ZDSecMgrDeviceValidateSKKE, ZDSecMgrMasterKeyLookup
        LOCFRAME ISTACK, 0, STACK
        LOCFRAME PSTACK, 0, STACK
        LOCFRAME XSTACK, 13, STACK
        LOCFRAME IOVERLAY, 0, STATIC
        LOCFRAME DOVERLAY, 0, STATIC
        ARGFRAME ISTACK, 0, STACK
        ARGFRAME PSTACK, 0, STACK
        ARGFRAME XSTACK, 13, STACK
        ARGFRAME IOVERLAY, 0, STATIC
        ARGFRAME DOVERLAY, 0, STATIC
        FUNCALL ZDSecMgrDeviceValidateSKKE, ZDSecMgrDeviceEntryAdd
        LOCFRAME ISTACK, 0, STACK
        LOCFRAME PSTACK, 0, STACK
        LOCFRAME XSTACK, 13, STACK
        LOCFRAME IOVERLAY, 0, STATIC
        LOCFRAME DOVERLAY, 0, STATIC
        ARGFRAME ISTACK, 0, STACK
        ARGFRAME PSTACK, 0, STACK
        ARGFRAME XSTACK, 13, STACK
        ARGFRAME IOVERLAY, 0, STATIC
        ARGFRAME DOVERLAY, 0, STATIC
        MOV     A,#-0x9
        LCALL   ?BANKED_ENTER_XDATA
        CFI DPH0 load(1, XDATA, add(CFA_XSP16, literal(-1)))
        CFI DPL0 load(1, XDATA, add(CFA_XSP16, literal(-2)))
        CFI ?BRET_EXT load(1, XDATA, add(CFA_XSP16, literal(-3)))
        CFI ?RET_HIGH load(1, XDATA, add(CFA_XSP16, literal(-4)))
        CFI ?RET_LOW load(1, XDATA, add(CFA_XSP16, literal(-5)))
        CFI R7 load(1, XDATA, add(CFA_XSP16, literal(-6)))
        CFI V0 load(1, XDATA, add(CFA_XSP16, literal(-7)))
        CFI VB load(1, XDATA, add(CFA_XSP16, literal(-8)))
        CFI R6 load(1, XDATA, add(CFA_XSP16, literal(-9)))
        CFI CFA_SP SP+0
        CFI CFA_XSP16 add(XSP16, 9)
        ; Saved register size: 9
        ; Auto size: 4
        MOV     A,#-0x4
        LCALL   ?ALLOC_XSTACK8
        CFI CFA_XSP16 add(XSP16, 13)
        MOV     A,R2
        MOV     R6,A
        MOV     A,R3
        MOV     R7,A
// 1738   ZStatus_t status;
// 1739   uint16    ami;
// 1740   uint8*    key;
// 1741 
// 1742 
// 1743   // get EXT address
// 1744   status = ZDSecMgrExtAddrLookup( device->extAddr, &ami );
        ; Setup parameters for call to function ZDSecMgrExtAddrLookup
        MOV     DPL,?XSP + 0
        MOV     DPH,?XSP + 1
        MOV     R4,DPL
        MOV     R5,DPH
        MOV     DPL,R6
        MOV     DPH,R7
        INC     DPTR
        INC     DPTR
        LCALL   ??Subroutine89_0 & 0xFFFF
??CrossCallReturnLabel_151:
        LCALL   ??ZDSecMgrExtAddrLookup?relay
        MOV     A,R1
// 1745 
// 1746   if ( status == ZSuccess )
        JNZ     ??CrossCallReturnLabel_38
// 1747   {
// 1748     // get MASTER key
// 1749     status = ZDSecMgrMasterKeyLookup( ami, &key );
        ; Setup parameters for call to function ZDSecMgrMasterKeyLookup
        MOV     A,#0x2
        LCALL   ?XSTACK_DISP0_8
        LCALL   ?Subroutine36 & 0xFFFF
// 1750 
// 1751     if ( status == ZSuccess )
??CrossCallReturnLabel_34:
        JNZ     ??CrossCallReturnLabel_38
// 1752     {
// 1753     //  // check if initiator is Trust Center
// 1754     //  if ( device->nwkAddr == APSME_TRUSTCENTER_NWKADDR )
// 1755     //  {
// 1756     //    // verify NWK key not sent
// 1757     //    // devtag.todo
// 1758     //    // temporary - add device to internal data
// 1759     //    status = ZDSecMgrDeviceEntryAdd( device, ami );
// 1760     //  }
// 1761     //  else
// 1762     //  {
// 1763     //    // initiator not Trust Center - End to End SKKE - set policy
// 1764     //    // for accepting an SKKE initiation
// 1765     //    // temporary - add device to internal data
// 1766     //    status = ZDSecMgrDeviceEntryAdd( device, ami );
// 1767     //  }
// 1768         status = ZDSecMgrDeviceEntryAdd( device, ami );
        ; Setup parameters for call to function ZDSecMgrDeviceEntryAdd
        LCALL   ?Subroutine38 & 0xFFFF
// 1769     }
// 1770   }
// 1771 
// 1772   return status;
??CrossCallReturnLabel_38:
        LJMP    ?Subroutine6 & 0xFFFF
        CFI EndBlock cfiBlock215
// 1773 }

        RSEG BANKED_CODE:CODE:NOROOT(0)
?Subroutine52:
        CFI Block cfiCond216 Using cfiCommon0
        CFI NoFunction
        CFI Conditional ??CrossCallReturnLabel_154
        CFI R6 load(1, XDATA, add(CFA_XSP16, literal(-10)))
        CFI VB load(1, XDATA, add(CFA_XSP16, literal(-9)))
        CFI V0 load(1, XDATA, add(CFA_XSP16, literal(-8)))
        CFI V1 load(1, XDATA, add(CFA_XSP16, literal(-7)))
        CFI R7 load(1, XDATA, add(CFA_XSP16, literal(-6)))
        CFI ?RET_LOW load(1, XDATA, add(CFA_XSP16, literal(-5)))
        CFI ?RET_HIGH load(1, XDATA, add(CFA_XSP16, literal(-4)))
        CFI ?BRET_EXT load(1, XDATA, add(CFA_XSP16, literal(-3)))
        CFI DPL0 load(1, XDATA, add(CFA_XSP16, literal(-2)))
        CFI DPH0 load(1, XDATA, add(CFA_XSP16, literal(-1)))
        CFI CFA_SP SP+0
        CFI CFA_XSP16 add(XSP16, 49)
        CFI Block cfiCond217 Using cfiCommon0
        CFI (cfiCond217) NoFunction
        CFI (cfiCond217) Conditional ??CrossCallReturnLabel_155
        CFI (cfiCond217) R6 load(1, XDATA, add(CFA_XSP16, literal(-12)))
        CFI (cfiCond217) VB load(1, XDATA, add(CFA_XSP16, literal(-11)))
        CFI (cfiCond217) V0 load(1, XDATA, add(CFA_XSP16, literal(-10)))
        CFI (cfiCond217) V1 load(1, XDATA, add(CFA_XSP16, literal(-9)))
        CFI (cfiCond217) V2 load(1, XDATA, add(CFA_XSP16, literal(-8)))
        CFI (cfiCond217) V3 load(1, XDATA, add(CFA_XSP16, literal(-7)))
        CFI (cfiCond217) R7 load(1, XDATA, add(CFA_XSP16, literal(-6)))
        CFI (cfiCond217) ?RET_LOW load(1, XDATA, add(CFA_XSP16, literal(-5)))
        CFI (cfiCond217) ?RET_HIGH load(1, XDATA, add(CFA_XSP16, literal(-4)))
        CFI (cfiCond217) ?BRET_EXT load(1, XDATA, add(CFA_XSP16, literal(-3)))
        CFI (cfiCond217) DPL0 load(1, XDATA, add(CFA_XSP16, literal(-2)))
        CFI (cfiCond217) DPH0 load(1, XDATA, add(CFA_XSP16, literal(-1)))
        CFI (cfiCond217) CFA_SP SP+0
        CFI (cfiCond217) CFA_XSP16 add(XSP16, 16)
        CFI Block cfiCond218 Using cfiCommon0
        CFI (cfiCond218) NoFunction
        CFI (cfiCond218) Conditional ??CrossCallReturnLabel_156
        CFI (cfiCond218) R6 load(1, XDATA, add(CFA_XSP16, literal(-9)))
        CFI (cfiCond218) VB load(1, XDATA, add(CFA_XSP16, literal(-8)))
        CFI (cfiCond218) V0 load(1, XDATA, add(CFA_XSP16, literal(-7)))
        CFI (cfiCond218) R7 load(1, XDATA, add(CFA_XSP16, literal(-6)))
        CFI (cfiCond218) ?RET_LOW load(1, XDATA, add(CFA_XSP16, literal(-5)))
        CFI (cfiCond218) ?RET_HIGH load(1, XDATA, add(CFA_XSP16, literal(-4)))
        CFI (cfiCond218) ?BRET_EXT load(1, XDATA, add(CFA_XSP16, literal(-3)))
        CFI (cfiCond218) DPL0 load(1, XDATA, add(CFA_XSP16, literal(-2)))
        CFI (cfiCond218) DPH0 load(1, XDATA, add(CFA_XSP16, literal(-1)))
        CFI (cfiCond218) CFA_SP SP+0
        CFI (cfiCond218) CFA_XSP16 add(XSP16, 9)
        CFI Block cfiPicker219 Using cfiCommon1
        CFI (cfiPicker219) NoFunction
        CFI (cfiPicker219) Picker
        MOV     DPL,R6
        MOV     DPH,R7
        CFI EndBlock cfiCond216
        CFI EndBlock cfiCond217
        CFI EndBlock cfiCond218
        CFI EndBlock cfiPicker219
        REQUIRE ??Subroutine89_0
        ; // Fall through to label ??Subroutine89_0

        RSEG BANKED_CODE:CODE:NOROOT(0)
??Subroutine89_0:
        CFI Block cfiCond220 Using cfiCommon0
        CFI NoFunction
        CFI Conditional ??CrossCallReturnLabel_146
        CFI R6 load(1, XDATA, add(CFA_XSP16, literal(-15)))
        CFI VB load(1, XDATA, add(CFA_XSP16, literal(-14)))
        CFI V0 load(1, XDATA, add(CFA_XSP16, literal(-13)))
        CFI V1 load(1, XDATA, add(CFA_XSP16, literal(-12)))
        CFI V2 load(1, XDATA, add(CFA_XSP16, literal(-11)))
        CFI V3 load(1, XDATA, add(CFA_XSP16, literal(-10)))
        CFI V4 load(1, XDATA, add(CFA_XSP16, literal(-9)))
        CFI V5 load(1, XDATA, add(CFA_XSP16, literal(-8)))
        CFI V6 load(1, XDATA, add(CFA_XSP16, literal(-7)))
        CFI R7 load(1, XDATA, add(CFA_XSP16, literal(-6)))
        CFI ?RET_LOW load(1, XDATA, add(CFA_XSP16, literal(-5)))
        CFI ?RET_HIGH load(1, XDATA, add(CFA_XSP16, literal(-4)))
        CFI ?BRET_EXT load(1, XDATA, add(CFA_XSP16, literal(-3)))
        CFI DPL0 load(1, XDATA, add(CFA_XSP16, literal(-2)))
        CFI DPH0 load(1, XDATA, add(CFA_XSP16, literal(-1)))
        CFI CFA_SP SP+0
        CFI CFA_XSP16 add(XSP16, 22)
        CFI Block cfiCond221 Using cfiCommon0
        CFI (cfiCond221) NoFunction
        CFI (cfiCond221) Conditional ??CrossCallReturnLabel_147
        CFI (cfiCond221) R6 load(1, XDATA, add(CFA_XSP16, literal(-9)))
        CFI (cfiCond221) VB load(1, XDATA, add(CFA_XSP16, literal(-8)))
        CFI (cfiCond221) V0 load(1, XDATA, add(CFA_XSP16, literal(-7)))
        CFI (cfiCond221) R7 load(1, XDATA, add(CFA_XSP16, literal(-6)))
        CFI (cfiCond221) ?RET_LOW load(1, XDATA, add(CFA_XSP16, literal(-5)))
        CFI (cfiCond221) ?RET_HIGH load(1, XDATA, add(CFA_XSP16, literal(-4)))
        CFI (cfiCond221) ?BRET_EXT load(1, XDATA, add(CFA_XSP16, literal(-3)))
        CFI (cfiCond221) DPL0 load(1, XDATA, add(CFA_XSP16, literal(-2)))
        CFI (cfiCond221) DPH0 load(1, XDATA, add(CFA_XSP16, literal(-1)))
        CFI (cfiCond221) CFA_SP SP+0
        CFI (cfiCond221) CFA_XSP16 add(XSP16, 9)
        CFI Block cfiCond222 Using cfiCommon0
        CFI (cfiCond222) NoFunction
        CFI (cfiCond222) Conditional ??CrossCallReturnLabel_148
        CFI (cfiCond222) R6 load(1, XDATA, add(CFA_XSP16, literal(-12)))
        CFI (cfiCond222) VB load(1, XDATA, add(CFA_XSP16, literal(-11)))
        CFI (cfiCond222) V0 load(1, XDATA, add(CFA_XSP16, literal(-10)))
        CFI (cfiCond222) V1 load(1, XDATA, add(CFA_XSP16, literal(-9)))
        CFI (cfiCond222) V2 load(1, XDATA, add(CFA_XSP16, literal(-8)))
        CFI (cfiCond222) V3 load(1, XDATA, add(CFA_XSP16, literal(-7)))
        CFI (cfiCond222) R7 load(1, XDATA, add(CFA_XSP16, literal(-6)))
        CFI (cfiCond222) ?RET_LOW load(1, XDATA, add(CFA_XSP16, literal(-5)))
        CFI (cfiCond222) ?RET_HIGH load(1, XDATA, add(CFA_XSP16, literal(-4)))
        CFI (cfiCond222) ?BRET_EXT load(1, XDATA, add(CFA_XSP16, literal(-3)))
        CFI (cfiCond222) DPL0 load(1, XDATA, add(CFA_XSP16, literal(-2)))
        CFI (cfiCond222) DPH0 load(1, XDATA, add(CFA_XSP16, literal(-1)))
        CFI (cfiCond222) CFA_SP SP+0
        CFI (cfiCond222) CFA_XSP16 add(XSP16, 25)
        CFI Block cfiCond223 Using cfiCommon0
        CFI (cfiCond223) NoFunction
        CFI (cfiCond223) Conditional ??CrossCallReturnLabel_149
        CFI (cfiCond223) R6 load(1, XDATA, add(CFA_XSP16, literal(-12)))
        CFI (cfiCond223) VB load(1, XDATA, add(CFA_XSP16, literal(-11)))
        CFI (cfiCond223) V0 load(1, XDATA, add(CFA_XSP16, literal(-10)))
        CFI (cfiCond223) V1 load(1, XDATA, add(CFA_XSP16, literal(-9)))
        CFI (cfiCond223) V2 load(1, XDATA, add(CFA_XSP16, literal(-8)))
        CFI (cfiCond223) V3 load(1, XDATA, add(CFA_XSP16, literal(-7)))
        CFI (cfiCond223) R7 load(1, XDATA, add(CFA_XSP16, literal(-6)))
        CFI (cfiCond223) ?RET_LOW load(1, XDATA, add(CFA_XSP16, literal(-5)))
        CFI (cfiCond223) ?RET_HIGH load(1, XDATA, add(CFA_XSP16, literal(-4)))
        CFI (cfiCond223) ?BRET_EXT load(1, XDATA, add(CFA_XSP16, literal(-3)))
        CFI (cfiCond223) DPL0 load(1, XDATA, add(CFA_XSP16, literal(-2)))
        CFI (cfiCond223) DPH0 load(1, XDATA, add(CFA_XSP16, literal(-1)))
        CFI (cfiCond223) CFA_SP SP+0
        CFI (cfiCond223) CFA_XSP16 add(XSP16, 14)
        CFI Block cfiCond224 Using cfiCommon0
        CFI (cfiCond224) NoFunction
        CFI (cfiCond224) Conditional ??CrossCallReturnLabel_150
        CFI (cfiCond224) R6 load(1, XDATA, add(CFA_XSP16, literal(-12)))
        CFI (cfiCond224) VB load(1, XDATA, add(CFA_XSP16, literal(-11)))
        CFI (cfiCond224) V0 load(1, XDATA, add(CFA_XSP16, literal(-10)))
        CFI (cfiCond224) V1 load(1, XDATA, add(CFA_XSP16, literal(-9)))
        CFI (cfiCond224) V2 load(1, XDATA, add(CFA_XSP16, literal(-8)))
        CFI (cfiCond224) V3 load(1, XDATA, add(CFA_XSP16, literal(-7)))
        CFI (cfiCond224) R7 load(1, XDATA, add(CFA_XSP16, literal(-6)))
        CFI (cfiCond224) ?RET_LOW load(1, XDATA, add(CFA_XSP16, literal(-5)))
        CFI (cfiCond224) ?RET_HIGH load(1, XDATA, add(CFA_XSP16, literal(-4)))
        CFI (cfiCond224) ?BRET_EXT load(1, XDATA, add(CFA_XSP16, literal(-3)))
        CFI (cfiCond224) DPL0 load(1, XDATA, add(CFA_XSP16, literal(-2)))
        CFI (cfiCond224) DPH0 load(1, XDATA, add(CFA_XSP16, literal(-1)))
        CFI (cfiCond224) CFA_SP SP+0
        CFI (cfiCond224) CFA_XSP16 add(XSP16, 14)
        CFI Block cfiCond225 Using cfiCommon0
        CFI (cfiCond225) NoFunction
        CFI (cfiCond225) Conditional ??CrossCallReturnLabel_151
        CFI (cfiCond225) R6 load(1, XDATA, add(CFA_XSP16, literal(-9)))
        CFI (cfiCond225) VB load(1, XDATA, add(CFA_XSP16, literal(-8)))
        CFI (cfiCond225) V0 load(1, XDATA, add(CFA_XSP16, literal(-7)))
        CFI (cfiCond225) R7 load(1, XDATA, add(CFA_XSP16, literal(-6)))
        CFI (cfiCond225) ?RET_LOW load(1, XDATA, add(CFA_XSP16, literal(-5)))
        CFI (cfiCond225) ?RET_HIGH load(1, XDATA, add(CFA_XSP16, literal(-4)))
        CFI (cfiCond225) ?BRET_EXT load(1, XDATA, add(CFA_XSP16, literal(-3)))
        CFI (cfiCond225) DPL0 load(1, XDATA, add(CFA_XSP16, literal(-2)))
        CFI (cfiCond225) DPH0 load(1, XDATA, add(CFA_XSP16, literal(-1)))
        CFI (cfiCond225) CFA_SP SP+0
        CFI (cfiCond225) CFA_XSP16 add(XSP16, 13)
        CFI Block cfiCond226 Using cfiCommon0
        CFI (cfiCond226) NoFunction
        CFI (cfiCond226) Conditional ??CrossCallReturnLabel_152
        CFI (cfiCond226) R6 load(1, XDATA, add(CFA_XSP16, literal(-12)))
        CFI (cfiCond226) VB load(1, XDATA, add(CFA_XSP16, literal(-11)))
        CFI (cfiCond226) V0 load(1, XDATA, add(CFA_XSP16, literal(-10)))
        CFI (cfiCond226) V1 load(1, XDATA, add(CFA_XSP16, literal(-9)))
        CFI (cfiCond226) V2 load(1, XDATA, add(CFA_XSP16, literal(-8)))
        CFI (cfiCond226) V3 load(1, XDATA, add(CFA_XSP16, literal(-7)))
        CFI (cfiCond226) R7 load(1, XDATA, add(CFA_XSP16, literal(-6)))
        CFI (cfiCond226) ?RET_LOW load(1, XDATA, add(CFA_XSP16, literal(-5)))
        CFI (cfiCond226) ?RET_HIGH load(1, XDATA, add(CFA_XSP16, literal(-4)))
        CFI (cfiCond226) ?BRET_EXT load(1, XDATA, add(CFA_XSP16, literal(-3)))
        CFI (cfiCond226) DPL0 load(1, XDATA, add(CFA_XSP16, literal(-2)))
        CFI (cfiCond226) DPH0 load(1, XDATA, add(CFA_XSP16, literal(-1)))
        CFI (cfiCond226) CFA_SP SP+0
        CFI (cfiCond226) CFA_XSP16 add(XSP16, 14)
        CFI Block cfiCond227 Using cfiCommon0
        CFI (cfiCond227) NoFunction
        CFI (cfiCond227) Conditional ??CrossCallReturnLabel_153
        CFI (cfiCond227) R6 load(1, XDATA, add(CFA_XSP16, literal(-10)))
        CFI (cfiCond227) VB load(1, XDATA, add(CFA_XSP16, literal(-9)))
        CFI (cfiCond227) V0 load(1, XDATA, add(CFA_XSP16, literal(-8)))
        CFI (cfiCond227) V1 load(1, XDATA, add(CFA_XSP16, literal(-7)))
        CFI (cfiCond227) R7 load(1, XDATA, add(CFA_XSP16, literal(-6)))
        CFI (cfiCond227) ?RET_LOW load(1, XDATA, add(CFA_XSP16, literal(-5)))
        CFI (cfiCond227) ?RET_HIGH load(1, XDATA, add(CFA_XSP16, literal(-4)))
        CFI (cfiCond227) ?BRET_EXT load(1, XDATA, add(CFA_XSP16, literal(-3)))
        CFI (cfiCond227) DPL0 load(1, XDATA, add(CFA_XSP16, literal(-2)))
        CFI (cfiCond227) DPH0 load(1, XDATA, add(CFA_XSP16, literal(-1)))
        CFI (cfiCond227) CFA_SP SP+0
        CFI (cfiCond227) CFA_XSP16 add(XSP16, 33)
        CFI Block cfiCond228 Using cfiCommon0
        CFI (cfiCond228) NoFunction
        CFI (cfiCond228) Conditional ??CrossCallReturnLabel_154
        CFI (cfiCond228) R6 load(1, XDATA, add(CFA_XSP16, literal(-10)))
        CFI (cfiCond228) VB load(1, XDATA, add(CFA_XSP16, literal(-9)))
        CFI (cfiCond228) V0 load(1, XDATA, add(CFA_XSP16, literal(-8)))
        CFI (cfiCond228) V1 load(1, XDATA, add(CFA_XSP16, literal(-7)))
        CFI (cfiCond228) R7 load(1, XDATA, add(CFA_XSP16, literal(-6)))
        CFI (cfiCond228) ?RET_LOW load(1, XDATA, add(CFA_XSP16, literal(-5)))
        CFI (cfiCond228) ?RET_HIGH load(1, XDATA, add(CFA_XSP16, literal(-4)))
        CFI (cfiCond228) ?BRET_EXT load(1, XDATA, add(CFA_XSP16, literal(-3)))
        CFI (cfiCond228) DPL0 load(1, XDATA, add(CFA_XSP16, literal(-2)))
        CFI (cfiCond228) DPH0 load(1, XDATA, add(CFA_XSP16, literal(-1)))
        CFI (cfiCond228) CFA_SP SP+0
        CFI (cfiCond228) CFA_XSP16 add(XSP16, 49)
        CFI Block cfiCond229 Using cfiCommon0
        CFI (cfiCond229) NoFunction
        CFI (cfiCond229) Conditional ??CrossCallReturnLabel_155
        CFI (cfiCond229) R6 load(1, XDATA, add(CFA_XSP16, literal(-12)))
        CFI (cfiCond229) VB load(1, XDATA, add(CFA_XSP16, literal(-11)))
        CFI (cfiCond229) V0 load(1, XDATA, add(CFA_XSP16, literal(-10)))
        CFI (cfiCond229) V1 load(1, XDATA, add(CFA_XSP16, literal(-9)))
        CFI (cfiCond229) V2 load(1, XDATA, add(CFA_XSP16, literal(-8)))
        CFI (cfiCond229) V3 load(1, XDATA, add(CFA_XSP16, literal(-7)))
        CFI (cfiCond229) R7 load(1, XDATA, add(CFA_XSP16, literal(-6)))
        CFI (cfiCond229) ?RET_LOW load(1, XDATA, add(CFA_XSP16, literal(-5)))
        CFI (cfiCond229) ?RET_HIGH load(1, XDATA, add(CFA_XSP16, literal(-4)))
        CFI (cfiCond229) ?BRET_EXT load(1, XDATA, add(CFA_XSP16, literal(-3)))
        CFI (cfiCond229) DPL0 load(1, XDATA, add(CFA_XSP16, literal(-2)))
        CFI (cfiCond229) DPH0 load(1, XDATA, add(CFA_XSP16, literal(-1)))
        CFI (cfiCond229) CFA_SP SP+0
        CFI (cfiCond229) CFA_XSP16 add(XSP16, 16)
        CFI Block cfiCond230 Using cfiCommon0
        CFI (cfiCond230) NoFunction
        CFI (cfiCond230) Conditional ??CrossCallReturnLabel_156
        CFI (cfiCond230) R6 load(1, XDATA, add(CFA_XSP16, literal(-9)))
        CFI (cfiCond230) VB load(1, XDATA, add(CFA_XSP16, literal(-8)))
        CFI (cfiCond230) V0 load(1, XDATA, add(CFA_XSP16, literal(-7)))
        CFI (cfiCond230) R7 load(1, XDATA, add(CFA_XSP16, literal(-6)))
        CFI (cfiCond230) ?RET_LOW load(1, XDATA, add(CFA_XSP16, literal(-5)))
        CFI (cfiCond230) ?RET_HIGH load(1, XDATA, add(CFA_XSP16, literal(-4)))
        CFI (cfiCond230) ?BRET_EXT load(1, XDATA, add(CFA_XSP16, literal(-3)))
        CFI (cfiCond230) DPL0 load(1, XDATA, add(CFA_XSP16, literal(-2)))
        CFI (cfiCond230) DPH0 load(1, XDATA, add(CFA_XSP16, literal(-1)))
        CFI (cfiCond230) CFA_SP SP+0
        CFI (cfiCond230) CFA_XSP16 add(XSP16, 9)
        CFI Block cfiPicker231 Using cfiCommon1
        CFI (cfiPicker231) NoFunction
        CFI (cfiPicker231) Picker
        LCALL   ?Subroutine71 & 0xFFFF
??CrossCallReturnLabel_160:
        RET
        CFI EndBlock cfiCond220
        CFI EndBlock cfiCond221
        CFI EndBlock cfiCond222
        CFI EndBlock cfiCond223
        CFI EndBlock cfiCond224
        CFI EndBlock cfiCond225
        CFI EndBlock cfiCond226
        CFI EndBlock cfiCond227
        CFI EndBlock cfiCond228
        CFI EndBlock cfiCond229
        CFI EndBlock cfiCond230
        CFI EndBlock cfiPicker231

        RSEG BANKED_CODE:CODE:NOROOT(0)
?Subroutine71:
        CFI Block cfiCond232 Using cfiCommon0
        CFI NoFunction
        CFI Conditional ??CrossCallReturnLabel_160, ??CrossCallReturnLabel_154
        CFI R6 load(1, XDATA, add(CFA_XSP16, literal(-10)))
        CFI VB load(1, XDATA, add(CFA_XSP16, literal(-9)))
        CFI V0 load(1, XDATA, add(CFA_XSP16, literal(-8)))
        CFI V1 load(1, XDATA, add(CFA_XSP16, literal(-7)))
        CFI R7 load(1, XDATA, add(CFA_XSP16, literal(-6)))
        CFI ?RET_LOW load(1, XDATA, add(CFA_XSP16, literal(-5)))
        CFI ?RET_HIGH load(1, XDATA, add(CFA_XSP16, literal(-4)))
        CFI ?BRET_EXT load(1, XDATA, add(CFA_XSP16, literal(-3)))
        CFI DPL0 load(1, XDATA, add(CFA_XSP16, literal(-2)))
        CFI DPH0 load(1, XDATA, add(CFA_XSP16, literal(-1)))
        CFI CFA_SP SP+0
        CFI CFA_XSP16 add(XSP16, 49)
        CFI Block cfiCond233 Using cfiCommon0
        CFI (cfiCond233) NoFunction
        CFI (cfiCond233) Conditional ??CrossCallReturnLabel_160, ??CrossCallReturnLabel_155
        CFI (cfiCond233) R6 load(1, XDATA, add(CFA_XSP16, literal(-12)))
        CFI (cfiCond233) VB load(1, XDATA, add(CFA_XSP16, literal(-11)))
        CFI (cfiCond233) V0 load(1, XDATA, add(CFA_XSP16, literal(-10)))
        CFI (cfiCond233) V1 load(1, XDATA, add(CFA_XSP16, literal(-9)))
        CFI (cfiCond233) V2 load(1, XDATA, add(CFA_XSP16, literal(-8)))
        CFI (cfiCond233) V3 load(1, XDATA, add(CFA_XSP16, literal(-7)))
        CFI (cfiCond233) R7 load(1, XDATA, add(CFA_XSP16, literal(-6)))
        CFI (cfiCond233) ?RET_LOW load(1, XDATA, add(CFA_XSP16, literal(-5)))
        CFI (cfiCond233) ?RET_HIGH load(1, XDATA, add(CFA_XSP16, literal(-4)))
        CFI (cfiCond233) ?BRET_EXT load(1, XDATA, add(CFA_XSP16, literal(-3)))
        CFI (cfiCond233) DPL0 load(1, XDATA, add(CFA_XSP16, literal(-2)))
        CFI (cfiCond233) DPH0 load(1, XDATA, add(CFA_XSP16, literal(-1)))
        CFI (cfiCond233) CFA_SP SP+0
        CFI (cfiCond233) CFA_XSP16 add(XSP16, 16)
        CFI Block cfiCond234 Using cfiCommon0
        CFI (cfiCond234) NoFunction
        CFI (cfiCond234) Conditional ??CrossCallReturnLabel_160, ??CrossCallReturnLabel_156
        CFI (cfiCond234) R6 load(1, XDATA, add(CFA_XSP16, literal(-9)))
        CFI (cfiCond234) VB load(1, XDATA, add(CFA_XSP16, literal(-8)))
        CFI (cfiCond234) V0 load(1, XDATA, add(CFA_XSP16, literal(-7)))
        CFI (cfiCond234) R7 load(1, XDATA, add(CFA_XSP16, literal(-6)))
        CFI (cfiCond234) ?RET_LOW load(1, XDATA, add(CFA_XSP16, literal(-5)))
        CFI (cfiCond234) ?RET_HIGH load(1, XDATA, add(CFA_XSP16, literal(-4)))
        CFI (cfiCond234) ?BRET_EXT load(1, XDATA, add(CFA_XSP16, literal(-3)))
        CFI (cfiCond234) DPL0 load(1, XDATA, add(CFA_XSP16, literal(-2)))
        CFI (cfiCond234) DPH0 load(1, XDATA, add(CFA_XSP16, literal(-1)))
        CFI (cfiCond234) CFA_SP SP+0
        CFI (cfiCond234) CFA_XSP16 add(XSP16, 9)
        CFI Block cfiCond235 Using cfiCommon0
        CFI (cfiCond235) NoFunction
        CFI (cfiCond235) Conditional ??CrossCallReturnLabel_160, ??CrossCallReturnLabel_146
        CFI (cfiCond235) R6 load(1, XDATA, add(CFA_XSP16, literal(-15)))
        CFI (cfiCond235) VB load(1, XDATA, add(CFA_XSP16, literal(-14)))
        CFI (cfiCond235) V0 load(1, XDATA, add(CFA_XSP16, literal(-13)))
        CFI (cfiCond235) V1 load(1, XDATA, add(CFA_XSP16, literal(-12)))
        CFI (cfiCond235) V2 load(1, XDATA, add(CFA_XSP16, literal(-11)))
        CFI (cfiCond235) V3 load(1, XDATA, add(CFA_XSP16, literal(-10)))
        CFI (cfiCond235) V4 load(1, XDATA, add(CFA_XSP16, literal(-9)))
        CFI (cfiCond235) V5 load(1, XDATA, add(CFA_XSP16, literal(-8)))
        CFI (cfiCond235) V6 load(1, XDATA, add(CFA_XSP16, literal(-7)))
        CFI (cfiCond235) R7 load(1, XDATA, add(CFA_XSP16, literal(-6)))
        CFI (cfiCond235) ?RET_LOW load(1, XDATA, add(CFA_XSP16, literal(-5)))
        CFI (cfiCond235) ?RET_HIGH load(1, XDATA, add(CFA_XSP16, literal(-4)))
        CFI (cfiCond235) ?BRET_EXT load(1, XDATA, add(CFA_XSP16, literal(-3)))
        CFI (cfiCond235) DPL0 load(1, XDATA, add(CFA_XSP16, literal(-2)))
        CFI (cfiCond235) DPH0 load(1, XDATA, add(CFA_XSP16, literal(-1)))
        CFI (cfiCond235) CFA_SP SP+0
        CFI (cfiCond235) CFA_XSP16 add(XSP16, 22)
        CFI Block cfiCond236 Using cfiCommon0
        CFI (cfiCond236) NoFunction
        CFI (cfiCond236) Conditional ??CrossCallReturnLabel_160, ??CrossCallReturnLabel_147
        CFI (cfiCond236) R6 load(1, XDATA, add(CFA_XSP16, literal(-9)))
        CFI (cfiCond236) VB load(1, XDATA, add(CFA_XSP16, literal(-8)))
        CFI (cfiCond236) V0 load(1, XDATA, add(CFA_XSP16, literal(-7)))
        CFI (cfiCond236) R7 load(1, XDATA, add(CFA_XSP16, literal(-6)))
        CFI (cfiCond236) ?RET_LOW load(1, XDATA, add(CFA_XSP16, literal(-5)))
        CFI (cfiCond236) ?RET_HIGH load(1, XDATA, add(CFA_XSP16, literal(-4)))
        CFI (cfiCond236) ?BRET_EXT load(1, XDATA, add(CFA_XSP16, literal(-3)))
        CFI (cfiCond236) DPL0 load(1, XDATA, add(CFA_XSP16, literal(-2)))
        CFI (cfiCond236) DPH0 load(1, XDATA, add(CFA_XSP16, literal(-1)))
        CFI (cfiCond236) CFA_SP SP+0
        CFI (cfiCond236) CFA_XSP16 add(XSP16, 9)
        CFI Block cfiCond237 Using cfiCommon0
        CFI (cfiCond237) NoFunction
        CFI (cfiCond237) Conditional ??CrossCallReturnLabel_160, ??CrossCallReturnLabel_148
        CFI (cfiCond237) R6 load(1, XDATA, add(CFA_XSP16, literal(-12)))
        CFI (cfiCond237) VB load(1, XDATA, add(CFA_XSP16, literal(-11)))
        CFI (cfiCond237) V0 load(1, XDATA, add(CFA_XSP16, literal(-10)))
        CFI (cfiCond237) V1 load(1, XDATA, add(CFA_XSP16, literal(-9)))
        CFI (cfiCond237) V2 load(1, XDATA, add(CFA_XSP16, literal(-8)))
        CFI (cfiCond237) V3 load(1, XDATA, add(CFA_XSP16, literal(-7)))
        CFI (cfiCond237) R7 load(1, XDATA, add(CFA_XSP16, literal(-6)))
        CFI (cfiCond237) ?RET_LOW load(1, XDATA, add(CFA_XSP16, literal(-5)))
        CFI (cfiCond237) ?RET_HIGH load(1, XDATA, add(CFA_XSP16, literal(-4)))
        CFI (cfiCond237) ?BRET_EXT load(1, XDATA, add(CFA_XSP16, literal(-3)))
        CFI (cfiCond237) DPL0 load(1, XDATA, add(CFA_XSP16, literal(-2)))
        CFI (cfiCond237) DPH0 load(1, XDATA, add(CFA_XSP16, literal(-1)))
        CFI (cfiCond237) CFA_SP SP+0
        CFI (cfiCond237) CFA_XSP16 add(XSP16, 25)
        CFI Block cfiCond238 Using cfiCommon0
        CFI (cfiCond238) NoFunction
        CFI (cfiCond238) Conditional ??CrossCallReturnLabel_160, ??CrossCallReturnLabel_149
        CFI (cfiCond238) R6 load(1, XDATA, add(CFA_XSP16, literal(-12)))
        CFI (cfiCond238) VB load(1, XDATA, add(CFA_XSP16, literal(-11)))
        CFI (cfiCond238) V0 load(1, XDATA, add(CFA_XSP16, literal(-10)))
        CFI (cfiCond238) V1 load(1, XDATA, add(CFA_XSP16, literal(-9)))
        CFI (cfiCond238) V2 load(1, XDATA, add(CFA_XSP16, literal(-8)))
        CFI (cfiCond238) V3 load(1, XDATA, add(CFA_XSP16, literal(-7)))
        CFI (cfiCond238) R7 load(1, XDATA, add(CFA_XSP16, literal(-6)))
        CFI (cfiCond238) ?RET_LOW load(1, XDATA, add(CFA_XSP16, literal(-5)))
        CFI (cfiCond238) ?RET_HIGH load(1, XDATA, add(CFA_XSP16, literal(-4)))
        CFI (cfiCond238) ?BRET_EXT load(1, XDATA, add(CFA_XSP16, literal(-3)))
        CFI (cfiCond238) DPL0 load(1, XDATA, add(CFA_XSP16, literal(-2)))
        CFI (cfiCond238) DPH0 load(1, XDATA, add(CFA_XSP16, literal(-1)))
        CFI (cfiCond238) CFA_SP SP+0
        CFI (cfiCond238) CFA_XSP16 add(XSP16, 14)
        CFI Block cfiCond239 Using cfiCommon0
        CFI (cfiCond239) NoFunction
        CFI (cfiCond239) Conditional ??CrossCallReturnLabel_160, ??CrossCallReturnLabel_150
        CFI (cfiCond239) R6 load(1, XDATA, add(CFA_XSP16, literal(-12)))
        CFI (cfiCond239) VB load(1, XDATA, add(CFA_XSP16, literal(-11)))
        CFI (cfiCond239) V0 load(1, XDATA, add(CFA_XSP16, literal(-10)))
        CFI (cfiCond239) V1 load(1, XDATA, add(CFA_XSP16, literal(-9)))
        CFI (cfiCond239) V2 load(1, XDATA, add(CFA_XSP16, literal(-8)))
        CFI (cfiCond239) V3 load(1, XDATA, add(CFA_XSP16, literal(-7)))
        CFI (cfiCond239) R7 load(1, XDATA, add(CFA_XSP16, literal(-6)))
        CFI (cfiCond239) ?RET_LOW load(1, XDATA, add(CFA_XSP16, literal(-5)))
        CFI (cfiCond239) ?RET_HIGH load(1, XDATA, add(CFA_XSP16, literal(-4)))
        CFI (cfiCond239) ?BRET_EXT load(1, XDATA, add(CFA_XSP16, literal(-3)))
        CFI (cfiCond239) DPL0 load(1, XDATA, add(CFA_XSP16, literal(-2)))
        CFI (cfiCond239) DPH0 load(1, XDATA, add(CFA_XSP16, literal(-1)))
        CFI (cfiCond239) CFA_SP SP+0
        CFI (cfiCond239) CFA_XSP16 add(XSP16, 14)
        CFI Block cfiCond240 Using cfiCommon0
        CFI (cfiCond240) NoFunction
        CFI (cfiCond240) Conditional ??CrossCallReturnLabel_160, ??CrossCallReturnLabel_151
        CFI (cfiCond240) R6 load(1, XDATA, add(CFA_XSP16, literal(-9)))
        CFI (cfiCond240) VB load(1, XDATA, add(CFA_XSP16, literal(-8)))
        CFI (cfiCond240) V0 load(1, XDATA, add(CFA_XSP16, literal(-7)))
        CFI (cfiCond240) R7 load(1, XDATA, add(CFA_XSP16, literal(-6)))
        CFI (cfiCond240) ?RET_LOW load(1, XDATA, add(CFA_XSP16, literal(-5)))
        CFI (cfiCond240) ?RET_HIGH load(1, XDATA, add(CFA_XSP16, literal(-4)))
        CFI (cfiCond240) ?BRET_EXT load(1, XDATA, add(CFA_XSP16, literal(-3)))
        CFI (cfiCond240) DPL0 load(1, XDATA, add(CFA_XSP16, literal(-2)))
        CFI (cfiCond240) DPH0 load(1, XDATA, add(CFA_XSP16, literal(-1)))
        CFI (cfiCond240) CFA_SP SP+0
        CFI (cfiCond240) CFA_XSP16 add(XSP16, 13)
        CFI Block cfiCond241 Using cfiCommon0
        CFI (cfiCond241) NoFunction
        CFI (cfiCond241) Conditional ??CrossCallReturnLabel_160, ??CrossCallReturnLabel_152
        CFI (cfiCond241) R6 load(1, XDATA, add(CFA_XSP16, literal(-12)))
        CFI (cfiCond241) VB load(1, XDATA, add(CFA_XSP16, literal(-11)))
        CFI (cfiCond241) V0 load(1, XDATA, add(CFA_XSP16, literal(-10)))
        CFI (cfiCond241) V1 load(1, XDATA, add(CFA_XSP16, literal(-9)))
        CFI (cfiCond241) V2 load(1, XDATA, add(CFA_XSP16, literal(-8)))
        CFI (cfiCond241) V3 load(1, XDATA, add(CFA_XSP16, literal(-7)))
        CFI (cfiCond241) R7 load(1, XDATA, add(CFA_XSP16, literal(-6)))
        CFI (cfiCond241) ?RET_LOW load(1, XDATA, add(CFA_XSP16, literal(-5)))
        CFI (cfiCond241) ?RET_HIGH load(1, XDATA, add(CFA_XSP16, literal(-4)))
        CFI (cfiCond241) ?BRET_EXT load(1, XDATA, add(CFA_XSP16, literal(-3)))
        CFI (cfiCond241) DPL0 load(1, XDATA, add(CFA_XSP16, literal(-2)))
        CFI (cfiCond241) DPH0 load(1, XDATA, add(CFA_XSP16, literal(-1)))
        CFI (cfiCond241) CFA_SP SP+0
        CFI (cfiCond241) CFA_XSP16 add(XSP16, 14)
        CFI Block cfiCond242 Using cfiCommon0
        CFI (cfiCond242) NoFunction
        CFI (cfiCond242) Conditional ??CrossCallReturnLabel_160, ??CrossCallReturnLabel_153
        CFI (cfiCond242) R6 load(1, XDATA, add(CFA_XSP16, literal(-10)))
        CFI (cfiCond242) VB load(1, XDATA, add(CFA_XSP16, literal(-9)))
        CFI (cfiCond242) V0 load(1, XDATA, add(CFA_XSP16, literal(-8)))
        CFI (cfiCond242) V1 load(1, XDATA, add(CFA_XSP16, literal(-7)))
        CFI (cfiCond242) R7 load(1, XDATA, add(CFA_XSP16, literal(-6)))
        CFI (cfiCond242) ?RET_LOW load(1, XDATA, add(CFA_XSP16, literal(-5)))
        CFI (cfiCond242) ?RET_HIGH load(1, XDATA, add(CFA_XSP16, literal(-4)))
        CFI (cfiCond242) ?BRET_EXT load(1, XDATA, add(CFA_XSP16, literal(-3)))
        CFI (cfiCond242) DPL0 load(1, XDATA, add(CFA_XSP16, literal(-2)))
        CFI (cfiCond242) DPH0 load(1, XDATA, add(CFA_XSP16, literal(-1)))
        CFI (cfiCond242) CFA_SP SP+0
        CFI (cfiCond242) CFA_XSP16 add(XSP16, 33)
        CFI Block cfiCond243 Using cfiCommon0
        CFI (cfiCond243) NoFunction
        CFI (cfiCond243) Conditional ??CrossCallReturnLabel_158, ??CrossCallReturnLabel_61
        CFI (cfiCond243) R6 load(1, XDATA, add(CFA_XSP16, literal(-15)))
        CFI (cfiCond243) VB load(1, XDATA, add(CFA_XSP16, literal(-14)))
        CFI (cfiCond243) V0 load(1, XDATA, add(CFA_XSP16, literal(-13)))
        CFI (cfiCond243) V1 load(1, XDATA, add(CFA_XSP16, literal(-12)))
        CFI (cfiCond243) V2 load(1, XDATA, add(CFA_XSP16, literal(-11)))
        CFI (cfiCond243) V3 load(1, XDATA, add(CFA_XSP16, literal(-10)))
        CFI (cfiCond243) V4 load(1, XDATA, add(CFA_XSP16, literal(-9)))
        CFI (cfiCond243) V5 load(1, XDATA, add(CFA_XSP16, literal(-8)))
        CFI (cfiCond243) V6 load(1, XDATA, add(CFA_XSP16, literal(-7)))
        CFI (cfiCond243) R7 load(1, XDATA, add(CFA_XSP16, literal(-6)))
        CFI (cfiCond243) ?RET_LOW load(1, XDATA, add(CFA_XSP16, literal(-5)))
        CFI (cfiCond243) ?RET_HIGH load(1, XDATA, add(CFA_XSP16, literal(-4)))
        CFI (cfiCond243) ?BRET_EXT load(1, XDATA, add(CFA_XSP16, literal(-3)))
        CFI (cfiCond243) DPL0 load(1, XDATA, add(CFA_XSP16, literal(-2)))
        CFI (cfiCond243) DPH0 load(1, XDATA, add(CFA_XSP16, literal(-1)))
        CFI (cfiCond243) CFA_SP SP+0
        CFI (cfiCond243) CFA_XSP16 add(XSP16, 19)
        CFI Block cfiCond244 Using cfiCommon0
        CFI (cfiCond244) NoFunction
        CFI (cfiCond244) Conditional ??CrossCallReturnLabel_158, ??CrossCallReturnLabel_62
        CFI (cfiCond244) R6 load(1, XDATA, add(CFA_XSP16, literal(-10)))
        CFI (cfiCond244) VB load(1, XDATA, add(CFA_XSP16, literal(-9)))
        CFI (cfiCond244) V0 load(1, XDATA, add(CFA_XSP16, literal(-8)))
        CFI (cfiCond244) V1 load(1, XDATA, add(CFA_XSP16, literal(-7)))
        CFI (cfiCond244) R7 load(1, XDATA, add(CFA_XSP16, literal(-6)))
        CFI (cfiCond244) ?RET_LOW load(1, XDATA, add(CFA_XSP16, literal(-5)))
        CFI (cfiCond244) ?RET_HIGH load(1, XDATA, add(CFA_XSP16, literal(-4)))
        CFI (cfiCond244) ?BRET_EXT load(1, XDATA, add(CFA_XSP16, literal(-3)))
        CFI (cfiCond244) DPL0 load(1, XDATA, add(CFA_XSP16, literal(-2)))
        CFI (cfiCond244) DPH0 load(1, XDATA, add(CFA_XSP16, literal(-1)))
        CFI (cfiCond244) CFA_SP SP+0
        CFI (cfiCond244) CFA_XSP16 add(XSP16, 14)
        CFI Block cfiCond245 Using cfiCommon0
        CFI (cfiCond245) NoFunction
        CFI (cfiCond245) Conditional ??CrossCallReturnLabel_159, ??CrossCallReturnLabel_65
        CFI (cfiCond245) R6 load(1, XDATA, add(CFA_XSP16, literal(-10)))
        CFI (cfiCond245) VB load(1, XDATA, add(CFA_XSP16, literal(-9)))
        CFI (cfiCond245) V0 load(1, XDATA, add(CFA_XSP16, literal(-8)))
        CFI (cfiCond245) V1 load(1, XDATA, add(CFA_XSP16, literal(-7)))
        CFI (cfiCond245) R7 load(1, XDATA, add(CFA_XSP16, literal(-6)))
        CFI (cfiCond245) ?RET_LOW load(1, XDATA, add(CFA_XSP16, literal(-5)))
        CFI (cfiCond245) ?RET_HIGH load(1, XDATA, add(CFA_XSP16, literal(-4)))
        CFI (cfiCond245) ?BRET_EXT load(1, XDATA, add(CFA_XSP16, literal(-3)))
        CFI (cfiCond245) DPL0 load(1, XDATA, add(CFA_XSP16, literal(-2)))
        CFI (cfiCond245) DPH0 load(1, XDATA, add(CFA_XSP16, literal(-1)))
        CFI (cfiCond245) CFA_SP SP+0
        CFI (cfiCond245) CFA_XSP16 add(XSP16, 19)
        CFI Block cfiCond246 Using cfiCommon0
        CFI (cfiCond246) NoFunction
        CFI (cfiCond246) Conditional ??CrossCallReturnLabel_159, ??CrossCallReturnLabel_66
        CFI (cfiCond246) R6 load(1, XDATA, add(CFA_XSP16, literal(-9)))
        CFI (cfiCond246) VB load(1, XDATA, add(CFA_XSP16, literal(-8)))
        CFI (cfiCond246) V0 load(1, XDATA, add(CFA_XSP16, literal(-7)))
        CFI (cfiCond246) R7 load(1, XDATA, add(CFA_XSP16, literal(-6)))
        CFI (cfiCond246) ?RET_LOW load(1, XDATA, add(CFA_XSP16, literal(-5)))
        CFI (cfiCond246) ?RET_HIGH load(1, XDATA, add(CFA_XSP16, literal(-4)))
        CFI (cfiCond246) ?BRET_EXT load(1, XDATA, add(CFA_XSP16, literal(-3)))
        CFI (cfiCond246) DPL0 load(1, XDATA, add(CFA_XSP16, literal(-2)))
        CFI (cfiCond246) DPH0 load(1, XDATA, add(CFA_XSP16, literal(-1)))
        CFI (cfiCond246) CFA_SP SP+0
        CFI (cfiCond246) CFA_XSP16 add(XSP16, 9)
        CFI Block cfiCond247 Using cfiCommon0
        CFI (cfiCond247) NoFunction
        CFI (cfiCond247) Conditional ??CrossCallReturnLabel_157, ??CrossCallReturnLabel_57
        CFI (cfiCond247) R6 load(1, XDATA, add(CFA_XSP16, literal(-9)))
        CFI (cfiCond247) VB load(1, XDATA, add(CFA_XSP16, literal(-8)))
        CFI (cfiCond247) V0 load(1, XDATA, add(CFA_XSP16, literal(-7)))
        CFI (cfiCond247) R7 load(1, XDATA, add(CFA_XSP16, literal(-6)))
        CFI (cfiCond247) ?RET_LOW load(1, XDATA, add(CFA_XSP16, literal(-5)))
        CFI (cfiCond247) ?RET_HIGH load(1, XDATA, add(CFA_XSP16, literal(-4)))
        CFI (cfiCond247) ?BRET_EXT load(1, XDATA, add(CFA_XSP16, literal(-3)))
        CFI (cfiCond247) DPL0 load(1, XDATA, add(CFA_XSP16, literal(-2)))
        CFI (cfiCond247) DPH0 load(1, XDATA, add(CFA_XSP16, literal(-1)))
        CFI (cfiCond247) CFA_SP SP+0
        CFI (cfiCond247) CFA_XSP16 add(XSP16, 11)
        CFI Block cfiCond248 Using cfiCommon0
        CFI (cfiCond248) NoFunction
        CFI (cfiCond248) Conditional ??CrossCallReturnLabel_157, ??CrossCallReturnLabel_58
        CFI (cfiCond248) R6 load(1, XDATA, add(CFA_XSP16, literal(-12)))
        CFI (cfiCond248) VB load(1, XDATA, add(CFA_XSP16, literal(-11)))
        CFI (cfiCond248) V0 load(1, XDATA, add(CFA_XSP16, literal(-10)))
        CFI (cfiCond248) V1 load(1, XDATA, add(CFA_XSP16, literal(-9)))
        CFI (cfiCond248) V2 load(1, XDATA, add(CFA_XSP16, literal(-8)))
        CFI (cfiCond248) V3 load(1, XDATA, add(CFA_XSP16, literal(-7)))
        CFI (cfiCond248) R7 load(1, XDATA, add(CFA_XSP16, literal(-6)))
        CFI (cfiCond248) ?RET_LOW load(1, XDATA, add(CFA_XSP16, literal(-5)))
        CFI (cfiCond248) ?RET_HIGH load(1, XDATA, add(CFA_XSP16, literal(-4)))
        CFI (cfiCond248) ?BRET_EXT load(1, XDATA, add(CFA_XSP16, literal(-3)))
        CFI (cfiCond248) DPL0 load(1, XDATA, add(CFA_XSP16, literal(-2)))
        CFI (cfiCond248) DPH0 load(1, XDATA, add(CFA_XSP16, literal(-1)))
        CFI (cfiCond248) CFA_SP SP+0
        CFI (cfiCond248) CFA_XSP16 add(XSP16, 16)
        CFI Block cfiPicker249 Using cfiCommon1
        CFI (cfiPicker249) NoFunction
        CFI (cfiPicker249) Picker
        MOVX    A,@DPTR
        MOV     R2,A
        INC     DPTR
        MOVX    A,@DPTR
        MOV     R3,A
        RET
        CFI EndBlock cfiCond232
        CFI EndBlock cfiCond233
        CFI EndBlock cfiCond234
        CFI EndBlock cfiCond235
        CFI EndBlock cfiCond236
        CFI EndBlock cfiCond237
        CFI EndBlock cfiCond238
        CFI EndBlock cfiCond239
        CFI EndBlock cfiCond240
        CFI EndBlock cfiCond241
        CFI EndBlock cfiCond242
        CFI EndBlock cfiCond243
        CFI EndBlock cfiCond244
        CFI EndBlock cfiCond245
        CFI EndBlock cfiCond246
        CFI EndBlock cfiCond247
        CFI EndBlock cfiCond248
        CFI EndBlock cfiPicker249

        RSEG BANKED_CODE:CODE:NOROOT(0)
?Subroutine36:
        CFI Block cfiCond250 Using cfiCommon0
        CFI NoFunction
        CFI Conditional ??CrossCallReturnLabel_33
        CFI R6 load(1, XDATA, add(CFA_XSP16, literal(-15)))
        CFI VB load(1, XDATA, add(CFA_XSP16, literal(-14)))
        CFI V0 load(1, XDATA, add(CFA_XSP16, literal(-13)))
        CFI V1 load(1, XDATA, add(CFA_XSP16, literal(-12)))
        CFI V2 load(1, XDATA, add(CFA_XSP16, literal(-11)))
        CFI V3 load(1, XDATA, add(CFA_XSP16, literal(-10)))
        CFI V4 load(1, XDATA, add(CFA_XSP16, literal(-9)))
        CFI V5 load(1, XDATA, add(CFA_XSP16, literal(-8)))
        CFI V6 load(1, XDATA, add(CFA_XSP16, literal(-7)))
        CFI R7 load(1, XDATA, add(CFA_XSP16, literal(-6)))
        CFI ?RET_LOW load(1, XDATA, add(CFA_XSP16, literal(-5)))
        CFI ?RET_HIGH load(1, XDATA, add(CFA_XSP16, literal(-4)))
        CFI ?BRET_EXT load(1, XDATA, add(CFA_XSP16, literal(-3)))
        CFI DPL0 load(1, XDATA, add(CFA_XSP16, literal(-2)))
        CFI DPH0 load(1, XDATA, add(CFA_XSP16, literal(-1)))
        CFI CFA_SP SP+0
        CFI CFA_XSP16 add(XSP16, 19)
        CFI Block cfiCond251 Using cfiCommon0
        CFI (cfiCond251) NoFunction
        CFI (cfiCond251) Conditional ??CrossCallReturnLabel_34
        CFI (cfiCond251) R6 load(1, XDATA, add(CFA_XSP16, literal(-9)))
        CFI (cfiCond251) VB load(1, XDATA, add(CFA_XSP16, literal(-8)))
        CFI (cfiCond251) V0 load(1, XDATA, add(CFA_XSP16, literal(-7)))
        CFI (cfiCond251) R7 load(1, XDATA, add(CFA_XSP16, literal(-6)))
        CFI (cfiCond251) ?RET_LOW load(1, XDATA, add(CFA_XSP16, literal(-5)))
        CFI (cfiCond251) ?RET_HIGH load(1, XDATA, add(CFA_XSP16, literal(-4)))
        CFI (cfiCond251) ?BRET_EXT load(1, XDATA, add(CFA_XSP16, literal(-3)))
        CFI (cfiCond251) DPL0 load(1, XDATA, add(CFA_XSP16, literal(-2)))
        CFI (cfiCond251) DPH0 load(1, XDATA, add(CFA_XSP16, literal(-1)))
        CFI (cfiCond251) CFA_SP SP+0
        CFI (cfiCond251) CFA_XSP16 add(XSP16, 13)
        CFI Block cfiCond252 Using cfiCommon0
        CFI (cfiCond252) NoFunction
        CFI (cfiCond252) Conditional ??CrossCallReturnLabel_35
        CFI (cfiCond252) R6 load(1, XDATA, add(CFA_XSP16, literal(-10)))
        CFI (cfiCond252) VB load(1, XDATA, add(CFA_XSP16, literal(-9)))
        CFI (cfiCond252) V0 load(1, XDATA, add(CFA_XSP16, literal(-8)))
        CFI (cfiCond252) V1 load(1, XDATA, add(CFA_XSP16, literal(-7)))
        CFI (cfiCond252) R7 load(1, XDATA, add(CFA_XSP16, literal(-6)))
        CFI (cfiCond252) ?RET_LOW load(1, XDATA, add(CFA_XSP16, literal(-5)))
        CFI (cfiCond252) ?RET_HIGH load(1, XDATA, add(CFA_XSP16, literal(-4)))
        CFI (cfiCond252) ?BRET_EXT load(1, XDATA, add(CFA_XSP16, literal(-3)))
        CFI (cfiCond252) DPL0 load(1, XDATA, add(CFA_XSP16, literal(-2)))
        CFI (cfiCond252) DPH0 load(1, XDATA, add(CFA_XSP16, literal(-1)))
        CFI (cfiCond252) CFA_SP SP+0
        CFI (cfiCond252) CFA_XSP16 add(XSP16, 14)
        CFI Block cfiPicker253 Using cfiCommon1
        CFI (cfiPicker253) NoFunction
        CFI (cfiPicker253) Picker
        MOV     R4,DPL
        MOV     R5,DPH
        MOV     DPL,?XSP + 0
        MOV     DPH,?XSP + 1
        LCALL   ?Subroutine70 & 0xFFFF
??CrossCallReturnLabel_98:
        MOV     A,R1
        RET
        CFI EndBlock cfiCond250
        CFI EndBlock cfiCond251
        CFI EndBlock cfiCond252
        CFI EndBlock cfiPicker253
// 1774 
// 1775 /******************************************************************************
// 1776  * @fn          ZDSecMgrDeviceValidateRM (RESIDENTIAL MODE)
// 1777  *
// 1778  * @brief       Decide whether device is allowed.
// 1779  *
// 1780  * @param       device - [in] ZDSecMgrDevice_t, device info
// 1781  *
// 1782  * @return      ZStatus_t
// 1783  */

        RSEG BANKED_CODE:CODE:NOROOT(0)
// 1784 ZStatus_t ZDSecMgrDeviceValidateRM( ZDSecMgrDevice_t* device )
ZDSecMgrDeviceValidateRM:
        CFI Block cfiBlock254 Using cfiCommon0
        CFI Function ZDSecMgrDeviceValidateRM
        CODE
// 1785 {
        PUSH    DPL
        CFI DPL0 Frame(CFA_SP, 4)
        CFI CFA_SP SP+-4
        PUSH    DPH
        CFI DPH0 Frame(CFA_SP, 5)
        CFI CFA_SP SP+-5
        ; Saved register size: 2
        ; Auto size: 0
// 1786 
// 1787   ZStatus_t status;
// 1788   status = ZSuccess;
        MOV     R1,#0x0
// 1789 
// 1790   (void)device;  // Intentionally unreferenced parameter
// 1791   
// 1792   // For test purpose, turning off the zgSecurePermitJoin flag will force
// 1793   // the trust center to reject any newly joining devices by sending
// 1794   // Remove-device to the parents.
// 1795   if ( zgSecurePermitJoin == false )
        MOV     DPTR,#zgSecurePermitJoin
        MOVX    A,@DPTR
        JNZ     ??ZDSecMgrDeviceValidateRM_0
// 1796   {
// 1797     status = ZNwkUnknownDevice;
        MOV     R1,#-0x38
// 1798   }
// 1799 
// 1800 
// 1801 
// 1802 #if 0  // Taken out because the following functionality is only used for test
// 1803        // purpose. A more efficient (above) way is used. It can be put
// 1804        // back in if customers request for a white/black list feature.
// 1805        // ZDSecMgrStoredDeviceList[] is defined in ZDSecMgr.c
// 1806 
// 1807   // The following code processes the device black list (stored device list)
// 1808   // If the joining device is not part of the forbidden device list
// 1809   // Return ZSuccess. Otherwise, return ZNwkUnknownDevice. The trust center
// 1810   // will send Remove-device and ban the device from joining.
// 1811 
// 1812   uint8     index;
// 1813   uint8*    restricted;
// 1814 
// 1815   // Look through the stored device list - used for restricted devices
// 1816   for ( index = 0; index < ZDSECMGR_STORED_DEVICES; index++ )
// 1817   {
// 1818     restricted = ZDSecMgrStoredDeviceList[index];
// 1819 
// 1820     if ( AddrMgrExtAddrEqual( restricted, device->extAddr )  == TRUE )
// 1821     {
// 1822       // return as unknown device in regards to validation
// 1823       status = ZNwkUnknownDevice;
// 1824 
// 1825       // break from loop
// 1826       index = ZDSECMGR_STORED_DEVICES;
// 1827     }
// 1828   }
// 1829 
// 1830 #endif
// 1831 
// 1832   return status;
??ZDSecMgrDeviceValidateRM_0:
        LJMP    ??Subroutine91_0 & 0xFFFF
        CFI EndBlock cfiBlock254
// 1833 }
// 1834 
// 1835 /******************************************************************************
// 1836  * @fn          ZDSecMgrDeviceValidateCM (COMMERCIAL MODE)
// 1837  *
// 1838  * @brief       Decide whether device is allowed.
// 1839  *
// 1840  * @param       device - [in] ZDSecMgrDevice_t, device info
// 1841  *
// 1842  * @return      ZStatus_t
// 1843  */
// 1844 //devtag.pro.security

        RSEG BANKED_CODE:CODE:NOROOT(0)
// 1845 ZStatus_t ZDSecMgrDeviceValidateCM( ZDSecMgrDevice_t* device )
ZDSecMgrDeviceValidateCM:
        CFI Block cfiBlock255 Using cfiCommon0
        CFI Function ZDSecMgrDeviceValidateCM
        CODE
// 1846 {
        FUNCALL ZDSecMgrDeviceValidateCM, ZDSecMgrAddrStore
        LOCFRAME ISTACK, 0, STACK
        LOCFRAME PSTACK, 0, STACK
        LOCFRAME XSTACK, 16, STACK
        LOCFRAME IOVERLAY, 0, STATIC
        LOCFRAME DOVERLAY, 0, STATIC
        ARGFRAME ISTACK, 0, STACK
        ARGFRAME PSTACK, 0, STACK
        ARGFRAME XSTACK, 16, STACK
        ARGFRAME IOVERLAY, 0, STATIC
        ARGFRAME DOVERLAY, 0, STATIC
        FUNCALL ZDSecMgrDeviceValidateCM, ZDSecMgrMasterKeyLoad
        LOCFRAME ISTACK, 0, STACK
        LOCFRAME PSTACK, 0, STACK
        LOCFRAME XSTACK, 14, STACK
        LOCFRAME IOVERLAY, 0, STATIC
        LOCFRAME DOVERLAY, 0, STATIC
        ARGFRAME ISTACK, 0, STACK
        ARGFRAME PSTACK, 0, STACK
        ARGFRAME XSTACK, 14, STACK
        ARGFRAME IOVERLAY, 0, STATIC
        ARGFRAME DOVERLAY, 0, STATIC
        FUNCALL ZDSecMgrDeviceValidateCM, ZDSecMgrDeviceEntryAdd
        LOCFRAME ISTACK, 0, STACK
        LOCFRAME PSTACK, 0, STACK
        LOCFRAME XSTACK, 14, STACK
        LOCFRAME IOVERLAY, 0, STATIC
        LOCFRAME DOVERLAY, 0, STATIC
        ARGFRAME ISTACK, 0, STACK
        ARGFRAME PSTACK, 0, STACK
        ARGFRAME XSTACK, 14, STACK
        ARGFRAME IOVERLAY, 0, STATIC
        ARGFRAME DOVERLAY, 0, STATIC
        MOV     A,#-0xc
        LCALL   ?BANKED_ENTER_XDATA
        CFI DPH0 load(1, XDATA, add(CFA_XSP16, literal(-1)))
        CFI DPL0 load(1, XDATA, add(CFA_XSP16, literal(-2)))
        CFI ?BRET_EXT load(1, XDATA, add(CFA_XSP16, literal(-3)))
        CFI ?RET_HIGH load(1, XDATA, add(CFA_XSP16, literal(-4)))
        CFI ?RET_LOW load(1, XDATA, add(CFA_XSP16, literal(-5)))
        CFI R7 load(1, XDATA, add(CFA_XSP16, literal(-6)))
        CFI V3 load(1, XDATA, add(CFA_XSP16, literal(-7)))
        CFI V2 load(1, XDATA, add(CFA_XSP16, literal(-8)))
        CFI V1 load(1, XDATA, add(CFA_XSP16, literal(-9)))
        CFI V0 load(1, XDATA, add(CFA_XSP16, literal(-10)))
        CFI VB load(1, XDATA, add(CFA_XSP16, literal(-11)))
        CFI R6 load(1, XDATA, add(CFA_XSP16, literal(-12)))
        CFI CFA_SP SP+0
        CFI CFA_XSP16 add(XSP16, 12)
        ; Saved register size: 12
        ; Auto size: 2
        MOV     A,#-0x2
        LCALL   ?ALLOC_XSTACK8
        CFI CFA_XSP16 add(XSP16, 14)
        MOV     A,R2
        MOV     R6,A
        MOV     A,R3
        MOV     R7,A
// 1847   ZStatus_t status;
// 1848   uint16    ami;
// 1849   uint8*    key;
// 1850 
// 1851 
// 1852 //  // check for pre configured setting
// 1853 //  if ( device->secure == TRUE )
// 1854 //  {
// 1855 //    // get EXT address and MASTER key
// 1856 //    status = ZDSecMgrExtAddrLookup( device->extAddr, &ami );
// 1857 //
// 1858 //    if ( status == ZSuccess )
// 1859 //    {
// 1860 //      status = ZDSecMgrMasterKeyLookup( ami, &key );
// 1861 //    }
// 1862 //  }
// 1863 //  else
// 1864 //  {
// 1865     // implement EXT address and MASTER key policy here -- the total number of
// 1866     // Security Manager entries should never exceed the number of EXT addresses
// 1867     // and MASTER keys available
// 1868 
// 1869     // set status based on policy
// 1870     //status = ZNwkUnknownDevice;
// 1871 
// 1872     // set status based on policy
// 1873     status = ZSuccess; // ZNwkUnknownDevice;
// 1874 
// 1875     // get key based on policy
// 1876     key = ZDSecMgrTCMasterKey;
// 1877 
// 1878     // if policy, store new EXT address
// 1879     status = ZDSecMgrAddrStore( device->nwkAddr, device->extAddr, &ami );
        MOV     A,R6
        ADD     A,#0x2
        LCALL   ?Subroutine58 & 0xFFFF
??CrossCallReturnLabel_80:
        MOV     ?V0 + 2,DPL
        MOV     ?V0 + 3,DPH
        MOV     R0,#?V0 + 2
        LCALL   ?PUSH_XSTACK_I_TWO
        CFI CFA_XSP16 add(XSP16, 16)
        MOV     DPL,?V0 + 0
        MOV     DPH,?V0 + 1
        LCALL   ?Subroutine78 & 0xFFFF
??CrossCallReturnLabel_107:
        LCALL   ?Subroutine52 & 0xFFFF
??CrossCallReturnLabel_155:
        LCALL   ??ZDSecMgrAddrStore?relay
        MOV     A,#0x2
        LCALL   ?DEALLOC_XSTACK8
        CFI CFA_XSP16 add(XSP16, 14)
        MOV     A,R1
        MOV     ?V0 + 2,A
// 1880 
// 1881     // set the key
// 1882     ZDSecMgrMasterKeyLoad( device->extAddr, key );
        ; Setup parameters for call to function ZDSecMgrMasterKeyLoad
        MOV     R4,#ZDSecMgrTCMasterKey & 0xff
        MOV     R5,#(ZDSecMgrTCMasterKey >> 8) & 0xff
        MOV     DPL,?V0 + 0
        MOV     DPH,?V0 + 1
        LCALL   ??Subroutine89_0 & 0xFFFF
??CrossCallReturnLabel_152:
        LCALL   ??ZDSecMgrMasterKeyLoad?relay
// 1883 //  }
// 1884 
// 1885   // if EXT address and MASTER key available -- add device
// 1886   if ( status == ZSuccess )
        MOV     A,?V0 + 2
        JNZ     ??ZDSecMgrDeviceValidateCM_0
// 1887   {
// 1888     // add device to internal data - with control
// 1889     status = ZDSecMgrDeviceEntryAdd( device, ami );
        ; Setup parameters for call to function ZDSecMgrDeviceEntryAdd
        LCALL   ?Subroutine38 & 0xFFFF
// 1890   }
??CrossCallReturnLabel_39:
        MOV     A,R1
        MOV     ?V0 + 2,A
// 1891 
// 1892   return status;
??ZDSecMgrDeviceValidateCM_0:
        MOV     R1,?V0 + 2
        LJMP    ?Subroutine3 & 0xFFFF
        CFI EndBlock cfiBlock255
// 1893 }

        RSEG BANKED_CODE:CODE:NOROOT(0)
?Subroutine78:
        CFI Block cfiCond256 Using cfiCommon0
        CFI NoFunction
        CFI Conditional ??CrossCallReturnLabel_106
        CFI R6 load(1, XDATA, add(CFA_XSP16, literal(-10)))
        CFI VB load(1, XDATA, add(CFA_XSP16, literal(-9)))
        CFI V0 load(1, XDATA, add(CFA_XSP16, literal(-8)))
        CFI V1 load(1, XDATA, add(CFA_XSP16, literal(-7)))
        CFI R7 load(1, XDATA, add(CFA_XSP16, literal(-6)))
        CFI ?RET_LOW load(1, XDATA, add(CFA_XSP16, literal(-5)))
        CFI ?RET_HIGH load(1, XDATA, add(CFA_XSP16, literal(-4)))
        CFI ?BRET_EXT load(1, XDATA, add(CFA_XSP16, literal(-3)))
        CFI DPL0 load(1, XDATA, add(CFA_XSP16, literal(-2)))
        CFI DPH0 load(1, XDATA, add(CFA_XSP16, literal(-1)))
        CFI CFA_SP SP+0
        CFI CFA_XSP16 add(XSP16, 23)
        CFI Block cfiCond257 Using cfiCommon0
        CFI (cfiCond257) NoFunction
        CFI (cfiCond257) Conditional ??CrossCallReturnLabel_108, ??CrossCallReturnLabel_55
        CFI (cfiCond257) R6 load(1, XDATA, add(CFA_XSP16, literal(-12)))
        CFI (cfiCond257) VB load(1, XDATA, add(CFA_XSP16, literal(-11)))
        CFI (cfiCond257) V0 load(1, XDATA, add(CFA_XSP16, literal(-10)))
        CFI (cfiCond257) V1 load(1, XDATA, add(CFA_XSP16, literal(-9)))
        CFI (cfiCond257) V2 load(1, XDATA, add(CFA_XSP16, literal(-8)))
        CFI (cfiCond257) V3 load(1, XDATA, add(CFA_XSP16, literal(-7)))
        CFI (cfiCond257) R7 load(1, XDATA, add(CFA_XSP16, literal(-6)))
        CFI (cfiCond257) ?RET_LOW load(1, XDATA, add(CFA_XSP16, literal(-5)))
        CFI (cfiCond257) ?RET_HIGH load(1, XDATA, add(CFA_XSP16, literal(-4)))
        CFI (cfiCond257) ?BRET_EXT load(1, XDATA, add(CFA_XSP16, literal(-3)))
        CFI (cfiCond257) DPL0 load(1, XDATA, add(CFA_XSP16, literal(-2)))
        CFI (cfiCond257) DPH0 load(1, XDATA, add(CFA_XSP16, literal(-1)))
        CFI (cfiCond257) CFA_SP SP+0
        CFI (cfiCond257) CFA_XSP16 add(XSP16, 14)
        CFI Block cfiCond258 Using cfiCommon0
        CFI (cfiCond258) NoFunction
        CFI (cfiCond258) Conditional ??CrossCallReturnLabel_108, ??CrossCallReturnLabel_56
        CFI (cfiCond258) R6 load(1, XDATA, add(CFA_XSP16, literal(-12)))
        CFI (cfiCond258) VB load(1, XDATA, add(CFA_XSP16, literal(-11)))
        CFI (cfiCond258) V0 load(1, XDATA, add(CFA_XSP16, literal(-10)))
        CFI (cfiCond258) V1 load(1, XDATA, add(CFA_XSP16, literal(-9)))
        CFI (cfiCond258) V2 load(1, XDATA, add(CFA_XSP16, literal(-8)))
        CFI (cfiCond258) V3 load(1, XDATA, add(CFA_XSP16, literal(-7)))
        CFI (cfiCond258) R7 load(1, XDATA, add(CFA_XSP16, literal(-6)))
        CFI (cfiCond258) ?RET_LOW load(1, XDATA, add(CFA_XSP16, literal(-5)))
        CFI (cfiCond258) ?RET_HIGH load(1, XDATA, add(CFA_XSP16, literal(-4)))
        CFI (cfiCond258) ?BRET_EXT load(1, XDATA, add(CFA_XSP16, literal(-3)))
        CFI (cfiCond258) DPL0 load(1, XDATA, add(CFA_XSP16, literal(-2)))
        CFI (cfiCond258) DPH0 load(1, XDATA, add(CFA_XSP16, literal(-1)))
        CFI (cfiCond258) CFA_SP SP+0
        CFI (cfiCond258) CFA_XSP16 add(XSP16, 14)
        CFI Block cfiCond259 Using cfiCommon0
        CFI (cfiCond259) NoFunction
        CFI (cfiCond259) Conditional ??CrossCallReturnLabel_107
        CFI (cfiCond259) R6 load(1, XDATA, add(CFA_XSP16, literal(-12)))
        CFI (cfiCond259) VB load(1, XDATA, add(CFA_XSP16, literal(-11)))
        CFI (cfiCond259) V0 load(1, XDATA, add(CFA_XSP16, literal(-10)))
        CFI (cfiCond259) V1 load(1, XDATA, add(CFA_XSP16, literal(-9)))
        CFI (cfiCond259) V2 load(1, XDATA, add(CFA_XSP16, literal(-8)))
        CFI (cfiCond259) V3 load(1, XDATA, add(CFA_XSP16, literal(-7)))
        CFI (cfiCond259) R7 load(1, XDATA, add(CFA_XSP16, literal(-6)))
        CFI (cfiCond259) ?RET_LOW load(1, XDATA, add(CFA_XSP16, literal(-5)))
        CFI (cfiCond259) ?RET_HIGH load(1, XDATA, add(CFA_XSP16, literal(-4)))
        CFI (cfiCond259) ?BRET_EXT load(1, XDATA, add(CFA_XSP16, literal(-3)))
        CFI (cfiCond259) DPL0 load(1, XDATA, add(CFA_XSP16, literal(-2)))
        CFI (cfiCond259) DPH0 load(1, XDATA, add(CFA_XSP16, literal(-1)))
        CFI (cfiCond259) CFA_SP SP+0
        CFI (cfiCond259) CFA_XSP16 add(XSP16, 16)
        CFI Block cfiCond260 Using cfiCommon0
        CFI (cfiCond260) NoFunction
        CFI (cfiCond260) Conditional ??CrossCallReturnLabel_109, ??CrossCallReturnLabel_96, ??CrossCallReturnLabel_36
        CFI (cfiCond260) R6 load(1, XDATA, add(CFA_XSP16, literal(-12)))
        CFI (cfiCond260) VB load(1, XDATA, add(CFA_XSP16, literal(-11)))
        CFI (cfiCond260) V0 load(1, XDATA, add(CFA_XSP16, literal(-10)))
        CFI (cfiCond260) V1 load(1, XDATA, add(CFA_XSP16, literal(-9)))
        CFI (cfiCond260) V2 load(1, XDATA, add(CFA_XSP16, literal(-8)))
        CFI (cfiCond260) V3 load(1, XDATA, add(CFA_XSP16, literal(-7)))
        CFI (cfiCond260) R7 load(1, XDATA, add(CFA_XSP16, literal(-6)))
        CFI (cfiCond260) ?RET_LOW load(1, XDATA, add(CFA_XSP16, literal(-5)))
        CFI (cfiCond260) ?RET_HIGH load(1, XDATA, add(CFA_XSP16, literal(-4)))
        CFI (cfiCond260) ?BRET_EXT load(1, XDATA, add(CFA_XSP16, literal(-3)))
        CFI (cfiCond260) DPL0 load(1, XDATA, add(CFA_XSP16, literal(-2)))
        CFI (cfiCond260) DPH0 load(1, XDATA, add(CFA_XSP16, literal(-1)))
        CFI (cfiCond260) CFA_SP SP+0
        CFI (cfiCond260) CFA_XSP16 add(XSP16, 14)
        CFI Block cfiCond261 Using cfiCommon0
        CFI (cfiCond261) NoFunction
        CFI (cfiCond261) Conditional ??CrossCallReturnLabel_109, ??CrossCallReturnLabel_96, ??CrossCallReturnLabel_37
        CFI (cfiCond261) R6 load(1, XDATA, add(CFA_XSP16, literal(-12)))
        CFI (cfiCond261) VB load(1, XDATA, add(CFA_XSP16, literal(-11)))
        CFI (cfiCond261) V0 load(1, XDATA, add(CFA_XSP16, literal(-10)))
        CFI (cfiCond261) V1 load(1, XDATA, add(CFA_XSP16, literal(-9)))
        CFI (cfiCond261) V2 load(1, XDATA, add(CFA_XSP16, literal(-8)))
        CFI (cfiCond261) V3 load(1, XDATA, add(CFA_XSP16, literal(-7)))
        CFI (cfiCond261) R7 load(1, XDATA, add(CFA_XSP16, literal(-6)))
        CFI (cfiCond261) ?RET_LOW load(1, XDATA, add(CFA_XSP16, literal(-5)))
        CFI (cfiCond261) ?RET_HIGH load(1, XDATA, add(CFA_XSP16, literal(-4)))
        CFI (cfiCond261) ?BRET_EXT load(1, XDATA, add(CFA_XSP16, literal(-3)))
        CFI (cfiCond261) DPL0 load(1, XDATA, add(CFA_XSP16, literal(-2)))
        CFI (cfiCond261) DPH0 load(1, XDATA, add(CFA_XSP16, literal(-1)))
        CFI (cfiCond261) CFA_SP SP+0
        CFI (cfiCond261) CFA_XSP16 add(XSP16, 14)
        CFI Block cfiCond262 Using cfiCommon0
        CFI (cfiCond262) NoFunction
        CFI (cfiCond262) Conditional ??CrossCallReturnLabel_109, ??CrossCallReturnLabel_97, ??CrossCallReturnLabel_38
        CFI (cfiCond262) R6 load(1, XDATA, add(CFA_XSP16, literal(-9)))
        CFI (cfiCond262) VB load(1, XDATA, add(CFA_XSP16, literal(-8)))
        CFI (cfiCond262) V0 load(1, XDATA, add(CFA_XSP16, literal(-7)))
        CFI (cfiCond262) R7 load(1, XDATA, add(CFA_XSP16, literal(-6)))
        CFI (cfiCond262) ?RET_LOW load(1, XDATA, add(CFA_XSP16, literal(-5)))
        CFI (cfiCond262) ?RET_HIGH load(1, XDATA, add(CFA_XSP16, literal(-4)))
        CFI (cfiCond262) ?BRET_EXT load(1, XDATA, add(CFA_XSP16, literal(-3)))
        CFI (cfiCond262) DPL0 load(1, XDATA, add(CFA_XSP16, literal(-2)))
        CFI (cfiCond262) DPH0 load(1, XDATA, add(CFA_XSP16, literal(-1)))
        CFI (cfiCond262) CFA_SP SP+0
        CFI (cfiCond262) CFA_XSP16 add(XSP16, 13)
        CFI Block cfiCond263 Using cfiCommon0
        CFI (cfiCond263) NoFunction
        CFI (cfiCond263) Conditional ??CrossCallReturnLabel_109, ??CrossCallReturnLabel_97, ??CrossCallReturnLabel_39
        CFI (cfiCond263) R6 load(1, XDATA, add(CFA_XSP16, literal(-12)))
        CFI (cfiCond263) VB load(1, XDATA, add(CFA_XSP16, literal(-11)))
        CFI (cfiCond263) V0 load(1, XDATA, add(CFA_XSP16, literal(-10)))
        CFI (cfiCond263) V1 load(1, XDATA, add(CFA_XSP16, literal(-9)))
        CFI (cfiCond263) V2 load(1, XDATA, add(CFA_XSP16, literal(-8)))
        CFI (cfiCond263) V3 load(1, XDATA, add(CFA_XSP16, literal(-7)))
        CFI (cfiCond263) R7 load(1, XDATA, add(CFA_XSP16, literal(-6)))
        CFI (cfiCond263) ?RET_LOW load(1, XDATA, add(CFA_XSP16, literal(-5)))
        CFI (cfiCond263) ?RET_HIGH load(1, XDATA, add(CFA_XSP16, literal(-4)))
        CFI (cfiCond263) ?BRET_EXT load(1, XDATA, add(CFA_XSP16, literal(-3)))
        CFI (cfiCond263) DPL0 load(1, XDATA, add(CFA_XSP16, literal(-2)))
        CFI (cfiCond263) DPH0 load(1, XDATA, add(CFA_XSP16, literal(-1)))
        CFI (cfiCond263) CFA_SP SP+0
        CFI (cfiCond263) CFA_XSP16 add(XSP16, 14)
        CFI Block cfiPicker264 Using cfiCommon1
        CFI (cfiPicker264) NoFunction
        CFI (cfiPicker264) Picker
        MOVX    A,@DPTR
        MOV     R4,A
        INC     DPTR
        MOVX    A,@DPTR
        MOV     R5,A
        RET
        CFI EndBlock cfiCond256
        CFI EndBlock cfiCond257
        CFI EndBlock cfiCond258
        CFI EndBlock cfiCond259
        CFI EndBlock cfiCond260
        CFI EndBlock cfiCond261
        CFI EndBlock cfiCond262
        CFI EndBlock cfiCond263
        CFI EndBlock cfiPicker264

        RSEG BANKED_CODE:CODE:NOROOT(0)
?Subroutine58:
        CFI Block cfiCond265 Using cfiCommon0
        CFI NoFunction
        CFI Conditional ??CrossCallReturnLabel_79
        CFI R6 load(1, XDATA, add(CFA_XSP16, literal(-10)))
        CFI VB load(1, XDATA, add(CFA_XSP16, literal(-9)))
        CFI V0 load(1, XDATA, add(CFA_XSP16, literal(-8)))
        CFI V1 load(1, XDATA, add(CFA_XSP16, literal(-7)))
        CFI R7 load(1, XDATA, add(CFA_XSP16, literal(-6)))
        CFI ?RET_LOW load(1, XDATA, add(CFA_XSP16, literal(-5)))
        CFI ?RET_HIGH load(1, XDATA, add(CFA_XSP16, literal(-4)))
        CFI ?BRET_EXT load(1, XDATA, add(CFA_XSP16, literal(-3)))
        CFI DPL0 load(1, XDATA, add(CFA_XSP16, literal(-2)))
        CFI DPH0 load(1, XDATA, add(CFA_XSP16, literal(-1)))
        CFI CFA_SP SP+0
        CFI CFA_XSP16 add(XSP16, 49)
        CFI Block cfiCond266 Using cfiCommon0
        CFI (cfiCond266) NoFunction
        CFI (cfiCond266) Conditional ??CrossCallReturnLabel_80
        CFI (cfiCond266) R6 load(1, XDATA, add(CFA_XSP16, literal(-12)))
        CFI (cfiCond266) VB load(1, XDATA, add(CFA_XSP16, literal(-11)))
        CFI (cfiCond266) V0 load(1, XDATA, add(CFA_XSP16, literal(-10)))
        CFI (cfiCond266) V1 load(1, XDATA, add(CFA_XSP16, literal(-9)))
        CFI (cfiCond266) V2 load(1, XDATA, add(CFA_XSP16, literal(-8)))
        CFI (cfiCond266) V3 load(1, XDATA, add(CFA_XSP16, literal(-7)))
        CFI (cfiCond266) R7 load(1, XDATA, add(CFA_XSP16, literal(-6)))
        CFI (cfiCond266) ?RET_LOW load(1, XDATA, add(CFA_XSP16, literal(-5)))
        CFI (cfiCond266) ?RET_HIGH load(1, XDATA, add(CFA_XSP16, literal(-4)))
        CFI (cfiCond266) ?BRET_EXT load(1, XDATA, add(CFA_XSP16, literal(-3)))
        CFI (cfiCond266) DPL0 load(1, XDATA, add(CFA_XSP16, literal(-2)))
        CFI (cfiCond266) DPH0 load(1, XDATA, add(CFA_XSP16, literal(-1)))
        CFI (cfiCond266) CFA_SP SP+0
        CFI (cfiCond266) CFA_XSP16 add(XSP16, 14)
        CFI Block cfiPicker267 Using cfiCommon1
        CFI (cfiPicker267) NoFunction
        CFI (cfiPicker267) Picker
        MOV     ?V0 + 0,A
        MOV     A,R7
        ADDC    A,#0x0
        MOV     ?V0 + 1,A
        ; Setup parameters for call to function APSME_LookupNwkAddr
        ; Setup parameters for call to function ZDSecMgrAddrStore
        MOV     DPL,?XSP + 0
        MOV     DPH,?XSP + 1
        RET
        CFI EndBlock cfiCond265
        CFI EndBlock cfiCond266
        CFI EndBlock cfiPicker267

        RSEG BANKED_CODE:CODE:NOROOT(0)
?Subroutine38:
        CFI Block cfiCond268 Using cfiCommon0
        CFI NoFunction
        CFI Conditional ??CrossCallReturnLabel_38
        CFI R6 load(1, XDATA, add(CFA_XSP16, literal(-9)))
        CFI VB load(1, XDATA, add(CFA_XSP16, literal(-8)))
        CFI V0 load(1, XDATA, add(CFA_XSP16, literal(-7)))
        CFI R7 load(1, XDATA, add(CFA_XSP16, literal(-6)))
        CFI ?RET_LOW load(1, XDATA, add(CFA_XSP16, literal(-5)))
        CFI ?RET_HIGH load(1, XDATA, add(CFA_XSP16, literal(-4)))
        CFI ?BRET_EXT load(1, XDATA, add(CFA_XSP16, literal(-3)))
        CFI DPL0 load(1, XDATA, add(CFA_XSP16, literal(-2)))
        CFI DPH0 load(1, XDATA, add(CFA_XSP16, literal(-1)))
        CFI CFA_SP SP+0
        CFI CFA_XSP16 add(XSP16, 13)
        CFI Block cfiCond269 Using cfiCommon0
        CFI (cfiCond269) NoFunction
        CFI (cfiCond269) Conditional ??CrossCallReturnLabel_39
        CFI (cfiCond269) R6 load(1, XDATA, add(CFA_XSP16, literal(-12)))
        CFI (cfiCond269) VB load(1, XDATA, add(CFA_XSP16, literal(-11)))
        CFI (cfiCond269) V0 load(1, XDATA, add(CFA_XSP16, literal(-10)))
        CFI (cfiCond269) V1 load(1, XDATA, add(CFA_XSP16, literal(-9)))
        CFI (cfiCond269) V2 load(1, XDATA, add(CFA_XSP16, literal(-8)))
        CFI (cfiCond269) V3 load(1, XDATA, add(CFA_XSP16, literal(-7)))
        CFI (cfiCond269) R7 load(1, XDATA, add(CFA_XSP16, literal(-6)))
        CFI (cfiCond269) ?RET_LOW load(1, XDATA, add(CFA_XSP16, literal(-5)))
        CFI (cfiCond269) ?RET_HIGH load(1, XDATA, add(CFA_XSP16, literal(-4)))
        CFI (cfiCond269) ?BRET_EXT load(1, XDATA, add(CFA_XSP16, literal(-3)))
        CFI (cfiCond269) DPL0 load(1, XDATA, add(CFA_XSP16, literal(-2)))
        CFI (cfiCond269) DPH0 load(1, XDATA, add(CFA_XSP16, literal(-1)))
        CFI (cfiCond269) CFA_SP SP+0
        CFI (cfiCond269) CFA_XSP16 add(XSP16, 14)
        CFI Block cfiPicker270 Using cfiCommon1
        CFI (cfiPicker270) NoFunction
        CFI (cfiPicker270) Picker
        MOV     DPL,?XSP + 0
        MOV     DPH,?XSP + 1
        LCALL   ?Subroutine69 & 0xFFFF
??CrossCallReturnLabel_97:
        LCALL   ??ZDSecMgrDeviceEntryAdd?relay
        RET
        CFI EndBlock cfiCond268
        CFI EndBlock cfiCond269
        CFI EndBlock cfiPicker270

        RSEG BANKED_CODE:CODE:NOROOT(0)
?Subroutine69:
        CFI Block cfiCond271 Using cfiCommon0
        CFI NoFunction
        CFI Conditional ??CrossCallReturnLabel_96, ??CrossCallReturnLabel_36
        CFI R6 load(1, XDATA, add(CFA_XSP16, literal(-12)))
        CFI VB load(1, XDATA, add(CFA_XSP16, literal(-11)))
        CFI V0 load(1, XDATA, add(CFA_XSP16, literal(-10)))
        CFI V1 load(1, XDATA, add(CFA_XSP16, literal(-9)))
        CFI V2 load(1, XDATA, add(CFA_XSP16, literal(-8)))
        CFI V3 load(1, XDATA, add(CFA_XSP16, literal(-7)))
        CFI R7 load(1, XDATA, add(CFA_XSP16, literal(-6)))
        CFI ?RET_LOW load(1, XDATA, add(CFA_XSP16, literal(-5)))
        CFI ?RET_HIGH load(1, XDATA, add(CFA_XSP16, literal(-4)))
        CFI ?BRET_EXT load(1, XDATA, add(CFA_XSP16, literal(-3)))
        CFI DPL0 load(1, XDATA, add(CFA_XSP16, literal(-2)))
        CFI DPH0 load(1, XDATA, add(CFA_XSP16, literal(-1)))
        CFI CFA_SP SP+0
        CFI CFA_XSP16 add(XSP16, 14)
        CFI Block cfiCond272 Using cfiCommon0
        CFI (cfiCond272) NoFunction
        CFI (cfiCond272) Conditional ??CrossCallReturnLabel_96, ??CrossCallReturnLabel_37
        CFI (cfiCond272) R6 load(1, XDATA, add(CFA_XSP16, literal(-12)))
        CFI (cfiCond272) VB load(1, XDATA, add(CFA_XSP16, literal(-11)))
        CFI (cfiCond272) V0 load(1, XDATA, add(CFA_XSP16, literal(-10)))
        CFI (cfiCond272) V1 load(1, XDATA, add(CFA_XSP16, literal(-9)))
        CFI (cfiCond272) V2 load(1, XDATA, add(CFA_XSP16, literal(-8)))
        CFI (cfiCond272) V3 load(1, XDATA, add(CFA_XSP16, literal(-7)))
        CFI (cfiCond272) R7 load(1, XDATA, add(CFA_XSP16, literal(-6)))
        CFI (cfiCond272) ?RET_LOW load(1, XDATA, add(CFA_XSP16, literal(-5)))
        CFI (cfiCond272) ?RET_HIGH load(1, XDATA, add(CFA_XSP16, literal(-4)))
        CFI (cfiCond272) ?BRET_EXT load(1, XDATA, add(CFA_XSP16, literal(-3)))
        CFI (cfiCond272) DPL0 load(1, XDATA, add(CFA_XSP16, literal(-2)))
        CFI (cfiCond272) DPH0 load(1, XDATA, add(CFA_XSP16, literal(-1)))
        CFI (cfiCond272) CFA_SP SP+0
        CFI (cfiCond272) CFA_XSP16 add(XSP16, 14)
        CFI Block cfiCond273 Using cfiCommon0
        CFI (cfiCond273) NoFunction
        CFI (cfiCond273) Conditional ??CrossCallReturnLabel_97, ??CrossCallReturnLabel_38
        CFI (cfiCond273) R6 load(1, XDATA, add(CFA_XSP16, literal(-9)))
        CFI (cfiCond273) VB load(1, XDATA, add(CFA_XSP16, literal(-8)))
        CFI (cfiCond273) V0 load(1, XDATA, add(CFA_XSP16, literal(-7)))
        CFI (cfiCond273) R7 load(1, XDATA, add(CFA_XSP16, literal(-6)))
        CFI (cfiCond273) ?RET_LOW load(1, XDATA, add(CFA_XSP16, literal(-5)))
        CFI (cfiCond273) ?RET_HIGH load(1, XDATA, add(CFA_XSP16, literal(-4)))
        CFI (cfiCond273) ?BRET_EXT load(1, XDATA, add(CFA_XSP16, literal(-3)))
        CFI (cfiCond273) DPL0 load(1, XDATA, add(CFA_XSP16, literal(-2)))
        CFI (cfiCond273) DPH0 load(1, XDATA, add(CFA_XSP16, literal(-1)))
        CFI (cfiCond273) CFA_SP SP+0
        CFI (cfiCond273) CFA_XSP16 add(XSP16, 13)
        CFI Block cfiCond274 Using cfiCommon0
        CFI (cfiCond274) NoFunction
        CFI (cfiCond274) Conditional ??CrossCallReturnLabel_97, ??CrossCallReturnLabel_39
        CFI (cfiCond274) R6 load(1, XDATA, add(CFA_XSP16, literal(-12)))
        CFI (cfiCond274) VB load(1, XDATA, add(CFA_XSP16, literal(-11)))
        CFI (cfiCond274) V0 load(1, XDATA, add(CFA_XSP16, literal(-10)))
        CFI (cfiCond274) V1 load(1, XDATA, add(CFA_XSP16, literal(-9)))
        CFI (cfiCond274) V2 load(1, XDATA, add(CFA_XSP16, literal(-8)))
        CFI (cfiCond274) V3 load(1, XDATA, add(CFA_XSP16, literal(-7)))
        CFI (cfiCond274) R7 load(1, XDATA, add(CFA_XSP16, literal(-6)))
        CFI (cfiCond274) ?RET_LOW load(1, XDATA, add(CFA_XSP16, literal(-5)))
        CFI (cfiCond274) ?RET_HIGH load(1, XDATA, add(CFA_XSP16, literal(-4)))
        CFI (cfiCond274) ?BRET_EXT load(1, XDATA, add(CFA_XSP16, literal(-3)))
        CFI (cfiCond274) DPL0 load(1, XDATA, add(CFA_XSP16, literal(-2)))
        CFI (cfiCond274) DPH0 load(1, XDATA, add(CFA_XSP16, literal(-1)))
        CFI (cfiCond274) CFA_SP SP+0
        CFI (cfiCond274) CFA_XSP16 add(XSP16, 14)
        CFI Block cfiPicker275 Using cfiCommon1
        CFI (cfiPicker275) NoFunction
        CFI (cfiPicker275) Picker
        LCALL   ?Subroutine78 & 0xFFFF
??CrossCallReturnLabel_109:
        MOV     A,R6
        MOV     R2,A
        MOV     A,R7
        MOV     R3,A
        RET
        CFI EndBlock cfiCond271
        CFI EndBlock cfiCond272
        CFI EndBlock cfiCond273
        CFI EndBlock cfiCond274
        CFI EndBlock cfiPicker275
// 1894 //devtag.pro.security
// 1895 #if 0
// 1896 ZStatus_t ZDSecMgrDeviceValidateCM( ZDSecMgrDevice_t* device )
// 1897 {
// 1898   ZStatus_t status;
// 1899   uint16    ami;
// 1900   uint8*    key;
// 1901 
// 1902 
// 1903   // check for pre configured setting
// 1904   if ( device->secure == TRUE )
// 1905   {
// 1906     // get EXT address and MASTER key
// 1907     status = ZDSecMgrExtAddrLookup( device->extAddr, &ami );
// 1908 
// 1909     if ( status == ZSuccess )
// 1910     {
// 1911       status = ZDSecMgrMasterKeyLookup( ami, &key );
// 1912     }
// 1913   }
// 1914   else
// 1915   {
// 1916     // implement EXT address and MASTER key policy here -- the total number of
// 1917     // Security Manager entries should never exceed the number of EXT addresses
// 1918     // and MASTER keys available
// 1919 
// 1920     // set status based on policy
// 1921     status = ZSuccess; // ZNwkUnknownDevice;
// 1922 
// 1923     // get the address index
// 1924     if ( ZDSecMgrExtAddrLookup( device->extAddr, &ami ) != ZSuccess )
// 1925     {
// 1926       // if policy, store new EXT address
// 1927       status = ZDSecMgrAddrStore( device->nwkAddr, device->extAddr, &ami );
// 1928     }
// 1929 
// 1930     // get the address index
// 1931     if ( ZDSecMgrMasterKeyLookup( ami, &key ) != ZSuccess )
// 1932     {
// 1933       // if policy, store new key -- NULL will zero key
// 1934       status = ZDSecMgrMasterKeyStore( ami, NULL );
// 1935     }
// 1936   }
// 1937 
// 1938   // if EXT address and MASTER key available -- add device
// 1939   if ( status == ZSuccess )
// 1940   {
// 1941     // add device to internal data - with control
// 1942     status = ZDSecMgrDeviceEntryAdd( device, ami );
// 1943   }
// 1944 
// 1945   return status;
// 1946 }
// 1947 #endif
// 1948 
// 1949 /******************************************************************************
// 1950  * @fn          ZDSecMgrDeviceValidate
// 1951  *
// 1952  * @brief       Decide whether device is allowed.
// 1953  *
// 1954  * @param       device - [in] ZDSecMgrDevice_t, device info
// 1955  *
// 1956  * @return      ZStatus_t
// 1957  */

        RSEG BANKED_CODE:CODE:NOROOT(0)
// 1958 ZStatus_t ZDSecMgrDeviceValidate( ZDSecMgrDevice_t* device )
ZDSecMgrDeviceValidate:
        CFI Block cfiBlock276 Using cfiCommon0
        CFI Function ZDSecMgrDeviceValidate
        CODE
// 1959 {
        FUNCALL ZDSecMgrDeviceValidate, ZDSecMgrDeviceValidateRM
        LOCFRAME ISTACK, 2, STACK
        LOCFRAME PSTACK, 0, STACK
        LOCFRAME XSTACK, 0, STACK
        LOCFRAME IOVERLAY, 0, STATIC
        LOCFRAME DOVERLAY, 0, STATIC
        ARGFRAME ISTACK, 2, STACK
        ARGFRAME PSTACK, 0, STACK
        ARGFRAME XSTACK, 0, STACK
        ARGFRAME IOVERLAY, 0, STATIC
        ARGFRAME DOVERLAY, 0, STATIC
        PUSH    DPL
        CFI DPL0 Frame(CFA_SP, 4)
        CFI CFA_SP SP+-4
        PUSH    DPH
        CFI DPH0 Frame(CFA_SP, 5)
        CFI CFA_SP SP+-5
        ; Saved register size: 2
        ; Auto size: 0
// 1960   ZStatus_t status;
// 1961 
// 1962 
// 1963   if ( ZDSecMgrPermitJoiningEnabled == TRUE )
        MOV     DPTR,#ZDSecMgrPermitJoiningEnabled
        MOVX    A,@DPTR
        XRL     A,#0x1
        JNZ     ??ZDSecMgrDeviceValidate_0
// 1964   {
// 1965     // device may be joining with a secure flag but it is ultimately the Trust
// 1966     // Center that decides -- check if expected pre configured device --
// 1967     // override settings
// 1968     if ( zgPreConfigKeys == TRUE )
        MOV     A,R2
        ADD     A,#0x6
        MOV     R0,A
        MOV     A,R3
        ADDC    A,#0x0
        MOV     R1,A
        MOV     DPTR,#zgPreConfigKeys
        MOVX    A,@DPTR
        XRL     A,#0x1
        MOV     DPL,R0
        MOV     DPH,R1
        JNZ     ??ZDSecMgrDeviceValidate_1
// 1969     {
// 1970       device->secure = TRUE;
        MOV     A,#0x1
        SJMP    ??ZDSecMgrDeviceValidate_2
// 1971     }
// 1972     else
// 1973     {
// 1974       device->secure = FALSE;
??ZDSecMgrDeviceValidate_1:
        CLR     A
??ZDSecMgrDeviceValidate_2:
        MOVX    @DPTR,A
// 1975     }
// 1976 
// 1977     if ( ZG_CHECK_SECURITY_MODE == ZG_SECURITY_PRO_HIGH )
// 1978     {
// 1979       status = ZDSecMgrDeviceValidateCM( device );
// 1980     }
// 1981     else // ( ZG_CHECK_SECURITY_MODE == ZG_SECURITY_RESIDENTIAL )
// 1982     {
// 1983       status = ZDSecMgrDeviceValidateRM( device );
        ; Setup parameters for call to function ZDSecMgrDeviceValidateRM
        LCALL   ??ZDSecMgrDeviceValidateRM?relay
        SJMP    ??ZDSecMgrDeviceValidate_3
// 1984     }
// 1985   }
// 1986   else
// 1987   {
// 1988     status = ZNwkUnknownDevice;
??ZDSecMgrDeviceValidate_0:
        MOV     R1,#-0x38
// 1989   }
// 1990 
// 1991   return status;
??ZDSecMgrDeviceValidate_3:
        LJMP    ??Subroutine91_0 & 0xFFFF
        CFI EndBlock cfiBlock276
// 1992 }
// 1993 
// 1994 /******************************************************************************
// 1995  * @fn          ZDSecMgrDeviceJoin
// 1996  *
// 1997  * @brief       Try to join this device.
// 1998  *
// 1999  * @param       device - [in] ZDSecMgrDevice_t, device info
// 2000  *
// 2001  * @return      ZStatus_t
// 2002  */

        RSEG BANKED_CODE:CODE:NOROOT(0)
// 2003 ZStatus_t ZDSecMgrDeviceJoin( ZDSecMgrDevice_t* device )
ZDSecMgrDeviceJoin:
        CFI Block cfiBlock277 Using cfiCommon0
        CFI Function ZDSecMgrDeviceJoin
        CODE
// 2004 {
        FUNCALL ZDSecMgrDeviceJoin, ZDSecMgrDeviceValidate
        LOCFRAME ISTACK, 0, STACK
        LOCFRAME PSTACK, 0, STACK
        LOCFRAME XSTACK, 9, STACK
        LOCFRAME IOVERLAY, 0, STATIC
        LOCFRAME DOVERLAY, 0, STATIC
        ARGFRAME ISTACK, 0, STACK
        ARGFRAME PSTACK, 0, STACK
        ARGFRAME XSTACK, 9, STACK
        ARGFRAME IOVERLAY, 0, STATIC
        ARGFRAME DOVERLAY, 0, STATIC
        FUNCALL ZDSecMgrDeviceJoin, ZDSecMgrSendNwkKey
        LOCFRAME ISTACK, 0, STACK
        LOCFRAME PSTACK, 0, STACK
        LOCFRAME XSTACK, 9, STACK
        LOCFRAME IOVERLAY, 0, STATIC
        LOCFRAME DOVERLAY, 0, STATIC
        ARGFRAME ISTACK, 0, STACK
        ARGFRAME PSTACK, 0, STACK
        ARGFRAME XSTACK, 9, STACK
        ARGFRAME IOVERLAY, 0, STATIC
        ARGFRAME DOVERLAY, 0, STATIC
        FUNCALL ZDSecMgrDeviceJoin, ZDSecMgrDeviceRemove
        LOCFRAME ISTACK, 0, STACK
        LOCFRAME PSTACK, 0, STACK
        LOCFRAME XSTACK, 9, STACK
        LOCFRAME IOVERLAY, 0, STATIC
        LOCFRAME DOVERLAY, 0, STATIC
        ARGFRAME ISTACK, 0, STACK
        ARGFRAME PSTACK, 0, STACK
        ARGFRAME XSTACK, 9, STACK
        ARGFRAME IOVERLAY, 0, STATIC
        ARGFRAME DOVERLAY, 0, STATIC
        MOV     A,#-0x9
        LCALL   ?BANKED_ENTER_XDATA
        CFI DPH0 load(1, XDATA, add(CFA_XSP16, literal(-1)))
        CFI DPL0 load(1, XDATA, add(CFA_XSP16, literal(-2)))
        CFI ?BRET_EXT load(1, XDATA, add(CFA_XSP16, literal(-3)))
        CFI ?RET_HIGH load(1, XDATA, add(CFA_XSP16, literal(-4)))
        CFI ?RET_LOW load(1, XDATA, add(CFA_XSP16, literal(-5)))
        CFI R7 load(1, XDATA, add(CFA_XSP16, literal(-6)))
        CFI V0 load(1, XDATA, add(CFA_XSP16, literal(-7)))
        CFI VB load(1, XDATA, add(CFA_XSP16, literal(-8)))
        CFI R6 load(1, XDATA, add(CFA_XSP16, literal(-9)))
        CFI CFA_SP SP+0
        CFI CFA_XSP16 add(XSP16, 9)
        ; Saved register size: 9
        ; Auto size: 0
        MOV     A,R2
        MOV     R6,A
        MOV     A,R3
        MOV     R7,A
// 2005   ZStatus_t status;
// 2006 
// 2007   // attempt to validate device
// 2008   status = ZDSecMgrDeviceValidate( device );
        ; Setup parameters for call to function ZDSecMgrDeviceValidate
        LCALL   ??ZDSecMgrDeviceValidate?relay
        MOV     A,R1
        MOV     ?V0 + 0,A
// 2009 
// 2010   if ( status == ZSuccess )
        JNZ     ??ZDSecMgrDeviceJoin_0
// 2011   {
// 2012     if ( ZG_CHECK_SECURITY_MODE == ZG_SECURITY_PRO_HIGH )
// 2013     {
// 2014       ZDSecMgrDeviceCtrlSetup( device );
// 2015     }
// 2016     else // ( ZG_CHECK_SECURITY_MODE == ZG_SECURITY_RESIDENTIAL )
// 2017     {
// 2018       //send the nwk key data to the joining device
// 2019       status = ZDSecMgrSendNwkKey( device );
        ; Setup parameters for call to function ZDSecMgrSendNwkKey
        MOV     A,R6
        MOV     R2,A
        MOV     A,R7
        MOV     R3,A
        LCALL   ??ZDSecMgrSendNwkKey?relay
        MOV     A,R1
        MOV     ?V0 + 0,A
        SJMP    ??ZDSecMgrDeviceJoin_1
// 2020     }
// 2021   }
// 2022   else
// 2023   {
// 2024     // not allowed, remove the device
// 2025     ZDSecMgrDeviceRemove( device );
??ZDSecMgrDeviceJoin_0:
        ; Setup parameters for call to function ZDSecMgrDeviceRemove
        MOV     A,R6
        MOV     R2,A
        MOV     A,R7
        MOV     R3,A
        LCALL   ??ZDSecMgrDeviceRemove?relay
        CFI EndBlock cfiBlock277
// 2026   }
// 2027 
// 2028   return status;
??ZDSecMgrDeviceJoin_1:
        REQUIRE ?Subroutine9
        ; // Fall through to label ?Subroutine9
// 2029 }

        RSEG BANKED_CODE:CODE:NOROOT(0)
?Subroutine9:
        CFI Block cfiBlock278 Using cfiCommon0
        CFI NoFunction
        CFI CFA_SP SP+0
        CFI CFA_XSP16 add(XSP16, 9)
        CFI VB load(1, XDATA, add(CFA_XSP16, literal(-8)))
        CFI DPL0 load(1, XDATA, add(CFA_XSP16, literal(-2)))
        CFI DPH0 load(1, XDATA, add(CFA_XSP16, literal(-1)))
        CFI R6 load(1, XDATA, add(CFA_XSP16, literal(-9)))
        CFI R7 load(1, XDATA, add(CFA_XSP16, literal(-6)))
        CFI V0 load(1, XDATA, add(CFA_XSP16, literal(-7)))
        CFI ?BRET_EXT load(1, XDATA, add(CFA_XSP16, literal(-3)))
        CFI ?RET_HIGH load(1, XDATA, add(CFA_XSP16, literal(-4)))
        CFI ?RET_LOW load(1, XDATA, add(CFA_XSP16, literal(-5)))
        MOV     R1,?V0 + 0
        LJMP    ??Subroutine104_0 & 0xFFFF
        CFI EndBlock cfiBlock278
// 2030 
// 2031 /******************************************************************************
// 2032  * @fn          ZDSecMgrDeviceJoinDirect
// 2033  *
// 2034  * @brief       Try to join this device as a direct child.
// 2035  *
// 2036  * @param       device - [in] ZDSecMgrDevice_t, device info
// 2037  *
// 2038  * @return      ZStatus_t
// 2039  */

        RSEG BANKED_CODE:CODE:NOROOT(0)
// 2040 ZStatus_t ZDSecMgrDeviceJoinDirect( ZDSecMgrDevice_t* device )
ZDSecMgrDeviceJoinDirect:
        CFI Block cfiBlock279 Using cfiCommon0
        CFI Function ZDSecMgrDeviceJoinDirect
        CODE
// 2041 {
        FUNCALL ZDSecMgrDeviceJoinDirect, ZDSecMgrDeviceJoin
        LOCFRAME ISTACK, 0, STACK
        LOCFRAME PSTACK, 0, STACK
        LOCFRAME XSTACK, 9, STACK
        LOCFRAME IOVERLAY, 0, STATIC
        LOCFRAME DOVERLAY, 0, STATIC
        ARGFRAME ISTACK, 0, STACK
        ARGFRAME PSTACK, 0, STACK
        ARGFRAME XSTACK, 9, STACK
        ARGFRAME IOVERLAY, 0, STATIC
        ARGFRAME DOVERLAY, 0, STATIC
        FUNCALL ZDSecMgrDeviceJoinDirect, AssocGetWithShort
        LOCFRAME ISTACK, 0, STACK
        LOCFRAME PSTACK, 0, STACK
        LOCFRAME XSTACK, 9, STACK
        LOCFRAME IOVERLAY, 0, STATIC
        LOCFRAME DOVERLAY, 0, STATIC
        ARGFRAME ISTACK, 0, STACK
        ARGFRAME PSTACK, 0, STACK
        ARGFRAME XSTACK, 9, STACK
        ARGFRAME IOVERLAY, 0, STATIC
        ARGFRAME DOVERLAY, 0, STATIC
        FUNCALL ZDSecMgrDeviceJoinDirect, ZDSecMgrAssocDeviceAuth
        LOCFRAME ISTACK, 0, STACK
        LOCFRAME PSTACK, 0, STACK
        LOCFRAME XSTACK, 9, STACK
        LOCFRAME IOVERLAY, 0, STATIC
        LOCFRAME DOVERLAY, 0, STATIC
        ARGFRAME ISTACK, 0, STACK
        ARGFRAME PSTACK, 0, STACK
        ARGFRAME XSTACK, 9, STACK
        ARGFRAME IOVERLAY, 0, STATIC
        ARGFRAME DOVERLAY, 0, STATIC
        MOV     A,#-0x9
        LCALL   ?BANKED_ENTER_XDATA
        CFI DPH0 load(1, XDATA, add(CFA_XSP16, literal(-1)))
        CFI DPL0 load(1, XDATA, add(CFA_XSP16, literal(-2)))
        CFI ?BRET_EXT load(1, XDATA, add(CFA_XSP16, literal(-3)))
        CFI ?RET_HIGH load(1, XDATA, add(CFA_XSP16, literal(-4)))
        CFI ?RET_LOW load(1, XDATA, add(CFA_XSP16, literal(-5)))
        CFI R7 load(1, XDATA, add(CFA_XSP16, literal(-6)))
        CFI V0 load(1, XDATA, add(CFA_XSP16, literal(-7)))
        CFI VB load(1, XDATA, add(CFA_XSP16, literal(-8)))
        CFI R6 load(1, XDATA, add(CFA_XSP16, literal(-9)))
        CFI CFA_SP SP+0
        CFI CFA_XSP16 add(XSP16, 9)
        ; Saved register size: 9
        ; Auto size: 0
        MOV     A,R2
        MOV     R6,A
        MOV     A,R3
        MOV     R7,A
// 2042   ZStatus_t status;
// 2043 
// 2044   status = ZDSecMgrDeviceJoin( device );
        ; Setup parameters for call to function ZDSecMgrDeviceJoin
        LCALL   ??ZDSecMgrDeviceJoin?relay
        MOV     A,R1
        MOV     ?V0 + 0,A
// 2045 
// 2046   if ( status == ZSuccess )
        JNZ     ??ZDSecMgrDeviceJoinDirect_0
// 2047   {
// 2048     // set association status to authenticated
// 2049     ZDSecMgrAssocDeviceAuth( AssocGetWithShort( device->nwkAddr ) );
        ; Setup parameters for call to function ZDSecMgrAssocDeviceAuth
        ; Setup parameters for call to function AssocGetWithShort
        LCALL   ?Subroutine52 & 0xFFFF
// 2050   }
??CrossCallReturnLabel_156:
        LCALL   ??AssocGetWithShort?relay
        LCALL   ??ZDSecMgrAssocDeviceAuth?relay
// 2051 
// 2052   return status;
??ZDSecMgrDeviceJoinDirect_0:
        SJMP    ?Subroutine9
        CFI EndBlock cfiBlock279
// 2053 }
// 2054 
// 2055 /******************************************************************************
// 2056  * @fn          ZDSecMgrDeviceJoinFwd
// 2057  *
// 2058  * @brief       Forward join to Trust Center.
// 2059  *
// 2060  * @param       device - [in] ZDSecMgrDevice_t, device info
// 2061  *
// 2062  * @return      ZStatus_t
// 2063  */

        RSEG BANKED_CODE:CODE:NOROOT(0)
// 2064 ZStatus_t ZDSecMgrDeviceJoinFwd( ZDSecMgrDevice_t* device )
ZDSecMgrDeviceJoinFwd:
        CFI Block cfiBlock280 Using cfiCommon0
        CFI Function ZDSecMgrDeviceJoinFwd
        CODE
// 2065 {
        FUNCALL ZDSecMgrDeviceJoinFwd, APSME_UpdateDeviceReq
        LOCFRAME ISTACK, 2, STACK
        LOCFRAME PSTACK, 0, STACK
        LOCFRAME XSTACK, 8, STACK
        LOCFRAME IOVERLAY, 0, STATIC
        LOCFRAME DOVERLAY, 0, STATIC
        ARGFRAME ISTACK, 2, STACK
        ARGFRAME PSTACK, 0, STACK
        ARGFRAME XSTACK, 8, STACK
        ARGFRAME IOVERLAY, 0, STATIC
        ARGFRAME DOVERLAY, 0, STATIC
        PUSH    DPL
        CFI DPL0 Frame(CFA_SP, 4)
        CFI CFA_SP SP+-4
        PUSH    DPH
        CFI DPH0 Frame(CFA_SP, 5)
        CFI CFA_SP SP+-5
        ; Saved register size: 2
        ; Auto size: 8
        MOV     A,#-0x8
        LCALL   ?ALLOC_XSTACK8
        CFI CFA_XSP16 add(XSP16, 8)
// 2066   ZStatus_t               status;
// 2067   APSME_UpdateDeviceReq_t req;
// 2068 
// 2069 
// 2070   // forward any joining device to the Trust Center -- the Trust Center will
// 2071   // decide if the device is allowed to join
// 2072   status = ZSuccess;
// 2073 
// 2074   // forward authorization to the Trust Center
// 2075   req.dstAddr    = APSME_TRUSTCENTER_NWKADDR;
        MOV     DPL,?XSP + 0
        MOV     DPH,?XSP + 1
        CLR     A
        MOVX    @DPTR,A
        INC     DPTR
        LCALL   ?Subroutine74 & 0xFFFF
// 2076   req.devAddr    = device->nwkAddr;
??CrossCallReturnLabel_102:
        LCALL   ?Subroutine43 & 0xFFFF
??CrossCallReturnLabel_52:
        LCALL   ?XSTACK_DISP0_8
        LCALL   ?Subroutine15 & 0xFFFF
// 2077   req.devExtAddr = device->extAddr;
??CrossCallReturnLabel_4:
        LCALL   ?XSTACK_DISP0_8
        LCALL   ??Subroutine93_0 & 0xFFFF
// 2078 
// 2079   // set security status, option for router to reject if policy set
// 2080   if ( (device->devStatus & DEV_HIGH_SEC_STATUS) )
??CrossCallReturnLabel_173:
        MOV     A,R2
        ADD     A,#0x7
        LCALL   ?Subroutine57 & 0xFFFF
??CrossCallReturnLabel_163:
        MOV     C,0xE0 /* A   */.7
        JNC     ??ZDSecMgrDeviceJoinFwd_0
// 2081   {
// 2082     if ( device->devStatus & DEV_REJOIN_STATUS )
        MOV     C,0xE0 /* A   */.6
        JNC     ??ZDSecMgrDeviceJoinFwd_1
// 2083     {
// 2084       if ( device->secure == TRUE )
        MOV     DPL,R2
        MOV     DPH,R3
        INC     DPTR
        INC     DPTR
        INC     DPTR
        INC     DPTR
        INC     DPTR
        INC     DPTR
        MOVX    A,@DPTR
        XRL     A,#0x1
        JNZ     ??ZDSecMgrDeviceJoinFwd_2
// 2085         req.status = APSME_UD_HIGH_SECURED_REJOIN;
        MOV     A,#0x6
        LCALL   ?XSTACK_DISP0_8
        MOV     A,#0x4
        SJMP    ??ZDSecMgrDeviceJoinFwd_3
// 2086       else
// 2087         req.status = APSME_UD_HIGH_UNSECURED_REJOIN;
??ZDSecMgrDeviceJoinFwd_2:
        MOV     A,#0x6
        LCALL   ?XSTACK_DISP0_8
        MOV     A,#0x7
        SJMP    ??ZDSecMgrDeviceJoinFwd_3
// 2088     }
// 2089     else
// 2090       req.status = APSME_UD_HIGH_UNSECURED_JOIN;
??ZDSecMgrDeviceJoinFwd_1:
        MOV     A,#0x6
        LCALL   ?XSTACK_DISP0_8
        MOV     A,#0x5
        SJMP    ??ZDSecMgrDeviceJoinFwd_3
// 2091   }
// 2092   else
// 2093   {
// 2094     if ( device->devStatus & DEV_REJOIN_STATUS )
??ZDSecMgrDeviceJoinFwd_0:
        MOV     C,0xE0 /* A   */.6
        JNC     ??ZDSecMgrDeviceJoinFwd_4
// 2095     {
// 2096       if ( device->secure == TRUE )
        MOV     DPL,R2
        MOV     DPH,R3
        INC     DPTR
        INC     DPTR
        INC     DPTR
        INC     DPTR
        INC     DPTR
        INC     DPTR
        MOVX    A,@DPTR
        XRL     A,#0x1
        JNZ     ??ZDSecMgrDeviceJoinFwd_5
// 2097         req.status = APSME_UD_STANDARD_SECURED_REJOIN;
        MOV     A,#0x6
        LCALL   ?XSTACK_DISP0_8
        CLR     A
        SJMP    ??ZDSecMgrDeviceJoinFwd_3
// 2098       else
// 2099         req.status = APSME_UD_STANDARD_UNSECURED_REJOIN;
??ZDSecMgrDeviceJoinFwd_5:
        MOV     A,#0x6
        LCALL   ?XSTACK_DISP0_8
        MOV     A,#0x3
        SJMP    ??ZDSecMgrDeviceJoinFwd_3
// 2100     }
// 2101     else
// 2102       req.status = APSME_UD_STANDARD_UNSECURED_JOIN;
??ZDSecMgrDeviceJoinFwd_4:
        MOV     A,#0x6
        LCALL   ?XSTACK_DISP0_8
        MOV     A,#0x1
??ZDSecMgrDeviceJoinFwd_3:
        MOVX    @DPTR,A
// 2103   }
// 2104 
// 2105   if ( ZG_CHECK_SECURITY_MODE == ZG_SECURITY_PRO_HIGH )
// 2106     req.apsSecure = TRUE;
// 2107   else
// 2108     req.apsSecure = FALSE;
        MOV     A,#0x7
        LCALL   ?XSTACK_DISP0_8
        CLR     A
        LCALL   ??Subroutine94_0 & 0xFFFF
// 2109 
// 2110   // send and APSME_UPDATE_DEVICE request to the trust center
// 2111   status = APSME_UpdateDeviceReq( &req );
// 2112 
// 2113   return status;
??CrossCallReturnLabel_188:
        LCALL   ??APSME_UpdateDeviceReq?relay
        MOV     A,#0x8
        LJMP    ??Subroutine84_0 & 0xFFFF
        CFI EndBlock cfiBlock280
// 2114 }

        RSEG BANKED_CODE:CODE:NOROOT(0)
?Subroutine74:
        CFI Block cfiCond281 Using cfiCommon0
        CFI NoFunction
        CFI Conditional ??CrossCallReturnLabel_100, ??CrossCallReturnLabel_14
        CFI R6 load(1, XDATA, add(CFA_XSP16, literal(-9)))
        CFI VB load(1, XDATA, add(CFA_XSP16, literal(-8)))
        CFI V0 load(1, XDATA, add(CFA_XSP16, literal(-7)))
        CFI R7 load(1, XDATA, add(CFA_XSP16, literal(-6)))
        CFI ?RET_LOW load(1, XDATA, add(CFA_XSP16, literal(-5)))
        CFI ?RET_HIGH load(1, XDATA, add(CFA_XSP16, literal(-4)))
        CFI ?BRET_EXT load(1, XDATA, add(CFA_XSP16, literal(-3)))
        CFI DPL0 load(1, XDATA, add(CFA_XSP16, literal(-2)))
        CFI DPH0 load(1, XDATA, add(CFA_XSP16, literal(-1)))
        CFI CFA_SP SP+0
        CFI CFA_XSP16 add(XSP16, 9)
        CFI Block cfiCond282 Using cfiCommon0
        CFI (cfiCond282) NoFunction
        CFI (cfiCond282) Conditional ??CrossCallReturnLabel_100, ??CrossCallReturnLabel_15
        CFI (cfiCond282) R6 load(1, XDATA, add(CFA_XSP16, literal(-9)))
        CFI (cfiCond282) VB load(1, XDATA, add(CFA_XSP16, literal(-8)))
        CFI (cfiCond282) V0 load(1, XDATA, add(CFA_XSP16, literal(-7)))
        CFI (cfiCond282) R7 load(1, XDATA, add(CFA_XSP16, literal(-6)))
        CFI (cfiCond282) ?RET_LOW load(1, XDATA, add(CFA_XSP16, literal(-5)))
        CFI (cfiCond282) ?RET_HIGH load(1, XDATA, add(CFA_XSP16, literal(-4)))
        CFI (cfiCond282) ?BRET_EXT load(1, XDATA, add(CFA_XSP16, literal(-3)))
        CFI (cfiCond282) DPL0 load(1, XDATA, add(CFA_XSP16, literal(-2)))
        CFI (cfiCond282) DPH0 load(1, XDATA, add(CFA_XSP16, literal(-1)))
        CFI (cfiCond282) CFA_SP SP+0
        CFI (cfiCond282) CFA_XSP16 add(XSP16, 9)
        CFI Block cfiCond283 Using cfiCommon0
        CFI (cfiCond283) NoFunction
        CFI (cfiCond283) Conditional ??CrossCallReturnLabel_101
        CFI (cfiCond283) R6 load(1, XDATA, add(CFA_XSP16, literal(-10)))
        CFI (cfiCond283) VB load(1, XDATA, add(CFA_XSP16, literal(-9)))
        CFI (cfiCond283) V0 load(1, XDATA, add(CFA_XSP16, literal(-8)))
        CFI (cfiCond283) V1 load(1, XDATA, add(CFA_XSP16, literal(-7)))
        CFI (cfiCond283) R7 load(1, XDATA, add(CFA_XSP16, literal(-6)))
        CFI (cfiCond283) ?RET_LOW load(1, XDATA, add(CFA_XSP16, literal(-5)))
        CFI (cfiCond283) ?RET_HIGH load(1, XDATA, add(CFA_XSP16, literal(-4)))
        CFI (cfiCond283) ?BRET_EXT load(1, XDATA, add(CFA_XSP16, literal(-3)))
        CFI (cfiCond283) DPL0 load(1, XDATA, add(CFA_XSP16, literal(-2)))
        CFI (cfiCond283) DPH0 load(1, XDATA, add(CFA_XSP16, literal(-1)))
        CFI (cfiCond283) CFA_SP SP+0
        CFI (cfiCond283) CFA_XSP16 add(XSP16, 19)
        CFI Block cfiCond284 Using cfiCommon0
        CFI (cfiCond284) NoFunction
        CFI (cfiCond284) Conditional ??CrossCallReturnLabel_102
        CFI (cfiCond284) DPL0 Frame(CFA_SP, 4)
        CFI (cfiCond284) DPH0 Frame(CFA_SP, 5)
        CFI (cfiCond284) CFA_SP SP+-5
        CFI (cfiCond284) CFA_XSP16 add(XSP16, 8)
        CFI Block cfiCond285 Using cfiCommon0
        CFI (cfiCond285) NoFunction
        CFI (cfiCond285) Conditional ??CrossCallReturnLabel_103, ??CrossCallReturnLabel_4
        CFI (cfiCond285) DPL0 Frame(CFA_SP, 4)
        CFI (cfiCond285) DPH0 Frame(CFA_SP, 5)
        CFI (cfiCond285) CFA_SP SP+-5
        CFI (cfiCond285) CFA_XSP16 add(XSP16, 8)
        CFI Block cfiCond286 Using cfiCommon0
        CFI (cfiCond286) NoFunction
        CFI (cfiCond286) Conditional ??CrossCallReturnLabel_103, ??CrossCallReturnLabel_5
        CFI (cfiCond286) DPL0 Frame(CFA_SP, 4)
        CFI (cfiCond286) DPH0 Frame(CFA_SP, 5)
        CFI (cfiCond286) CFA_SP SP+-5
        CFI (cfiCond286) CFA_XSP16 add(XSP16, 10)
        CFI Block cfiPicker287 Using cfiCommon1
        CFI (cfiPicker287) NoFunction
        CFI (cfiPicker287) Picker
        MOVX    @DPTR,A
        ; Setup parameters for call to function AssocGetWithExt
        MOV     DPL,R2
        MOV     DPH,R3
        RET
        CFI EndBlock cfiCond281
        CFI EndBlock cfiCond282
        CFI EndBlock cfiCond283
        CFI EndBlock cfiCond284
        CFI EndBlock cfiCond285
        CFI EndBlock cfiCond286
        CFI EndBlock cfiPicker287

        RSEG BANKED_CODE:CODE:NOROOT(0)
?Subroutine57:
        CFI Block cfiCond288 Using cfiCommon0
        CFI NoFunction
        CFI Conditional ??CrossCallReturnLabel_163
        CFI DPL0 Frame(CFA_SP, 4)
        CFI DPH0 Frame(CFA_SP, 5)
        CFI CFA_SP SP+-5
        CFI CFA_XSP16 add(XSP16, 8)
        CFI Block cfiCond289 Using cfiCommon0
        CFI (cfiCond289) NoFunction
        CFI (cfiCond289) Conditional ??CrossCallReturnLabel_164
        CFI (cfiCond289) R6 load(1, XDATA, add(CFA_XSP16, literal(-10)))
        CFI (cfiCond289) VB load(1, XDATA, add(CFA_XSP16, literal(-9)))
        CFI (cfiCond289) V0 load(1, XDATA, add(CFA_XSP16, literal(-8)))
        CFI (cfiCond289) V1 load(1, XDATA, add(CFA_XSP16, literal(-7)))
        CFI (cfiCond289) R7 load(1, XDATA, add(CFA_XSP16, literal(-6)))
        CFI (cfiCond289) ?RET_LOW load(1, XDATA, add(CFA_XSP16, literal(-5)))
        CFI (cfiCond289) ?RET_HIGH load(1, XDATA, add(CFA_XSP16, literal(-4)))
        CFI (cfiCond289) ?BRET_EXT load(1, XDATA, add(CFA_XSP16, literal(-3)))
        CFI (cfiCond289) DPL0 load(1, XDATA, add(CFA_XSP16, literal(-2)))
        CFI (cfiCond289) DPH0 load(1, XDATA, add(CFA_XSP16, literal(-1)))
        CFI (cfiCond289) CFA_SP SP+0
        CFI (cfiCond289) CFA_XSP16 add(XSP16, 33)
        CFI Block cfiCond290 Using cfiCommon0
        CFI (cfiCond290) NoFunction
        CFI (cfiCond290) Conditional ??CrossCallReturnLabel_165
        CFI (cfiCond290) DPL0 Frame(CFA_SP, 4)
        CFI (cfiCond290) DPH0 Frame(CFA_SP, 5)
        CFI (cfiCond290) CFA_SP SP+-5
        CFI Block cfiPicker291 Using cfiCommon1
        CFI (cfiPicker291) NoFunction
        CFI (cfiPicker291) Picker
        MOV     DPL,A
        MOV     A,R3
        CFI EndBlock cfiCond288
        CFI EndBlock cfiCond289
        CFI EndBlock cfiCond290
        CFI EndBlock cfiPicker291
        REQUIRE ??Subroutine90_0
        ; // Fall through to label ??Subroutine90_0

        RSEG BANKED_CODE:CODE:NOROOT(0)
??Subroutine90_0:
        CFI Block cfiCond292 Using cfiCommon0
        CFI NoFunction
        CFI Conditional ??CrossCallReturnLabel_161
        CFI R6 load(1, XDATA, add(CFA_XSP16, literal(-12)))
        CFI VB load(1, XDATA, add(CFA_XSP16, literal(-11)))
        CFI V0 load(1, XDATA, add(CFA_XSP16, literal(-10)))
        CFI V1 load(1, XDATA, add(CFA_XSP16, literal(-9)))
        CFI V2 load(1, XDATA, add(CFA_XSP16, literal(-8)))
        CFI V3 load(1, XDATA, add(CFA_XSP16, literal(-7)))
        CFI R7 load(1, XDATA, add(CFA_XSP16, literal(-6)))
        CFI ?RET_LOW load(1, XDATA, add(CFA_XSP16, literal(-5)))
        CFI ?RET_HIGH load(1, XDATA, add(CFA_XSP16, literal(-4)))
        CFI ?BRET_EXT load(1, XDATA, add(CFA_XSP16, literal(-3)))
        CFI DPL0 load(1, XDATA, add(CFA_XSP16, literal(-2)))
        CFI DPH0 load(1, XDATA, add(CFA_XSP16, literal(-1)))
        CFI CFA_SP SP+0
        CFI CFA_XSP16 add(XSP16, 29)
        CFI Block cfiCond293 Using cfiCommon0
        CFI (cfiCond293) NoFunction
        CFI (cfiCond293) Conditional ??CrossCallReturnLabel_162
        CFI (cfiCond293) R6 load(1, XDATA, add(CFA_XSP16, literal(-10)))
        CFI (cfiCond293) VB load(1, XDATA, add(CFA_XSP16, literal(-9)))
        CFI (cfiCond293) V0 load(1, XDATA, add(CFA_XSP16, literal(-8)))
        CFI (cfiCond293) V1 load(1, XDATA, add(CFA_XSP16, literal(-7)))
        CFI (cfiCond293) R7 load(1, XDATA, add(CFA_XSP16, literal(-6)))
        CFI (cfiCond293) ?RET_LOW load(1, XDATA, add(CFA_XSP16, literal(-5)))
        CFI (cfiCond293) ?RET_HIGH load(1, XDATA, add(CFA_XSP16, literal(-4)))
        CFI (cfiCond293) ?BRET_EXT load(1, XDATA, add(CFA_XSP16, literal(-3)))
        CFI (cfiCond293) DPL0 load(1, XDATA, add(CFA_XSP16, literal(-2)))
        CFI (cfiCond293) DPH0 load(1, XDATA, add(CFA_XSP16, literal(-1)))
        CFI (cfiCond293) CFA_SP SP+0
        CFI (cfiCond293) CFA_XSP16 add(XSP16, 10)
        CFI Block cfiCond294 Using cfiCommon0
        CFI (cfiCond294) NoFunction
        CFI (cfiCond294) Conditional ??CrossCallReturnLabel_163
        CFI (cfiCond294) DPL0 Frame(CFA_SP, 4)
        CFI (cfiCond294) DPH0 Frame(CFA_SP, 5)
        CFI (cfiCond294) CFA_SP SP+-5
        CFI (cfiCond294) CFA_XSP16 add(XSP16, 8)
        CFI Block cfiCond295 Using cfiCommon0
        CFI (cfiCond295) NoFunction
        CFI (cfiCond295) Conditional ??CrossCallReturnLabel_164
        CFI (cfiCond295) R6 load(1, XDATA, add(CFA_XSP16, literal(-10)))
        CFI (cfiCond295) VB load(1, XDATA, add(CFA_XSP16, literal(-9)))
        CFI (cfiCond295) V0 load(1, XDATA, add(CFA_XSP16, literal(-8)))
        CFI (cfiCond295) V1 load(1, XDATA, add(CFA_XSP16, literal(-7)))
        CFI (cfiCond295) R7 load(1, XDATA, add(CFA_XSP16, literal(-6)))
        CFI (cfiCond295) ?RET_LOW load(1, XDATA, add(CFA_XSP16, literal(-5)))
        CFI (cfiCond295) ?RET_HIGH load(1, XDATA, add(CFA_XSP16, literal(-4)))
        CFI (cfiCond295) ?BRET_EXT load(1, XDATA, add(CFA_XSP16, literal(-3)))
        CFI (cfiCond295) DPL0 load(1, XDATA, add(CFA_XSP16, literal(-2)))
        CFI (cfiCond295) DPH0 load(1, XDATA, add(CFA_XSP16, literal(-1)))
        CFI (cfiCond295) CFA_SP SP+0
        CFI (cfiCond295) CFA_XSP16 add(XSP16, 33)
        CFI Block cfiCond296 Using cfiCommon0
        CFI (cfiCond296) NoFunction
        CFI (cfiCond296) Conditional ??CrossCallReturnLabel_165
        CFI (cfiCond296) DPL0 Frame(CFA_SP, 4)
        CFI (cfiCond296) DPH0 Frame(CFA_SP, 5)
        CFI (cfiCond296) CFA_SP SP+-5
        CFI Block cfiPicker297 Using cfiCommon1
        CFI (cfiPicker297) NoFunction
        CFI (cfiPicker297) Picker
        ADDC    A,#0x0
        MOV     DPH,A
        MOVX    A,@DPTR
        RET
        CFI EndBlock cfiCond292
        CFI EndBlock cfiCond293
        CFI EndBlock cfiCond294
        CFI EndBlock cfiCond295
        CFI EndBlock cfiCond296
        CFI EndBlock cfiPicker297
// 2115 
// 2116 /******************************************************************************
// 2117  * @fn          ZDSecMgrDeviceNew
// 2118  *
// 2119  * @brief       Process a new device.
// 2120  *
// 2121  * @param       device - [in] ZDSecMgrDevice_t, device info
// 2122  *
// 2123  * @return      ZStatus_t
// 2124  */

        RSEG BANKED_CODE:CODE:NOROOT(0)
// 2125 ZStatus_t ZDSecMgrDeviceNew( ZDSecMgrDevice_t* joiner )
ZDSecMgrDeviceNew:
        CFI Block cfiBlock298 Using cfiCommon0
        CFI Function ZDSecMgrDeviceNew
        CODE
// 2126 {
        FUNCALL ZDSecMgrDeviceNew, ZDSecMgrDeviceJoinDirect
        LOCFRAME ISTACK, 2, STACK
        LOCFRAME PSTACK, 0, STACK
        LOCFRAME XSTACK, 0, STACK
        LOCFRAME IOVERLAY, 0, STATIC
        LOCFRAME DOVERLAY, 0, STATIC
        ARGFRAME ISTACK, 2, STACK
        ARGFRAME PSTACK, 0, STACK
        ARGFRAME XSTACK, 0, STACK
        ARGFRAME IOVERLAY, 0, STATIC
        ARGFRAME DOVERLAY, 0, STATIC
        PUSH    DPL
        CFI DPL0 Frame(CFA_SP, 4)
        CFI CFA_SP SP+-4
        PUSH    DPH
        CFI DPH0 Frame(CFA_SP, 5)
        CFI CFA_SP SP+-5
        ; Saved register size: 2
        ; Auto size: 0
// 2127   ZStatus_t status;
// 2128 
// 2129   if ( ( ZG_BUILD_COORDINATOR_TYPE ) && ( ZG_DEVICE_COORDINATOR_TYPE ) )
// 2130   {
// 2131     // try to join this device
// 2132     status = ZDSecMgrDeviceJoinDirect( joiner );
// 2133   }
// 2134   else
// 2135   {
// 2136     status = ZDSecMgrDeviceJoinFwd( joiner );
// 2137   }
// 2138 
// 2139   return status;
        ; Setup parameters for call to function ZDSecMgrDeviceJoinDirect
        LCALL   ??ZDSecMgrDeviceJoinDirect?relay
        SJMP    ??Subroutine91_0
        CFI EndBlock cfiBlock298
// 2140 }

        RSEG BANKED_CODE:CODE:NOROOT(0)
?Subroutine0:
        CFI Block cfiBlock299 Using cfiCommon0
        CFI NoFunction
        PUSH    DPL
        CFI CFA_SP SP+-4
        CFI DPL0 Frame(CFA_SP, 4)
        PUSH    DPH
        CFI CFA_SP SP+-5
        CFI DPH0 Frame(CFA_SP, 5)
        ; Saved register size: 2
        ; Auto size: 0
        ; Setup parameters for call to function APSME_SecurityNM
        ; Saved register size: 2
        ; Auto size: 0
        ; Setup parameters for call to function APSME_SecurityNM
        LCALL   ??APSME_SecurityNM?relay
        CFI EndBlock cfiBlock299
        REQUIRE ??Subroutine91_0
        ; // Fall through to label ??Subroutine91_0

        RSEG BANKED_CODE:CODE:NOROOT(0)
??Subroutine91_0:
        CFI Block cfiBlock300 Using cfiCommon0
        CFI NoFunction
        CFI CFA_SP SP+-5
        CFI DPL0 Frame(CFA_SP, 4)
        CFI DPH0 Frame(CFA_SP, 5)
        POP     DPH
        CFI CFA_SP SP+-4
        CFI DPH0 SameValue
        POP     DPL
        CFI CFA_SP SP+-3
        CFI DPL0 SameValue
        LJMP    ?BRET
        CFI EndBlock cfiBlock300
// 2141 
// 2142 /******************************************************************************
// 2143  * @fn          ZDSecMgrAssocDeviceAuth
// 2144  *
// 2145  * @brief       Set associated device status to authenticated
// 2146  *
// 2147  * @param       assoc - [in, out] associated_devices_t
// 2148  *
// 2149  * @return      none
// 2150  */

        RSEG BANKED_CODE:CODE:NOROOT(0)
// 2151 void ZDSecMgrAssocDeviceAuth( associated_devices_t* assoc )
ZDSecMgrAssocDeviceAuth:
        CFI Block cfiBlock301 Using cfiCommon0
        CFI Function ZDSecMgrAssocDeviceAuth
        CODE
// 2152 {
        PUSH    DPL
        CFI DPL0 Frame(CFA_SP, 4)
        CFI CFA_SP SP+-4
        PUSH    DPH
        CFI DPH0 Frame(CFA_SP, 5)
        CFI CFA_SP SP+-5
        ; Saved register size: 2
        ; Auto size: 0
// 2153   if ( assoc != NULL )
        MOV     A,R2
        ORL     A,R3
        JZ      ??ZDSecMgrAssocDeviceAuth_0
// 2154   {
// 2155     assoc->devStatus |= DEV_SEC_AUTH_STATUS;
        MOV     DPL,R2
        MOV     DPH,R3
        INC     DPTR
        INC     DPTR
        INC     DPTR
        INC     DPTR
        INC     DPTR
        MOVX    A,@DPTR
        SETB    0xE0 /* A   */.3
        MOVX    @DPTR,A
// 2156   }
// 2157 }
??ZDSecMgrAssocDeviceAuth_0:
        SJMP    ??Subroutine91_0
        CFI EndBlock cfiBlock301
// 2158 
// 2159 /******************************************************************************
// 2160  * @fn          ZDSecMgrAuthInitiate
// 2161  *
// 2162  * @brief       Initiate entity authentication
// 2163  *
// 2164  * @param       responder - [in] responder EXT address
// 2165  *
// 2166  * @return      none
// 2167  */

        RSEG BANKED_CODE:CODE:NOROOT(0)
// 2168 void ZDSecMgrAuthInitiate( uint8* responder )
ZDSecMgrAuthInitiate:
        CFI Block cfiBlock302 Using cfiCommon0
        CFI Function ZDSecMgrAuthInitiate
        CODE
// 2169 {
        FUNCALL ZDSecMgrAuthInitiate, APSME_LookupNwkAddr
        LOCFRAME ISTACK, 0, STACK
        LOCFRAME PSTACK, 0, STACK
        LOCFRAME XSTACK, 16, STACK
        LOCFRAME IOVERLAY, 0, STATIC
        LOCFRAME DOVERLAY, 0, STATIC
        ARGFRAME ISTACK, 0, STACK
        ARGFRAME PSTACK, 0, STACK
        ARGFRAME XSTACK, 16, STACK
        ARGFRAME IOVERLAY, 0, STATIC
        ARGFRAME DOVERLAY, 0, STATIC
        FUNCALL ZDSecMgrAuthInitiate, APSME_AuthenticateReq
        LOCFRAME ISTACK, 0, STACK
        LOCFRAME PSTACK, 0, STACK
        LOCFRAME XSTACK, 16, STACK
        LOCFRAME IOVERLAY, 0, STATIC
        LOCFRAME DOVERLAY, 0, STATIC
        ARGFRAME ISTACK, 0, STACK
        ARGFRAME PSTACK, 0, STACK
        ARGFRAME XSTACK, 16, STACK
        ARGFRAME IOVERLAY, 0, STATIC
        ARGFRAME DOVERLAY, 0, STATIC
        MOV     A,#-0x9
        LCALL   ?BANKED_ENTER_XDATA
        CFI DPH0 load(1, XDATA, add(CFA_XSP16, literal(-1)))
        CFI DPL0 load(1, XDATA, add(CFA_XSP16, literal(-2)))
        CFI ?BRET_EXT load(1, XDATA, add(CFA_XSP16, literal(-3)))
        CFI ?RET_HIGH load(1, XDATA, add(CFA_XSP16, literal(-4)))
        CFI ?RET_LOW load(1, XDATA, add(CFA_XSP16, literal(-5)))
        CFI R7 load(1, XDATA, add(CFA_XSP16, literal(-6)))
        CFI V0 load(1, XDATA, add(CFA_XSP16, literal(-7)))
        CFI VB load(1, XDATA, add(CFA_XSP16, literal(-8)))
        CFI R6 load(1, XDATA, add(CFA_XSP16, literal(-9)))
        CFI CFA_SP SP+0
        CFI CFA_XSP16 add(XSP16, 9)
        ; Saved register size: 9
        ; Auto size: 7
        MOV     A,#-0x7
        LCALL   ?ALLOC_XSTACK8
        CFI CFA_XSP16 add(XSP16, 16)
        MOV     A,R2
        MOV     R6,A
        MOV     A,R3
        MOV     R7,A
// 2170   APSME_AuthenticateReq_t req;
// 2171 
// 2172 
// 2173   // make sure NWK address is available
// 2174   if ( APSME_LookupNwkAddr( responder, &req.nwkAddr ) )
        ; Setup parameters for call to function APSME_LookupNwkAddr
        MOV     DPL,?XSP + 0
        MOV     DPH,?XSP + 1
        MOV     R4,DPL
        MOV     R5,DPH
        LCALL   ??APSME_LookupNwkAddr?relay
        MOV     A,R1
        JZ      ??ZDSecMgrAuthInitiate_0
// 2175   {
// 2176     // set request fields
// 2177     req.extAddr   = responder;
        MOV     A,#0x2
        LCALL   ?XSTACK_DISP0_8
        MOV     A,R6
        MOVX    @DPTR,A
        INC     DPTR
        MOV     A,R7
        MOVX    @DPTR,A
// 2178     req.action    = APSME_EA_INITIATE;
        MOV     A,#0x6
        LCALL   ?XSTACK_DISP0_8
        CLR     A
        MOVX    @DPTR,A
// 2179     req.challenge = NULL;
        MOV     A,#0x4
        LCALL   ?XSTACK_DISP0_8
        CLR     A
        MOVX    @DPTR,A
        INC     DPTR
        LCALL   ??Subroutine94_0 & 0xFFFF
// 2180 
// 2181     // start EA processing
// 2182     APSME_AuthenticateReq( &req );
// 2183   }
??CrossCallReturnLabel_189:
        LCALL   ??APSME_AuthenticateReq?relay
// 2184 }
??ZDSecMgrAuthInitiate_0:
        MOV     A,#0x7
        LJMP    ??Subroutine103_0 & 0xFFFF
        CFI EndBlock cfiBlock302
// 2185 
// 2186 /******************************************************************************
// 2187  * @fn          ZDSecMgrAuthNwkKey
// 2188  *
// 2189  * @brief       Handle next step in authentication process
// 2190  *
// 2191  * @param       none
// 2192  *
// 2193  * @return      none
// 2194  */

        RSEG BANKED_CODE:CODE:NOROOT(0)
// 2195 void ZDSecMgrAuthNwkKey()
ZDSecMgrAuthNwkKey:
        CFI Block cfiBlock303 Using cfiCommon0
        CFI Function ZDSecMgrAuthNwkKey
        CODE
// 2196 {
        FUNCALL ZDSecMgrAuthNwkKey, osal_set_event
        LOCFRAME ISTACK, 2, STACK
        LOCFRAME PSTACK, 0, STACK
        LOCFRAME XSTACK, 0, STACK
        LOCFRAME IOVERLAY, 0, STATIC
        LOCFRAME DOVERLAY, 0, STATIC
        ARGFRAME ISTACK, 2, STACK
        ARGFRAME PSTACK, 0, STACK
        ARGFRAME XSTACK, 0, STACK
        ARGFRAME IOVERLAY, 0, STATIC
        ARGFRAME DOVERLAY, 0, STATIC
        PUSH    DPL
        CFI DPL0 Frame(CFA_SP, 4)
        CFI CFA_SP SP+-4
        PUSH    DPH
        CFI DPH0 Frame(CFA_SP, 5)
        CFI CFA_SP SP+-5
        ; Saved register size: 2
        ; Auto size: 0
// 2197   if ( devState == DEV_END_DEVICE_UNAUTH )
        MOV     DPTR,#devState
        MOVX    A,@DPTR
        XRL     A,#0x5
        JNZ     ??ZDSecMgrAuthNwkKey_0
// 2198   {
// 2199     if ( ZG_CHECK_SECURITY_MODE == ZG_SECURITY_PRO_HIGH )
// 2200     {
// 2201       uint8 parent[Z_EXTADDR_LEN];
// 2202 
// 2203       // get parent's EXT address
// 2204       NLME_GetCoordExtAddr( parent );
// 2205 
// 2206       // begin entity authentication with parent
// 2207       ZDSecMgrAuthInitiate( parent );
// 2208     }
// 2209     else // ( ZG_CHECK_SECURITY_MODE == ZG_SECURITY_RESIDENTIAL )
// 2210     {
// 2211       // inform ZDO that device has been authenticated
// 2212       osal_set_event ( ZDAppTaskID, ZDO_DEVICE_AUTH );
        ; Setup parameters for call to function osal_set_event
        MOV     R2,#-0x80
        MOV     R3,#0x0
        MOV     DPTR,#ZDAppTaskID
        MOVX    A,@DPTR
        MOV     R1,A
        LCALL   ??osal_set_event?relay
// 2213     }
// 2214   }
// 2215 }
??ZDSecMgrAuthNwkKey_0:
        SJMP    ??Subroutine91_0
        CFI EndBlock cfiBlock303
// 2216 
// 2217 /******************************************************************************
// 2218  * PUBLIC FUNCTIONS
// 2219  */
// 2220 /******************************************************************************
// 2221  * @fn          ZDSecMgrInit
// 2222  *
// 2223  * @brief       Initialize ZigBee Device Security Manager.
// 2224  *
// 2225  * @param       none
// 2226  *
// 2227  * @return      none
// 2228  */
// 2229 #if ( ADDRMGR_CALLBACK_ENABLED == 1 )
// 2230 void ZDSecMgrAddrMgrCB( uint8 update, AddrMgrEntry_t* newEntry, AddrMgrEntry_t* oldEntry );
// 2231 void ZDSecMgrAddrMgrCB( uint8           update,
// 2232                         AddrMgrEntry_t* newEntry,
// 2233                         AddrMgrEntry_t* oldEntry )
// 2234 {
// 2235   (void)update;
// 2236   (void)newEntry;
// 2237   (void)oldEntry;
// 2238 }
// 2239 #endif // ( ADDRMGR_CALLBACK_ENABLED == 1 )
// 2240 

        RSEG BANKED_CODE:CODE:NOROOT(0)
// 2241 void ZDSecMgrInit( void )
ZDSecMgrInit:
        CFI Block cfiBlock304 Using cfiCommon0
        CFI Function ZDSecMgrInit
        CODE
        FUNCALL ZDSecMgrInit, APSME_SecurityNM
        LOCFRAME ISTACK, 2, STACK
        LOCFRAME PSTACK, 0, STACK
        LOCFRAME XSTACK, 0, STACK
        LOCFRAME IOVERLAY, 0, STATIC
        LOCFRAME DOVERLAY, 0, STATIC
        ARGFRAME ISTACK, 2, STACK
        ARGFRAME PSTACK, 0, STACK
        ARGFRAME XSTACK, 0, STACK
        ARGFRAME IOVERLAY, 0, STATIC
        ARGFRAME DOVERLAY, 0, STATIC
        LJMP    ?Subroutine0 & 0xFFFF
        CFI EndBlock cfiBlock304
// 2242 {
// 2243   if ( (ZG_CHECK_SECURITY_MODE == ZG_SECURITY_PRO_HIGH)
// 2244       || (ZG_CHECK_SECURITY_MODE == ZG_SECURITY_SE_STANDARD) )
// 2245   {
// 2246     // initialize sub modules
// 2247     ZDSecMgrMasterKeyInit();
// 2248     ZDSecMgrEntryInit();
// 2249 
// 2250     if ( ( ZG_BUILD_COORDINATOR_TYPE ) && ( ZG_DEVICE_COORDINATOR_TYPE ) )
// 2251     {
// 2252       ZDSecMgrCtrlInit();
// 2253     }
// 2254 
// 2255     // register with Address Manager
// 2256     #if ( ADDRMGR_CALLBACK_ENABLED == 1 )
// 2257     AddrMgrRegister( ADDRMGR_REG_SECURITY, ZDSecMgrAddrMgrCB );
// 2258     #endif
// 2259   }
// 2260 
// 2261   if ( ZG_CHECK_SECURITY_MODE == ZG_SECURITY_PRO_HIGH )
// 2262   {
// 2263     // configure SKA slot data
// 2264     APSME_SKA_SlotInit( ZDSECMGR_SKA_SLOT_MAX );
// 2265   }
// 2266   else if ( ZG_CHECK_SECURITY_MODE == ZG_SECURITY_SE_STANDARD )
// 2267   {
// 2268     // Setup the preconfig Trust Center Link Key
// 2269     TrustCenterLinkKey.key = zgPreConfigTCLinkKey;
// 2270     TrustCenterLinkKey.txFrmCntr = 0;
// 2271     TrustCenterLinkKey.rxFrmCntr = 0;
// 2272 #if defined ( NV_RESTORE )
// 2273     if ( osal_nv_item_init( ZCD_NV_SECURE_TCLINKKEY_TXFRAME, sizeof(uint32), &(TrustCenterLinkKey.txFrmCntr) ) == ZSUCCESS )
// 2274     {
// 2275       osal_nv_read( ZCD_NV_SECURE_TCLINKKEY_TXFRAME, 0, sizeof(uint32), &(TrustCenterLinkKey.txFrmCntr) );
// 2276     }
// 2277     if ( osal_nv_item_init( ZCD_NV_SECURE_TCLINKKEY_RXFRAME, sizeof(uint32), &(TrustCenterLinkKey.rxFrmCntr) ) == ZSUCCESS )
// 2278     {
// 2279       osal_nv_read( ZCD_NV_SECURE_TCLINKKEY_RXFRAME, 0, sizeof(uint32), &(TrustCenterLinkKey.rxFrmCntr) );
// 2280     }
// 2281 #endif
// 2282     APSME_TCLinkKeySetup( 0x0000, &TrustCenterLinkKey );
// 2283   }
// 2284 
// 2285   if ( ZG_SECURE_ENABLED )
// 2286   {
// 2287     if ( ( ZG_BUILD_COORDINATOR_TYPE ) && ( ZG_DEVICE_COORDINATOR_TYPE ) )
// 2288     {
// 2289       // setup joining permissions
// 2290       ZDSecMgrPermitJoiningEnabled = TRUE;
// 2291       ZDSecMgrPermitJoiningTimed   = FALSE;
// 2292     }
// 2293   }
// 2294 
// 2295   // configure security based on security mode and type of device
// 2296   ZDSecMgrConfig();
// 2297 }
// 2298 
// 2299 /******************************************************************************
// 2300  * @fn          ZDSecMgrConfig
// 2301  *
// 2302  * @brief       Configure ZigBee Device Security Manager.
// 2303  *
// 2304  * @param       none
// 2305  *
// 2306  * @return      none
// 2307  */

        RSEG BANKED_CODE:CODE:NOROOT(0)
// 2308 void ZDSecMgrConfig( void )
ZDSecMgrConfig:
        CFI Block cfiBlock305 Using cfiCommon0
        CFI Function ZDSecMgrConfig
        CODE
        FUNCALL ZDSecMgrConfig, APSME_SecurityNM
        LOCFRAME ISTACK, 2, STACK
        LOCFRAME PSTACK, 0, STACK
        LOCFRAME XSTACK, 0, STACK
        LOCFRAME IOVERLAY, 0, STATIC
        LOCFRAME DOVERLAY, 0, STATIC
        ARGFRAME ISTACK, 2, STACK
        ARGFRAME PSTACK, 0, STACK
        ARGFRAME XSTACK, 0, STACK
        ARGFRAME IOVERLAY, 0, STATIC
        ARGFRAME DOVERLAY, 0, STATIC
        LJMP    ?Subroutine0 & 0xFFFF
        CFI EndBlock cfiBlock305
// 2309 {
// 2310   if ( ZG_SECURE_ENABLED )
// 2311   {
// 2312     SSP_Init();
// 2313 
// 2314     if ( (ZG_CHECK_SECURITY_MODE == ZG_SECURITY_PRO_HIGH)
// 2315         || (ZG_CHECK_SECURITY_MODE == ZG_SECURITY_SE_STANDARD) )
// 2316     {
// 2317       if ( ( ZG_BUILD_COORDINATOR_TYPE ) && ( ZG_DEVICE_COORDINATOR_TYPE ) )
// 2318       {
// 2319         // COMMERCIAL MODE - COORDINATOR DEVICE
// 2320         APSME_SecurityCM_CD();
// 2321       }
// 2322       else if ( ZSTACK_ROUTER_BUILD )
// 2323       {
// 2324         // COMMERCIAL MODE - ROUTER DEVICE
// 2325         APSME_SecurityCM_RD();
// 2326       }
// 2327       else
// 2328       {
// 2329         // COMMERCIAL MODE - END DEVICE
// 2330         APSME_SecurityCM_ED();
// 2331       }
// 2332     }
// 2333     else // ( ZG_CHECK_SECURITY_MODE == ZG_SECURITY_RESIDENTIAL )
// 2334     {
// 2335       if ( ( ZG_BUILD_COORDINATOR_TYPE ) && ( ZG_DEVICE_COORDINATOR_TYPE ) )
// 2336       {
// 2337         // RESIDENTIAL MODE - COORDINATOR DEVICE
// 2338         APSME_SecurityRM_CD();
// 2339       }
// 2340       else if ( ZSTACK_ROUTER_BUILD )
// 2341       {
// 2342         // RESIDENTIAL MODE - ROUTER DEVICE
// 2343         APSME_SecurityRM_RD();
// 2344       }
// 2345       else
// 2346       {
// 2347         // RESIDENTIAL MODE - END DEVICE
// 2348         APSME_SecurityRM_ED();
// 2349       }
// 2350     }
// 2351   }
// 2352   else
// 2353   {
// 2354     // NO SECURITY
// 2355     APSME_SecurityNM();
// 2356   }
// 2357 }
// 2358 
// 2359 /******************************************************************************
// 2360  * @fn          ZDSecMgrPermitJoining
// 2361  *
// 2362  * @brief       Process request to change joining permissions.
// 2363  *
// 2364  * @param       duration - [in] timed duration for join in seconds
// 2365  *                         - 0x00 not allowed
// 2366  *                         - 0xFF allowed without timeout
// 2367  *
// 2368  * @return      uint8 - success(TRUE:FALSE)
// 2369  */

        RSEG BANKED_CODE:CODE:NOROOT(0)
// 2370 uint8 ZDSecMgrPermitJoining( uint8 duration )
ZDSecMgrPermitJoining:
        CFI Block cfiBlock306 Using cfiCommon0
        CFI Function ZDSecMgrPermitJoining
        CODE
// 2371 {
        PUSH    DPL
        CFI DPL0 Frame(CFA_SP, 4)
        CFI CFA_SP SP+-4
        PUSH    DPH
        CFI DPH0 Frame(CFA_SP, 5)
        CFI CFA_SP SP+-5
        ; Saved register size: 2
        ; Auto size: 0
        MOV     A,R1
        MOV     R0,A
// 2372   uint8 accept;
// 2373 
// 2374 
// 2375   ZDSecMgrPermitJoiningTimed = FALSE;
        MOV     DPTR,#ZDSecMgrPermitJoiningTimed
        CLR     A
        MOVX    @DPTR,A
// 2376 
// 2377   if ( duration > 0 )
        MOV     A,R0
        MOV     DPTR,#ZDSecMgrPermitJoiningEnabled
        JZ      ??ZDSecMgrPermitJoining_0
// 2378   {
// 2379     ZDSecMgrPermitJoiningEnabled = TRUE;
        MOV     A,#0x1
        MOVX    @DPTR,A
// 2380 
// 2381     if ( duration != 0xFF )
        MOV     A,#-0x1
        XRL     A,R0
        JZ      ??ZDSecMgrPermitJoining_1
// 2382     {
// 2383       ZDSecMgrPermitJoiningTimed = TRUE;
        MOV     DPTR,#ZDSecMgrPermitJoiningTimed
        MOV     A,#0x1
        SJMP    ??ZDSecMgrPermitJoining_2
// 2384     }
// 2385   }
// 2386   else
// 2387   {
// 2388     ZDSecMgrPermitJoiningEnabled = FALSE;
??ZDSecMgrPermitJoining_0:
        CLR     A
??ZDSecMgrPermitJoining_2:
        MOVX    @DPTR,A
// 2389   }
// 2390 
// 2391   accept = TRUE;
// 2392 
// 2393   return accept;
??ZDSecMgrPermitJoining_1:
        MOV     R1,#0x1
        LJMP    ??Subroutine91_0 & 0xFFFF
        CFI EndBlock cfiBlock306
// 2394 }
// 2395 
// 2396 /******************************************************************************
// 2397  * @fn          ZDSecMgrPermitJoiningTimeout
// 2398  *
// 2399  * @brief       Process permit joining timeout
// 2400  *
// 2401  * @param       none
// 2402  *
// 2403  * @return      none
// 2404  */

        RSEG BANKED_CODE:CODE:NOROOT(0)
// 2405 void ZDSecMgrPermitJoiningTimeout( void )
ZDSecMgrPermitJoiningTimeout:
        CFI Block cfiBlock307 Using cfiCommon0
        CFI Function ZDSecMgrPermitJoiningTimeout
        CODE
// 2406 {
        PUSH    DPL
        CFI DPL0 Frame(CFA_SP, 4)
        CFI CFA_SP SP+-4
        PUSH    DPH
        CFI DPH0 Frame(CFA_SP, 5)
        CFI CFA_SP SP+-5
        ; Saved register size: 2
        ; Auto size: 0
// 2407   if ( ZDSecMgrPermitJoiningTimed == TRUE )
        MOV     DPTR,#ZDSecMgrPermitJoiningTimed
        MOVX    A,@DPTR
        XRL     A,#0x1
        JNZ     ??ZDSecMgrPermitJoiningTimeout_0
// 2408   {
// 2409     ZDSecMgrPermitJoiningEnabled = FALSE;
        MOV     DPTR,#ZDSecMgrPermitJoiningEnabled
        CLR     A
        MOVX    @DPTR,A
// 2410     ZDSecMgrPermitJoiningTimed   = FALSE;
        MOV     DPTR,#ZDSecMgrPermitJoiningTimed
        MOVX    @DPTR,A
// 2411   }
// 2412 }
??ZDSecMgrPermitJoiningTimeout_0:
        LJMP    ??Subroutine91_0 & 0xFFFF
        CFI EndBlock cfiBlock307
// 2413 
// 2414 /******************************************************************************
// 2415  * @fn          ZDSecMgrNewDeviceEvent
// 2416  *
// 2417  * @brief       Process a the new device event, if found reset new device
// 2418  *              event/timer.
// 2419  *
// 2420  * @param       none
// 2421  *
// 2422  * @return      uint8 - found(TRUE:FALSE)
// 2423  */

        RSEG BANKED_CODE:CODE:NOROOT(0)
// 2424 uint8 ZDSecMgrNewDeviceEvent( void )
ZDSecMgrNewDeviceEvent:
        CFI Block cfiBlock308 Using cfiCommon0
        CFI Function ZDSecMgrNewDeviceEvent
        CODE
// 2425 {
        FUNCALL ZDSecMgrNewDeviceEvent, AssocMatchDeviceStatus
        LOCFRAME ISTACK, 0, STACK
        LOCFRAME PSTACK, 0, STACK
        LOCFRAME XSTACK, 35, STACK
        LOCFRAME IOVERLAY, 0, STATIC
        LOCFRAME DOVERLAY, 0, STATIC
        ARGFRAME ISTACK, 0, STACK
        ARGFRAME PSTACK, 0, STACK
        ARGFRAME XSTACK, 35, STACK
        ARGFRAME IOVERLAY, 0, STATIC
        ARGFRAME DOVERLAY, 0, STATIC
        FUNCALL ZDSecMgrNewDeviceEvent, ZDSecMgrAssocDeviceAuth
        LOCFRAME ISTACK, 0, STACK
        LOCFRAME PSTACK, 0, STACK
        LOCFRAME XSTACK, 35, STACK
        LOCFRAME IOVERLAY, 0, STATIC
        LOCFRAME DOVERLAY, 0, STATIC
        ARGFRAME ISTACK, 0, STACK
        ARGFRAME PSTACK, 0, STACK
        ARGFRAME XSTACK, 35, STACK
        ARGFRAME IOVERLAY, 0, STATIC
        ARGFRAME DOVERLAY, 0, STATIC
        FUNCALL ZDSecMgrNewDeviceEvent, AddrMgrEntryGet
        LOCFRAME ISTACK, 0, STACK
        LOCFRAME PSTACK, 0, STACK
        LOCFRAME XSTACK, 35, STACK
        LOCFRAME IOVERLAY, 0, STATIC
        LOCFRAME DOVERLAY, 0, STATIC
        ARGFRAME ISTACK, 0, STACK
        ARGFRAME PSTACK, 0, STACK
        ARGFRAME XSTACK, 35, STACK
        ARGFRAME IOVERLAY, 0, STATIC
        ARGFRAME DOVERLAY, 0, STATIC
        FUNCALL ZDSecMgrNewDeviceEvent, NLME_GetShortAddr
        LOCFRAME ISTACK, 0, STACK
        LOCFRAME PSTACK, 0, STACK
        LOCFRAME XSTACK, 35, STACK
        LOCFRAME IOVERLAY, 0, STATIC
        LOCFRAME DOVERLAY, 0, STATIC
        ARGFRAME ISTACK, 0, STACK
        ARGFRAME PSTACK, 0, STACK
        ARGFRAME XSTACK, 35, STACK
        ARGFRAME IOVERLAY, 0, STATIC
        ARGFRAME DOVERLAY, 0, STATIC
        FUNCALL ZDSecMgrNewDeviceEvent, ZDSecMgrDeviceNew
        LOCFRAME ISTACK, 0, STACK
        LOCFRAME PSTACK, 0, STACK
        LOCFRAME XSTACK, 35, STACK
        LOCFRAME IOVERLAY, 0, STATIC
        LOCFRAME DOVERLAY, 0, STATIC
        ARGFRAME ISTACK, 0, STACK
        ARGFRAME PSTACK, 0, STACK
        ARGFRAME XSTACK, 35, STACK
        ARGFRAME IOVERLAY, 0, STATIC
        ARGFRAME DOVERLAY, 0, STATIC
        FUNCALL ZDSecMgrNewDeviceEvent, AssocRemove
        LOCFRAME ISTACK, 0, STACK
        LOCFRAME PSTACK, 0, STACK
        LOCFRAME XSTACK, 35, STACK
        LOCFRAME IOVERLAY, 0, STATIC
        LOCFRAME DOVERLAY, 0, STATIC
        ARGFRAME ISTACK, 0, STACK
        ARGFRAME PSTACK, 0, STACK
        ARGFRAME XSTACK, 35, STACK
        ARGFRAME IOVERLAY, 0, STATIC
        ARGFRAME DOVERLAY, 0, STATIC
        MOV     A,#-0xc
        LCALL   ?BANKED_ENTER_XDATA
        CFI DPH0 load(1, XDATA, add(CFA_XSP16, literal(-1)))
        CFI DPL0 load(1, XDATA, add(CFA_XSP16, literal(-2)))
        CFI ?BRET_EXT load(1, XDATA, add(CFA_XSP16, literal(-3)))
        CFI ?RET_HIGH load(1, XDATA, add(CFA_XSP16, literal(-4)))
        CFI ?RET_LOW load(1, XDATA, add(CFA_XSP16, literal(-5)))
        CFI R7 load(1, XDATA, add(CFA_XSP16, literal(-6)))
        CFI V3 load(1, XDATA, add(CFA_XSP16, literal(-7)))
        CFI V2 load(1, XDATA, add(CFA_XSP16, literal(-8)))
        CFI V1 load(1, XDATA, add(CFA_XSP16, literal(-9)))
        CFI V0 load(1, XDATA, add(CFA_XSP16, literal(-10)))
        CFI VB load(1, XDATA, add(CFA_XSP16, literal(-11)))
        CFI R6 load(1, XDATA, add(CFA_XSP16, literal(-12)))
        CFI CFA_SP SP+0
        CFI CFA_XSP16 add(XSP16, 12)
        ; Saved register size: 12
        ; Auto size: 23
        MOV     A,#-0x17
        LCALL   ?ALLOC_XSTACK8
        CFI CFA_XSP16 add(XSP16, 35)
// 2426   uint8                 found;
// 2427   ZDSecMgrDevice_t      device;
// 2428   AddrMgrEntry_t        addrEntry;
// 2429   associated_devices_t* assoc;
// 2430   ZStatus_t             status;
// 2431 
// 2432   // initialize return results
// 2433   found = FALSE;
        MOV     ?V0 + 0,#0x0
// 2434 
// 2435   // look for device in the security init state
// 2436   assoc = AssocMatchDeviceStatus( DEV_SEC_INIT_STATUS );
        ; Setup parameters for call to function AssocMatchDeviceStatus
        MOV     R1,#0x4
        LCALL   ??AssocMatchDeviceStatus?relay
        MOV     ?V0 + 2,R2
        MOV     ?V0 + 3,R3
        MOV     R6,?V0 + 2
        MOV     R7,?V0 + 3
// 2437 
// 2438   if ( assoc != NULL )
        MOV     A,R6
        ORL     A,R7
        JNZ     $+5
        LJMP    ??ZDSecMgrNewDeviceEvent_0 & 0xFFFF
// 2439   {
// 2440     // device found
// 2441     found = TRUE;
        MOV     ?V0 + 0,#0x1
// 2442 
// 2443     // check for preconfigured security
// 2444     if ( zgPreConfigKeys == TRUE )
        MOV     DPTR,#zgPreConfigKeys
        MOVX    A,@DPTR
        XRL     A,#0x1
        JNZ     ??ZDSecMgrNewDeviceEvent_1
// 2445     {
// 2446       // set association status to authenticated
// 2447       ZDSecMgrAssocDeviceAuth( assoc );
        ; Setup parameters for call to function ZDSecMgrAssocDeviceAuth
        LCALL   ??ZDSecMgrAssocDeviceAuth?relay
// 2448     }
// 2449 
// 2450     // set up device info
// 2451     addrEntry.user  = ADDRMGR_USER_DEFAULT;
??ZDSecMgrNewDeviceEvent_1:
        MOV     A,#0xa
        LCALL   ?XSTACK_DISP0_8
        CLR     A
        MOVX    @DPTR,A
// 2452     addrEntry.index = assoc->addrIdx;
        MOV     DPL,R6
        MOV     DPH,R7
        LCALL   ??Subroutine105_0 & 0xFFFF
??CrossCallReturnLabel_240:
        MOV     A,#0x15
        LCALL   ?XSTACK_DISP0_8
        LCALL   ??Subroutine98_0 & 0xFFFF
// 2453     AddrMgrEntryGet( &addrEntry );
??CrossCallReturnLabel_218:
        LCALL   ?XSTACK_DISP0_8
        MOV     R2,DPL
        MOV     R3,DPH
        LCALL   ??AddrMgrEntryGet?relay
// 2454 
// 2455     device.nwkAddr    = assoc->shortAddr;
        MOV     DPL,R6
        MOV     DPH,R7
        LCALL   ?Subroutine30 & 0xFFFF
// 2456     device.extAddr    = addrEntry.extAddr;
??CrossCallReturnLabel_180:
        MOV     A,#0xd
        LCALL   ?XSTACK_DISP0_8
        MOV     R0,DPL
        MOV     R1,DPH
        MOV     A,#0x2
        LCALL   ?XSTACK_DISP0_8
        LCALL   ??Subroutine93_0 & 0xFFFF
// 2457     device.parentAddr = NLME_GetShortAddr();
??CrossCallReturnLabel_174:
        ; Setup parameters for call to function NLME_GetShortAddr
        LCALL   ??NLME_GetShortAddr?relay
        MOV     A,#0x4
        LCALL   ?XSTACK_DISP0_8
        LCALL   ??Subroutine86_0 & 0xFFFF
// 2458     device.secure     = FALSE;
??CrossCallReturnLabel_132:
        MOV     A,#0x6
        LCALL   ?XSTACK_DISP0_8
        CLR     A
        MOVX    @DPTR,A
// 2459     device.devStatus  = assoc->devStatus;
        MOV     A,R6
        ADD     A,#0x5
        MOV     R6,A
        MOV     A,R7
        ADDC    A,#0x0
        MOV     R7,A
        MOV     DPL,R6
        MOV     DPH,R7
        MOVX    A,@DPTR
        PUSH    A
        CFI CFA_SP SP+-1
        MOV     A,#0x7
        LCALL   ?XSTACK_DISP0_8
        POP     A
        CFI CFA_SP SP+0
        LCALL   ??Subroutine94_0 & 0xFFFF
// 2460 
// 2461     // process new device
// 2462     status = ZDSecMgrDeviceNew( &device );
??CrossCallReturnLabel_190:
        LCALL   ??ZDSecMgrDeviceNew?relay
        MOV     A,R1
        MOV     R0,A
// 2463 
// 2464     if ( status == ZSuccess )
        JNZ     ??ZDSecMgrNewDeviceEvent_2
// 2465     {
// 2466       assoc->devStatus &= ~DEV_SEC_INIT_STATUS;
        MOV     DPL,R6
        MOV     DPH,R7
        MOVX    A,@DPTR
        CLR     0xE0 /* A   */.2
        MOVX    @DPTR,A
        SJMP    ??ZDSecMgrNewDeviceEvent_0
// 2467     }
// 2468     else if ( status == ZNwkUnknownDevice )
??ZDSecMgrNewDeviceEvent_2:
        MOV     A,#-0x38
        XRL     A,R0
        JNZ     ??ZDSecMgrNewDeviceEvent_0
// 2469     {
// 2470       AssocRemove( addrEntry.extAddr );
        ; Setup parameters for call to function AssocRemove
        MOV     A,#0xd
        LCALL   ?XSTACK_DISP0_8
        MOV     R2,DPL
        MOV     R3,DPH
        LCALL   ??AssocRemove?relay
// 2471     }
// 2472   }
// 2473 
// 2474   return found;
??ZDSecMgrNewDeviceEvent_0:
        MOV     R1,?V0 + 0
        MOV     A,#0x17
        LJMP    ??Subroutine108_0 & 0xFFFF
        CFI EndBlock cfiBlock308
// 2475 }

        RSEG BANKED_CODE:CODE:NOROOT(0)
?Subroutine30:
        CFI Block cfiCond309 Using cfiCommon0
        CFI NoFunction
        CFI Conditional ??CrossCallReturnLabel_180
        CFI R6 load(1, XDATA, add(CFA_XSP16, literal(-12)))
        CFI VB load(1, XDATA, add(CFA_XSP16, literal(-11)))
        CFI V0 load(1, XDATA, add(CFA_XSP16, literal(-10)))
        CFI V1 load(1, XDATA, add(CFA_XSP16, literal(-9)))
        CFI V2 load(1, XDATA, add(CFA_XSP16, literal(-8)))
        CFI V3 load(1, XDATA, add(CFA_XSP16, literal(-7)))
        CFI R7 load(1, XDATA, add(CFA_XSP16, literal(-6)))
        CFI ?RET_LOW load(1, XDATA, add(CFA_XSP16, literal(-5)))
        CFI ?RET_HIGH load(1, XDATA, add(CFA_XSP16, literal(-4)))
        CFI ?BRET_EXT load(1, XDATA, add(CFA_XSP16, literal(-3)))
        CFI DPL0 load(1, XDATA, add(CFA_XSP16, literal(-2)))
        CFI DPH0 load(1, XDATA, add(CFA_XSP16, literal(-1)))
        CFI CFA_SP SP+0
        CFI CFA_XSP16 add(XSP16, 35)
        CFI Block cfiCond310 Using cfiCommon0
        CFI (cfiCond310) NoFunction
        CFI (cfiCond310) Conditional ??CrossCallReturnLabel_181
        CFI (cfiCond310) R6 load(1, XDATA, add(CFA_XSP16, literal(-10)))
        CFI (cfiCond310) VB load(1, XDATA, add(CFA_XSP16, literal(-9)))
        CFI (cfiCond310) V0 load(1, XDATA, add(CFA_XSP16, literal(-8)))
        CFI (cfiCond310) V1 load(1, XDATA, add(CFA_XSP16, literal(-7)))
        CFI (cfiCond310) R7 load(1, XDATA, add(CFA_XSP16, literal(-6)))
        CFI (cfiCond310) ?RET_LOW load(1, XDATA, add(CFA_XSP16, literal(-5)))
        CFI (cfiCond310) ?RET_HIGH load(1, XDATA, add(CFA_XSP16, literal(-4)))
        CFI (cfiCond310) ?BRET_EXT load(1, XDATA, add(CFA_XSP16, literal(-3)))
        CFI (cfiCond310) DPL0 load(1, XDATA, add(CFA_XSP16, literal(-2)))
        CFI (cfiCond310) DPH0 load(1, XDATA, add(CFA_XSP16, literal(-1)))
        CFI (cfiCond310) CFA_SP SP+0
        CFI (cfiCond310) CFA_XSP16 add(XSP16, 33)
        CFI Block cfiCond311 Using cfiCommon0
        CFI (cfiCond311) NoFunction
        CFI (cfiCond311) Conditional ??CrossCallReturnLabel_182
        CFI (cfiCond311) DPL0 Frame(CFA_SP, 4)
        CFI (cfiCond311) DPH0 Frame(CFA_SP, 5)
        CFI (cfiCond311) CFA_SP SP+-5
        CFI (cfiCond311) CFA_XSP16 add(XSP16, 10)
        CFI Block cfiPicker312 Using cfiCommon1
        CFI (cfiPicker312) NoFunction
        CFI (cfiPicker312) Picker
        LCALL   ??Subroutine107_0 & 0xFFFF
        CFI EndBlock cfiCond309
        CFI EndBlock cfiCond310
        CFI EndBlock cfiCond311
        CFI EndBlock cfiPicker312
??CrossCallReturnLabel_242:
        REQUIRE ??Subroutine92_0
        ; // Fall through to label ??Subroutine92_0

        RSEG BANKED_CODE:CODE:NOROOT(0)
??Subroutine92_0:
        CFI Block cfiCond313 Using cfiCommon0
        CFI NoFunction
        CFI Conditional ??CrossCallReturnLabel_179
        CFI R6 load(1, XDATA, add(CFA_XSP16, literal(-12)))
        CFI VB load(1, XDATA, add(CFA_XSP16, literal(-11)))
        CFI V0 load(1, XDATA, add(CFA_XSP16, literal(-10)))
        CFI V1 load(1, XDATA, add(CFA_XSP16, literal(-9)))
        CFI V2 load(1, XDATA, add(CFA_XSP16, literal(-8)))
        CFI V3 load(1, XDATA, add(CFA_XSP16, literal(-7)))
        CFI R7 load(1, XDATA, add(CFA_XSP16, literal(-6)))
        CFI ?RET_LOW load(1, XDATA, add(CFA_XSP16, literal(-5)))
        CFI ?RET_HIGH load(1, XDATA, add(CFA_XSP16, literal(-4)))
        CFI ?BRET_EXT load(1, XDATA, add(CFA_XSP16, literal(-3)))
        CFI DPL0 load(1, XDATA, add(CFA_XSP16, literal(-2)))
        CFI DPH0 load(1, XDATA, add(CFA_XSP16, literal(-1)))
        CFI CFA_SP SP+0
        CFI CFA_XSP16 add(XSP16, 29)
        CFI Block cfiCond314 Using cfiCommon0
        CFI (cfiCond314) NoFunction
        CFI (cfiCond314) Conditional ??CrossCallReturnLabel_180
        CFI (cfiCond314) R6 load(1, XDATA, add(CFA_XSP16, literal(-12)))
        CFI (cfiCond314) VB load(1, XDATA, add(CFA_XSP16, literal(-11)))
        CFI (cfiCond314) V0 load(1, XDATA, add(CFA_XSP16, literal(-10)))
        CFI (cfiCond314) V1 load(1, XDATA, add(CFA_XSP16, literal(-9)))
        CFI (cfiCond314) V2 load(1, XDATA, add(CFA_XSP16, literal(-8)))
        CFI (cfiCond314) V3 load(1, XDATA, add(CFA_XSP16, literal(-7)))
        CFI (cfiCond314) R7 load(1, XDATA, add(CFA_XSP16, literal(-6)))
        CFI (cfiCond314) ?RET_LOW load(1, XDATA, add(CFA_XSP16, literal(-5)))
        CFI (cfiCond314) ?RET_HIGH load(1, XDATA, add(CFA_XSP16, literal(-4)))
        CFI (cfiCond314) ?BRET_EXT load(1, XDATA, add(CFA_XSP16, literal(-3)))
        CFI (cfiCond314) DPL0 load(1, XDATA, add(CFA_XSP16, literal(-2)))
        CFI (cfiCond314) DPH0 load(1, XDATA, add(CFA_XSP16, literal(-1)))
        CFI (cfiCond314) CFA_SP SP+0
        CFI (cfiCond314) CFA_XSP16 add(XSP16, 35)
        CFI Block cfiCond315 Using cfiCommon0
        CFI (cfiCond315) NoFunction
        CFI (cfiCond315) Conditional ??CrossCallReturnLabel_181
        CFI (cfiCond315) R6 load(1, XDATA, add(CFA_XSP16, literal(-10)))
        CFI (cfiCond315) VB load(1, XDATA, add(CFA_XSP16, literal(-9)))
        CFI (cfiCond315) V0 load(1, XDATA, add(CFA_XSP16, literal(-8)))
        CFI (cfiCond315) V1 load(1, XDATA, add(CFA_XSP16, literal(-7)))
        CFI (cfiCond315) R7 load(1, XDATA, add(CFA_XSP16, literal(-6)))
        CFI (cfiCond315) ?RET_LOW load(1, XDATA, add(CFA_XSP16, literal(-5)))
        CFI (cfiCond315) ?RET_HIGH load(1, XDATA, add(CFA_XSP16, literal(-4)))
        CFI (cfiCond315) ?BRET_EXT load(1, XDATA, add(CFA_XSP16, literal(-3)))
        CFI (cfiCond315) DPL0 load(1, XDATA, add(CFA_XSP16, literal(-2)))
        CFI (cfiCond315) DPH0 load(1, XDATA, add(CFA_XSP16, literal(-1)))
        CFI (cfiCond315) CFA_SP SP+0
        CFI (cfiCond315) CFA_XSP16 add(XSP16, 33)
        CFI Block cfiCond316 Using cfiCommon0
        CFI (cfiCond316) NoFunction
        CFI (cfiCond316) Conditional ??CrossCallReturnLabel_182
        CFI (cfiCond316) DPL0 Frame(CFA_SP, 4)
        CFI (cfiCond316) DPH0 Frame(CFA_SP, 5)
        CFI (cfiCond316) CFA_SP SP+-5
        CFI (cfiCond316) CFA_XSP16 add(XSP16, 10)
        CFI Block cfiPicker317 Using cfiCommon1
        CFI (cfiPicker317) NoFunction
        CFI (cfiPicker317) Picker
        MOV     DPL,?XSP + 0
        MOV     DPH,?XSP + 1
        CFI EndBlock cfiCond313
        CFI EndBlock cfiCond314
        CFI EndBlock cfiCond315
        CFI EndBlock cfiCond316
        CFI EndBlock cfiPicker317
        REQUIRE ??Subroutine93_0
        ; // Fall through to label ??Subroutine93_0

        RSEG BANKED_CODE:CODE:NOROOT(0)
??Subroutine93_0:
        CFI Block cfiCond318 Using cfiCommon0
        CFI NoFunction
        CFI Conditional ??CrossCallReturnLabel_166
        CFI R6 load(1, XDATA, add(CFA_XSP16, literal(-10)))
        CFI VB load(1, XDATA, add(CFA_XSP16, literal(-9)))
        CFI V0 load(1, XDATA, add(CFA_XSP16, literal(-8)))
        CFI V1 load(1, XDATA, add(CFA_XSP16, literal(-7)))
        CFI R7 load(1, XDATA, add(CFA_XSP16, literal(-6)))
        CFI ?RET_LOW load(1, XDATA, add(CFA_XSP16, literal(-5)))
        CFI ?RET_HIGH load(1, XDATA, add(CFA_XSP16, literal(-4)))
        CFI ?BRET_EXT load(1, XDATA, add(CFA_XSP16, literal(-3)))
        CFI DPL0 load(1, XDATA, add(CFA_XSP16, literal(-2)))
        CFI DPH0 load(1, XDATA, add(CFA_XSP16, literal(-1)))
        CFI CFA_SP SP+0
        CFI CFA_XSP16 add(XSP16, 10)
        CFI Block cfiCond319 Using cfiCommon0
        CFI (cfiCond319) NoFunction
        CFI (cfiCond319) Conditional ??CrossCallReturnLabel_167
        CFI (cfiCond319) R6 load(1, XDATA, add(CFA_XSP16, literal(-9)))
        CFI (cfiCond319) VB load(1, XDATA, add(CFA_XSP16, literal(-8)))
        CFI (cfiCond319) V0 load(1, XDATA, add(CFA_XSP16, literal(-7)))
        CFI (cfiCond319) R7 load(1, XDATA, add(CFA_XSP16, literal(-6)))
        CFI (cfiCond319) ?RET_LOW load(1, XDATA, add(CFA_XSP16, literal(-5)))
        CFI (cfiCond319) ?RET_HIGH load(1, XDATA, add(CFA_XSP16, literal(-4)))
        CFI (cfiCond319) ?BRET_EXT load(1, XDATA, add(CFA_XSP16, literal(-3)))
        CFI (cfiCond319) DPL0 load(1, XDATA, add(CFA_XSP16, literal(-2)))
        CFI (cfiCond319) DPH0 load(1, XDATA, add(CFA_XSP16, literal(-1)))
        CFI (cfiCond319) CFA_SP SP+0
        CFI (cfiCond319) CFA_XSP16 add(XSP16, 9)
        CFI Block cfiCond320 Using cfiCommon0
        CFI (cfiCond320) NoFunction
        CFI (cfiCond320) Conditional ??CrossCallReturnLabel_168
        CFI (cfiCond320) R6 load(1, XDATA, add(CFA_XSP16, literal(-10)))
        CFI (cfiCond320) VB load(1, XDATA, add(CFA_XSP16, literal(-9)))
        CFI (cfiCond320) V0 load(1, XDATA, add(CFA_XSP16, literal(-8)))
        CFI (cfiCond320) V1 load(1, XDATA, add(CFA_XSP16, literal(-7)))
        CFI (cfiCond320) R7 load(1, XDATA, add(CFA_XSP16, literal(-6)))
        CFI (cfiCond320) ?RET_LOW load(1, XDATA, add(CFA_XSP16, literal(-5)))
        CFI (cfiCond320) ?RET_HIGH load(1, XDATA, add(CFA_XSP16, literal(-4)))
        CFI (cfiCond320) ?BRET_EXT load(1, XDATA, add(CFA_XSP16, literal(-3)))
        CFI (cfiCond320) DPL0 load(1, XDATA, add(CFA_XSP16, literal(-2)))
        CFI (cfiCond320) DPH0 load(1, XDATA, add(CFA_XSP16, literal(-1)))
        CFI (cfiCond320) CFA_SP SP+0
        CFI (cfiCond320) CFA_XSP16 add(XSP16, 49)
        CFI Block cfiCond321 Using cfiCommon0
        CFI (cfiCond321) NoFunction
        CFI (cfiCond321) Conditional ??CrossCallReturnLabel_169
        CFI (cfiCond321) R6 load(1, XDATA, add(CFA_XSP16, literal(-10)))
        CFI (cfiCond321) VB load(1, XDATA, add(CFA_XSP16, literal(-9)))
        CFI (cfiCond321) V0 load(1, XDATA, add(CFA_XSP16, literal(-8)))
        CFI (cfiCond321) V1 load(1, XDATA, add(CFA_XSP16, literal(-7)))
        CFI (cfiCond321) R7 load(1, XDATA, add(CFA_XSP16, literal(-6)))
        CFI (cfiCond321) ?RET_LOW load(1, XDATA, add(CFA_XSP16, literal(-5)))
        CFI (cfiCond321) ?RET_HIGH load(1, XDATA, add(CFA_XSP16, literal(-4)))
        CFI (cfiCond321) ?BRET_EXT load(1, XDATA, add(CFA_XSP16, literal(-3)))
        CFI (cfiCond321) DPL0 load(1, XDATA, add(CFA_XSP16, literal(-2)))
        CFI (cfiCond321) DPH0 load(1, XDATA, add(CFA_XSP16, literal(-1)))
        CFI (cfiCond321) CFA_SP SP+0
        CFI (cfiCond321) CFA_XSP16 add(XSP16, 49)
        CFI Block cfiCond322 Using cfiCommon0
        CFI (cfiCond322) NoFunction
        CFI (cfiCond322) Conditional ??CrossCallReturnLabel_170
        CFI (cfiCond322) R6 load(1, XDATA, add(CFA_XSP16, literal(-10)))
        CFI (cfiCond322) VB load(1, XDATA, add(CFA_XSP16, literal(-9)))
        CFI (cfiCond322) V0 load(1, XDATA, add(CFA_XSP16, literal(-8)))
        CFI (cfiCond322) V1 load(1, XDATA, add(CFA_XSP16, literal(-7)))
        CFI (cfiCond322) R7 load(1, XDATA, add(CFA_XSP16, literal(-6)))
        CFI (cfiCond322) ?RET_LOW load(1, XDATA, add(CFA_XSP16, literal(-5)))
        CFI (cfiCond322) ?RET_HIGH load(1, XDATA, add(CFA_XSP16, literal(-4)))
        CFI (cfiCond322) ?BRET_EXT load(1, XDATA, add(CFA_XSP16, literal(-3)))
        CFI (cfiCond322) DPL0 load(1, XDATA, add(CFA_XSP16, literal(-2)))
        CFI (cfiCond322) DPH0 load(1, XDATA, add(CFA_XSP16, literal(-1)))
        CFI (cfiCond322) CFA_SP SP+0
        CFI (cfiCond322) CFA_XSP16 add(XSP16, 49)
        CFI Block cfiCond323 Using cfiCommon0
        CFI (cfiCond323) NoFunction
        CFI (cfiCond323) Conditional ??CrossCallReturnLabel_171
        CFI (cfiCond323) R6 load(1, XDATA, add(CFA_XSP16, literal(-10)))
        CFI (cfiCond323) VB load(1, XDATA, add(CFA_XSP16, literal(-9)))
        CFI (cfiCond323) V0 load(1, XDATA, add(CFA_XSP16, literal(-8)))
        CFI (cfiCond323) V1 load(1, XDATA, add(CFA_XSP16, literal(-7)))
        CFI (cfiCond323) R7 load(1, XDATA, add(CFA_XSP16, literal(-6)))
        CFI (cfiCond323) ?RET_LOW load(1, XDATA, add(CFA_XSP16, literal(-5)))
        CFI (cfiCond323) ?RET_HIGH load(1, XDATA, add(CFA_XSP16, literal(-4)))
        CFI (cfiCond323) ?BRET_EXT load(1, XDATA, add(CFA_XSP16, literal(-3)))
        CFI (cfiCond323) DPL0 load(1, XDATA, add(CFA_XSP16, literal(-2)))
        CFI (cfiCond323) DPH0 load(1, XDATA, add(CFA_XSP16, literal(-1)))
        CFI (cfiCond323) CFA_SP SP+0
        CFI (cfiCond323) CFA_XSP16 add(XSP16, 17)
        CFI Block cfiCond324 Using cfiCommon0
        CFI (cfiCond324) NoFunction
        CFI (cfiCond324) Conditional ??CrossCallReturnLabel_172
        CFI (cfiCond324) R6 load(1, XDATA, add(CFA_XSP16, literal(-10)))
        CFI (cfiCond324) VB load(1, XDATA, add(CFA_XSP16, literal(-9)))
        CFI (cfiCond324) V0 load(1, XDATA, add(CFA_XSP16, literal(-8)))
        CFI (cfiCond324) V1 load(1, XDATA, add(CFA_XSP16, literal(-7)))
        CFI (cfiCond324) R7 load(1, XDATA, add(CFA_XSP16, literal(-6)))
        CFI (cfiCond324) ?RET_LOW load(1, XDATA, add(CFA_XSP16, literal(-5)))
        CFI (cfiCond324) ?RET_HIGH load(1, XDATA, add(CFA_XSP16, literal(-4)))
        CFI (cfiCond324) ?BRET_EXT load(1, XDATA, add(CFA_XSP16, literal(-3)))
        CFI (cfiCond324) DPL0 load(1, XDATA, add(CFA_XSP16, literal(-2)))
        CFI (cfiCond324) DPH0 load(1, XDATA, add(CFA_XSP16, literal(-1)))
        CFI (cfiCond324) CFA_SP SP+0
        CFI (cfiCond324) CFA_XSP16 add(XSP16, 23)
        CFI Block cfiCond325 Using cfiCommon0
        CFI (cfiCond325) NoFunction
        CFI (cfiCond325) Conditional ??CrossCallReturnLabel_173
        CFI (cfiCond325) DPL0 Frame(CFA_SP, 4)
        CFI (cfiCond325) DPH0 Frame(CFA_SP, 5)
        CFI (cfiCond325) CFA_SP SP+-5
        CFI (cfiCond325) CFA_XSP16 add(XSP16, 8)
        CFI Block cfiCond326 Using cfiCommon0
        CFI (cfiCond326) NoFunction
        CFI (cfiCond326) Conditional ??CrossCallReturnLabel_174
        CFI (cfiCond326) R6 load(1, XDATA, add(CFA_XSP16, literal(-12)))
        CFI (cfiCond326) VB load(1, XDATA, add(CFA_XSP16, literal(-11)))
        CFI (cfiCond326) V0 load(1, XDATA, add(CFA_XSP16, literal(-10)))
        CFI (cfiCond326) V1 load(1, XDATA, add(CFA_XSP16, literal(-9)))
        CFI (cfiCond326) V2 load(1, XDATA, add(CFA_XSP16, literal(-8)))
        CFI (cfiCond326) V3 load(1, XDATA, add(CFA_XSP16, literal(-7)))
        CFI (cfiCond326) R7 load(1, XDATA, add(CFA_XSP16, literal(-6)))
        CFI (cfiCond326) ?RET_LOW load(1, XDATA, add(CFA_XSP16, literal(-5)))
        CFI (cfiCond326) ?RET_HIGH load(1, XDATA, add(CFA_XSP16, literal(-4)))
        CFI (cfiCond326) ?BRET_EXT load(1, XDATA, add(CFA_XSP16, literal(-3)))
        CFI (cfiCond326) DPL0 load(1, XDATA, add(CFA_XSP16, literal(-2)))
        CFI (cfiCond326) DPH0 load(1, XDATA, add(CFA_XSP16, literal(-1)))
        CFI (cfiCond326) CFA_SP SP+0
        CFI (cfiCond326) CFA_XSP16 add(XSP16, 35)
        CFI Block cfiCond327 Using cfiCommon0
        CFI (cfiCond327) NoFunction
        CFI (cfiCond327) Conditional ??CrossCallReturnLabel_175
        CFI (cfiCond327) R6 load(1, XDATA, add(CFA_XSP16, literal(-12)))
        CFI (cfiCond327) VB load(1, XDATA, add(CFA_XSP16, literal(-11)))
        CFI (cfiCond327) V0 load(1, XDATA, add(CFA_XSP16, literal(-10)))
        CFI (cfiCond327) V1 load(1, XDATA, add(CFA_XSP16, literal(-9)))
        CFI (cfiCond327) V2 load(1, XDATA, add(CFA_XSP16, literal(-8)))
        CFI (cfiCond327) V3 load(1, XDATA, add(CFA_XSP16, literal(-7)))
        CFI (cfiCond327) R7 load(1, XDATA, add(CFA_XSP16, literal(-6)))
        CFI (cfiCond327) ?RET_LOW load(1, XDATA, add(CFA_XSP16, literal(-5)))
        CFI (cfiCond327) ?RET_HIGH load(1, XDATA, add(CFA_XSP16, literal(-4)))
        CFI (cfiCond327) ?BRET_EXT load(1, XDATA, add(CFA_XSP16, literal(-3)))
        CFI (cfiCond327) DPL0 load(1, XDATA, add(CFA_XSP16, literal(-2)))
        CFI (cfiCond327) DPH0 load(1, XDATA, add(CFA_XSP16, literal(-1)))
        CFI (cfiCond327) CFA_SP SP+0
        CFI (cfiCond327) CFA_XSP16 add(XSP16, 29)
        CFI Block cfiCond328 Using cfiCommon0
        CFI (cfiCond328) NoFunction
        CFI (cfiCond328) Conditional ??CrossCallReturnLabel_176
        CFI (cfiCond328) R6 load(1, XDATA, add(CFA_XSP16, literal(-12)))
        CFI (cfiCond328) VB load(1, XDATA, add(CFA_XSP16, literal(-11)))
        CFI (cfiCond328) V0 load(1, XDATA, add(CFA_XSP16, literal(-10)))
        CFI (cfiCond328) V1 load(1, XDATA, add(CFA_XSP16, literal(-9)))
        CFI (cfiCond328) V2 load(1, XDATA, add(CFA_XSP16, literal(-8)))
        CFI (cfiCond328) V3 load(1, XDATA, add(CFA_XSP16, literal(-7)))
        CFI (cfiCond328) R7 load(1, XDATA, add(CFA_XSP16, literal(-6)))
        CFI (cfiCond328) ?RET_LOW load(1, XDATA, add(CFA_XSP16, literal(-5)))
        CFI (cfiCond328) ?RET_HIGH load(1, XDATA, add(CFA_XSP16, literal(-4)))
        CFI (cfiCond328) ?BRET_EXT load(1, XDATA, add(CFA_XSP16, literal(-3)))
        CFI (cfiCond328) DPL0 load(1, XDATA, add(CFA_XSP16, literal(-2)))
        CFI (cfiCond328) DPH0 load(1, XDATA, add(CFA_XSP16, literal(-1)))
        CFI (cfiCond328) CFA_SP SP+0
        CFI (cfiCond328) CFA_XSP16 add(XSP16, 29)
        CFI Block cfiCond329 Using cfiCommon0
        CFI (cfiCond329) NoFunction
        CFI (cfiCond329) Conditional ??CrossCallReturnLabel_177
        CFI (cfiCond329) R6 load(1, XDATA, add(CFA_XSP16, literal(-12)))
        CFI (cfiCond329) VB load(1, XDATA, add(CFA_XSP16, literal(-11)))
        CFI (cfiCond329) V0 load(1, XDATA, add(CFA_XSP16, literal(-10)))
        CFI (cfiCond329) V1 load(1, XDATA, add(CFA_XSP16, literal(-9)))
        CFI (cfiCond329) V2 load(1, XDATA, add(CFA_XSP16, literal(-8)))
        CFI (cfiCond329) V3 load(1, XDATA, add(CFA_XSP16, literal(-7)))
        CFI (cfiCond329) R7 load(1, XDATA, add(CFA_XSP16, literal(-6)))
        CFI (cfiCond329) ?RET_LOW load(1, XDATA, add(CFA_XSP16, literal(-5)))
        CFI (cfiCond329) ?RET_HIGH load(1, XDATA, add(CFA_XSP16, literal(-4)))
        CFI (cfiCond329) ?BRET_EXT load(1, XDATA, add(CFA_XSP16, literal(-3)))
        CFI (cfiCond329) DPL0 load(1, XDATA, add(CFA_XSP16, literal(-2)))
        CFI (cfiCond329) DPH0 load(1, XDATA, add(CFA_XSP16, literal(-1)))
        CFI (cfiCond329) CFA_SP SP+0
        CFI (cfiCond329) CFA_XSP16 add(XSP16, 32)
        CFI Block cfiCond330 Using cfiCommon0
        CFI (cfiCond330) NoFunction
        CFI (cfiCond330) Conditional ??CrossCallReturnLabel_178
        CFI (cfiCond330) R6 load(1, XDATA, add(CFA_XSP16, literal(-12)))
        CFI (cfiCond330) VB load(1, XDATA, add(CFA_XSP16, literal(-11)))
        CFI (cfiCond330) V0 load(1, XDATA, add(CFA_XSP16, literal(-10)))
        CFI (cfiCond330) V1 load(1, XDATA, add(CFA_XSP16, literal(-9)))
        CFI (cfiCond330) V2 load(1, XDATA, add(CFA_XSP16, literal(-8)))
        CFI (cfiCond330) V3 load(1, XDATA, add(CFA_XSP16, literal(-7)))
        CFI (cfiCond330) R7 load(1, XDATA, add(CFA_XSP16, literal(-6)))
        CFI (cfiCond330) ?RET_LOW load(1, XDATA, add(CFA_XSP16, literal(-5)))
        CFI (cfiCond330) ?RET_HIGH load(1, XDATA, add(CFA_XSP16, literal(-4)))
        CFI (cfiCond330) ?BRET_EXT load(1, XDATA, add(CFA_XSP16, literal(-3)))
        CFI (cfiCond330) DPL0 load(1, XDATA, add(CFA_XSP16, literal(-2)))
        CFI (cfiCond330) DPH0 load(1, XDATA, add(CFA_XSP16, literal(-1)))
        CFI (cfiCond330) CFA_SP SP+0
        CFI (cfiCond330) CFA_XSP16 add(XSP16, 16)
        CFI Block cfiCond331 Using cfiCommon0
        CFI (cfiCond331) NoFunction
        CFI (cfiCond331) Conditional ??CrossCallReturnLabel_179
        CFI (cfiCond331) R6 load(1, XDATA, add(CFA_XSP16, literal(-12)))
        CFI (cfiCond331) VB load(1, XDATA, add(CFA_XSP16, literal(-11)))
        CFI (cfiCond331) V0 load(1, XDATA, add(CFA_XSP16, literal(-10)))
        CFI (cfiCond331) V1 load(1, XDATA, add(CFA_XSP16, literal(-9)))
        CFI (cfiCond331) V2 load(1, XDATA, add(CFA_XSP16, literal(-8)))
        CFI (cfiCond331) V3 load(1, XDATA, add(CFA_XSP16, literal(-7)))
        CFI (cfiCond331) R7 load(1, XDATA, add(CFA_XSP16, literal(-6)))
        CFI (cfiCond331) ?RET_LOW load(1, XDATA, add(CFA_XSP16, literal(-5)))
        CFI (cfiCond331) ?RET_HIGH load(1, XDATA, add(CFA_XSP16, literal(-4)))
        CFI (cfiCond331) ?BRET_EXT load(1, XDATA, add(CFA_XSP16, literal(-3)))
        CFI (cfiCond331) DPL0 load(1, XDATA, add(CFA_XSP16, literal(-2)))
        CFI (cfiCond331) DPH0 load(1, XDATA, add(CFA_XSP16, literal(-1)))
        CFI (cfiCond331) CFA_SP SP+0
        CFI (cfiCond331) CFA_XSP16 add(XSP16, 29)
        CFI Block cfiCond332 Using cfiCommon0
        CFI (cfiCond332) NoFunction
        CFI (cfiCond332) Conditional ??CrossCallReturnLabel_180
        CFI (cfiCond332) R6 load(1, XDATA, add(CFA_XSP16, literal(-12)))
        CFI (cfiCond332) VB load(1, XDATA, add(CFA_XSP16, literal(-11)))
        CFI (cfiCond332) V0 load(1, XDATA, add(CFA_XSP16, literal(-10)))
        CFI (cfiCond332) V1 load(1, XDATA, add(CFA_XSP16, literal(-9)))
        CFI (cfiCond332) V2 load(1, XDATA, add(CFA_XSP16, literal(-8)))
        CFI (cfiCond332) V3 load(1, XDATA, add(CFA_XSP16, literal(-7)))
        CFI (cfiCond332) R7 load(1, XDATA, add(CFA_XSP16, literal(-6)))
        CFI (cfiCond332) ?RET_LOW load(1, XDATA, add(CFA_XSP16, literal(-5)))
        CFI (cfiCond332) ?RET_HIGH load(1, XDATA, add(CFA_XSP16, literal(-4)))
        CFI (cfiCond332) ?BRET_EXT load(1, XDATA, add(CFA_XSP16, literal(-3)))
        CFI (cfiCond332) DPL0 load(1, XDATA, add(CFA_XSP16, literal(-2)))
        CFI (cfiCond332) DPH0 load(1, XDATA, add(CFA_XSP16, literal(-1)))
        CFI (cfiCond332) CFA_SP SP+0
        CFI (cfiCond332) CFA_XSP16 add(XSP16, 35)
        CFI Block cfiCond333 Using cfiCommon0
        CFI (cfiCond333) NoFunction
        CFI (cfiCond333) Conditional ??CrossCallReturnLabel_181
        CFI (cfiCond333) R6 load(1, XDATA, add(CFA_XSP16, literal(-10)))
        CFI (cfiCond333) VB load(1, XDATA, add(CFA_XSP16, literal(-9)))
        CFI (cfiCond333) V0 load(1, XDATA, add(CFA_XSP16, literal(-8)))
        CFI (cfiCond333) V1 load(1, XDATA, add(CFA_XSP16, literal(-7)))
        CFI (cfiCond333) R7 load(1, XDATA, add(CFA_XSP16, literal(-6)))
        CFI (cfiCond333) ?RET_LOW load(1, XDATA, add(CFA_XSP16, literal(-5)))
        CFI (cfiCond333) ?RET_HIGH load(1, XDATA, add(CFA_XSP16, literal(-4)))
        CFI (cfiCond333) ?BRET_EXT load(1, XDATA, add(CFA_XSP16, literal(-3)))
        CFI (cfiCond333) DPL0 load(1, XDATA, add(CFA_XSP16, literal(-2)))
        CFI (cfiCond333) DPH0 load(1, XDATA, add(CFA_XSP16, literal(-1)))
        CFI (cfiCond333) CFA_SP SP+0
        CFI (cfiCond333) CFA_XSP16 add(XSP16, 33)
        CFI Block cfiCond334 Using cfiCommon0
        CFI (cfiCond334) NoFunction
        CFI (cfiCond334) Conditional ??CrossCallReturnLabel_182
        CFI (cfiCond334) DPL0 Frame(CFA_SP, 4)
        CFI (cfiCond334) DPH0 Frame(CFA_SP, 5)
        CFI (cfiCond334) CFA_SP SP+-5
        CFI (cfiCond334) CFA_XSP16 add(XSP16, 10)
        CFI Block cfiPicker335 Using cfiCommon1
        CFI (cfiPicker335) NoFunction
        CFI (cfiPicker335) Picker
        LCALL   ?Subroutine77 & 0xFFFF
??CrossCallReturnLabel_225:
        RET
        CFI EndBlock cfiCond318
        CFI EndBlock cfiCond319
        CFI EndBlock cfiCond320
        CFI EndBlock cfiCond321
        CFI EndBlock cfiCond322
        CFI EndBlock cfiCond323
        CFI EndBlock cfiCond324
        CFI EndBlock cfiCond325
        CFI EndBlock cfiCond326
        CFI EndBlock cfiCond327
        CFI EndBlock cfiCond328
        CFI EndBlock cfiCond329
        CFI EndBlock cfiCond330
        CFI EndBlock cfiCond331
        CFI EndBlock cfiCond332
        CFI EndBlock cfiCond333
        CFI EndBlock cfiCond334
        CFI EndBlock cfiPicker335

        RSEG BANKED_CODE:CODE:NOROOT(0)
?Subroutine77:
        CFI Block cfiCond336 Using cfiCommon0
        CFI NoFunction
        CFI Conditional ??CrossCallReturnLabel_221, ??CrossCallReturnLabel_91, ??CrossCallReturnLabel_24
        CFI R6 load(1, XDATA, add(CFA_XSP16, literal(-9)))
        CFI VB load(1, XDATA, add(CFA_XSP16, literal(-8)))
        CFI V0 load(1, XDATA, add(CFA_XSP16, literal(-7)))
        CFI R7 load(1, XDATA, add(CFA_XSP16, literal(-6)))
        CFI ?RET_LOW load(1, XDATA, add(CFA_XSP16, literal(-5)))
        CFI ?RET_HIGH load(1, XDATA, add(CFA_XSP16, literal(-4)))
        CFI ?BRET_EXT load(1, XDATA, add(CFA_XSP16, literal(-3)))
        CFI DPL0 load(1, XDATA, add(CFA_XSP16, literal(-2)))
        CFI DPH0 load(1, XDATA, add(CFA_XSP16, literal(-1)))
        CFI CFA_SP SP+0
        CFI CFA_XSP16 add(XSP16, 22)
        CFI Block cfiCond337 Using cfiCommon0
        CFI (cfiCond337) NoFunction
        CFI (cfiCond337) Conditional ??CrossCallReturnLabel_221, ??CrossCallReturnLabel_91, ??CrossCallReturnLabel_25
        CFI (cfiCond337) R6 load(1, XDATA, add(CFA_XSP16, literal(-9)))
        CFI (cfiCond337) VB load(1, XDATA, add(CFA_XSP16, literal(-8)))
        CFI (cfiCond337) V0 load(1, XDATA, add(CFA_XSP16, literal(-7)))
        CFI (cfiCond337) R7 load(1, XDATA, add(CFA_XSP16, literal(-6)))
        CFI (cfiCond337) ?RET_LOW load(1, XDATA, add(CFA_XSP16, literal(-5)))
        CFI (cfiCond337) ?RET_HIGH load(1, XDATA, add(CFA_XSP16, literal(-4)))
        CFI (cfiCond337) ?BRET_EXT load(1, XDATA, add(CFA_XSP16, literal(-3)))
        CFI (cfiCond337) DPL0 load(1, XDATA, add(CFA_XSP16, literal(-2)))
        CFI (cfiCond337) DPH0 load(1, XDATA, add(CFA_XSP16, literal(-1)))
        CFI (cfiCond337) CFA_SP SP+0
        CFI (cfiCond337) CFA_XSP16 add(XSP16, 22)
        CFI Block cfiCond338 Using cfiCommon0
        CFI (cfiCond338) NoFunction
        CFI (cfiCond338) Conditional ??CrossCallReturnLabel_221, ??CrossCallReturnLabel_91, ??CrossCallReturnLabel_26
        CFI (cfiCond338) R6 load(1, XDATA, add(CFA_XSP16, literal(-9)))
        CFI (cfiCond338) VB load(1, XDATA, add(CFA_XSP16, literal(-8)))
        CFI (cfiCond338) V0 load(1, XDATA, add(CFA_XSP16, literal(-7)))
        CFI (cfiCond338) R7 load(1, XDATA, add(CFA_XSP16, literal(-6)))
        CFI (cfiCond338) ?RET_LOW load(1, XDATA, add(CFA_XSP16, literal(-5)))
        CFI (cfiCond338) ?RET_HIGH load(1, XDATA, add(CFA_XSP16, literal(-4)))
        CFI (cfiCond338) ?BRET_EXT load(1, XDATA, add(CFA_XSP16, literal(-3)))
        CFI (cfiCond338) DPL0 load(1, XDATA, add(CFA_XSP16, literal(-2)))
        CFI (cfiCond338) DPH0 load(1, XDATA, add(CFA_XSP16, literal(-1)))
        CFI (cfiCond338) CFA_SP SP+0
        CFI (cfiCond338) CFA_XSP16 add(XSP16, 22)
        CFI Block cfiCond339 Using cfiCommon0
        CFI (cfiCond339) NoFunction
        CFI (cfiCond339) Conditional ??CrossCallReturnLabel_221, ??CrossCallReturnLabel_90, ??CrossCallReturnLabel_21
        CFI (cfiCond339) R6 load(1, XDATA, add(CFA_XSP16, literal(-9)))
        CFI (cfiCond339) VB load(1, XDATA, add(CFA_XSP16, literal(-8)))
        CFI (cfiCond339) V0 load(1, XDATA, add(CFA_XSP16, literal(-7)))
        CFI (cfiCond339) R7 load(1, XDATA, add(CFA_XSP16, literal(-6)))
        CFI (cfiCond339) ?RET_LOW load(1, XDATA, add(CFA_XSP16, literal(-5)))
        CFI (cfiCond339) ?RET_HIGH load(1, XDATA, add(CFA_XSP16, literal(-4)))
        CFI (cfiCond339) ?BRET_EXT load(1, XDATA, add(CFA_XSP16, literal(-3)))
        CFI (cfiCond339) DPL0 load(1, XDATA, add(CFA_XSP16, literal(-2)))
        CFI (cfiCond339) DPH0 load(1, XDATA, add(CFA_XSP16, literal(-1)))
        CFI (cfiCond339) CFA_SP SP+0
        CFI (cfiCond339) CFA_XSP16 add(XSP16, 22)
        CFI Block cfiCond340 Using cfiCommon0
        CFI (cfiCond340) NoFunction
        CFI (cfiCond340) Conditional ??CrossCallReturnLabel_221, ??CrossCallReturnLabel_90, ??CrossCallReturnLabel_22
        CFI (cfiCond340) R6 load(1, XDATA, add(CFA_XSP16, literal(-9)))
        CFI (cfiCond340) VB load(1, XDATA, add(CFA_XSP16, literal(-8)))
        CFI (cfiCond340) V0 load(1, XDATA, add(CFA_XSP16, literal(-7)))
        CFI (cfiCond340) R7 load(1, XDATA, add(CFA_XSP16, literal(-6)))
        CFI (cfiCond340) ?RET_LOW load(1, XDATA, add(CFA_XSP16, literal(-5)))
        CFI (cfiCond340) ?RET_HIGH load(1, XDATA, add(CFA_XSP16, literal(-4)))
        CFI (cfiCond340) ?BRET_EXT load(1, XDATA, add(CFA_XSP16, literal(-3)))
        CFI (cfiCond340) DPL0 load(1, XDATA, add(CFA_XSP16, literal(-2)))
        CFI (cfiCond340) DPH0 load(1, XDATA, add(CFA_XSP16, literal(-1)))
        CFI (cfiCond340) CFA_SP SP+0
        CFI (cfiCond340) CFA_XSP16 add(XSP16, 22)
        CFI Block cfiCond341 Using cfiCommon0
        CFI (cfiCond341) NoFunction
        CFI (cfiCond341) Conditional ??CrossCallReturnLabel_221, ??CrossCallReturnLabel_90, ??CrossCallReturnLabel_23
        CFI (cfiCond341) R6 load(1, XDATA, add(CFA_XSP16, literal(-9)))
        CFI (cfiCond341) VB load(1, XDATA, add(CFA_XSP16, literal(-8)))
        CFI (cfiCond341) V0 load(1, XDATA, add(CFA_XSP16, literal(-7)))
        CFI (cfiCond341) R7 load(1, XDATA, add(CFA_XSP16, literal(-6)))
        CFI (cfiCond341) ?RET_LOW load(1, XDATA, add(CFA_XSP16, literal(-5)))
        CFI (cfiCond341) ?RET_HIGH load(1, XDATA, add(CFA_XSP16, literal(-4)))
        CFI (cfiCond341) ?BRET_EXT load(1, XDATA, add(CFA_XSP16, literal(-3)))
        CFI (cfiCond341) DPL0 load(1, XDATA, add(CFA_XSP16, literal(-2)))
        CFI (cfiCond341) DPH0 load(1, XDATA, add(CFA_XSP16, literal(-1)))
        CFI (cfiCond341) CFA_SP SP+0
        CFI (cfiCond341) CFA_XSP16 add(XSP16, 22)
        CFI Block cfiCond342 Using cfiCommon0
        CFI (cfiCond342) NoFunction
        CFI (cfiCond342) Conditional ??CrossCallReturnLabel_222, ??CrossCallReturnLabel_115
        CFI (cfiCond342) R6 load(1, XDATA, add(CFA_XSP16, literal(-10)))
        CFI (cfiCond342) VB load(1, XDATA, add(CFA_XSP16, literal(-9)))
        CFI (cfiCond342) V0 load(1, XDATA, add(CFA_XSP16, literal(-8)))
        CFI (cfiCond342) V1 load(1, XDATA, add(CFA_XSP16, literal(-7)))
        CFI (cfiCond342) R7 load(1, XDATA, add(CFA_XSP16, literal(-6)))
        CFI (cfiCond342) ?RET_LOW load(1, XDATA, add(CFA_XSP16, literal(-5)))
        CFI (cfiCond342) ?RET_HIGH load(1, XDATA, add(CFA_XSP16, literal(-4)))
        CFI (cfiCond342) ?BRET_EXT load(1, XDATA, add(CFA_XSP16, literal(-3)))
        CFI (cfiCond342) DPL0 load(1, XDATA, add(CFA_XSP16, literal(-2)))
        CFI (cfiCond342) DPH0 load(1, XDATA, add(CFA_XSP16, literal(-1)))
        CFI (cfiCond342) CFA_SP SP+0
        CFI (cfiCond342) CFA_XSP16 add(XSP16, 10)
        CFI Block cfiCond343 Using cfiCommon0
        CFI (cfiCond343) NoFunction
        CFI (cfiCond343) Conditional ??CrossCallReturnLabel_222, ??CrossCallReturnLabel_116
        CFI (cfiCond343) R6 load(1, XDATA, add(CFA_XSP16, literal(-10)))
        CFI (cfiCond343) VB load(1, XDATA, add(CFA_XSP16, literal(-9)))
        CFI (cfiCond343) V0 load(1, XDATA, add(CFA_XSP16, literal(-8)))
        CFI (cfiCond343) V1 load(1, XDATA, add(CFA_XSP16, literal(-7)))
        CFI (cfiCond343) R7 load(1, XDATA, add(CFA_XSP16, literal(-6)))
        CFI (cfiCond343) ?RET_LOW load(1, XDATA, add(CFA_XSP16, literal(-5)))
        CFI (cfiCond343) ?RET_HIGH load(1, XDATA, add(CFA_XSP16, literal(-4)))
        CFI (cfiCond343) ?BRET_EXT load(1, XDATA, add(CFA_XSP16, literal(-3)))
        CFI (cfiCond343) DPL0 load(1, XDATA, add(CFA_XSP16, literal(-2)))
        CFI (cfiCond343) DPH0 load(1, XDATA, add(CFA_XSP16, literal(-1)))
        CFI (cfiCond343) CFA_SP SP+0
        CFI (cfiCond343) CFA_XSP16 add(XSP16, 23)
        CFI Block cfiCond344 Using cfiCommon0
        CFI (cfiCond344) NoFunction
        CFI (cfiCond344) Conditional ??CrossCallReturnLabel_222, ??CrossCallReturnLabel_117
        CFI (cfiCond344) R6 load(1, XDATA, add(CFA_XSP16, literal(-10)))
        CFI (cfiCond344) VB load(1, XDATA, add(CFA_XSP16, literal(-9)))
        CFI (cfiCond344) V0 load(1, XDATA, add(CFA_XSP16, literal(-8)))
        CFI (cfiCond344) V1 load(1, XDATA, add(CFA_XSP16, literal(-7)))
        CFI (cfiCond344) R7 load(1, XDATA, add(CFA_XSP16, literal(-6)))
        CFI (cfiCond344) ?RET_LOW load(1, XDATA, add(CFA_XSP16, literal(-5)))
        CFI (cfiCond344) ?RET_HIGH load(1, XDATA, add(CFA_XSP16, literal(-4)))
        CFI (cfiCond344) ?BRET_EXT load(1, XDATA, add(CFA_XSP16, literal(-3)))
        CFI (cfiCond344) DPL0 load(1, XDATA, add(CFA_XSP16, literal(-2)))
        CFI (cfiCond344) DPH0 load(1, XDATA, add(CFA_XSP16, literal(-1)))
        CFI (cfiCond344) CFA_SP SP+0
        CFI (cfiCond344) CFA_XSP16 add(XSP16, 10)
        CFI Block cfiCond345 Using cfiCommon0
        CFI (cfiCond345) NoFunction
        CFI (cfiCond345) Conditional ??CrossCallReturnLabel_223, ??CrossCallReturnLabel_124
        CFI (cfiCond345) R6 load(1, XDATA, add(CFA_XSP16, literal(-10)))
        CFI (cfiCond345) VB load(1, XDATA, add(CFA_XSP16, literal(-9)))
        CFI (cfiCond345) V0 load(1, XDATA, add(CFA_XSP16, literal(-8)))
        CFI (cfiCond345) V1 load(1, XDATA, add(CFA_XSP16, literal(-7)))
        CFI (cfiCond345) R7 load(1, XDATA, add(CFA_XSP16, literal(-6)))
        CFI (cfiCond345) ?RET_LOW load(1, XDATA, add(CFA_XSP16, literal(-5)))
        CFI (cfiCond345) ?RET_HIGH load(1, XDATA, add(CFA_XSP16, literal(-4)))
        CFI (cfiCond345) ?BRET_EXT load(1, XDATA, add(CFA_XSP16, literal(-3)))
        CFI (cfiCond345) DPL0 load(1, XDATA, add(CFA_XSP16, literal(-2)))
        CFI (cfiCond345) DPH0 load(1, XDATA, add(CFA_XSP16, literal(-1)))
        CFI (cfiCond345) CFA_SP SP+0
        CFI (cfiCond345) CFA_XSP16 add(XSP16, 17)
        CFI Block cfiCond346 Using cfiCommon0
        CFI (cfiCond346) NoFunction
        CFI (cfiCond346) Conditional ??CrossCallReturnLabel_223, ??CrossCallReturnLabel_125
        CFI (cfiCond346) R6 load(1, XDATA, add(CFA_XSP16, literal(-10)))
        CFI (cfiCond346) VB load(1, XDATA, add(CFA_XSP16, literal(-9)))
        CFI (cfiCond346) V0 load(1, XDATA, add(CFA_XSP16, literal(-8)))
        CFI (cfiCond346) V1 load(1, XDATA, add(CFA_XSP16, literal(-7)))
        CFI (cfiCond346) R7 load(1, XDATA, add(CFA_XSP16, literal(-6)))
        CFI (cfiCond346) ?RET_LOW load(1, XDATA, add(CFA_XSP16, literal(-5)))
        CFI (cfiCond346) ?RET_HIGH load(1, XDATA, add(CFA_XSP16, literal(-4)))
        CFI (cfiCond346) ?BRET_EXT load(1, XDATA, add(CFA_XSP16, literal(-3)))
        CFI (cfiCond346) DPL0 load(1, XDATA, add(CFA_XSP16, literal(-2)))
        CFI (cfiCond346) DPH0 load(1, XDATA, add(CFA_XSP16, literal(-1)))
        CFI (cfiCond346) CFA_SP SP+0
        CFI (cfiCond346) CFA_XSP16 add(XSP16, 17)
        CFI Block cfiCond347 Using cfiCommon0
        CFI (cfiCond347) NoFunction
        CFI (cfiCond347) Conditional ??CrossCallReturnLabel_223, ??CrossCallReturnLabel_126
        CFI (cfiCond347) R6 load(1, XDATA, add(CFA_XSP16, literal(-10)))
        CFI (cfiCond347) VB load(1, XDATA, add(CFA_XSP16, literal(-9)))
        CFI (cfiCond347) V0 load(1, XDATA, add(CFA_XSP16, literal(-8)))
        CFI (cfiCond347) V1 load(1, XDATA, add(CFA_XSP16, literal(-7)))
        CFI (cfiCond347) R7 load(1, XDATA, add(CFA_XSP16, literal(-6)))
        CFI (cfiCond347) ?RET_LOW load(1, XDATA, add(CFA_XSP16, literal(-5)))
        CFI (cfiCond347) ?RET_HIGH load(1, XDATA, add(CFA_XSP16, literal(-4)))
        CFI (cfiCond347) ?BRET_EXT load(1, XDATA, add(CFA_XSP16, literal(-3)))
        CFI (cfiCond347) DPL0 load(1, XDATA, add(CFA_XSP16, literal(-2)))
        CFI (cfiCond347) DPH0 load(1, XDATA, add(CFA_XSP16, literal(-1)))
        CFI (cfiCond347) CFA_SP SP+0
        CFI (cfiCond347) CFA_XSP16 add(XSP16, 19)
        CFI Block cfiCond348 Using cfiCommon0
        CFI (cfiCond348) NoFunction
        CFI (cfiCond348) Conditional ??CrossCallReturnLabel_224, ??CrossCallReturnLabel_143
        CFI (cfiCond348) R6 load(1, XDATA, add(CFA_XSP16, literal(-10)))
        CFI (cfiCond348) VB load(1, XDATA, add(CFA_XSP16, literal(-9)))
        CFI (cfiCond348) V0 load(1, XDATA, add(CFA_XSP16, literal(-8)))
        CFI (cfiCond348) V1 load(1, XDATA, add(CFA_XSP16, literal(-7)))
        CFI (cfiCond348) R7 load(1, XDATA, add(CFA_XSP16, literal(-6)))
        CFI (cfiCond348) ?RET_LOW load(1, XDATA, add(CFA_XSP16, literal(-5)))
        CFI (cfiCond348) ?RET_HIGH load(1, XDATA, add(CFA_XSP16, literal(-4)))
        CFI (cfiCond348) ?BRET_EXT load(1, XDATA, add(CFA_XSP16, literal(-3)))
        CFI (cfiCond348) DPL0 load(1, XDATA, add(CFA_XSP16, literal(-2)))
        CFI (cfiCond348) DPH0 load(1, XDATA, add(CFA_XSP16, literal(-1)))
        CFI (cfiCond348) CFA_SP SP+0
        CFI (cfiCond348) CFA_XSP16 add(XSP16, 19)
        CFI Block cfiCond349 Using cfiCommon0
        CFI (cfiCond349) NoFunction
        CFI (cfiCond349) Conditional ??CrossCallReturnLabel_224, ??CrossCallReturnLabel_144
        CFI (cfiCond349) R6 load(1, XDATA, add(CFA_XSP16, literal(-12)))
        CFI (cfiCond349) VB load(1, XDATA, add(CFA_XSP16, literal(-11)))
        CFI (cfiCond349) V0 load(1, XDATA, add(CFA_XSP16, literal(-10)))
        CFI (cfiCond349) V1 load(1, XDATA, add(CFA_XSP16, literal(-9)))
        CFI (cfiCond349) V2 load(1, XDATA, add(CFA_XSP16, literal(-8)))
        CFI (cfiCond349) V3 load(1, XDATA, add(CFA_XSP16, literal(-7)))
        CFI (cfiCond349) R7 load(1, XDATA, add(CFA_XSP16, literal(-6)))
        CFI (cfiCond349) ?RET_LOW load(1, XDATA, add(CFA_XSP16, literal(-5)))
        CFI (cfiCond349) ?RET_HIGH load(1, XDATA, add(CFA_XSP16, literal(-4)))
        CFI (cfiCond349) ?BRET_EXT load(1, XDATA, add(CFA_XSP16, literal(-3)))
        CFI (cfiCond349) DPL0 load(1, XDATA, add(CFA_XSP16, literal(-2)))
        CFI (cfiCond349) DPH0 load(1, XDATA, add(CFA_XSP16, literal(-1)))
        CFI (cfiCond349) CFA_SP SP+0
        CFI (cfiCond349) CFA_XSP16 add(XSP16, 32)
        CFI Block cfiCond350 Using cfiCommon0
        CFI (cfiCond350) NoFunction
        CFI (cfiCond350) Conditional ??CrossCallReturnLabel_224, ??CrossCallReturnLabel_145
        CFI (cfiCond350) R6 load(1, XDATA, add(CFA_XSP16, literal(-12)))
        CFI (cfiCond350) VB load(1, XDATA, add(CFA_XSP16, literal(-11)))
        CFI (cfiCond350) V0 load(1, XDATA, add(CFA_XSP16, literal(-10)))
        CFI (cfiCond350) V1 load(1, XDATA, add(CFA_XSP16, literal(-9)))
        CFI (cfiCond350) V2 load(1, XDATA, add(CFA_XSP16, literal(-8)))
        CFI (cfiCond350) V3 load(1, XDATA, add(CFA_XSP16, literal(-7)))
        CFI (cfiCond350) R7 load(1, XDATA, add(CFA_XSP16, literal(-6)))
        CFI (cfiCond350) ?RET_LOW load(1, XDATA, add(CFA_XSP16, literal(-5)))
        CFI (cfiCond350) ?RET_HIGH load(1, XDATA, add(CFA_XSP16, literal(-4)))
        CFI (cfiCond350) ?BRET_EXT load(1, XDATA, add(CFA_XSP16, literal(-3)))
        CFI (cfiCond350) DPL0 load(1, XDATA, add(CFA_XSP16, literal(-2)))
        CFI (cfiCond350) DPH0 load(1, XDATA, add(CFA_XSP16, literal(-1)))
        CFI (cfiCond350) CFA_SP SP+0
        CFI (cfiCond350) CFA_XSP16 add(XSP16, 25)
        CFI Block cfiCond351 Using cfiCommon0
        CFI (cfiCond351) NoFunction
        CFI (cfiCond351) Conditional ??CrossCallReturnLabel_225, ??CrossCallReturnLabel_180
        CFI (cfiCond351) R6 load(1, XDATA, add(CFA_XSP16, literal(-12)))
        CFI (cfiCond351) VB load(1, XDATA, add(CFA_XSP16, literal(-11)))
        CFI (cfiCond351) V0 load(1, XDATA, add(CFA_XSP16, literal(-10)))
        CFI (cfiCond351) V1 load(1, XDATA, add(CFA_XSP16, literal(-9)))
        CFI (cfiCond351) V2 load(1, XDATA, add(CFA_XSP16, literal(-8)))
        CFI (cfiCond351) V3 load(1, XDATA, add(CFA_XSP16, literal(-7)))
        CFI (cfiCond351) R7 load(1, XDATA, add(CFA_XSP16, literal(-6)))
        CFI (cfiCond351) ?RET_LOW load(1, XDATA, add(CFA_XSP16, literal(-5)))
        CFI (cfiCond351) ?RET_HIGH load(1, XDATA, add(CFA_XSP16, literal(-4)))
        CFI (cfiCond351) ?BRET_EXT load(1, XDATA, add(CFA_XSP16, literal(-3)))
        CFI (cfiCond351) DPL0 load(1, XDATA, add(CFA_XSP16, literal(-2)))
        CFI (cfiCond351) DPH0 load(1, XDATA, add(CFA_XSP16, literal(-1)))
        CFI (cfiCond351) CFA_SP SP+0
        CFI (cfiCond351) CFA_XSP16 add(XSP16, 35)
        CFI Block cfiCond352 Using cfiCommon0
        CFI (cfiCond352) NoFunction
        CFI (cfiCond352) Conditional ??CrossCallReturnLabel_225, ??CrossCallReturnLabel_181
        CFI (cfiCond352) R6 load(1, XDATA, add(CFA_XSP16, literal(-10)))
        CFI (cfiCond352) VB load(1, XDATA, add(CFA_XSP16, literal(-9)))
        CFI (cfiCond352) V0 load(1, XDATA, add(CFA_XSP16, literal(-8)))
        CFI (cfiCond352) V1 load(1, XDATA, add(CFA_XSP16, literal(-7)))
        CFI (cfiCond352) R7 load(1, XDATA, add(CFA_XSP16, literal(-6)))
        CFI (cfiCond352) ?RET_LOW load(1, XDATA, add(CFA_XSP16, literal(-5)))
        CFI (cfiCond352) ?RET_HIGH load(1, XDATA, add(CFA_XSP16, literal(-4)))
        CFI (cfiCond352) ?BRET_EXT load(1, XDATA, add(CFA_XSP16, literal(-3)))
        CFI (cfiCond352) DPL0 load(1, XDATA, add(CFA_XSP16, literal(-2)))
        CFI (cfiCond352) DPH0 load(1, XDATA, add(CFA_XSP16, literal(-1)))
        CFI (cfiCond352) CFA_SP SP+0
        CFI (cfiCond352) CFA_XSP16 add(XSP16, 33)
        CFI Block cfiCond353 Using cfiCommon0
        CFI (cfiCond353) NoFunction
        CFI (cfiCond353) Conditional ??CrossCallReturnLabel_225, ??CrossCallReturnLabel_182
        CFI (cfiCond353) DPL0 Frame(CFA_SP, 4)
        CFI (cfiCond353) DPH0 Frame(CFA_SP, 5)
        CFI (cfiCond353) CFA_SP SP+-5
        CFI (cfiCond353) CFA_XSP16 add(XSP16, 10)
        CFI Block cfiCond354 Using cfiCommon0
        CFI (cfiCond354) NoFunction
        CFI (cfiCond354) Conditional ??CrossCallReturnLabel_225, ??CrossCallReturnLabel_179
        CFI (cfiCond354) R6 load(1, XDATA, add(CFA_XSP16, literal(-12)))
        CFI (cfiCond354) VB load(1, XDATA, add(CFA_XSP16, literal(-11)))
        CFI (cfiCond354) V0 load(1, XDATA, add(CFA_XSP16, literal(-10)))
        CFI (cfiCond354) V1 load(1, XDATA, add(CFA_XSP16, literal(-9)))
        CFI (cfiCond354) V2 load(1, XDATA, add(CFA_XSP16, literal(-8)))
        CFI (cfiCond354) V3 load(1, XDATA, add(CFA_XSP16, literal(-7)))
        CFI (cfiCond354) R7 load(1, XDATA, add(CFA_XSP16, literal(-6)))
        CFI (cfiCond354) ?RET_LOW load(1, XDATA, add(CFA_XSP16, literal(-5)))
        CFI (cfiCond354) ?RET_HIGH load(1, XDATA, add(CFA_XSP16, literal(-4)))
        CFI (cfiCond354) ?BRET_EXT load(1, XDATA, add(CFA_XSP16, literal(-3)))
        CFI (cfiCond354) DPL0 load(1, XDATA, add(CFA_XSP16, literal(-2)))
        CFI (cfiCond354) DPH0 load(1, XDATA, add(CFA_XSP16, literal(-1)))
        CFI (cfiCond354) CFA_SP SP+0
        CFI (cfiCond354) CFA_XSP16 add(XSP16, 29)
        CFI Block cfiCond355 Using cfiCommon0
        CFI (cfiCond355) NoFunction
        CFI (cfiCond355) Conditional ??CrossCallReturnLabel_225, ??CrossCallReturnLabel_166
        CFI (cfiCond355) R6 load(1, XDATA, add(CFA_XSP16, literal(-10)))
        CFI (cfiCond355) VB load(1, XDATA, add(CFA_XSP16, literal(-9)))
        CFI (cfiCond355) V0 load(1, XDATA, add(CFA_XSP16, literal(-8)))
        CFI (cfiCond355) V1 load(1, XDATA, add(CFA_XSP16, literal(-7)))
        CFI (cfiCond355) R7 load(1, XDATA, add(CFA_XSP16, literal(-6)))
        CFI (cfiCond355) ?RET_LOW load(1, XDATA, add(CFA_XSP16, literal(-5)))
        CFI (cfiCond355) ?RET_HIGH load(1, XDATA, add(CFA_XSP16, literal(-4)))
        CFI (cfiCond355) ?BRET_EXT load(1, XDATA, add(CFA_XSP16, literal(-3)))
        CFI (cfiCond355) DPL0 load(1, XDATA, add(CFA_XSP16, literal(-2)))
        CFI (cfiCond355) DPH0 load(1, XDATA, add(CFA_XSP16, literal(-1)))
        CFI (cfiCond355) CFA_SP SP+0
        CFI (cfiCond355) CFA_XSP16 add(XSP16, 10)
        CFI Block cfiCond356 Using cfiCommon0
        CFI (cfiCond356) NoFunction
        CFI (cfiCond356) Conditional ??CrossCallReturnLabel_225, ??CrossCallReturnLabel_167
        CFI (cfiCond356) R6 load(1, XDATA, add(CFA_XSP16, literal(-9)))
        CFI (cfiCond356) VB load(1, XDATA, add(CFA_XSP16, literal(-8)))
        CFI (cfiCond356) V0 load(1, XDATA, add(CFA_XSP16, literal(-7)))
        CFI (cfiCond356) R7 load(1, XDATA, add(CFA_XSP16, literal(-6)))
        CFI (cfiCond356) ?RET_LOW load(1, XDATA, add(CFA_XSP16, literal(-5)))
        CFI (cfiCond356) ?RET_HIGH load(1, XDATA, add(CFA_XSP16, literal(-4)))
        CFI (cfiCond356) ?BRET_EXT load(1, XDATA, add(CFA_XSP16, literal(-3)))
        CFI (cfiCond356) DPL0 load(1, XDATA, add(CFA_XSP16, literal(-2)))
        CFI (cfiCond356) DPH0 load(1, XDATA, add(CFA_XSP16, literal(-1)))
        CFI (cfiCond356) CFA_SP SP+0
        CFI (cfiCond356) CFA_XSP16 add(XSP16, 9)
        CFI Block cfiCond357 Using cfiCommon0
        CFI (cfiCond357) NoFunction
        CFI (cfiCond357) Conditional ??CrossCallReturnLabel_225, ??CrossCallReturnLabel_168
        CFI (cfiCond357) R6 load(1, XDATA, add(CFA_XSP16, literal(-10)))
        CFI (cfiCond357) VB load(1, XDATA, add(CFA_XSP16, literal(-9)))
        CFI (cfiCond357) V0 load(1, XDATA, add(CFA_XSP16, literal(-8)))
        CFI (cfiCond357) V1 load(1, XDATA, add(CFA_XSP16, literal(-7)))
        CFI (cfiCond357) R7 load(1, XDATA, add(CFA_XSP16, literal(-6)))
        CFI (cfiCond357) ?RET_LOW load(1, XDATA, add(CFA_XSP16, literal(-5)))
        CFI (cfiCond357) ?RET_HIGH load(1, XDATA, add(CFA_XSP16, literal(-4)))
        CFI (cfiCond357) ?BRET_EXT load(1, XDATA, add(CFA_XSP16, literal(-3)))
        CFI (cfiCond357) DPL0 load(1, XDATA, add(CFA_XSP16, literal(-2)))
        CFI (cfiCond357) DPH0 load(1, XDATA, add(CFA_XSP16, literal(-1)))
        CFI (cfiCond357) CFA_SP SP+0
        CFI (cfiCond357) CFA_XSP16 add(XSP16, 49)
        CFI Block cfiCond358 Using cfiCommon0
        CFI (cfiCond358) NoFunction
        CFI (cfiCond358) Conditional ??CrossCallReturnLabel_225, ??CrossCallReturnLabel_169
        CFI (cfiCond358) R6 load(1, XDATA, add(CFA_XSP16, literal(-10)))
        CFI (cfiCond358) VB load(1, XDATA, add(CFA_XSP16, literal(-9)))
        CFI (cfiCond358) V0 load(1, XDATA, add(CFA_XSP16, literal(-8)))
        CFI (cfiCond358) V1 load(1, XDATA, add(CFA_XSP16, literal(-7)))
        CFI (cfiCond358) R7 load(1, XDATA, add(CFA_XSP16, literal(-6)))
        CFI (cfiCond358) ?RET_LOW load(1, XDATA, add(CFA_XSP16, literal(-5)))
        CFI (cfiCond358) ?RET_HIGH load(1, XDATA, add(CFA_XSP16, literal(-4)))
        CFI (cfiCond358) ?BRET_EXT load(1, XDATA, add(CFA_XSP16, literal(-3)))
        CFI (cfiCond358) DPL0 load(1, XDATA, add(CFA_XSP16, literal(-2)))
        CFI (cfiCond358) DPH0 load(1, XDATA, add(CFA_XSP16, literal(-1)))
        CFI (cfiCond358) CFA_SP SP+0
        CFI (cfiCond358) CFA_XSP16 add(XSP16, 49)
        CFI Block cfiCond359 Using cfiCommon0
        CFI (cfiCond359) NoFunction
        CFI (cfiCond359) Conditional ??CrossCallReturnLabel_225, ??CrossCallReturnLabel_170
        CFI (cfiCond359) R6 load(1, XDATA, add(CFA_XSP16, literal(-10)))
        CFI (cfiCond359) VB load(1, XDATA, add(CFA_XSP16, literal(-9)))
        CFI (cfiCond359) V0 load(1, XDATA, add(CFA_XSP16, literal(-8)))
        CFI (cfiCond359) V1 load(1, XDATA, add(CFA_XSP16, literal(-7)))
        CFI (cfiCond359) R7 load(1, XDATA, add(CFA_XSP16, literal(-6)))
        CFI (cfiCond359) ?RET_LOW load(1, XDATA, add(CFA_XSP16, literal(-5)))
        CFI (cfiCond359) ?RET_HIGH load(1, XDATA, add(CFA_XSP16, literal(-4)))
        CFI (cfiCond359) ?BRET_EXT load(1, XDATA, add(CFA_XSP16, literal(-3)))
        CFI (cfiCond359) DPL0 load(1, XDATA, add(CFA_XSP16, literal(-2)))
        CFI (cfiCond359) DPH0 load(1, XDATA, add(CFA_XSP16, literal(-1)))
        CFI (cfiCond359) CFA_SP SP+0
        CFI (cfiCond359) CFA_XSP16 add(XSP16, 49)
        CFI Block cfiCond360 Using cfiCommon0
        CFI (cfiCond360) NoFunction
        CFI (cfiCond360) Conditional ??CrossCallReturnLabel_225, ??CrossCallReturnLabel_171
        CFI (cfiCond360) R6 load(1, XDATA, add(CFA_XSP16, literal(-10)))
        CFI (cfiCond360) VB load(1, XDATA, add(CFA_XSP16, literal(-9)))
        CFI (cfiCond360) V0 load(1, XDATA, add(CFA_XSP16, literal(-8)))
        CFI (cfiCond360) V1 load(1, XDATA, add(CFA_XSP16, literal(-7)))
        CFI (cfiCond360) R7 load(1, XDATA, add(CFA_XSP16, literal(-6)))
        CFI (cfiCond360) ?RET_LOW load(1, XDATA, add(CFA_XSP16, literal(-5)))
        CFI (cfiCond360) ?RET_HIGH load(1, XDATA, add(CFA_XSP16, literal(-4)))
        CFI (cfiCond360) ?BRET_EXT load(1, XDATA, add(CFA_XSP16, literal(-3)))
        CFI (cfiCond360) DPL0 load(1, XDATA, add(CFA_XSP16, literal(-2)))
        CFI (cfiCond360) DPH0 load(1, XDATA, add(CFA_XSP16, literal(-1)))
        CFI (cfiCond360) CFA_SP SP+0
        CFI (cfiCond360) CFA_XSP16 add(XSP16, 17)
        CFI Block cfiCond361 Using cfiCommon0
        CFI (cfiCond361) NoFunction
        CFI (cfiCond361) Conditional ??CrossCallReturnLabel_225, ??CrossCallReturnLabel_172
        CFI (cfiCond361) R6 load(1, XDATA, add(CFA_XSP16, literal(-10)))
        CFI (cfiCond361) VB load(1, XDATA, add(CFA_XSP16, literal(-9)))
        CFI (cfiCond361) V0 load(1, XDATA, add(CFA_XSP16, literal(-8)))
        CFI (cfiCond361) V1 load(1, XDATA, add(CFA_XSP16, literal(-7)))
        CFI (cfiCond361) R7 load(1, XDATA, add(CFA_XSP16, literal(-6)))
        CFI (cfiCond361) ?RET_LOW load(1, XDATA, add(CFA_XSP16, literal(-5)))
        CFI (cfiCond361) ?RET_HIGH load(1, XDATA, add(CFA_XSP16, literal(-4)))
        CFI (cfiCond361) ?BRET_EXT load(1, XDATA, add(CFA_XSP16, literal(-3)))
        CFI (cfiCond361) DPL0 load(1, XDATA, add(CFA_XSP16, literal(-2)))
        CFI (cfiCond361) DPH0 load(1, XDATA, add(CFA_XSP16, literal(-1)))
        CFI (cfiCond361) CFA_SP SP+0
        CFI (cfiCond361) CFA_XSP16 add(XSP16, 23)
        CFI Block cfiCond362 Using cfiCommon0
        CFI (cfiCond362) NoFunction
        CFI (cfiCond362) Conditional ??CrossCallReturnLabel_225, ??CrossCallReturnLabel_173
        CFI (cfiCond362) DPL0 Frame(CFA_SP, 4)
        CFI (cfiCond362) DPH0 Frame(CFA_SP, 5)
        CFI (cfiCond362) CFA_SP SP+-5
        CFI (cfiCond362) CFA_XSP16 add(XSP16, 8)
        CFI Block cfiCond363 Using cfiCommon0
        CFI (cfiCond363) NoFunction
        CFI (cfiCond363) Conditional ??CrossCallReturnLabel_225, ??CrossCallReturnLabel_174
        CFI (cfiCond363) R6 load(1, XDATA, add(CFA_XSP16, literal(-12)))
        CFI (cfiCond363) VB load(1, XDATA, add(CFA_XSP16, literal(-11)))
        CFI (cfiCond363) V0 load(1, XDATA, add(CFA_XSP16, literal(-10)))
        CFI (cfiCond363) V1 load(1, XDATA, add(CFA_XSP16, literal(-9)))
        CFI (cfiCond363) V2 load(1, XDATA, add(CFA_XSP16, literal(-8)))
        CFI (cfiCond363) V3 load(1, XDATA, add(CFA_XSP16, literal(-7)))
        CFI (cfiCond363) R7 load(1, XDATA, add(CFA_XSP16, literal(-6)))
        CFI (cfiCond363) ?RET_LOW load(1, XDATA, add(CFA_XSP16, literal(-5)))
        CFI (cfiCond363) ?RET_HIGH load(1, XDATA, add(CFA_XSP16, literal(-4)))
        CFI (cfiCond363) ?BRET_EXT load(1, XDATA, add(CFA_XSP16, literal(-3)))
        CFI (cfiCond363) DPL0 load(1, XDATA, add(CFA_XSP16, literal(-2)))
        CFI (cfiCond363) DPH0 load(1, XDATA, add(CFA_XSP16, literal(-1)))
        CFI (cfiCond363) CFA_SP SP+0
        CFI (cfiCond363) CFA_XSP16 add(XSP16, 35)
        CFI Block cfiCond364 Using cfiCommon0
        CFI (cfiCond364) NoFunction
        CFI (cfiCond364) Conditional ??CrossCallReturnLabel_225, ??CrossCallReturnLabel_175
        CFI (cfiCond364) R6 load(1, XDATA, add(CFA_XSP16, literal(-12)))
        CFI (cfiCond364) VB load(1, XDATA, add(CFA_XSP16, literal(-11)))
        CFI (cfiCond364) V0 load(1, XDATA, add(CFA_XSP16, literal(-10)))
        CFI (cfiCond364) V1 load(1, XDATA, add(CFA_XSP16, literal(-9)))
        CFI (cfiCond364) V2 load(1, XDATA, add(CFA_XSP16, literal(-8)))
        CFI (cfiCond364) V3 load(1, XDATA, add(CFA_XSP16, literal(-7)))
        CFI (cfiCond364) R7 load(1, XDATA, add(CFA_XSP16, literal(-6)))
        CFI (cfiCond364) ?RET_LOW load(1, XDATA, add(CFA_XSP16, literal(-5)))
        CFI (cfiCond364) ?RET_HIGH load(1, XDATA, add(CFA_XSP16, literal(-4)))
        CFI (cfiCond364) ?BRET_EXT load(1, XDATA, add(CFA_XSP16, literal(-3)))
        CFI (cfiCond364) DPL0 load(1, XDATA, add(CFA_XSP16, literal(-2)))
        CFI (cfiCond364) DPH0 load(1, XDATA, add(CFA_XSP16, literal(-1)))
        CFI (cfiCond364) CFA_SP SP+0
        CFI (cfiCond364) CFA_XSP16 add(XSP16, 29)
        CFI Block cfiCond365 Using cfiCommon0
        CFI (cfiCond365) NoFunction
        CFI (cfiCond365) Conditional ??CrossCallReturnLabel_225, ??CrossCallReturnLabel_176
        CFI (cfiCond365) R6 load(1, XDATA, add(CFA_XSP16, literal(-12)))
        CFI (cfiCond365) VB load(1, XDATA, add(CFA_XSP16, literal(-11)))
        CFI (cfiCond365) V0 load(1, XDATA, add(CFA_XSP16, literal(-10)))
        CFI (cfiCond365) V1 load(1, XDATA, add(CFA_XSP16, literal(-9)))
        CFI (cfiCond365) V2 load(1, XDATA, add(CFA_XSP16, literal(-8)))
        CFI (cfiCond365) V3 load(1, XDATA, add(CFA_XSP16, literal(-7)))
        CFI (cfiCond365) R7 load(1, XDATA, add(CFA_XSP16, literal(-6)))
        CFI (cfiCond365) ?RET_LOW load(1, XDATA, add(CFA_XSP16, literal(-5)))
        CFI (cfiCond365) ?RET_HIGH load(1, XDATA, add(CFA_XSP16, literal(-4)))
        CFI (cfiCond365) ?BRET_EXT load(1, XDATA, add(CFA_XSP16, literal(-3)))
        CFI (cfiCond365) DPL0 load(1, XDATA, add(CFA_XSP16, literal(-2)))
        CFI (cfiCond365) DPH0 load(1, XDATA, add(CFA_XSP16, literal(-1)))
        CFI (cfiCond365) CFA_SP SP+0
        CFI (cfiCond365) CFA_XSP16 add(XSP16, 29)
        CFI Block cfiCond366 Using cfiCommon0
        CFI (cfiCond366) NoFunction
        CFI (cfiCond366) Conditional ??CrossCallReturnLabel_225, ??CrossCallReturnLabel_177
        CFI (cfiCond366) R6 load(1, XDATA, add(CFA_XSP16, literal(-12)))
        CFI (cfiCond366) VB load(1, XDATA, add(CFA_XSP16, literal(-11)))
        CFI (cfiCond366) V0 load(1, XDATA, add(CFA_XSP16, literal(-10)))
        CFI (cfiCond366) V1 load(1, XDATA, add(CFA_XSP16, literal(-9)))
        CFI (cfiCond366) V2 load(1, XDATA, add(CFA_XSP16, literal(-8)))
        CFI (cfiCond366) V3 load(1, XDATA, add(CFA_XSP16, literal(-7)))
        CFI (cfiCond366) R7 load(1, XDATA, add(CFA_XSP16, literal(-6)))
        CFI (cfiCond366) ?RET_LOW load(1, XDATA, add(CFA_XSP16, literal(-5)))
        CFI (cfiCond366) ?RET_HIGH load(1, XDATA, add(CFA_XSP16, literal(-4)))
        CFI (cfiCond366) ?BRET_EXT load(1, XDATA, add(CFA_XSP16, literal(-3)))
        CFI (cfiCond366) DPL0 load(1, XDATA, add(CFA_XSP16, literal(-2)))
        CFI (cfiCond366) DPH0 load(1, XDATA, add(CFA_XSP16, literal(-1)))
        CFI (cfiCond366) CFA_SP SP+0
        CFI (cfiCond366) CFA_XSP16 add(XSP16, 32)
        CFI Block cfiCond367 Using cfiCommon0
        CFI (cfiCond367) NoFunction
        CFI (cfiCond367) Conditional ??CrossCallReturnLabel_225, ??CrossCallReturnLabel_178
        CFI (cfiCond367) R6 load(1, XDATA, add(CFA_XSP16, literal(-12)))
        CFI (cfiCond367) VB load(1, XDATA, add(CFA_XSP16, literal(-11)))
        CFI (cfiCond367) V0 load(1, XDATA, add(CFA_XSP16, literal(-10)))
        CFI (cfiCond367) V1 load(1, XDATA, add(CFA_XSP16, literal(-9)))
        CFI (cfiCond367) V2 load(1, XDATA, add(CFA_XSP16, literal(-8)))
        CFI (cfiCond367) V3 load(1, XDATA, add(CFA_XSP16, literal(-7)))
        CFI (cfiCond367) R7 load(1, XDATA, add(CFA_XSP16, literal(-6)))
        CFI (cfiCond367) ?RET_LOW load(1, XDATA, add(CFA_XSP16, literal(-5)))
        CFI (cfiCond367) ?RET_HIGH load(1, XDATA, add(CFA_XSP16, literal(-4)))
        CFI (cfiCond367) ?BRET_EXT load(1, XDATA, add(CFA_XSP16, literal(-3)))
        CFI (cfiCond367) DPL0 load(1, XDATA, add(CFA_XSP16, literal(-2)))
        CFI (cfiCond367) DPH0 load(1, XDATA, add(CFA_XSP16, literal(-1)))
        CFI (cfiCond367) CFA_SP SP+0
        CFI (cfiCond367) CFA_XSP16 add(XSP16, 16)
        CFI Block cfiCond368 Using cfiCommon0
        CFI (cfiCond368) NoFunction
        CFI (cfiCond368) Conditional ??CrossCallReturnLabel_226, ??CrossCallReturnLabel_215
        CFI (cfiCond368) R6 load(1, XDATA, add(CFA_XSP16, literal(-10)))
        CFI (cfiCond368) VB load(1, XDATA, add(CFA_XSP16, literal(-9)))
        CFI (cfiCond368) V0 load(1, XDATA, add(CFA_XSP16, literal(-8)))
        CFI (cfiCond368) V1 load(1, XDATA, add(CFA_XSP16, literal(-7)))
        CFI (cfiCond368) R7 load(1, XDATA, add(CFA_XSP16, literal(-6)))
        CFI (cfiCond368) ?RET_LOW load(1, XDATA, add(CFA_XSP16, literal(-5)))
        CFI (cfiCond368) ?RET_HIGH load(1, XDATA, add(CFA_XSP16, literal(-4)))
        CFI (cfiCond368) ?BRET_EXT load(1, XDATA, add(CFA_XSP16, literal(-3)))
        CFI (cfiCond368) DPL0 load(1, XDATA, add(CFA_XSP16, literal(-2)))
        CFI (cfiCond368) DPH0 load(1, XDATA, add(CFA_XSP16, literal(-1)))
        CFI (cfiCond368) CFA_SP SP+0
        CFI (cfiCond368) CFA_XSP16 add(XSP16, 23)
        CFI Block cfiCond369 Using cfiCommon0
        CFI (cfiCond369) NoFunction
        CFI (cfiCond369) Conditional ??CrossCallReturnLabel_226, ??CrossCallReturnLabel_216
        CFI (cfiCond369) R6 load(1, XDATA, add(CFA_XSP16, literal(-10)))
        CFI (cfiCond369) VB load(1, XDATA, add(CFA_XSP16, literal(-9)))
        CFI (cfiCond369) V0 load(1, XDATA, add(CFA_XSP16, literal(-8)))
        CFI (cfiCond369) V1 load(1, XDATA, add(CFA_XSP16, literal(-7)))
        CFI (cfiCond369) R7 load(1, XDATA, add(CFA_XSP16, literal(-6)))
        CFI (cfiCond369) ?RET_LOW load(1, XDATA, add(CFA_XSP16, literal(-5)))
        CFI (cfiCond369) ?RET_HIGH load(1, XDATA, add(CFA_XSP16, literal(-4)))
        CFI (cfiCond369) ?BRET_EXT load(1, XDATA, add(CFA_XSP16, literal(-3)))
        CFI (cfiCond369) DPL0 load(1, XDATA, add(CFA_XSP16, literal(-2)))
        CFI (cfiCond369) DPH0 load(1, XDATA, add(CFA_XSP16, literal(-1)))
        CFI (cfiCond369) CFA_SP SP+0
        CFI (cfiCond369) CFA_XSP16 add(XSP16, 23)
        CFI Block cfiCond370 Using cfiCommon0
        CFI (cfiCond370) NoFunction
        CFI (cfiCond370) Conditional ??CrossCallReturnLabel_226, ??CrossCallReturnLabel_217
        CFI (cfiCond370) R6 load(1, XDATA, add(CFA_XSP16, literal(-10)))
        CFI (cfiCond370) VB load(1, XDATA, add(CFA_XSP16, literal(-9)))
        CFI (cfiCond370) V0 load(1, XDATA, add(CFA_XSP16, literal(-8)))
        CFI (cfiCond370) V1 load(1, XDATA, add(CFA_XSP16, literal(-7)))
        CFI (cfiCond370) R7 load(1, XDATA, add(CFA_XSP16, literal(-6)))
        CFI (cfiCond370) ?RET_LOW load(1, XDATA, add(CFA_XSP16, literal(-5)))
        CFI (cfiCond370) ?RET_HIGH load(1, XDATA, add(CFA_XSP16, literal(-4)))
        CFI (cfiCond370) ?BRET_EXT load(1, XDATA, add(CFA_XSP16, literal(-3)))
        CFI (cfiCond370) DPL0 load(1, XDATA, add(CFA_XSP16, literal(-2)))
        CFI (cfiCond370) DPH0 load(1, XDATA, add(CFA_XSP16, literal(-1)))
        CFI (cfiCond370) CFA_SP SP+0
        CFI (cfiCond370) CFA_XSP16 add(XSP16, 49)
        CFI Block cfiCond371 Using cfiCommon0
        CFI (cfiCond371) NoFunction
        CFI (cfiCond371) Conditional ??CrossCallReturnLabel_226, ??CrossCallReturnLabel_218
        CFI (cfiCond371) R6 load(1, XDATA, add(CFA_XSP16, literal(-12)))
        CFI (cfiCond371) VB load(1, XDATA, add(CFA_XSP16, literal(-11)))
        CFI (cfiCond371) V0 load(1, XDATA, add(CFA_XSP16, literal(-10)))
        CFI (cfiCond371) V1 load(1, XDATA, add(CFA_XSP16, literal(-9)))
        CFI (cfiCond371) V2 load(1, XDATA, add(CFA_XSP16, literal(-8)))
        CFI (cfiCond371) V3 load(1, XDATA, add(CFA_XSP16, literal(-7)))
        CFI (cfiCond371) R7 load(1, XDATA, add(CFA_XSP16, literal(-6)))
        CFI (cfiCond371) ?RET_LOW load(1, XDATA, add(CFA_XSP16, literal(-5)))
        CFI (cfiCond371) ?RET_HIGH load(1, XDATA, add(CFA_XSP16, literal(-4)))
        CFI (cfiCond371) ?BRET_EXT load(1, XDATA, add(CFA_XSP16, literal(-3)))
        CFI (cfiCond371) DPL0 load(1, XDATA, add(CFA_XSP16, literal(-2)))
        CFI (cfiCond371) DPH0 load(1, XDATA, add(CFA_XSP16, literal(-1)))
        CFI (cfiCond371) CFA_SP SP+0
        CFI (cfiCond371) CFA_XSP16 add(XSP16, 35)
        CFI Block cfiCond372 Using cfiCommon0
        CFI (cfiCond372) NoFunction
        CFI (cfiCond372) Conditional ??CrossCallReturnLabel_226, ??CrossCallReturnLabel_219
        CFI (cfiCond372) R6 load(1, XDATA, add(CFA_XSP16, literal(-10)))
        CFI (cfiCond372) VB load(1, XDATA, add(CFA_XSP16, literal(-9)))
        CFI (cfiCond372) V0 load(1, XDATA, add(CFA_XSP16, literal(-8)))
        CFI (cfiCond372) V1 load(1, XDATA, add(CFA_XSP16, literal(-7)))
        CFI (cfiCond372) R7 load(1, XDATA, add(CFA_XSP16, literal(-6)))
        CFI (cfiCond372) ?RET_LOW load(1, XDATA, add(CFA_XSP16, literal(-5)))
        CFI (cfiCond372) ?RET_HIGH load(1, XDATA, add(CFA_XSP16, literal(-4)))
        CFI (cfiCond372) ?BRET_EXT load(1, XDATA, add(CFA_XSP16, literal(-3)))
        CFI (cfiCond372) DPL0 load(1, XDATA, add(CFA_XSP16, literal(-2)))
        CFI (cfiCond372) DPH0 load(1, XDATA, add(CFA_XSP16, literal(-1)))
        CFI (cfiCond372) CFA_SP SP+0
        CFI (cfiCond372) CFA_XSP16 add(XSP16, 33)
        CFI Block cfiCond373 Using cfiCommon0
        CFI (cfiCond373) NoFunction
        CFI (cfiCond373) Conditional ??CrossCallReturnLabel_226, ??CrossCallReturnLabel_220
        CFI (cfiCond373) R6 load(1, XDATA, add(CFA_XSP16, literal(-10)))
        CFI (cfiCond373) VB load(1, XDATA, add(CFA_XSP16, literal(-9)))
        CFI (cfiCond373) V0 load(1, XDATA, add(CFA_XSP16, literal(-8)))
        CFI (cfiCond373) V1 load(1, XDATA, add(CFA_XSP16, literal(-7)))
        CFI (cfiCond373) R7 load(1, XDATA, add(CFA_XSP16, literal(-6)))
        CFI (cfiCond373) ?RET_LOW load(1, XDATA, add(CFA_XSP16, literal(-5)))
        CFI (cfiCond373) ?RET_HIGH load(1, XDATA, add(CFA_XSP16, literal(-4)))
        CFI (cfiCond373) ?BRET_EXT load(1, XDATA, add(CFA_XSP16, literal(-3)))
        CFI (cfiCond373) DPL0 load(1, XDATA, add(CFA_XSP16, literal(-2)))
        CFI (cfiCond373) DPH0 load(1, XDATA, add(CFA_XSP16, literal(-1)))
        CFI (cfiCond373) CFA_SP SP+0
        CFI (cfiCond373) CFA_XSP16 add(XSP16, 33)
        CFI Block cfiPicker374 Using cfiCommon1
        CFI (cfiPicker374) NoFunction
        CFI (cfiPicker374) Picker
        MOV     A,R0
        MOVX    @DPTR,A
        INC     DPTR
        MOV     A,R1
        MOVX    @DPTR,A
        RET
        CFI EndBlock cfiCond336
        CFI EndBlock cfiCond337
        CFI EndBlock cfiCond338
        CFI EndBlock cfiCond339
        CFI EndBlock cfiCond340
        CFI EndBlock cfiCond341
        CFI EndBlock cfiCond342
        CFI EndBlock cfiCond343
        CFI EndBlock cfiCond344
        CFI EndBlock cfiCond345
        CFI EndBlock cfiCond346
        CFI EndBlock cfiCond347
        CFI EndBlock cfiCond348
        CFI EndBlock cfiCond349
        CFI EndBlock cfiCond350
        CFI EndBlock cfiCond351
        CFI EndBlock cfiCond352
        CFI EndBlock cfiCond353
        CFI EndBlock cfiCond354
        CFI EndBlock cfiCond355
        CFI EndBlock cfiCond356
        CFI EndBlock cfiCond357
        CFI EndBlock cfiCond358
        CFI EndBlock cfiCond359
        CFI EndBlock cfiCond360
        CFI EndBlock cfiCond361
        CFI EndBlock cfiCond362
        CFI EndBlock cfiCond363
        CFI EndBlock cfiCond364
        CFI EndBlock cfiCond365
        CFI EndBlock cfiCond366
        CFI EndBlock cfiCond367
        CFI EndBlock cfiCond368
        CFI EndBlock cfiCond369
        CFI EndBlock cfiCond370
        CFI EndBlock cfiCond371
        CFI EndBlock cfiCond372
        CFI EndBlock cfiCond373
        CFI EndBlock cfiPicker374

        RSEG BANKED_CODE:CODE:NOROOT(0)
?Subroutine17:
        CFI Block cfiCond375 Using cfiCommon0
        CFI NoFunction
        CFI Conditional ??CrossCallReturnLabel_183
        CFI R6 load(1, XDATA, add(CFA_XSP16, literal(-10)))
        CFI VB load(1, XDATA, add(CFA_XSP16, literal(-9)))
        CFI V0 load(1, XDATA, add(CFA_XSP16, literal(-8)))
        CFI V1 load(1, XDATA, add(CFA_XSP16, literal(-7)))
        CFI R7 load(1, XDATA, add(CFA_XSP16, literal(-6)))
        CFI ?RET_LOW load(1, XDATA, add(CFA_XSP16, literal(-5)))
        CFI ?RET_HIGH load(1, XDATA, add(CFA_XSP16, literal(-4)))
        CFI ?BRET_EXT load(1, XDATA, add(CFA_XSP16, literal(-3)))
        CFI DPL0 load(1, XDATA, add(CFA_XSP16, literal(-2)))
        CFI DPH0 load(1, XDATA, add(CFA_XSP16, literal(-1)))
        CFI CFA_SP SP+0
        CFI CFA_XSP16 add(XSP16, 23)
        CFI Block cfiCond376 Using cfiCommon0
        CFI (cfiCond376) NoFunction
        CFI (cfiCond376) Conditional ??CrossCallReturnLabel_184
        CFI (cfiCond376) R6 load(1, XDATA, add(CFA_XSP16, literal(-9)))
        CFI (cfiCond376) VB load(1, XDATA, add(CFA_XSP16, literal(-8)))
        CFI (cfiCond376) V0 load(1, XDATA, add(CFA_XSP16, literal(-7)))
        CFI (cfiCond376) R7 load(1, XDATA, add(CFA_XSP16, literal(-6)))
        CFI (cfiCond376) ?RET_LOW load(1, XDATA, add(CFA_XSP16, literal(-5)))
        CFI (cfiCond376) ?RET_HIGH load(1, XDATA, add(CFA_XSP16, literal(-4)))
        CFI (cfiCond376) ?BRET_EXT load(1, XDATA, add(CFA_XSP16, literal(-3)))
        CFI (cfiCond376) DPL0 load(1, XDATA, add(CFA_XSP16, literal(-2)))
        CFI (cfiCond376) DPH0 load(1, XDATA, add(CFA_XSP16, literal(-1)))
        CFI (cfiCond376) CFA_SP SP+0
        CFI (cfiCond376) CFA_XSP16 add(XSP16, 22)
        CFI Block cfiPicker377 Using cfiCommon1
        CFI (cfiPicker377) NoFunction
        CFI (cfiPicker377) Picker
        MOV     A,R2
        MOVX    @DPTR,A
        INC     DPTR
        MOV     A,R3
        CFI EndBlock cfiCond375
        CFI EndBlock cfiCond376
        CFI EndBlock cfiPicker377
        REQUIRE ??Subroutine94_0
        ; // Fall through to label ??Subroutine94_0

        RSEG BANKED_CODE:CODE:NOROOT(0)
??Subroutine94_0:
        CFI Block cfiCond378 Using cfiCommon0
        CFI NoFunction
        CFI Conditional ??CrossCallReturnLabel_185
        CFI R6 load(1, XDATA, add(CFA_XSP16, literal(-10)))
        CFI VB load(1, XDATA, add(CFA_XSP16, literal(-9)))
        CFI V0 load(1, XDATA, add(CFA_XSP16, literal(-8)))
        CFI V1 load(1, XDATA, add(CFA_XSP16, literal(-7)))
        CFI R7 load(1, XDATA, add(CFA_XSP16, literal(-6)))
        CFI ?RET_LOW load(1, XDATA, add(CFA_XSP16, literal(-5)))
        CFI ?RET_HIGH load(1, XDATA, add(CFA_XSP16, literal(-4)))
        CFI ?BRET_EXT load(1, XDATA, add(CFA_XSP16, literal(-3)))
        CFI DPL0 load(1, XDATA, add(CFA_XSP16, literal(-2)))
        CFI DPH0 load(1, XDATA, add(CFA_XSP16, literal(-1)))
        CFI CFA_SP SP+0
        CFI CFA_XSP16 add(XSP16, 17)
        CFI Block cfiCond379 Using cfiCommon0
        CFI (cfiCond379) NoFunction
        CFI (cfiCond379) Conditional ??CrossCallReturnLabel_186
        CFI (cfiCond379) R6 load(1, XDATA, add(CFA_XSP16, literal(-9)))
        CFI (cfiCond379) VB load(1, XDATA, add(CFA_XSP16, literal(-8)))
        CFI (cfiCond379) V0 load(1, XDATA, add(CFA_XSP16, literal(-7)))
        CFI (cfiCond379) R7 load(1, XDATA, add(CFA_XSP16, literal(-6)))
        CFI (cfiCond379) ?RET_LOW load(1, XDATA, add(CFA_XSP16, literal(-5)))
        CFI (cfiCond379) ?RET_HIGH load(1, XDATA, add(CFA_XSP16, literal(-4)))
        CFI (cfiCond379) ?BRET_EXT load(1, XDATA, add(CFA_XSP16, literal(-3)))
        CFI (cfiCond379) DPL0 load(1, XDATA, add(CFA_XSP16, literal(-2)))
        CFI (cfiCond379) DPH0 load(1, XDATA, add(CFA_XSP16, literal(-1)))
        CFI (cfiCond379) CFA_SP SP+0
        CFI (cfiCond379) CFA_XSP16 add(XSP16, 22)
        CFI Block cfiCond380 Using cfiCommon0
        CFI (cfiCond380) NoFunction
        CFI (cfiCond380) Conditional ??CrossCallReturnLabel_187
        CFI (cfiCond380) R6 load(1, XDATA, add(CFA_XSP16, literal(-10)))
        CFI (cfiCond380) VB load(1, XDATA, add(CFA_XSP16, literal(-9)))
        CFI (cfiCond380) V0 load(1, XDATA, add(CFA_XSP16, literal(-8)))
        CFI (cfiCond380) V1 load(1, XDATA, add(CFA_XSP16, literal(-7)))
        CFI (cfiCond380) R7 load(1, XDATA, add(CFA_XSP16, literal(-6)))
        CFI (cfiCond380) ?RET_LOW load(1, XDATA, add(CFA_XSP16, literal(-5)))
        CFI (cfiCond380) ?RET_HIGH load(1, XDATA, add(CFA_XSP16, literal(-4)))
        CFI (cfiCond380) ?BRET_EXT load(1, XDATA, add(CFA_XSP16, literal(-3)))
        CFI (cfiCond380) DPL0 load(1, XDATA, add(CFA_XSP16, literal(-2)))
        CFI (cfiCond380) DPH0 load(1, XDATA, add(CFA_XSP16, literal(-1)))
        CFI (cfiCond380) CFA_SP SP+0
        CFI (cfiCond380) CFA_XSP16 add(XSP16, 19)
        CFI Block cfiCond381 Using cfiCommon0
        CFI (cfiCond381) NoFunction
        CFI (cfiCond381) Conditional ??CrossCallReturnLabel_188
        CFI (cfiCond381) DPL0 Frame(CFA_SP, 4)
        CFI (cfiCond381) DPH0 Frame(CFA_SP, 5)
        CFI (cfiCond381) CFA_SP SP+-5
        CFI (cfiCond381) CFA_XSP16 add(XSP16, 8)
        CFI Block cfiCond382 Using cfiCommon0
        CFI (cfiCond382) NoFunction
        CFI (cfiCond382) Conditional ??CrossCallReturnLabel_189
        CFI (cfiCond382) R6 load(1, XDATA, add(CFA_XSP16, literal(-9)))
        CFI (cfiCond382) VB load(1, XDATA, add(CFA_XSP16, literal(-8)))
        CFI (cfiCond382) V0 load(1, XDATA, add(CFA_XSP16, literal(-7)))
        CFI (cfiCond382) R7 load(1, XDATA, add(CFA_XSP16, literal(-6)))
        CFI (cfiCond382) ?RET_LOW load(1, XDATA, add(CFA_XSP16, literal(-5)))
        CFI (cfiCond382) ?RET_HIGH load(1, XDATA, add(CFA_XSP16, literal(-4)))
        CFI (cfiCond382) ?BRET_EXT load(1, XDATA, add(CFA_XSP16, literal(-3)))
        CFI (cfiCond382) DPL0 load(1, XDATA, add(CFA_XSP16, literal(-2)))
        CFI (cfiCond382) DPH0 load(1, XDATA, add(CFA_XSP16, literal(-1)))
        CFI (cfiCond382) CFA_SP SP+0
        CFI (cfiCond382) CFA_XSP16 add(XSP16, 16)
        CFI Block cfiCond383 Using cfiCommon0
        CFI (cfiCond383) NoFunction
        CFI (cfiCond383) Conditional ??CrossCallReturnLabel_190
        CFI (cfiCond383) R6 load(1, XDATA, add(CFA_XSP16, literal(-12)))
        CFI (cfiCond383) VB load(1, XDATA, add(CFA_XSP16, literal(-11)))
        CFI (cfiCond383) V0 load(1, XDATA, add(CFA_XSP16, literal(-10)))
        CFI (cfiCond383) V1 load(1, XDATA, add(CFA_XSP16, literal(-9)))
        CFI (cfiCond383) V2 load(1, XDATA, add(CFA_XSP16, literal(-8)))
        CFI (cfiCond383) V3 load(1, XDATA, add(CFA_XSP16, literal(-7)))
        CFI (cfiCond383) R7 load(1, XDATA, add(CFA_XSP16, literal(-6)))
        CFI (cfiCond383) ?RET_LOW load(1, XDATA, add(CFA_XSP16, literal(-5)))
        CFI (cfiCond383) ?RET_HIGH load(1, XDATA, add(CFA_XSP16, literal(-4)))
        CFI (cfiCond383) ?BRET_EXT load(1, XDATA, add(CFA_XSP16, literal(-3)))
        CFI (cfiCond383) DPL0 load(1, XDATA, add(CFA_XSP16, literal(-2)))
        CFI (cfiCond383) DPH0 load(1, XDATA, add(CFA_XSP16, literal(-1)))
        CFI (cfiCond383) CFA_SP SP+0
        CFI (cfiCond383) CFA_XSP16 add(XSP16, 35)
        CFI Block cfiCond384 Using cfiCommon0
        CFI (cfiCond384) NoFunction
        CFI (cfiCond384) Conditional ??CrossCallReturnLabel_191
        CFI (cfiCond384) R6 load(1, XDATA, add(CFA_XSP16, literal(-12)))
        CFI (cfiCond384) VB load(1, XDATA, add(CFA_XSP16, literal(-11)))
        CFI (cfiCond384) V0 load(1, XDATA, add(CFA_XSP16, literal(-10)))
        CFI (cfiCond384) V1 load(1, XDATA, add(CFA_XSP16, literal(-9)))
        CFI (cfiCond384) V2 load(1, XDATA, add(CFA_XSP16, literal(-8)))
        CFI (cfiCond384) V3 load(1, XDATA, add(CFA_XSP16, literal(-7)))
        CFI (cfiCond384) R7 load(1, XDATA, add(CFA_XSP16, literal(-6)))
        CFI (cfiCond384) ?RET_LOW load(1, XDATA, add(CFA_XSP16, literal(-5)))
        CFI (cfiCond384) ?RET_HIGH load(1, XDATA, add(CFA_XSP16, literal(-4)))
        CFI (cfiCond384) ?BRET_EXT load(1, XDATA, add(CFA_XSP16, literal(-3)))
        CFI (cfiCond384) DPL0 load(1, XDATA, add(CFA_XSP16, literal(-2)))
        CFI (cfiCond384) DPH0 load(1, XDATA, add(CFA_XSP16, literal(-1)))
        CFI (cfiCond384) CFA_SP SP+0
        CFI (cfiCond384) CFA_XSP16 add(XSP16, 29)
        CFI Block cfiCond385 Using cfiCommon0
        CFI (cfiCond385) NoFunction
        CFI (cfiCond385) Conditional ??CrossCallReturnLabel_192
        CFI (cfiCond385) R6 load(1, XDATA, add(CFA_XSP16, literal(-9)))
        CFI (cfiCond385) VB load(1, XDATA, add(CFA_XSP16, literal(-8)))
        CFI (cfiCond385) V0 load(1, XDATA, add(CFA_XSP16, literal(-7)))
        CFI (cfiCond385) R7 load(1, XDATA, add(CFA_XSP16, literal(-6)))
        CFI (cfiCond385) ?RET_LOW load(1, XDATA, add(CFA_XSP16, literal(-5)))
        CFI (cfiCond385) ?RET_HIGH load(1, XDATA, add(CFA_XSP16, literal(-4)))
        CFI (cfiCond385) ?BRET_EXT load(1, XDATA, add(CFA_XSP16, literal(-3)))
        CFI (cfiCond385) DPL0 load(1, XDATA, add(CFA_XSP16, literal(-2)))
        CFI (cfiCond385) DPH0 load(1, XDATA, add(CFA_XSP16, literal(-1)))
        CFI (cfiCond385) CFA_SP SP+0
        CFI (cfiCond385) CFA_XSP16 add(XSP16, 19)
        CFI Block cfiCond386 Using cfiCommon0
        CFI (cfiCond386) NoFunction
        CFI (cfiCond386) Conditional ??CrossCallReturnLabel_193
        CFI (cfiCond386) R6 load(1, XDATA, add(CFA_XSP16, literal(-9)))
        CFI (cfiCond386) VB load(1, XDATA, add(CFA_XSP16, literal(-8)))
        CFI (cfiCond386) V0 load(1, XDATA, add(CFA_XSP16, literal(-7)))
        CFI (cfiCond386) R7 load(1, XDATA, add(CFA_XSP16, literal(-6)))
        CFI (cfiCond386) ?RET_LOW load(1, XDATA, add(CFA_XSP16, literal(-5)))
        CFI (cfiCond386) ?RET_HIGH load(1, XDATA, add(CFA_XSP16, literal(-4)))
        CFI (cfiCond386) ?BRET_EXT load(1, XDATA, add(CFA_XSP16, literal(-3)))
        CFI (cfiCond386) DPL0 load(1, XDATA, add(CFA_XSP16, literal(-2)))
        CFI (cfiCond386) DPH0 load(1, XDATA, add(CFA_XSP16, literal(-1)))
        CFI (cfiCond386) CFA_SP SP+0
        CFI (cfiCond386) CFA_XSP16 add(XSP16, 12)
        CFI Block cfiCond387 Using cfiCommon0
        CFI (cfiCond387) NoFunction
        CFI (cfiCond387) Conditional ??CrossCallReturnLabel_183
        CFI (cfiCond387) R6 load(1, XDATA, add(CFA_XSP16, literal(-10)))
        CFI (cfiCond387) VB load(1, XDATA, add(CFA_XSP16, literal(-9)))
        CFI (cfiCond387) V0 load(1, XDATA, add(CFA_XSP16, literal(-8)))
        CFI (cfiCond387) V1 load(1, XDATA, add(CFA_XSP16, literal(-7)))
        CFI (cfiCond387) R7 load(1, XDATA, add(CFA_XSP16, literal(-6)))
        CFI (cfiCond387) ?RET_LOW load(1, XDATA, add(CFA_XSP16, literal(-5)))
        CFI (cfiCond387) ?RET_HIGH load(1, XDATA, add(CFA_XSP16, literal(-4)))
        CFI (cfiCond387) ?BRET_EXT load(1, XDATA, add(CFA_XSP16, literal(-3)))
        CFI (cfiCond387) DPL0 load(1, XDATA, add(CFA_XSP16, literal(-2)))
        CFI (cfiCond387) DPH0 load(1, XDATA, add(CFA_XSP16, literal(-1)))
        CFI (cfiCond387) CFA_SP SP+0
        CFI (cfiCond387) CFA_XSP16 add(XSP16, 23)
        CFI Block cfiCond388 Using cfiCommon0
        CFI (cfiCond388) NoFunction
        CFI (cfiCond388) Conditional ??CrossCallReturnLabel_184
        CFI (cfiCond388) R6 load(1, XDATA, add(CFA_XSP16, literal(-9)))
        CFI (cfiCond388) VB load(1, XDATA, add(CFA_XSP16, literal(-8)))
        CFI (cfiCond388) V0 load(1, XDATA, add(CFA_XSP16, literal(-7)))
        CFI (cfiCond388) R7 load(1, XDATA, add(CFA_XSP16, literal(-6)))
        CFI (cfiCond388) ?RET_LOW load(1, XDATA, add(CFA_XSP16, literal(-5)))
        CFI (cfiCond388) ?RET_HIGH load(1, XDATA, add(CFA_XSP16, literal(-4)))
        CFI (cfiCond388) ?BRET_EXT load(1, XDATA, add(CFA_XSP16, literal(-3)))
        CFI (cfiCond388) DPL0 load(1, XDATA, add(CFA_XSP16, literal(-2)))
        CFI (cfiCond388) DPH0 load(1, XDATA, add(CFA_XSP16, literal(-1)))
        CFI (cfiCond388) CFA_SP SP+0
        CFI (cfiCond388) CFA_XSP16 add(XSP16, 22)
        CFI Block cfiPicker389 Using cfiCommon1
        CFI (cfiPicker389) NoFunction
        CFI (cfiPicker389) Picker
        LCALL   ?Subroutine72 & 0xFFFF
??CrossCallReturnLabel_194:
        RET
        CFI EndBlock cfiCond378
        CFI EndBlock cfiCond379
        CFI EndBlock cfiCond380
        CFI EndBlock cfiCond381
        CFI EndBlock cfiCond382
        CFI EndBlock cfiCond383
        CFI EndBlock cfiCond384
        CFI EndBlock cfiCond385
        CFI EndBlock cfiCond386
        CFI EndBlock cfiCond387
        CFI EndBlock cfiCond388
        CFI EndBlock cfiPicker389
// 2476 
// 2477 /******************************************************************************
// 2478  * @fn          ZDSecMgrEvent
// 2479  *
// 2480  * @brief       Handle ZDO Security Manager event/timer(ZDO_SECMGR_EVENT).
// 2481  *
// 2482  * @param       none
// 2483  *
// 2484  * @return      none
// 2485  */

        RSEG BANKED_CODE:CODE:NOROOT(0)
// 2486 void ZDSecMgrEvent( void )
ZDSecMgrEvent:
        CFI Block cfiBlock390 Using cfiCommon0
        CFI Function ZDSecMgrEvent
        CODE
// 2487 {
        FUNCALL ZDSecMgrEvent, AddrMgrEntryGet
        LOCFRAME ISTACK, 0, STACK
        LOCFRAME PSTACK, 0, STACK
        LOCFRAME XSTACK, 33, STACK
        LOCFRAME IOVERLAY, 0, STATIC
        LOCFRAME DOVERLAY, 0, STATIC
        ARGFRAME ISTACK, 0, STACK
        ARGFRAME PSTACK, 0, STACK
        ARGFRAME XSTACK, 33, STACK
        ARGFRAME IOVERLAY, 0, STATIC
        ARGFRAME DOVERLAY, 0, STATIC
        FUNCALL ZDSecMgrEvent, ZDSecMgrDeviceCtrlHandler
        LOCFRAME ISTACK, 0, STACK
        LOCFRAME PSTACK, 0, STACK
        LOCFRAME XSTACK, 33, STACK
        LOCFRAME IOVERLAY, 0, STATIC
        LOCFRAME DOVERLAY, 0, STATIC
        ARGFRAME ISTACK, 0, STACK
        ARGFRAME PSTACK, 0, STACK
        ARGFRAME XSTACK, 33, STACK
        ARGFRAME IOVERLAY, 0, STATIC
        ARGFRAME DOVERLAY, 0, STATIC
        FUNCALL ZDSecMgrEvent, osal_start_timerEx
        LOCFRAME ISTACK, 0, STACK
        LOCFRAME PSTACK, 0, STACK
        LOCFRAME XSTACK, 33, STACK
        LOCFRAME IOVERLAY, 0, STATIC
        LOCFRAME DOVERLAY, 0, STATIC
        ARGFRAME ISTACK, 0, STACK
        ARGFRAME PSTACK, 0, STACK
        ARGFRAME XSTACK, 33, STACK
        ARGFRAME IOVERLAY, 0, STATIC
        ARGFRAME DOVERLAY, 0, STATIC
        MOV     A,#-0xa
        LCALL   ?BANKED_ENTER_XDATA
        CFI DPH0 load(1, XDATA, add(CFA_XSP16, literal(-1)))
        CFI DPL0 load(1, XDATA, add(CFA_XSP16, literal(-2)))
        CFI ?BRET_EXT load(1, XDATA, add(CFA_XSP16, literal(-3)))
        CFI ?RET_HIGH load(1, XDATA, add(CFA_XSP16, literal(-4)))
        CFI ?RET_LOW load(1, XDATA, add(CFA_XSP16, literal(-5)))
        CFI R7 load(1, XDATA, add(CFA_XSP16, literal(-6)))
        CFI V1 load(1, XDATA, add(CFA_XSP16, literal(-7)))
        CFI V0 load(1, XDATA, add(CFA_XSP16, literal(-8)))
        CFI VB load(1, XDATA, add(CFA_XSP16, literal(-9)))
        CFI R6 load(1, XDATA, add(CFA_XSP16, literal(-10)))
        CFI CFA_SP SP+0
        CFI CFA_XSP16 add(XSP16, 10)
        ; Saved register size: 10
        ; Auto size: 23
        MOV     A,#-0x17
        LCALL   ?ALLOC_XSTACK8
        CFI CFA_XSP16 add(XSP16, 33)
// 2488   uint8            action;
// 2489   uint8            restart;
// 2490   uint16           index;
// 2491   AddrMgrEntry_t   entry;
// 2492   ZDSecMgrDevice_t device;
// 2493 
// 2494 
// 2495   // verify data is available
// 2496   if ( ZDSecMgrCtrlData != NULL )
        MOV     DPTR,#ZDSecMgrCtrlData
        LCALL   ??Subroutine97_0 & 0xFFFF
??CrossCallReturnLabel_207:
        JNZ     $+5
        LJMP    ??ZDSecMgrEvent_0 & 0xFFFF
// 2497   {
// 2498     action  = FALSE;
        MOV     ?V0 + 1,#0x0
// 2499     restart = FALSE;
        MOV     ?V0 + 0,#0x0
// 2500 
// 2501     // update all the counters
// 2502     for ( index = 0; index < ZDSECMGR_ENTRY_MAX; index++ )
        MOV     R6,#0x0
        MOV     R7,#0x0
// 2503     {
// 2504       if ( ZDSecMgrCtrlData[index].state !=  ZDSECMGR_CTRL_NONE )
??ZDSecMgrEvent_1:
        MOV     A,R6
        MOV     R0,A
        MOV     A,R7
        MOV     R1,A
        MOV     A,R0
        MOV     B,#0x7
        MUL     AB
        MOV     R0,A
        MOV     R2,B
        MOV     B,#0x7
        MOV     A,R1
        MUL     AB
        ADD     A,R2
        MOV     R1,A
        MOV     DPTR,#ZDSecMgrCtrlData
        MOVX    A,@DPTR
        ADD     A,R0
        MOV     R2,A
        INC     DPTR
        MOVX    A,@DPTR
        ADDC    A,R1
        MOV     R3,A
        MOV     DPL,R2
        MOV     DPH,R3
        INC     DPTR
        INC     DPTR
        INC     DPTR
        INC     DPTR
        INC     DPTR
        MOVX    A,@DPTR
        JNZ     $+5
        LJMP    ??ZDSecMgrEvent_2 & 0xFFFF
// 2505       {
// 2506         if ( ZDSecMgrCtrlData[index].cntr != 0 )
        MOV     A,R2
        ADD     A,#0x6
        LCALL   ?Subroutine57 & 0xFFFF
??CrossCallReturnLabel_164:
        JZ      ??ZDSecMgrEvent_3
// 2507         {
// 2508           ZDSecMgrCtrlData[index].cntr--;
        DEC     A
        MOVX    @DPTR,A
// 2509         }
// 2510 
// 2511         if ( ( action == FALSE ) && ( ZDSecMgrCtrlData[index].cntr == 0 ) )
??ZDSecMgrEvent_3:
        MOV     A,?V0 + 1
        MOV     C,0xE0 /* A   */.0
        JNC     $+5
        LJMP    ??ZDSecMgrEvent_4 & 0xFFFF
        MOV     DPTR,#ZDSecMgrCtrlData
        MOVX    A,@DPTR
        ADD     A,R0
        MOV     R0,A
        INC     DPTR
        MOVX    A,@DPTR
        ADDC    A,R1
        MOV     R1,A
        MOV     DPL,R0
        MOV     DPH,R1
        INC     DPTR
        INC     DPTR
        INC     DPTR
        INC     DPTR
        INC     DPTR
        INC     DPTR
        MOVX    A,@DPTR
        JNZ     ??ZDSecMgrEvent_4
// 2512         {
// 2513           action = TRUE;
        MOV     ?V0 + 1,#0x1
// 2514 
// 2515           // update from control data
// 2516           device.parentAddr = ZDSecMgrCtrlData[index].parentAddr;
        MOV     DPL,R0
        MOV     DPH,R1
        INC     DPTR
        INC     DPTR
        LCALL   ??Subroutine89_0 & 0xFFFF
??CrossCallReturnLabel_153:
        MOV     A,#0x4
        LCALL   ?XSTACK_DISP0_8
        LCALL   ??Subroutine86_0 & 0xFFFF
// 2517           device.secure     = ZDSecMgrCtrlData[index].secure;
??CrossCallReturnLabel_133:
        MOV     DPL,R0
        MOV     DPH,R1
        INC     DPTR
        INC     DPTR
        INC     DPTR
        INC     DPTR
        MOVX    A,@DPTR
        PUSH    A
        CFI CFA_SP SP+-1
        MOV     A,#0x6
        LCALL   ?XSTACK_DISP0_8
        POP     A
        CFI CFA_SP SP+0
        MOVX    @DPTR,A
// 2518           device.ctrl       = &ZDSecMgrCtrlData[index];
        MOV     A,#0x8
        LCALL   ?XSTACK_DISP0_8
        LCALL   ??Subroutine98_0 & 0xFFFF
// 2519 
// 2520           // set the user and address index
// 2521           entry.user  = ADDRMGR_USER_SECURITY;
??CrossCallReturnLabel_219:
        LCALL   ?XSTACK_DISP0_8
        MOV     A,#0x2
        MOVX    @DPTR,A
// 2522           entry.index = ZDSecMgrCtrlData[index].entry->ami;
        MOV     DPL,R0
        MOV     DPH,R1
        LCALL   ?Subroutine41 & 0xFFFF
??CrossCallReturnLabel_46:
        MOV     R1,A
        MOV     A,#0x15
        LCALL   ?XSTACK_DISP0_8
        LCALL   ??Subroutine98_0 & 0xFFFF
// 2523 
// 2524           // get the address data
// 2525           AddrMgrEntryGet( &entry );
??CrossCallReturnLabel_220:
        LCALL   ?XSTACK_DISP0_8
        MOV     R2,DPL
        MOV     R3,DPH
        LCALL   ??AddrMgrEntryGet?relay
// 2526 
// 2527           // set device address data
// 2528           device.nwkAddr = entry.nwkAddr;
        MOV     A,#0xb
        LCALL   ?XSTACK_DISP0_8
        LCALL   ?Subroutine30 & 0xFFFF
// 2529           device.extAddr = entry.extAddr;
??CrossCallReturnLabel_181:
        MOV     A,#0xd
        LCALL   ?XSTACK_DISP0_8
        MOV     R0,DPL
        MOV     R1,DPH
        MOV     A,#0x2
        LCALL   ?XSTACK_DISP0_8
        LCALL   ?Subroutine10 & 0xFFFF
// 2530 
// 2531           // update from entry data
// 2532           ZDSecMgrDeviceCtrlHandler( &device );
// 2533         }
??CrossCallReturnLabel_0:
        LCALL   ??ZDSecMgrDeviceCtrlHandler?relay
        SJMP    ??ZDSecMgrEvent_2
// 2534         else
// 2535         {
// 2536           restart = TRUE;
??ZDSecMgrEvent_4:
        MOV     ?V0 + 0,#0x1
// 2537         }
// 2538       }
// 2539     }
??ZDSecMgrEvent_2:
        LCALL   ?Subroutine55 & 0xFFFF
??CrossCallReturnLabel_75:
        JNC     $+5
        LJMP    ??ZDSecMgrEvent_1 & 0xFFFF
// 2540 
// 2541     // check for timer restart
// 2542     if ( restart == TRUE )
        MOV     A,?V0 + 0
        MOV     C,0xE0 /* A   */.0
        JNC     ??ZDSecMgrEvent_0
// 2543     {
// 2544       osal_start_timerEx(ZDAppTaskID, ZDO_SECMGR_EVENT, 100 );
        ; Setup parameters for call to function osal_start_timerEx
        MOV     R4,#0x64
        MOV     R5,#0x0
        MOV     R2,#0x0
        MOV     R3,#0x1
        MOV     DPTR,#ZDAppTaskID
        MOVX    A,@DPTR
        MOV     R1,A
        LCALL   ??osal_start_timerEx?relay
// 2545     }
// 2546   }
// 2547 }
??ZDSecMgrEvent_0:
        MOV     A,#0x17
        SJMP    ??Subroutine100_0
        CFI EndBlock cfiBlock390

        RSEG BANKED_CODE:CODE:NOROOT(0)
?Subroutine41:
        CFI Block cfiCond391 Using cfiCommon0
        CFI NoFunction
        CFI Conditional ??CrossCallReturnLabel_45
        CFI R6 load(1, XDATA, add(CFA_XSP16, literal(-10)))
        CFI VB load(1, XDATA, add(CFA_XSP16, literal(-9)))
        CFI V0 load(1, XDATA, add(CFA_XSP16, literal(-8)))
        CFI V1 load(1, XDATA, add(CFA_XSP16, literal(-7)))
        CFI R7 load(1, XDATA, add(CFA_XSP16, literal(-6)))
        CFI ?RET_LOW load(1, XDATA, add(CFA_XSP16, literal(-5)))
        CFI ?RET_HIGH load(1, XDATA, add(CFA_XSP16, literal(-4)))
        CFI ?BRET_EXT load(1, XDATA, add(CFA_XSP16, literal(-3)))
        CFI DPL0 load(1, XDATA, add(CFA_XSP16, literal(-2)))
        CFI DPH0 load(1, XDATA, add(CFA_XSP16, literal(-1)))
        CFI CFA_SP SP+0
        CFI CFA_XSP16 add(XSP16, 23)
        CFI Block cfiCond392 Using cfiCommon0
        CFI (cfiCond392) NoFunction
        CFI (cfiCond392) Conditional ??CrossCallReturnLabel_46
        CFI (cfiCond392) R6 load(1, XDATA, add(CFA_XSP16, literal(-10)))
        CFI (cfiCond392) VB load(1, XDATA, add(CFA_XSP16, literal(-9)))
        CFI (cfiCond392) V0 load(1, XDATA, add(CFA_XSP16, literal(-8)))
        CFI (cfiCond392) V1 load(1, XDATA, add(CFA_XSP16, literal(-7)))
        CFI (cfiCond392) R7 load(1, XDATA, add(CFA_XSP16, literal(-6)))
        CFI (cfiCond392) ?RET_LOW load(1, XDATA, add(CFA_XSP16, literal(-5)))
        CFI (cfiCond392) ?RET_HIGH load(1, XDATA, add(CFA_XSP16, literal(-4)))
        CFI (cfiCond392) ?BRET_EXT load(1, XDATA, add(CFA_XSP16, literal(-3)))
        CFI (cfiCond392) DPL0 load(1, XDATA, add(CFA_XSP16, literal(-2)))
        CFI (cfiCond392) DPH0 load(1, XDATA, add(CFA_XSP16, literal(-1)))
        CFI (cfiCond392) CFA_SP SP+0
        CFI (cfiCond392) CFA_XSP16 add(XSP16, 33)
        CFI Block cfiPicker393 Using cfiCommon1
        CFI (cfiPicker393) NoFunction
        CFI (cfiPicker393) Picker
        LCALL   ?Subroutine64 & 0xFFFF
??CrossCallReturnLabel_140:
        LCALL   ?Subroutine79 & 0xFFFF
??CrossCallReturnLabel_249:
        RET
        CFI EndBlock cfiCond391
        CFI EndBlock cfiCond392
        CFI EndBlock cfiPicker393

        RSEG BANKED_CODE:CODE:NOROOT(0)
?Subroutine79:
        CFI Block cfiCond394 Using cfiCommon0
        CFI NoFunction
        CFI Conditional ??CrossCallReturnLabel_250, ??CrossCallReturnLabel_91, ??CrossCallReturnLabel_24
        CFI R6 load(1, XDATA, add(CFA_XSP16, literal(-9)))
        CFI VB load(1, XDATA, add(CFA_XSP16, literal(-8)))
        CFI V0 load(1, XDATA, add(CFA_XSP16, literal(-7)))
        CFI R7 load(1, XDATA, add(CFA_XSP16, literal(-6)))
        CFI ?RET_LOW load(1, XDATA, add(CFA_XSP16, literal(-5)))
        CFI ?RET_HIGH load(1, XDATA, add(CFA_XSP16, literal(-4)))
        CFI ?BRET_EXT load(1, XDATA, add(CFA_XSP16, literal(-3)))
        CFI DPL0 load(1, XDATA, add(CFA_XSP16, literal(-2)))
        CFI DPH0 load(1, XDATA, add(CFA_XSP16, literal(-1)))
        CFI CFA_SP SP+0
        CFI CFA_XSP16 add(XSP16, 22)
        CFI Block cfiCond395 Using cfiCommon0
        CFI (cfiCond395) NoFunction
        CFI (cfiCond395) Conditional ??CrossCallReturnLabel_250, ??CrossCallReturnLabel_91, ??CrossCallReturnLabel_25
        CFI (cfiCond395) R6 load(1, XDATA, add(CFA_XSP16, literal(-9)))
        CFI (cfiCond395) VB load(1, XDATA, add(CFA_XSP16, literal(-8)))
        CFI (cfiCond395) V0 load(1, XDATA, add(CFA_XSP16, literal(-7)))
        CFI (cfiCond395) R7 load(1, XDATA, add(CFA_XSP16, literal(-6)))
        CFI (cfiCond395) ?RET_LOW load(1, XDATA, add(CFA_XSP16, literal(-5)))
        CFI (cfiCond395) ?RET_HIGH load(1, XDATA, add(CFA_XSP16, literal(-4)))
        CFI (cfiCond395) ?BRET_EXT load(1, XDATA, add(CFA_XSP16, literal(-3)))
        CFI (cfiCond395) DPL0 load(1, XDATA, add(CFA_XSP16, literal(-2)))
        CFI (cfiCond395) DPH0 load(1, XDATA, add(CFA_XSP16, literal(-1)))
        CFI (cfiCond395) CFA_SP SP+0
        CFI (cfiCond395) CFA_XSP16 add(XSP16, 22)
        CFI Block cfiCond396 Using cfiCommon0
        CFI (cfiCond396) NoFunction
        CFI (cfiCond396) Conditional ??CrossCallReturnLabel_250, ??CrossCallReturnLabel_91, ??CrossCallReturnLabel_26
        CFI (cfiCond396) R6 load(1, XDATA, add(CFA_XSP16, literal(-9)))
        CFI (cfiCond396) VB load(1, XDATA, add(CFA_XSP16, literal(-8)))
        CFI (cfiCond396) V0 load(1, XDATA, add(CFA_XSP16, literal(-7)))
        CFI (cfiCond396) R7 load(1, XDATA, add(CFA_XSP16, literal(-6)))
        CFI (cfiCond396) ?RET_LOW load(1, XDATA, add(CFA_XSP16, literal(-5)))
        CFI (cfiCond396) ?RET_HIGH load(1, XDATA, add(CFA_XSP16, literal(-4)))
        CFI (cfiCond396) ?BRET_EXT load(1, XDATA, add(CFA_XSP16, literal(-3)))
        CFI (cfiCond396) DPL0 load(1, XDATA, add(CFA_XSP16, literal(-2)))
        CFI (cfiCond396) DPH0 load(1, XDATA, add(CFA_XSP16, literal(-1)))
        CFI (cfiCond396) CFA_SP SP+0
        CFI (cfiCond396) CFA_XSP16 add(XSP16, 22)
        CFI Block cfiCond397 Using cfiCommon0
        CFI (cfiCond397) NoFunction
        CFI (cfiCond397) Conditional ??CrossCallReturnLabel_250, ??CrossCallReturnLabel_90, ??CrossCallReturnLabel_21
        CFI (cfiCond397) R6 load(1, XDATA, add(CFA_XSP16, literal(-9)))
        CFI (cfiCond397) VB load(1, XDATA, add(CFA_XSP16, literal(-8)))
        CFI (cfiCond397) V0 load(1, XDATA, add(CFA_XSP16, literal(-7)))
        CFI (cfiCond397) R7 load(1, XDATA, add(CFA_XSP16, literal(-6)))
        CFI (cfiCond397) ?RET_LOW load(1, XDATA, add(CFA_XSP16, literal(-5)))
        CFI (cfiCond397) ?RET_HIGH load(1, XDATA, add(CFA_XSP16, literal(-4)))
        CFI (cfiCond397) ?BRET_EXT load(1, XDATA, add(CFA_XSP16, literal(-3)))
        CFI (cfiCond397) DPL0 load(1, XDATA, add(CFA_XSP16, literal(-2)))
        CFI (cfiCond397) DPH0 load(1, XDATA, add(CFA_XSP16, literal(-1)))
        CFI (cfiCond397) CFA_SP SP+0
        CFI (cfiCond397) CFA_XSP16 add(XSP16, 22)
        CFI Block cfiCond398 Using cfiCommon0
        CFI (cfiCond398) NoFunction
        CFI (cfiCond398) Conditional ??CrossCallReturnLabel_250, ??CrossCallReturnLabel_90, ??CrossCallReturnLabel_22
        CFI (cfiCond398) R6 load(1, XDATA, add(CFA_XSP16, literal(-9)))
        CFI (cfiCond398) VB load(1, XDATA, add(CFA_XSP16, literal(-8)))
        CFI (cfiCond398) V0 load(1, XDATA, add(CFA_XSP16, literal(-7)))
        CFI (cfiCond398) R7 load(1, XDATA, add(CFA_XSP16, literal(-6)))
        CFI (cfiCond398) ?RET_LOW load(1, XDATA, add(CFA_XSP16, literal(-5)))
        CFI (cfiCond398) ?RET_HIGH load(1, XDATA, add(CFA_XSP16, literal(-4)))
        CFI (cfiCond398) ?BRET_EXT load(1, XDATA, add(CFA_XSP16, literal(-3)))
        CFI (cfiCond398) DPL0 load(1, XDATA, add(CFA_XSP16, literal(-2)))
        CFI (cfiCond398) DPH0 load(1, XDATA, add(CFA_XSP16, literal(-1)))
        CFI (cfiCond398) CFA_SP SP+0
        CFI (cfiCond398) CFA_XSP16 add(XSP16, 22)
        CFI Block cfiCond399 Using cfiCommon0
        CFI (cfiCond399) NoFunction
        CFI (cfiCond399) Conditional ??CrossCallReturnLabel_250, ??CrossCallReturnLabel_90, ??CrossCallReturnLabel_23
        CFI (cfiCond399) R6 load(1, XDATA, add(CFA_XSP16, literal(-9)))
        CFI (cfiCond399) VB load(1, XDATA, add(CFA_XSP16, literal(-8)))
        CFI (cfiCond399) V0 load(1, XDATA, add(CFA_XSP16, literal(-7)))
        CFI (cfiCond399) R7 load(1, XDATA, add(CFA_XSP16, literal(-6)))
        CFI (cfiCond399) ?RET_LOW load(1, XDATA, add(CFA_XSP16, literal(-5)))
        CFI (cfiCond399) ?RET_HIGH load(1, XDATA, add(CFA_XSP16, literal(-4)))
        CFI (cfiCond399) ?BRET_EXT load(1, XDATA, add(CFA_XSP16, literal(-3)))
        CFI (cfiCond399) DPL0 load(1, XDATA, add(CFA_XSP16, literal(-2)))
        CFI (cfiCond399) DPH0 load(1, XDATA, add(CFA_XSP16, literal(-1)))
        CFI (cfiCond399) CFA_SP SP+0
        CFI (cfiCond399) CFA_XSP16 add(XSP16, 22)
        CFI Block cfiCond400 Using cfiCommon0
        CFI (cfiCond400) NoFunction
        CFI (cfiCond400) Conditional ??CrossCallReturnLabel_252, ??CrossCallReturnLabel_213, ??CrossCallReturnLabel_118
        CFI (cfiCond400) R6 load(1, XDATA, add(CFA_XSP16, literal(-10)))
        CFI (cfiCond400) VB load(1, XDATA, add(CFA_XSP16, literal(-9)))
        CFI (cfiCond400) V0 load(1, XDATA, add(CFA_XSP16, literal(-8)))
        CFI (cfiCond400) V1 load(1, XDATA, add(CFA_XSP16, literal(-7)))
        CFI (cfiCond400) R7 load(1, XDATA, add(CFA_XSP16, literal(-6)))
        CFI (cfiCond400) ?RET_LOW load(1, XDATA, add(CFA_XSP16, literal(-5)))
        CFI (cfiCond400) ?RET_HIGH load(1, XDATA, add(CFA_XSP16, literal(-4)))
        CFI (cfiCond400) ?BRET_EXT load(1, XDATA, add(CFA_XSP16, literal(-3)))
        CFI (cfiCond400) DPL0 load(1, XDATA, add(CFA_XSP16, literal(-2)))
        CFI (cfiCond400) DPH0 load(1, XDATA, add(CFA_XSP16, literal(-1)))
        CFI (cfiCond400) CFA_SP SP+0
        CFI (cfiCond400) CFA_XSP16 add(XSP16, 23)
        CFI Block cfiCond401 Using cfiCommon0
        CFI (cfiCond401) NoFunction
        CFI (cfiCond401) Conditional ??CrossCallReturnLabel_252, ??CrossCallReturnLabel_213, ??CrossCallReturnLabel_119
        CFI (cfiCond401) R6 load(1, XDATA, add(CFA_XSP16, literal(-10)))
        CFI (cfiCond401) VB load(1, XDATA, add(CFA_XSP16, literal(-9)))
        CFI (cfiCond401) V0 load(1, XDATA, add(CFA_XSP16, literal(-8)))
        CFI (cfiCond401) V1 load(1, XDATA, add(CFA_XSP16, literal(-7)))
        CFI (cfiCond401) R7 load(1, XDATA, add(CFA_XSP16, literal(-6)))
        CFI (cfiCond401) ?RET_LOW load(1, XDATA, add(CFA_XSP16, literal(-5)))
        CFI (cfiCond401) ?RET_HIGH load(1, XDATA, add(CFA_XSP16, literal(-4)))
        CFI (cfiCond401) ?BRET_EXT load(1, XDATA, add(CFA_XSP16, literal(-3)))
        CFI (cfiCond401) DPL0 load(1, XDATA, add(CFA_XSP16, literal(-2)))
        CFI (cfiCond401) DPH0 load(1, XDATA, add(CFA_XSP16, literal(-1)))
        CFI (cfiCond401) CFA_SP SP+0
        CFI (cfiCond401) CFA_XSP16 add(XSP16, 10)
        CFI Block cfiCond402 Using cfiCommon0
        CFI (cfiCond402) NoFunction
        CFI (cfiCond402) Conditional ??CrossCallReturnLabel_252, ??CrossCallReturnLabel_213, ??CrossCallReturnLabel_120
        CFI (cfiCond402) R6 load(1, XDATA, add(CFA_XSP16, literal(-10)))
        CFI (cfiCond402) VB load(1, XDATA, add(CFA_XSP16, literal(-9)))
        CFI (cfiCond402) V0 load(1, XDATA, add(CFA_XSP16, literal(-8)))
        CFI (cfiCond402) V1 load(1, XDATA, add(CFA_XSP16, literal(-7)))
        CFI (cfiCond402) R7 load(1, XDATA, add(CFA_XSP16, literal(-6)))
        CFI (cfiCond402) ?RET_LOW load(1, XDATA, add(CFA_XSP16, literal(-5)))
        CFI (cfiCond402) ?RET_HIGH load(1, XDATA, add(CFA_XSP16, literal(-4)))
        CFI (cfiCond402) ?BRET_EXT load(1, XDATA, add(CFA_XSP16, literal(-3)))
        CFI (cfiCond402) DPL0 load(1, XDATA, add(CFA_XSP16, literal(-2)))
        CFI (cfiCond402) DPH0 load(1, XDATA, add(CFA_XSP16, literal(-1)))
        CFI (cfiCond402) CFA_SP SP+0
        CFI (cfiCond402) CFA_XSP16 add(XSP16, 10)
        CFI Block cfiCond403 Using cfiCommon0
        CFI (cfiCond403) NoFunction
        CFI (cfiCond403) Conditional ??CrossCallReturnLabel_252, ??CrossCallReturnLabel_212, ??CrossCallReturnLabel_12
        CFI (cfiCond403) DPL0 Frame(CFA_SP, 4)
        CFI (cfiCond403) DPH0 Frame(CFA_SP, 5)
        CFI (cfiCond403) CFA_SP SP+-5
        CFI Block cfiCond404 Using cfiCommon0
        CFI (cfiCond404) NoFunction
        CFI (cfiCond404) Conditional ??CrossCallReturnLabel_252, ??CrossCallReturnLabel_212, ??CrossCallReturnLabel_13
        CFI (cfiCond404) R6 load(1, XDATA, add(CFA_XSP16, literal(-10)))
        CFI (cfiCond404) VB load(1, XDATA, add(CFA_XSP16, literal(-9)))
        CFI (cfiCond404) V0 load(1, XDATA, add(CFA_XSP16, literal(-8)))
        CFI (cfiCond404) V1 load(1, XDATA, add(CFA_XSP16, literal(-7)))
        CFI (cfiCond404) R7 load(1, XDATA, add(CFA_XSP16, literal(-6)))
        CFI (cfiCond404) ?RET_LOW load(1, XDATA, add(CFA_XSP16, literal(-5)))
        CFI (cfiCond404) ?RET_HIGH load(1, XDATA, add(CFA_XSP16, literal(-4)))
        CFI (cfiCond404) ?BRET_EXT load(1, XDATA, add(CFA_XSP16, literal(-3)))
        CFI (cfiCond404) DPL0 load(1, XDATA, add(CFA_XSP16, literal(-2)))
        CFI (cfiCond404) DPH0 load(1, XDATA, add(CFA_XSP16, literal(-1)))
        CFI (cfiCond404) CFA_SP SP+0
        CFI (cfiCond404) CFA_XSP16 add(XSP16, 10)
        CFI Block cfiCond405 Using cfiCommon0
        CFI (cfiCond405) NoFunction
        CFI (cfiCond405) Conditional ??CrossCallReturnLabel_252, ??CrossCallReturnLabel_214, ??CrossCallReturnLabel_197
        CFI (cfiCond405) R6 load(1, XDATA, add(CFA_XSP16, literal(-10)))
        CFI (cfiCond405) VB load(1, XDATA, add(CFA_XSP16, literal(-9)))
        CFI (cfiCond405) V0 load(1, XDATA, add(CFA_XSP16, literal(-8)))
        CFI (cfiCond405) V1 load(1, XDATA, add(CFA_XSP16, literal(-7)))
        CFI (cfiCond405) R7 load(1, XDATA, add(CFA_XSP16, literal(-6)))
        CFI (cfiCond405) ?RET_LOW load(1, XDATA, add(CFA_XSP16, literal(-5)))
        CFI (cfiCond405) ?RET_HIGH load(1, XDATA, add(CFA_XSP16, literal(-4)))
        CFI (cfiCond405) ?BRET_EXT load(1, XDATA, add(CFA_XSP16, literal(-3)))
        CFI (cfiCond405) DPL0 load(1, XDATA, add(CFA_XSP16, literal(-2)))
        CFI (cfiCond405) DPH0 load(1, XDATA, add(CFA_XSP16, literal(-1)))
        CFI (cfiCond405) CFA_SP SP+0
        CFI (cfiCond405) CFA_XSP16 add(XSP16, 12)
        CFI Block cfiCond406 Using cfiCommon0
        CFI (cfiCond406) NoFunction
        CFI (cfiCond406) Conditional ??CrossCallReturnLabel_252, ??CrossCallReturnLabel_214, ??CrossCallReturnLabel_198
        CFI (cfiCond406) R6 load(1, XDATA, add(CFA_XSP16, literal(-9)))
        CFI (cfiCond406) VB load(1, XDATA, add(CFA_XSP16, literal(-8)))
        CFI (cfiCond406) V0 load(1, XDATA, add(CFA_XSP16, literal(-7)))
        CFI (cfiCond406) R7 load(1, XDATA, add(CFA_XSP16, literal(-6)))
        CFI (cfiCond406) ?RET_LOW load(1, XDATA, add(CFA_XSP16, literal(-5)))
        CFI (cfiCond406) ?RET_HIGH load(1, XDATA, add(CFA_XSP16, literal(-4)))
        CFI (cfiCond406) ?BRET_EXT load(1, XDATA, add(CFA_XSP16, literal(-3)))
        CFI (cfiCond406) DPL0 load(1, XDATA, add(CFA_XSP16, literal(-2)))
        CFI (cfiCond406) DPH0 load(1, XDATA, add(CFA_XSP16, literal(-1)))
        CFI (cfiCond406) CFA_SP SP+0
        CFI (cfiCond406) CFA_XSP16 add(XSP16, 13)
        CFI Block cfiCond407 Using cfiCommon0
        CFI (cfiCond407) NoFunction
        CFI (cfiCond407) Conditional ??CrossCallReturnLabel_252, ??CrossCallReturnLabel_214, ??CrossCallReturnLabel_199
        CFI (cfiCond407) DPL0 Frame(CFA_SP, 4)
        CFI (cfiCond407) DPH0 Frame(CFA_SP, 5)
        CFI (cfiCond407) CFA_SP SP+-5
        CFI (cfiCond407) CFA_XSP16 add(XSP16, 2)
        CFI Block cfiCond408 Using cfiCommon0
        CFI (cfiCond408) NoFunction
        CFI (cfiCond408) Conditional ??CrossCallReturnLabel_252, ??CrossCallReturnLabel_214, ??CrossCallReturnLabel_210
        CFI (cfiCond408) R6 load(1, XDATA, add(CFA_XSP16, literal(-12)))
        CFI (cfiCond408) VB load(1, XDATA, add(CFA_XSP16, literal(-11)))
        CFI (cfiCond408) V0 load(1, XDATA, add(CFA_XSP16, literal(-10)))
        CFI (cfiCond408) V1 load(1, XDATA, add(CFA_XSP16, literal(-9)))
        CFI (cfiCond408) V2 load(1, XDATA, add(CFA_XSP16, literal(-8)))
        CFI (cfiCond408) V3 load(1, XDATA, add(CFA_XSP16, literal(-7)))
        CFI (cfiCond408) R7 load(1, XDATA, add(CFA_XSP16, literal(-6)))
        CFI (cfiCond408) ?RET_LOW load(1, XDATA, add(CFA_XSP16, literal(-5)))
        CFI (cfiCond408) ?RET_HIGH load(1, XDATA, add(CFA_XSP16, literal(-4)))
        CFI (cfiCond408) ?BRET_EXT load(1, XDATA, add(CFA_XSP16, literal(-3)))
        CFI (cfiCond408) DPL0 load(1, XDATA, add(CFA_XSP16, literal(-2)))
        CFI (cfiCond408) DPH0 load(1, XDATA, add(CFA_XSP16, literal(-1)))
        CFI (cfiCond408) CFA_SP SP+0
        CFI (cfiCond408) CFA_XSP16 add(XSP16, 14)
        CFI Block cfiCond409 Using cfiCommon0
        CFI (cfiCond409) NoFunction
        CFI (cfiCond409) Conditional ??CrossCallReturnLabel_252, ??CrossCallReturnLabel_214, ??CrossCallReturnLabel_211
        CFI (cfiCond409) R6 load(1, XDATA, add(CFA_XSP16, literal(-12)))
        CFI (cfiCond409) VB load(1, XDATA, add(CFA_XSP16, literal(-11)))
        CFI (cfiCond409) V0 load(1, XDATA, add(CFA_XSP16, literal(-10)))
        CFI (cfiCond409) V1 load(1, XDATA, add(CFA_XSP16, literal(-9)))
        CFI (cfiCond409) V2 load(1, XDATA, add(CFA_XSP16, literal(-8)))
        CFI (cfiCond409) V3 load(1, XDATA, add(CFA_XSP16, literal(-7)))
        CFI (cfiCond409) R7 load(1, XDATA, add(CFA_XSP16, literal(-6)))
        CFI (cfiCond409) ?RET_LOW load(1, XDATA, add(CFA_XSP16, literal(-5)))
        CFI (cfiCond409) ?RET_HIGH load(1, XDATA, add(CFA_XSP16, literal(-4)))
        CFI (cfiCond409) ?BRET_EXT load(1, XDATA, add(CFA_XSP16, literal(-3)))
        CFI (cfiCond409) DPL0 load(1, XDATA, add(CFA_XSP16, literal(-2)))
        CFI (cfiCond409) DPH0 load(1, XDATA, add(CFA_XSP16, literal(-1)))
        CFI (cfiCond409) CFA_SP SP+0
        CFI (cfiCond409) CFA_XSP16 add(XSP16, 16)
        CFI Block cfiCond410 Using cfiCommon0
        CFI (cfiCond410) NoFunction
        CFI (cfiCond410) Conditional ??CrossCallReturnLabel_252, ??CrossCallReturnLabel_214, ??CrossCallReturnLabel_200
        CFI (cfiCond410) DPL0 Frame(CFA_SP, 4)
        CFI (cfiCond410) DPH0 Frame(CFA_SP, 5)
        CFI (cfiCond410) CFA_SP SP+-5
        CFI Block cfiCond411 Using cfiCommon0
        CFI (cfiCond411) NoFunction
        CFI (cfiCond411) Conditional ??CrossCallReturnLabel_252, ??CrossCallReturnLabel_214, ??CrossCallReturnLabel_201
        CFI (cfiCond411) R6 load(1, XDATA, add(CFA_XSP16, literal(-10)))
        CFI (cfiCond411) VB load(1, XDATA, add(CFA_XSP16, literal(-9)))
        CFI (cfiCond411) V0 load(1, XDATA, add(CFA_XSP16, literal(-8)))
        CFI (cfiCond411) V1 load(1, XDATA, add(CFA_XSP16, literal(-7)))
        CFI (cfiCond411) R7 load(1, XDATA, add(CFA_XSP16, literal(-6)))
        CFI (cfiCond411) ?RET_LOW load(1, XDATA, add(CFA_XSP16, literal(-5)))
        CFI (cfiCond411) ?RET_HIGH load(1, XDATA, add(CFA_XSP16, literal(-4)))
        CFI (cfiCond411) ?BRET_EXT load(1, XDATA, add(CFA_XSP16, literal(-3)))
        CFI (cfiCond411) DPL0 load(1, XDATA, add(CFA_XSP16, literal(-2)))
        CFI (cfiCond411) DPH0 load(1, XDATA, add(CFA_XSP16, literal(-1)))
        CFI (cfiCond411) CFA_SP SP+0
        CFI (cfiCond411) CFA_XSP16 add(XSP16, 10)
        CFI Block cfiCond412 Using cfiCommon0
        CFI (cfiCond412) NoFunction
        CFI (cfiCond412) Conditional ??CrossCallReturnLabel_252, ??CrossCallReturnLabel_214, ??CrossCallReturnLabel_202
        CFI (cfiCond412) R6 load(1, XDATA, add(CFA_XSP16, literal(-14)))
        CFI (cfiCond412) VB load(1, XDATA, add(CFA_XSP16, literal(-13)))
        CFI (cfiCond412) V0 load(1, XDATA, add(CFA_XSP16, literal(-12)))
        CFI (cfiCond412) V1 load(1, XDATA, add(CFA_XSP16, literal(-11)))
        CFI (cfiCond412) V2 load(1, XDATA, add(CFA_XSP16, literal(-10)))
        CFI (cfiCond412) V3 load(1, XDATA, add(CFA_XSP16, literal(-9)))
        CFI (cfiCond412) V4 load(1, XDATA, add(CFA_XSP16, literal(-8)))
        CFI (cfiCond412) V5 load(1, XDATA, add(CFA_XSP16, literal(-7)))
        CFI (cfiCond412) R7 load(1, XDATA, add(CFA_XSP16, literal(-6)))
        CFI (cfiCond412) ?RET_LOW load(1, XDATA, add(CFA_XSP16, literal(-5)))
        CFI (cfiCond412) ?RET_HIGH load(1, XDATA, add(CFA_XSP16, literal(-4)))
        CFI (cfiCond412) ?BRET_EXT load(1, XDATA, add(CFA_XSP16, literal(-3)))
        CFI (cfiCond412) DPL0 load(1, XDATA, add(CFA_XSP16, literal(-2)))
        CFI (cfiCond412) DPH0 load(1, XDATA, add(CFA_XSP16, literal(-1)))
        CFI (cfiCond412) CFA_SP SP+0
        CFI (cfiCond412) CFA_XSP16 add(XSP16, 14)
        CFI Block cfiCond413 Using cfiCommon0
        CFI (cfiCond413) NoFunction
        CFI (cfiCond413) Conditional ??CrossCallReturnLabel_252, ??CrossCallReturnLabel_214, ??CrossCallReturnLabel_203
        CFI (cfiCond413) DPL0 Frame(CFA_SP, 4)
        CFI (cfiCond413) DPH0 Frame(CFA_SP, 5)
        CFI (cfiCond413) CFA_SP SP+-5
        CFI Block cfiCond414 Using cfiCommon0
        CFI (cfiCond414) NoFunction
        CFI (cfiCond414) Conditional ??CrossCallReturnLabel_252, ??CrossCallReturnLabel_214, ??CrossCallReturnLabel_204
        CFI (cfiCond414) R6 load(1, XDATA, add(CFA_XSP16, literal(-12)))
        CFI (cfiCond414) VB load(1, XDATA, add(CFA_XSP16, literal(-11)))
        CFI (cfiCond414) V0 load(1, XDATA, add(CFA_XSP16, literal(-10)))
        CFI (cfiCond414) V1 load(1, XDATA, add(CFA_XSP16, literal(-9)))
        CFI (cfiCond414) V2 load(1, XDATA, add(CFA_XSP16, literal(-8)))
        CFI (cfiCond414) V3 load(1, XDATA, add(CFA_XSP16, literal(-7)))
        CFI (cfiCond414) R7 load(1, XDATA, add(CFA_XSP16, literal(-6)))
        CFI (cfiCond414) ?RET_LOW load(1, XDATA, add(CFA_XSP16, literal(-5)))
        CFI (cfiCond414) ?RET_HIGH load(1, XDATA, add(CFA_XSP16, literal(-4)))
        CFI (cfiCond414) ?BRET_EXT load(1, XDATA, add(CFA_XSP16, literal(-3)))
        CFI (cfiCond414) DPL0 load(1, XDATA, add(CFA_XSP16, literal(-2)))
        CFI (cfiCond414) DPH0 load(1, XDATA, add(CFA_XSP16, literal(-1)))
        CFI (cfiCond414) CFA_SP SP+0
        CFI (cfiCond414) CFA_XSP16 add(XSP16, 12)
        CFI Block cfiCond415 Using cfiCommon0
        CFI (cfiCond415) NoFunction
        CFI (cfiCond415) Conditional ??CrossCallReturnLabel_252, ??CrossCallReturnLabel_214, ??CrossCallReturnLabel_205
        CFI (cfiCond415) DPL0 Frame(CFA_SP, 4)
        CFI (cfiCond415) DPH0 Frame(CFA_SP, 5)
        CFI (cfiCond415) CFA_SP SP+-5
        CFI Block cfiCond416 Using cfiCommon0
        CFI (cfiCond416) NoFunction
        CFI (cfiCond416) Conditional ??CrossCallReturnLabel_252, ??CrossCallReturnLabel_214, ??CrossCallReturnLabel_206
        CFI (cfiCond416) R6 load(1, XDATA, add(CFA_XSP16, literal(-9)))
        CFI (cfiCond416) VB load(1, XDATA, add(CFA_XSP16, literal(-8)))
        CFI (cfiCond416) V0 load(1, XDATA, add(CFA_XSP16, literal(-7)))
        CFI (cfiCond416) R7 load(1, XDATA, add(CFA_XSP16, literal(-6)))
        CFI (cfiCond416) ?RET_LOW load(1, XDATA, add(CFA_XSP16, literal(-5)))
        CFI (cfiCond416) ?RET_HIGH load(1, XDATA, add(CFA_XSP16, literal(-4)))
        CFI (cfiCond416) ?BRET_EXT load(1, XDATA, add(CFA_XSP16, literal(-3)))
        CFI (cfiCond416) DPL0 load(1, XDATA, add(CFA_XSP16, literal(-2)))
        CFI (cfiCond416) DPH0 load(1, XDATA, add(CFA_XSP16, literal(-1)))
        CFI (cfiCond416) CFA_SP SP+0
        CFI (cfiCond416) CFA_XSP16 add(XSP16, 13)
        CFI Block cfiCond417 Using cfiCommon0
        CFI (cfiCond417) NoFunction
        CFI (cfiCond417) Conditional ??CrossCallReturnLabel_252, ??CrossCallReturnLabel_214, ??CrossCallReturnLabel_207
        CFI (cfiCond417) R6 load(1, XDATA, add(CFA_XSP16, literal(-10)))
        CFI (cfiCond417) VB load(1, XDATA, add(CFA_XSP16, literal(-9)))
        CFI (cfiCond417) V0 load(1, XDATA, add(CFA_XSP16, literal(-8)))
        CFI (cfiCond417) V1 load(1, XDATA, add(CFA_XSP16, literal(-7)))
        CFI (cfiCond417) R7 load(1, XDATA, add(CFA_XSP16, literal(-6)))
        CFI (cfiCond417) ?RET_LOW load(1, XDATA, add(CFA_XSP16, literal(-5)))
        CFI (cfiCond417) ?RET_HIGH load(1, XDATA, add(CFA_XSP16, literal(-4)))
        CFI (cfiCond417) ?BRET_EXT load(1, XDATA, add(CFA_XSP16, literal(-3)))
        CFI (cfiCond417) DPL0 load(1, XDATA, add(CFA_XSP16, literal(-2)))
        CFI (cfiCond417) DPH0 load(1, XDATA, add(CFA_XSP16, literal(-1)))
        CFI (cfiCond417) CFA_SP SP+0
        CFI (cfiCond417) CFA_XSP16 add(XSP16, 33)
        CFI Block cfiCond418 Using cfiCommon0
        CFI (cfiCond418) NoFunction
        CFI (cfiCond418) Conditional ??CrossCallReturnLabel_252, ??CrossCallReturnLabel_214, ??CrossCallReturnLabel_208
        CFI (cfiCond418) R6 load(1, XDATA, add(CFA_XSP16, literal(-9)))
        CFI (cfiCond418) VB load(1, XDATA, add(CFA_XSP16, literal(-8)))
        CFI (cfiCond418) V0 load(1, XDATA, add(CFA_XSP16, literal(-7)))
        CFI (cfiCond418) R7 load(1, XDATA, add(CFA_XSP16, literal(-6)))
        CFI (cfiCond418) ?RET_LOW load(1, XDATA, add(CFA_XSP16, literal(-5)))
        CFI (cfiCond418) ?RET_HIGH load(1, XDATA, add(CFA_XSP16, literal(-4)))
        CFI (cfiCond418) ?BRET_EXT load(1, XDATA, add(CFA_XSP16, literal(-3)))
        CFI (cfiCond418) DPL0 load(1, XDATA, add(CFA_XSP16, literal(-2)))
        CFI (cfiCond418) DPH0 load(1, XDATA, add(CFA_XSP16, literal(-1)))
        CFI (cfiCond418) CFA_SP SP+0
        CFI (cfiCond418) CFA_XSP16 add(XSP16, 19)
        CFI Block cfiCond419 Using cfiCommon0
        CFI (cfiCond419) NoFunction
        CFI (cfiCond419) Conditional ??CrossCallReturnLabel_252, ??CrossCallReturnLabel_214, ??CrossCallReturnLabel_209
        CFI (cfiCond419) R6 load(1, XDATA, add(CFA_XSP16, literal(-9)))
        CFI (cfiCond419) VB load(1, XDATA, add(CFA_XSP16, literal(-8)))
        CFI (cfiCond419) V0 load(1, XDATA, add(CFA_XSP16, literal(-7)))
        CFI (cfiCond419) R7 load(1, XDATA, add(CFA_XSP16, literal(-6)))
        CFI (cfiCond419) ?RET_LOW load(1, XDATA, add(CFA_XSP16, literal(-5)))
        CFI (cfiCond419) ?RET_HIGH load(1, XDATA, add(CFA_XSP16, literal(-4)))
        CFI (cfiCond419) ?BRET_EXT load(1, XDATA, add(CFA_XSP16, literal(-3)))
        CFI (cfiCond419) DPL0 load(1, XDATA, add(CFA_XSP16, literal(-2)))
        CFI (cfiCond419) DPH0 load(1, XDATA, add(CFA_XSP16, literal(-1)))
        CFI (cfiCond419) CFA_SP SP+0
        CFI (cfiCond419) CFA_XSP16 add(XSP16, 9)
        CFI Block cfiCond420 Using cfiCommon0
        CFI (cfiCond420) NoFunction
        CFI (cfiCond420) Conditional ??CrossCallReturnLabel_248, ??CrossCallReturnLabel_27
        CFI (cfiCond420) R6 load(1, XDATA, add(CFA_XSP16, literal(-10)))
        CFI (cfiCond420) VB load(1, XDATA, add(CFA_XSP16, literal(-9)))
        CFI (cfiCond420) V0 load(1, XDATA, add(CFA_XSP16, literal(-8)))
        CFI (cfiCond420) V1 load(1, XDATA, add(CFA_XSP16, literal(-7)))
        CFI (cfiCond420) R7 load(1, XDATA, add(CFA_XSP16, literal(-6)))
        CFI (cfiCond420) ?RET_LOW load(1, XDATA, add(CFA_XSP16, literal(-5)))
        CFI (cfiCond420) ?RET_HIGH load(1, XDATA, add(CFA_XSP16, literal(-4)))
        CFI (cfiCond420) ?BRET_EXT load(1, XDATA, add(CFA_XSP16, literal(-3)))
        CFI (cfiCond420) DPL0 load(1, XDATA, add(CFA_XSP16, literal(-2)))
        CFI (cfiCond420) DPH0 load(1, XDATA, add(CFA_XSP16, literal(-1)))
        CFI (cfiCond420) CFA_SP SP+0
        CFI (cfiCond420) CFA_XSP16 add(XSP16, 49)
        CFI Block cfiCond421 Using cfiCommon0
        CFI (cfiCond421) NoFunction
        CFI (cfiCond421) Conditional ??CrossCallReturnLabel_248, ??CrossCallReturnLabel_28
        CFI (cfiCond421) R6 load(1, XDATA, add(CFA_XSP16, literal(-9)))
        CFI (cfiCond421) VB load(1, XDATA, add(CFA_XSP16, literal(-8)))
        CFI (cfiCond421) V0 load(1, XDATA, add(CFA_XSP16, literal(-7)))
        CFI (cfiCond421) R7 load(1, XDATA, add(CFA_XSP16, literal(-6)))
        CFI (cfiCond421) ?RET_LOW load(1, XDATA, add(CFA_XSP16, literal(-5)))
        CFI (cfiCond421) ?RET_HIGH load(1, XDATA, add(CFA_XSP16, literal(-4)))
        CFI (cfiCond421) ?BRET_EXT load(1, XDATA, add(CFA_XSP16, literal(-3)))
        CFI (cfiCond421) DPL0 load(1, XDATA, add(CFA_XSP16, literal(-2)))
        CFI (cfiCond421) DPH0 load(1, XDATA, add(CFA_XSP16, literal(-1)))
        CFI (cfiCond421) CFA_SP SP+0
        CFI (cfiCond421) CFA_XSP16 add(XSP16, 9)
        CFI Block cfiCond422 Using cfiCommon0
        CFI (cfiCond422) NoFunction
        CFI (cfiCond422) Conditional ??CrossCallReturnLabel_249, ??CrossCallReturnLabel_45
        CFI (cfiCond422) R6 load(1, XDATA, add(CFA_XSP16, literal(-10)))
        CFI (cfiCond422) VB load(1, XDATA, add(CFA_XSP16, literal(-9)))
        CFI (cfiCond422) V0 load(1, XDATA, add(CFA_XSP16, literal(-8)))
        CFI (cfiCond422) V1 load(1, XDATA, add(CFA_XSP16, literal(-7)))
        CFI (cfiCond422) R7 load(1, XDATA, add(CFA_XSP16, literal(-6)))
        CFI (cfiCond422) ?RET_LOW load(1, XDATA, add(CFA_XSP16, literal(-5)))
        CFI (cfiCond422) ?RET_HIGH load(1, XDATA, add(CFA_XSP16, literal(-4)))
        CFI (cfiCond422) ?BRET_EXT load(1, XDATA, add(CFA_XSP16, literal(-3)))
        CFI (cfiCond422) DPL0 load(1, XDATA, add(CFA_XSP16, literal(-2)))
        CFI (cfiCond422) DPH0 load(1, XDATA, add(CFA_XSP16, literal(-1)))
        CFI (cfiCond422) CFA_SP SP+0
        CFI (cfiCond422) CFA_XSP16 add(XSP16, 23)
        CFI Block cfiCond423 Using cfiCommon0
        CFI (cfiCond423) NoFunction
        CFI (cfiCond423) Conditional ??CrossCallReturnLabel_249, ??CrossCallReturnLabel_46
        CFI (cfiCond423) R6 load(1, XDATA, add(CFA_XSP16, literal(-10)))
        CFI (cfiCond423) VB load(1, XDATA, add(CFA_XSP16, literal(-9)))
        CFI (cfiCond423) V0 load(1, XDATA, add(CFA_XSP16, literal(-8)))
        CFI (cfiCond423) V1 load(1, XDATA, add(CFA_XSP16, literal(-7)))
        CFI (cfiCond423) R7 load(1, XDATA, add(CFA_XSP16, literal(-6)))
        CFI (cfiCond423) ?RET_LOW load(1, XDATA, add(CFA_XSP16, literal(-5)))
        CFI (cfiCond423) ?RET_HIGH load(1, XDATA, add(CFA_XSP16, literal(-4)))
        CFI (cfiCond423) ?BRET_EXT load(1, XDATA, add(CFA_XSP16, literal(-3)))
        CFI (cfiCond423) DPL0 load(1, XDATA, add(CFA_XSP16, literal(-2)))
        CFI (cfiCond423) DPH0 load(1, XDATA, add(CFA_XSP16, literal(-1)))
        CFI (cfiCond423) CFA_SP SP+0
        CFI (cfiCond423) CFA_XSP16 add(XSP16, 33)
        CFI Block cfiCond424 Using cfiCommon0
        CFI (cfiCond424) NoFunction
        CFI (cfiCond424) Conditional ??CrossCallReturnLabel_253, ??CrossCallReturnLabel_246, ??CrossCallReturnLabel_8
        CFI (cfiCond424) R6 load(1, XDATA, add(CFA_XSP16, literal(-10)))
        CFI (cfiCond424) VB load(1, XDATA, add(CFA_XSP16, literal(-9)))
        CFI (cfiCond424) V0 load(1, XDATA, add(CFA_XSP16, literal(-8)))
        CFI (cfiCond424) V1 load(1, XDATA, add(CFA_XSP16, literal(-7)))
        CFI (cfiCond424) R7 load(1, XDATA, add(CFA_XSP16, literal(-6)))
        CFI (cfiCond424) ?RET_LOW load(1, XDATA, add(CFA_XSP16, literal(-5)))
        CFI (cfiCond424) ?RET_HIGH load(1, XDATA, add(CFA_XSP16, literal(-4)))
        CFI (cfiCond424) ?BRET_EXT load(1, XDATA, add(CFA_XSP16, literal(-3)))
        CFI (cfiCond424) DPL0 load(1, XDATA, add(CFA_XSP16, literal(-2)))
        CFI (cfiCond424) DPH0 load(1, XDATA, add(CFA_XSP16, literal(-1)))
        CFI (cfiCond424) CFA_SP SP+0
        CFI (cfiCond424) CFA_XSP16 add(XSP16, 23)
        CFI Block cfiCond425 Using cfiCommon0
        CFI (cfiCond425) NoFunction
        CFI (cfiCond425) Conditional ??CrossCallReturnLabel_253, ??CrossCallReturnLabel_246, ??CrossCallReturnLabel_9
        CFI (cfiCond425) R6 load(1, XDATA, add(CFA_XSP16, literal(-12)))
        CFI (cfiCond425) VB load(1, XDATA, add(CFA_XSP16, literal(-11)))
        CFI (cfiCond425) V0 load(1, XDATA, add(CFA_XSP16, literal(-10)))
        CFI (cfiCond425) V1 load(1, XDATA, add(CFA_XSP16, literal(-9)))
        CFI (cfiCond425) V2 load(1, XDATA, add(CFA_XSP16, literal(-8)))
        CFI (cfiCond425) V3 load(1, XDATA, add(CFA_XSP16, literal(-7)))
        CFI (cfiCond425) R7 load(1, XDATA, add(CFA_XSP16, literal(-6)))
        CFI (cfiCond425) ?RET_LOW load(1, XDATA, add(CFA_XSP16, literal(-5)))
        CFI (cfiCond425) ?RET_HIGH load(1, XDATA, add(CFA_XSP16, literal(-4)))
        CFI (cfiCond425) ?BRET_EXT load(1, XDATA, add(CFA_XSP16, literal(-3)))
        CFI (cfiCond425) DPL0 load(1, XDATA, add(CFA_XSP16, literal(-2)))
        CFI (cfiCond425) DPH0 load(1, XDATA, add(CFA_XSP16, literal(-1)))
        CFI (cfiCond425) CFA_SP SP+0
        CFI (cfiCond425) CFA_XSP16 add(XSP16, 25)
        CFI Block cfiCond426 Using cfiCommon0
        CFI (cfiCond426) NoFunction
        CFI (cfiCond426) Conditional ??CrossCallReturnLabel_253, ??CrossCallReturnLabel_245, ??CrossCallReturnLabel_4
        CFI (cfiCond426) DPL0 Frame(CFA_SP, 4)
        CFI (cfiCond426) DPH0 Frame(CFA_SP, 5)
        CFI (cfiCond426) CFA_SP SP+-5
        CFI (cfiCond426) CFA_XSP16 add(XSP16, 8)
        CFI Block cfiCond427 Using cfiCommon0
        CFI (cfiCond427) NoFunction
        CFI (cfiCond427) Conditional ??CrossCallReturnLabel_253, ??CrossCallReturnLabel_245, ??CrossCallReturnLabel_5
        CFI (cfiCond427) DPL0 Frame(CFA_SP, 4)
        CFI (cfiCond427) DPH0 Frame(CFA_SP, 5)
        CFI (cfiCond427) CFA_SP SP+-5
        CFI (cfiCond427) CFA_XSP16 add(XSP16, 10)
        CFI Block cfiCond428 Using cfiCommon0
        CFI (cfiCond428) NoFunction
        CFI (cfiCond428) Conditional ??CrossCallReturnLabel_253, ??CrossCallReturnLabel_243, ??CrossCallReturnLabel_50
        CFI (cfiCond428) R6 load(1, XDATA, add(CFA_XSP16, literal(-10)))
        CFI (cfiCond428) VB load(1, XDATA, add(CFA_XSP16, literal(-9)))
        CFI (cfiCond428) V0 load(1, XDATA, add(CFA_XSP16, literal(-8)))
        CFI (cfiCond428) V1 load(1, XDATA, add(CFA_XSP16, literal(-7)))
        CFI (cfiCond428) R7 load(1, XDATA, add(CFA_XSP16, literal(-6)))
        CFI (cfiCond428) ?RET_LOW load(1, XDATA, add(CFA_XSP16, literal(-5)))
        CFI (cfiCond428) ?RET_HIGH load(1, XDATA, add(CFA_XSP16, literal(-4)))
        CFI (cfiCond428) ?BRET_EXT load(1, XDATA, add(CFA_XSP16, literal(-3)))
        CFI (cfiCond428) DPL0 load(1, XDATA, add(CFA_XSP16, literal(-2)))
        CFI (cfiCond428) DPH0 load(1, XDATA, add(CFA_XSP16, literal(-1)))
        CFI (cfiCond428) CFA_SP SP+0
        CFI (cfiCond428) CFA_XSP16 add(XSP16, 49)
        CFI Block cfiCond429 Using cfiCommon0
        CFI (cfiCond429) NoFunction
        CFI (cfiCond429) Conditional ??CrossCallReturnLabel_253, ??CrossCallReturnLabel_243, ??CrossCallReturnLabel_51
        CFI (cfiCond429) R6 load(1, XDATA, add(CFA_XSP16, literal(-10)))
        CFI (cfiCond429) VB load(1, XDATA, add(CFA_XSP16, literal(-9)))
        CFI (cfiCond429) V0 load(1, XDATA, add(CFA_XSP16, literal(-8)))
        CFI (cfiCond429) V1 load(1, XDATA, add(CFA_XSP16, literal(-7)))
        CFI (cfiCond429) R7 load(1, XDATA, add(CFA_XSP16, literal(-6)))
        CFI (cfiCond429) ?RET_LOW load(1, XDATA, add(CFA_XSP16, literal(-5)))
        CFI (cfiCond429) ?RET_HIGH load(1, XDATA, add(CFA_XSP16, literal(-4)))
        CFI (cfiCond429) ?BRET_EXT load(1, XDATA, add(CFA_XSP16, literal(-3)))
        CFI (cfiCond429) DPL0 load(1, XDATA, add(CFA_XSP16, literal(-2)))
        CFI (cfiCond429) DPH0 load(1, XDATA, add(CFA_XSP16, literal(-1)))
        CFI (cfiCond429) CFA_SP SP+0
        CFI (cfiCond429) CFA_XSP16 add(XSP16, 17)
        CFI Block cfiCond430 Using cfiCommon0
        CFI (cfiCond430) NoFunction
        CFI (cfiCond430) Conditional ??CrossCallReturnLabel_253, ??CrossCallReturnLabel_243, ??CrossCallReturnLabel_52
        CFI (cfiCond430) DPL0 Frame(CFA_SP, 4)
        CFI (cfiCond430) DPH0 Frame(CFA_SP, 5)
        CFI (cfiCond430) CFA_SP SP+-5
        CFI (cfiCond430) CFA_XSP16 add(XSP16, 8)
        CFI Block cfiCond431 Using cfiCommon0
        CFI (cfiCond431) NoFunction
        CFI (cfiCond431) Conditional ??CrossCallReturnLabel_253, ??CrossCallReturnLabel_242, ??CrossCallReturnLabel_180
        CFI (cfiCond431) R6 load(1, XDATA, add(CFA_XSP16, literal(-12)))
        CFI (cfiCond431) VB load(1, XDATA, add(CFA_XSP16, literal(-11)))
        CFI (cfiCond431) V0 load(1, XDATA, add(CFA_XSP16, literal(-10)))
        CFI (cfiCond431) V1 load(1, XDATA, add(CFA_XSP16, literal(-9)))
        CFI (cfiCond431) V2 load(1, XDATA, add(CFA_XSP16, literal(-8)))
        CFI (cfiCond431) V3 load(1, XDATA, add(CFA_XSP16, literal(-7)))
        CFI (cfiCond431) R7 load(1, XDATA, add(CFA_XSP16, literal(-6)))
        CFI (cfiCond431) ?RET_LOW load(1, XDATA, add(CFA_XSP16, literal(-5)))
        CFI (cfiCond431) ?RET_HIGH load(1, XDATA, add(CFA_XSP16, literal(-4)))
        CFI (cfiCond431) ?BRET_EXT load(1, XDATA, add(CFA_XSP16, literal(-3)))
        CFI (cfiCond431) DPL0 load(1, XDATA, add(CFA_XSP16, literal(-2)))
        CFI (cfiCond431) DPH0 load(1, XDATA, add(CFA_XSP16, literal(-1)))
        CFI (cfiCond431) CFA_SP SP+0
        CFI (cfiCond431) CFA_XSP16 add(XSP16, 35)
        CFI Block cfiCond432 Using cfiCommon0
        CFI (cfiCond432) NoFunction
        CFI (cfiCond432) Conditional ??CrossCallReturnLabel_253, ??CrossCallReturnLabel_242, ??CrossCallReturnLabel_181
        CFI (cfiCond432) R6 load(1, XDATA, add(CFA_XSP16, literal(-10)))
        CFI (cfiCond432) VB load(1, XDATA, add(CFA_XSP16, literal(-9)))
        CFI (cfiCond432) V0 load(1, XDATA, add(CFA_XSP16, literal(-8)))
        CFI (cfiCond432) V1 load(1, XDATA, add(CFA_XSP16, literal(-7)))
        CFI (cfiCond432) R7 load(1, XDATA, add(CFA_XSP16, literal(-6)))
        CFI (cfiCond432) ?RET_LOW load(1, XDATA, add(CFA_XSP16, literal(-5)))
        CFI (cfiCond432) ?RET_HIGH load(1, XDATA, add(CFA_XSP16, literal(-4)))
        CFI (cfiCond432) ?BRET_EXT load(1, XDATA, add(CFA_XSP16, literal(-3)))
        CFI (cfiCond432) DPL0 load(1, XDATA, add(CFA_XSP16, literal(-2)))
        CFI (cfiCond432) DPH0 load(1, XDATA, add(CFA_XSP16, literal(-1)))
        CFI (cfiCond432) CFA_SP SP+0
        CFI (cfiCond432) CFA_XSP16 add(XSP16, 33)
        CFI Block cfiCond433 Using cfiCommon0
        CFI (cfiCond433) NoFunction
        CFI (cfiCond433) Conditional ??CrossCallReturnLabel_253, ??CrossCallReturnLabel_242, ??CrossCallReturnLabel_182
        CFI (cfiCond433) DPL0 Frame(CFA_SP, 4)
        CFI (cfiCond433) DPH0 Frame(CFA_SP, 5)
        CFI (cfiCond433) CFA_SP SP+-5
        CFI (cfiCond433) CFA_XSP16 add(XSP16, 10)
        CFI Block cfiCond434 Using cfiCommon0
        CFI (cfiCond434) NoFunction
        CFI (cfiCond434) Conditional ??CrossCallReturnLabel_253, ??CrossCallReturnLabel_247, ??CrossCallReturnLabel_227
        CFI (cfiCond434) R6 load(1, XDATA, add(CFA_XSP16, literal(-10)))
        CFI (cfiCond434) VB load(1, XDATA, add(CFA_XSP16, literal(-9)))
        CFI (cfiCond434) V0 load(1, XDATA, add(CFA_XSP16, literal(-8)))
        CFI (cfiCond434) V1 load(1, XDATA, add(CFA_XSP16, literal(-7)))
        CFI (cfiCond434) R7 load(1, XDATA, add(CFA_XSP16, literal(-6)))
        CFI (cfiCond434) ?RET_LOW load(1, XDATA, add(CFA_XSP16, literal(-5)))
        CFI (cfiCond434) ?RET_HIGH load(1, XDATA, add(CFA_XSP16, literal(-4)))
        CFI (cfiCond434) ?BRET_EXT load(1, XDATA, add(CFA_XSP16, literal(-3)))
        CFI (cfiCond434) DPL0 load(1, XDATA, add(CFA_XSP16, literal(-2)))
        CFI (cfiCond434) DPH0 load(1, XDATA, add(CFA_XSP16, literal(-1)))
        CFI (cfiCond434) CFA_SP SP+0
        CFI (cfiCond434) CFA_XSP16 add(XSP16, 17)
        CFI Block cfiCond435 Using cfiCommon0
        CFI (cfiCond435) NoFunction
        CFI (cfiCond435) Conditional ??CrossCallReturnLabel_253, ??CrossCallReturnLabel_247, ??CrossCallReturnLabel_228
        CFI (cfiCond435) R6 load(1, XDATA, add(CFA_XSP16, literal(-10)))
        CFI (cfiCond435) VB load(1, XDATA, add(CFA_XSP16, literal(-9)))
        CFI (cfiCond435) V0 load(1, XDATA, add(CFA_XSP16, literal(-8)))
        CFI (cfiCond435) V1 load(1, XDATA, add(CFA_XSP16, literal(-7)))
        CFI (cfiCond435) R7 load(1, XDATA, add(CFA_XSP16, literal(-6)))
        CFI (cfiCond435) ?RET_LOW load(1, XDATA, add(CFA_XSP16, literal(-5)))
        CFI (cfiCond435) ?RET_HIGH load(1, XDATA, add(CFA_XSP16, literal(-4)))
        CFI (cfiCond435) ?BRET_EXT load(1, XDATA, add(CFA_XSP16, literal(-3)))
        CFI (cfiCond435) DPL0 load(1, XDATA, add(CFA_XSP16, literal(-2)))
        CFI (cfiCond435) DPH0 load(1, XDATA, add(CFA_XSP16, literal(-1)))
        CFI (cfiCond435) CFA_SP SP+0
        CFI (cfiCond435) CFA_XSP16 add(XSP16, 23)
        CFI Block cfiCond436 Using cfiCommon0
        CFI (cfiCond436) NoFunction
        CFI (cfiCond436) Conditional ??CrossCallReturnLabel_253, ??CrossCallReturnLabel_247, ??CrossCallReturnLabel_240
        CFI (cfiCond436) R6 load(1, XDATA, add(CFA_XSP16, literal(-12)))
        CFI (cfiCond436) VB load(1, XDATA, add(CFA_XSP16, literal(-11)))
        CFI (cfiCond436) V0 load(1, XDATA, add(CFA_XSP16, literal(-10)))
        CFI (cfiCond436) V1 load(1, XDATA, add(CFA_XSP16, literal(-9)))
        CFI (cfiCond436) V2 load(1, XDATA, add(CFA_XSP16, literal(-8)))
        CFI (cfiCond436) V3 load(1, XDATA, add(CFA_XSP16, literal(-7)))
        CFI (cfiCond436) R7 load(1, XDATA, add(CFA_XSP16, literal(-6)))
        CFI (cfiCond436) ?RET_LOW load(1, XDATA, add(CFA_XSP16, literal(-5)))
        CFI (cfiCond436) ?RET_HIGH load(1, XDATA, add(CFA_XSP16, literal(-4)))
        CFI (cfiCond436) ?BRET_EXT load(1, XDATA, add(CFA_XSP16, literal(-3)))
        CFI (cfiCond436) DPL0 load(1, XDATA, add(CFA_XSP16, literal(-2)))
        CFI (cfiCond436) DPH0 load(1, XDATA, add(CFA_XSP16, literal(-1)))
        CFI (cfiCond436) CFA_SP SP+0
        CFI (cfiCond436) CFA_XSP16 add(XSP16, 35)
        CFI Block cfiCond437 Using cfiCommon0
        CFI (cfiCond437) NoFunction
        CFI (cfiCond437) Conditional ??CrossCallReturnLabel_253, ??CrossCallReturnLabel_247, ??CrossCallReturnLabel_229
        CFI (cfiCond437) R6 load(1, XDATA, add(CFA_XSP16, literal(-9)))
        CFI (cfiCond437) VB load(1, XDATA, add(CFA_XSP16, literal(-8)))
        CFI (cfiCond437) V0 load(1, XDATA, add(CFA_XSP16, literal(-7)))
        CFI (cfiCond437) R7 load(1, XDATA, add(CFA_XSP16, literal(-6)))
        CFI (cfiCond437) ?RET_LOW load(1, XDATA, add(CFA_XSP16, literal(-5)))
        CFI (cfiCond437) ?RET_HIGH load(1, XDATA, add(CFA_XSP16, literal(-4)))
        CFI (cfiCond437) ?BRET_EXT load(1, XDATA, add(CFA_XSP16, literal(-3)))
        CFI (cfiCond437) DPL0 load(1, XDATA, add(CFA_XSP16, literal(-2)))
        CFI (cfiCond437) DPH0 load(1, XDATA, add(CFA_XSP16, literal(-1)))
        CFI (cfiCond437) CFA_SP SP+0
        CFI (cfiCond437) CFA_XSP16 add(XSP16, 9)
        CFI Block cfiCond438 Using cfiCommon0
        CFI (cfiCond438) NoFunction
        CFI (cfiCond438) Conditional ??CrossCallReturnLabel_253, ??CrossCallReturnLabel_247, ??CrossCallReturnLabel_230
        CFI (cfiCond438) R6 load(1, XDATA, add(CFA_XSP16, literal(-9)))
        CFI (cfiCond438) VB load(1, XDATA, add(CFA_XSP16, literal(-8)))
        CFI (cfiCond438) V0 load(1, XDATA, add(CFA_XSP16, literal(-7)))
        CFI (cfiCond438) R7 load(1, XDATA, add(CFA_XSP16, literal(-6)))
        CFI (cfiCond438) ?RET_LOW load(1, XDATA, add(CFA_XSP16, literal(-5)))
        CFI (cfiCond438) ?RET_HIGH load(1, XDATA, add(CFA_XSP16, literal(-4)))
        CFI (cfiCond438) ?BRET_EXT load(1, XDATA, add(CFA_XSP16, literal(-3)))
        CFI (cfiCond438) DPL0 load(1, XDATA, add(CFA_XSP16, literal(-2)))
        CFI (cfiCond438) DPH0 load(1, XDATA, add(CFA_XSP16, literal(-1)))
        CFI (cfiCond438) CFA_SP SP+0
        CFI (cfiCond438) CFA_XSP16 add(XSP16, 9)
        CFI Block cfiCond439 Using cfiCommon0
        CFI (cfiCond439) NoFunction
        CFI (cfiCond439) Conditional ??CrossCallReturnLabel_253, ??CrossCallReturnLabel_247, ??CrossCallReturnLabel_231
        CFI (cfiCond439) R6 load(1, XDATA, add(CFA_XSP16, literal(-10)))
        CFI (cfiCond439) VB load(1, XDATA, add(CFA_XSP16, literal(-9)))
        CFI (cfiCond439) V0 load(1, XDATA, add(CFA_XSP16, literal(-8)))
        CFI (cfiCond439) V1 load(1, XDATA, add(CFA_XSP16, literal(-7)))
        CFI (cfiCond439) R7 load(1, XDATA, add(CFA_XSP16, literal(-6)))
        CFI (cfiCond439) ?RET_LOW load(1, XDATA, add(CFA_XSP16, literal(-5)))
        CFI (cfiCond439) ?RET_HIGH load(1, XDATA, add(CFA_XSP16, literal(-4)))
        CFI (cfiCond439) ?BRET_EXT load(1, XDATA, add(CFA_XSP16, literal(-3)))
        CFI (cfiCond439) DPL0 load(1, XDATA, add(CFA_XSP16, literal(-2)))
        CFI (cfiCond439) DPH0 load(1, XDATA, add(CFA_XSP16, literal(-1)))
        CFI (cfiCond439) CFA_SP SP+0
        CFI (cfiCond439) CFA_XSP16 add(XSP16, 17)
        CFI Block cfiCond440 Using cfiCommon0
        CFI (cfiCond440) NoFunction
        CFI (cfiCond440) Conditional ??CrossCallReturnLabel_253, ??CrossCallReturnLabel_247, ??CrossCallReturnLabel_232
        CFI (cfiCond440) R6 load(1, XDATA, add(CFA_XSP16, literal(-10)))
        CFI (cfiCond440) VB load(1, XDATA, add(CFA_XSP16, literal(-9)))
        CFI (cfiCond440) V0 load(1, XDATA, add(CFA_XSP16, literal(-8)))
        CFI (cfiCond440) V1 load(1, XDATA, add(CFA_XSP16, literal(-7)))
        CFI (cfiCond440) R7 load(1, XDATA, add(CFA_XSP16, literal(-6)))
        CFI (cfiCond440) ?RET_LOW load(1, XDATA, add(CFA_XSP16, literal(-5)))
        CFI (cfiCond440) ?RET_HIGH load(1, XDATA, add(CFA_XSP16, literal(-4)))
        CFI (cfiCond440) ?BRET_EXT load(1, XDATA, add(CFA_XSP16, literal(-3)))
        CFI (cfiCond440) DPL0 load(1, XDATA, add(CFA_XSP16, literal(-2)))
        CFI (cfiCond440) DPH0 load(1, XDATA, add(CFA_XSP16, literal(-1)))
        CFI (cfiCond440) CFA_SP SP+0
        CFI (cfiCond440) CFA_XSP16 add(XSP16, 23)
        CFI Block cfiCond441 Using cfiCommon0
        CFI (cfiCond441) NoFunction
        CFI (cfiCond441) Conditional ??CrossCallReturnLabel_253, ??CrossCallReturnLabel_247, ??CrossCallReturnLabel_233
        CFI (cfiCond441) R6 load(1, XDATA, add(CFA_XSP16, literal(-10)))
        CFI (cfiCond441) VB load(1, XDATA, add(CFA_XSP16, literal(-9)))
        CFI (cfiCond441) V0 load(1, XDATA, add(CFA_XSP16, literal(-8)))
        CFI (cfiCond441) V1 load(1, XDATA, add(CFA_XSP16, literal(-7)))
        CFI (cfiCond441) R7 load(1, XDATA, add(CFA_XSP16, literal(-6)))
        CFI (cfiCond441) ?RET_LOW load(1, XDATA, add(CFA_XSP16, literal(-5)))
        CFI (cfiCond441) ?RET_HIGH load(1, XDATA, add(CFA_XSP16, literal(-4)))
        CFI (cfiCond441) ?BRET_EXT load(1, XDATA, add(CFA_XSP16, literal(-3)))
        CFI (cfiCond441) DPL0 load(1, XDATA, add(CFA_XSP16, literal(-2)))
        CFI (cfiCond441) DPH0 load(1, XDATA, add(CFA_XSP16, literal(-1)))
        CFI (cfiCond441) CFA_SP SP+0
        CFI (cfiCond441) CFA_XSP16 add(XSP16, 19)
        CFI Block cfiCond442 Using cfiCommon0
        CFI (cfiCond442) NoFunction
        CFI (cfiCond442) Conditional ??CrossCallReturnLabel_253, ??CrossCallReturnLabel_247, ??CrossCallReturnLabel_234
        CFI (cfiCond442) R6 load(1, XDATA, add(CFA_XSP16, literal(-12)))
        CFI (cfiCond442) VB load(1, XDATA, add(CFA_XSP16, literal(-11)))
        CFI (cfiCond442) V0 load(1, XDATA, add(CFA_XSP16, literal(-10)))
        CFI (cfiCond442) V1 load(1, XDATA, add(CFA_XSP16, literal(-9)))
        CFI (cfiCond442) V2 load(1, XDATA, add(CFA_XSP16, literal(-8)))
        CFI (cfiCond442) V3 load(1, XDATA, add(CFA_XSP16, literal(-7)))
        CFI (cfiCond442) R7 load(1, XDATA, add(CFA_XSP16, literal(-6)))
        CFI (cfiCond442) ?RET_LOW load(1, XDATA, add(CFA_XSP16, literal(-5)))
        CFI (cfiCond442) ?RET_HIGH load(1, XDATA, add(CFA_XSP16, literal(-4)))
        CFI (cfiCond442) ?BRET_EXT load(1, XDATA, add(CFA_XSP16, literal(-3)))
        CFI (cfiCond442) DPL0 load(1, XDATA, add(CFA_XSP16, literal(-2)))
        CFI (cfiCond442) DPH0 load(1, XDATA, add(CFA_XSP16, literal(-1)))
        CFI (cfiCond442) CFA_SP SP+0
        CFI (cfiCond442) CFA_XSP16 add(XSP16, 29)
        CFI Block cfiCond443 Using cfiCommon0
        CFI (cfiCond443) NoFunction
        CFI (cfiCond443) Conditional ??CrossCallReturnLabel_253, ??CrossCallReturnLabel_247, ??CrossCallReturnLabel_235
        CFI (cfiCond443) R6 load(1, XDATA, add(CFA_XSP16, literal(-12)))
        CFI (cfiCond443) VB load(1, XDATA, add(CFA_XSP16, literal(-11)))
        CFI (cfiCond443) V0 load(1, XDATA, add(CFA_XSP16, literal(-10)))
        CFI (cfiCond443) V1 load(1, XDATA, add(CFA_XSP16, literal(-9)))
        CFI (cfiCond443) V2 load(1, XDATA, add(CFA_XSP16, literal(-8)))
        CFI (cfiCond443) V3 load(1, XDATA, add(CFA_XSP16, literal(-7)))
        CFI (cfiCond443) R7 load(1, XDATA, add(CFA_XSP16, literal(-6)))
        CFI (cfiCond443) ?RET_LOW load(1, XDATA, add(CFA_XSP16, literal(-5)))
        CFI (cfiCond443) ?RET_HIGH load(1, XDATA, add(CFA_XSP16, literal(-4)))
        CFI (cfiCond443) ?BRET_EXT load(1, XDATA, add(CFA_XSP16, literal(-3)))
        CFI (cfiCond443) DPL0 load(1, XDATA, add(CFA_XSP16, literal(-2)))
        CFI (cfiCond443) DPH0 load(1, XDATA, add(CFA_XSP16, literal(-1)))
        CFI (cfiCond443) CFA_SP SP+0
        CFI (cfiCond443) CFA_XSP16 add(XSP16, 32)
        CFI Block cfiCond444 Using cfiCommon0
        CFI (cfiCond444) NoFunction
        CFI (cfiCond444) Conditional ??CrossCallReturnLabel_253, ??CrossCallReturnLabel_247, ??CrossCallReturnLabel_236
        CFI (cfiCond444) R6 load(1, XDATA, add(CFA_XSP16, literal(-12)))
        CFI (cfiCond444) VB load(1, XDATA, add(CFA_XSP16, literal(-11)))
        CFI (cfiCond444) V0 load(1, XDATA, add(CFA_XSP16, literal(-10)))
        CFI (cfiCond444) V1 load(1, XDATA, add(CFA_XSP16, literal(-9)))
        CFI (cfiCond444) V2 load(1, XDATA, add(CFA_XSP16, literal(-8)))
        CFI (cfiCond444) V3 load(1, XDATA, add(CFA_XSP16, literal(-7)))
        CFI (cfiCond444) R7 load(1, XDATA, add(CFA_XSP16, literal(-6)))
        CFI (cfiCond444) ?RET_LOW load(1, XDATA, add(CFA_XSP16, literal(-5)))
        CFI (cfiCond444) ?RET_HIGH load(1, XDATA, add(CFA_XSP16, literal(-4)))
        CFI (cfiCond444) ?BRET_EXT load(1, XDATA, add(CFA_XSP16, literal(-3)))
        CFI (cfiCond444) DPL0 load(1, XDATA, add(CFA_XSP16, literal(-2)))
        CFI (cfiCond444) DPH0 load(1, XDATA, add(CFA_XSP16, literal(-1)))
        CFI (cfiCond444) CFA_SP SP+0
        CFI (cfiCond444) CFA_XSP16 add(XSP16, 32)
        CFI Block cfiCond445 Using cfiCommon0
        CFI (cfiCond445) NoFunction
        CFI (cfiCond445) Conditional ??CrossCallReturnLabel_253, ??CrossCallReturnLabel_247, ??CrossCallReturnLabel_237
        CFI (cfiCond445) R6 load(1, XDATA, add(CFA_XSP16, literal(-10)))
        CFI (cfiCond445) VB load(1, XDATA, add(CFA_XSP16, literal(-9)))
        CFI (cfiCond445) V0 load(1, XDATA, add(CFA_XSP16, literal(-8)))
        CFI (cfiCond445) V1 load(1, XDATA, add(CFA_XSP16, literal(-7)))
        CFI (cfiCond445) R7 load(1, XDATA, add(CFA_XSP16, literal(-6)))
        CFI (cfiCond445) ?RET_LOW load(1, XDATA, add(CFA_XSP16, literal(-5)))
        CFI (cfiCond445) ?RET_HIGH load(1, XDATA, add(CFA_XSP16, literal(-4)))
        CFI (cfiCond445) ?BRET_EXT load(1, XDATA, add(CFA_XSP16, literal(-3)))
        CFI (cfiCond445) DPL0 load(1, XDATA, add(CFA_XSP16, literal(-2)))
        CFI (cfiCond445) DPH0 load(1, XDATA, add(CFA_XSP16, literal(-1)))
        CFI (cfiCond445) CFA_SP SP+0
        CFI (cfiCond445) CFA_XSP16 add(XSP16, 16)
        CFI Block cfiCond446 Using cfiCommon0
        CFI (cfiCond446) NoFunction
        CFI (cfiCond446) Conditional ??CrossCallReturnLabel_253, ??CrossCallReturnLabel_247, ??CrossCallReturnLabel_238
        CFI (cfiCond446) R6 load(1, XDATA, add(CFA_XSP16, literal(-13)))
        CFI (cfiCond446) VB load(1, XDATA, add(CFA_XSP16, literal(-12)))
        CFI (cfiCond446) V0 load(1, XDATA, add(CFA_XSP16, literal(-11)))
        CFI (cfiCond446) V1 load(1, XDATA, add(CFA_XSP16, literal(-10)))
        CFI (cfiCond446) V2 load(1, XDATA, add(CFA_XSP16, literal(-9)))
        CFI (cfiCond446) V3 load(1, XDATA, add(CFA_XSP16, literal(-8)))
        CFI (cfiCond446) V4 load(1, XDATA, add(CFA_XSP16, literal(-7)))
        CFI (cfiCond446) R7 load(1, XDATA, add(CFA_XSP16, literal(-6)))
        CFI (cfiCond446) ?RET_LOW load(1, XDATA, add(CFA_XSP16, literal(-5)))
        CFI (cfiCond446) ?RET_HIGH load(1, XDATA, add(CFA_XSP16, literal(-4)))
        CFI (cfiCond446) ?BRET_EXT load(1, XDATA, add(CFA_XSP16, literal(-3)))
        CFI (cfiCond446) DPL0 load(1, XDATA, add(CFA_XSP16, literal(-2)))
        CFI (cfiCond446) DPH0 load(1, XDATA, add(CFA_XSP16, literal(-1)))
        CFI (cfiCond446) CFA_SP SP+0
        CFI (cfiCond446) CFA_XSP16 add(XSP16, 15)
        CFI Block cfiCond447 Using cfiCommon0
        CFI (cfiCond447) NoFunction
        CFI (cfiCond447) Conditional ??CrossCallReturnLabel_253, ??CrossCallReturnLabel_247, ??CrossCallReturnLabel_239
        CFI (cfiCond447) DPL0 Frame(CFA_SP, 4)
        CFI (cfiCond447) DPH0 Frame(CFA_SP, 5)
        CFI (cfiCond447) CFA_SP SP+-5
        CFI (cfiCond447) CFA_XSP16 add(XSP16, 10)
        CFI Block cfiCond448 Using cfiCommon0
        CFI (cfiCond448) NoFunction
        CFI (cfiCond448) Conditional ??CrossCallReturnLabel_253, ??CrossCallReturnLabel_241, ??CrossCallReturnLabel_10
        CFI (cfiCond448) R6 load(1, XDATA, add(CFA_XSP16, literal(-12)))
        CFI (cfiCond448) VB load(1, XDATA, add(CFA_XSP16, literal(-11)))
        CFI (cfiCond448) V0 load(1, XDATA, add(CFA_XSP16, literal(-10)))
        CFI (cfiCond448) V1 load(1, XDATA, add(CFA_XSP16, literal(-9)))
        CFI (cfiCond448) V2 load(1, XDATA, add(CFA_XSP16, literal(-8)))
        CFI (cfiCond448) V3 load(1, XDATA, add(CFA_XSP16, literal(-7)))
        CFI (cfiCond448) R7 load(1, XDATA, add(CFA_XSP16, literal(-6)))
        CFI (cfiCond448) ?RET_LOW load(1, XDATA, add(CFA_XSP16, literal(-5)))
        CFI (cfiCond448) ?RET_HIGH load(1, XDATA, add(CFA_XSP16, literal(-4)))
        CFI (cfiCond448) ?BRET_EXT load(1, XDATA, add(CFA_XSP16, literal(-3)))
        CFI (cfiCond448) DPL0 load(1, XDATA, add(CFA_XSP16, literal(-2)))
        CFI (cfiCond448) DPH0 load(1, XDATA, add(CFA_XSP16, literal(-1)))
        CFI (cfiCond448) CFA_SP SP+0
        CFI (cfiCond448) CFA_XSP16 add(XSP16, 29)
        CFI Block cfiCond449 Using cfiCommon0
        CFI (cfiCond449) NoFunction
        CFI (cfiCond449) Conditional ??CrossCallReturnLabel_253, ??CrossCallReturnLabel_241, ??CrossCallReturnLabel_11
        CFI (cfiCond449) R6 load(1, XDATA, add(CFA_XSP16, literal(-12)))
        CFI (cfiCond449) VB load(1, XDATA, add(CFA_XSP16, literal(-11)))
        CFI (cfiCond449) V0 load(1, XDATA, add(CFA_XSP16, literal(-10)))
        CFI (cfiCond449) V1 load(1, XDATA, add(CFA_XSP16, literal(-9)))
        CFI (cfiCond449) V2 load(1, XDATA, add(CFA_XSP16, literal(-8)))
        CFI (cfiCond449) V3 load(1, XDATA, add(CFA_XSP16, literal(-7)))
        CFI (cfiCond449) R7 load(1, XDATA, add(CFA_XSP16, literal(-6)))
        CFI (cfiCond449) ?RET_LOW load(1, XDATA, add(CFA_XSP16, literal(-5)))
        CFI (cfiCond449) ?RET_HIGH load(1, XDATA, add(CFA_XSP16, literal(-4)))
        CFI (cfiCond449) ?BRET_EXT load(1, XDATA, add(CFA_XSP16, literal(-3)))
        CFI (cfiCond449) DPL0 load(1, XDATA, add(CFA_XSP16, literal(-2)))
        CFI (cfiCond449) DPH0 load(1, XDATA, add(CFA_XSP16, literal(-1)))
        CFI (cfiCond449) CFA_SP SP+0
        CFI (cfiCond449) CFA_XSP16 add(XSP16, 29)
        CFI Block cfiCond450 Using cfiCommon0
        CFI (cfiCond450) NoFunction
        CFI (cfiCond450) Conditional ??CrossCallReturnLabel_253, ??CrossCallReturnLabel_244, ??CrossCallReturnLabel_53
        CFI (cfiCond450) R6 load(1, XDATA, add(CFA_XSP16, literal(-12)))
        CFI (cfiCond450) VB load(1, XDATA, add(CFA_XSP16, literal(-11)))
        CFI (cfiCond450) V0 load(1, XDATA, add(CFA_XSP16, literal(-10)))
        CFI (cfiCond450) V1 load(1, XDATA, add(CFA_XSP16, literal(-9)))
        CFI (cfiCond450) V2 load(1, XDATA, add(CFA_XSP16, literal(-8)))
        CFI (cfiCond450) V3 load(1, XDATA, add(CFA_XSP16, literal(-7)))
        CFI (cfiCond450) R7 load(1, XDATA, add(CFA_XSP16, literal(-6)))
        CFI (cfiCond450) ?RET_LOW load(1, XDATA, add(CFA_XSP16, literal(-5)))
        CFI (cfiCond450) ?RET_HIGH load(1, XDATA, add(CFA_XSP16, literal(-4)))
        CFI (cfiCond450) ?BRET_EXT load(1, XDATA, add(CFA_XSP16, literal(-3)))
        CFI (cfiCond450) DPL0 load(1, XDATA, add(CFA_XSP16, literal(-2)))
        CFI (cfiCond450) DPH0 load(1, XDATA, add(CFA_XSP16, literal(-1)))
        CFI (cfiCond450) CFA_SP SP+0
        CFI (cfiCond450) CFA_XSP16 add(XSP16, 25)
        CFI Block cfiCond451 Using cfiCommon0
        CFI (cfiCond451) NoFunction
        CFI (cfiCond451) Conditional ??CrossCallReturnLabel_253, ??CrossCallReturnLabel_244, ??CrossCallReturnLabel_54
        CFI (cfiCond451) R6 load(1, XDATA, add(CFA_XSP16, literal(-12)))
        CFI (cfiCond451) VB load(1, XDATA, add(CFA_XSP16, literal(-11)))
        CFI (cfiCond451) V0 load(1, XDATA, add(CFA_XSP16, literal(-10)))
        CFI (cfiCond451) V1 load(1, XDATA, add(CFA_XSP16, literal(-9)))
        CFI (cfiCond451) V2 load(1, XDATA, add(CFA_XSP16, literal(-8)))
        CFI (cfiCond451) V3 load(1, XDATA, add(CFA_XSP16, literal(-7)))
        CFI (cfiCond451) R7 load(1, XDATA, add(CFA_XSP16, literal(-6)))
        CFI (cfiCond451) ?RET_LOW load(1, XDATA, add(CFA_XSP16, literal(-5)))
        CFI (cfiCond451) ?RET_HIGH load(1, XDATA, add(CFA_XSP16, literal(-4)))
        CFI (cfiCond451) ?BRET_EXT load(1, XDATA, add(CFA_XSP16, literal(-3)))
        CFI (cfiCond451) DPL0 load(1, XDATA, add(CFA_XSP16, literal(-2)))
        CFI (cfiCond451) DPH0 load(1, XDATA, add(CFA_XSP16, literal(-1)))
        CFI (cfiCond451) CFA_SP SP+0
        CFI (cfiCond451) CFA_XSP16 add(XSP16, 16)
        CFI Block cfiCond452 Using cfiCommon0
        CFI (cfiCond452) NoFunction
        CFI (cfiCond452) Conditional ??CrossCallReturnLabel_251, ??CrossCallReturnLabel_142, ??CrossCallReturnLabel_137
        CFI (cfiCond452) R6 load(1, XDATA, add(CFA_XSP16, literal(-9)))
        CFI (cfiCond452) VB load(1, XDATA, add(CFA_XSP16, literal(-8)))
        CFI (cfiCond452) V0 load(1, XDATA, add(CFA_XSP16, literal(-7)))
        CFI (cfiCond452) R7 load(1, XDATA, add(CFA_XSP16, literal(-6)))
        CFI (cfiCond452) ?RET_LOW load(1, XDATA, add(CFA_XSP16, literal(-5)))
        CFI (cfiCond452) ?RET_HIGH load(1, XDATA, add(CFA_XSP16, literal(-4)))
        CFI (cfiCond452) ?BRET_EXT load(1, XDATA, add(CFA_XSP16, literal(-3)))
        CFI (cfiCond452) DPL0 load(1, XDATA, add(CFA_XSP16, literal(-2)))
        CFI (cfiCond452) DPH0 load(1, XDATA, add(CFA_XSP16, literal(-1)))
        CFI (cfiCond452) CFA_SP SP+0
        CFI (cfiCond452) CFA_XSP16 add(XSP16, 9)
        CFI Block cfiCond453 Using cfiCommon0
        CFI (cfiCond453) NoFunction
        CFI (cfiCond453) Conditional ??CrossCallReturnLabel_251, ??CrossCallReturnLabel_142, ??CrossCallReturnLabel_138
        CFI (cfiCond453) R6 load(1, XDATA, add(CFA_XSP16, literal(-9)))
        CFI (cfiCond453) VB load(1, XDATA, add(CFA_XSP16, literal(-8)))
        CFI (cfiCond453) V0 load(1, XDATA, add(CFA_XSP16, literal(-7)))
        CFI (cfiCond453) R7 load(1, XDATA, add(CFA_XSP16, literal(-6)))
        CFI (cfiCond453) ?RET_LOW load(1, XDATA, add(CFA_XSP16, literal(-5)))
        CFI (cfiCond453) ?RET_HIGH load(1, XDATA, add(CFA_XSP16, literal(-4)))
        CFI (cfiCond453) ?BRET_EXT load(1, XDATA, add(CFA_XSP16, literal(-3)))
        CFI (cfiCond453) DPL0 load(1, XDATA, add(CFA_XSP16, literal(-2)))
        CFI (cfiCond453) DPH0 load(1, XDATA, add(CFA_XSP16, literal(-1)))
        CFI (cfiCond453) CFA_SP SP+0
        CFI (cfiCond453) CFA_XSP16 add(XSP16, 9)
        CFI Block cfiCond454 Using cfiCommon0
        CFI (cfiCond454) NoFunction
        CFI (cfiCond454) Conditional ??CrossCallReturnLabel_251, ??CrossCallReturnLabel_142, ??CrossCallReturnLabel_139
        CFI (cfiCond454) R6 load(1, XDATA, add(CFA_XSP16, literal(-9)))
        CFI (cfiCond454) VB load(1, XDATA, add(CFA_XSP16, literal(-8)))
        CFI (cfiCond454) V0 load(1, XDATA, add(CFA_XSP16, literal(-7)))
        CFI (cfiCond454) R7 load(1, XDATA, add(CFA_XSP16, literal(-6)))
        CFI (cfiCond454) ?RET_LOW load(1, XDATA, add(CFA_XSP16, literal(-5)))
        CFI (cfiCond454) ?RET_HIGH load(1, XDATA, add(CFA_XSP16, literal(-4)))
        CFI (cfiCond454) ?BRET_EXT load(1, XDATA, add(CFA_XSP16, literal(-3)))
        CFI (cfiCond454) DPL0 load(1, XDATA, add(CFA_XSP16, literal(-2)))
        CFI (cfiCond454) DPH0 load(1, XDATA, add(CFA_XSP16, literal(-1)))
        CFI (cfiCond454) CFA_SP SP+0
        CFI (cfiCond454) CFA_XSP16 add(XSP16, 9)
        CFI Block cfiCond455 Using cfiCommon0
        CFI (cfiCond455) NoFunction
        CFI (cfiCond455) Conditional ??CrossCallReturnLabel_251, ??CrossCallReturnLabel_142, ??CrossCallReturnLabel_136
        CFI (cfiCond455) R6 load(1, XDATA, add(CFA_XSP16, literal(-9)))
        CFI (cfiCond455) VB load(1, XDATA, add(CFA_XSP16, literal(-8)))
        CFI (cfiCond455) V0 load(1, XDATA, add(CFA_XSP16, literal(-7)))
        CFI (cfiCond455) R7 load(1, XDATA, add(CFA_XSP16, literal(-6)))
        CFI (cfiCond455) ?RET_LOW load(1, XDATA, add(CFA_XSP16, literal(-5)))
        CFI (cfiCond455) ?RET_HIGH load(1, XDATA, add(CFA_XSP16, literal(-4)))
        CFI (cfiCond455) ?BRET_EXT load(1, XDATA, add(CFA_XSP16, literal(-3)))
        CFI (cfiCond455) DPL0 load(1, XDATA, add(CFA_XSP16, literal(-2)))
        CFI (cfiCond455) DPH0 load(1, XDATA, add(CFA_XSP16, literal(-1)))
        CFI (cfiCond455) CFA_SP SP+0
        CFI (cfiCond455) CFA_XSP16 add(XSP16, 13)
        CFI Block cfiCond456 Using cfiCommon0
        CFI (cfiCond456) NoFunction
        CFI (cfiCond456) Conditional ??CrossCallReturnLabel_251, ??CrossCallReturnLabel_140, ??CrossCallReturnLabel_45
        CFI (cfiCond456) R6 load(1, XDATA, add(CFA_XSP16, literal(-10)))
        CFI (cfiCond456) VB load(1, XDATA, add(CFA_XSP16, literal(-9)))
        CFI (cfiCond456) V0 load(1, XDATA, add(CFA_XSP16, literal(-8)))
        CFI (cfiCond456) V1 load(1, XDATA, add(CFA_XSP16, literal(-7)))
        CFI (cfiCond456) R7 load(1, XDATA, add(CFA_XSP16, literal(-6)))
        CFI (cfiCond456) ?RET_LOW load(1, XDATA, add(CFA_XSP16, literal(-5)))
        CFI (cfiCond456) ?RET_HIGH load(1, XDATA, add(CFA_XSP16, literal(-4)))
        CFI (cfiCond456) ?BRET_EXT load(1, XDATA, add(CFA_XSP16, literal(-3)))
        CFI (cfiCond456) DPL0 load(1, XDATA, add(CFA_XSP16, literal(-2)))
        CFI (cfiCond456) DPH0 load(1, XDATA, add(CFA_XSP16, literal(-1)))
        CFI (cfiCond456) CFA_SP SP+0
        CFI (cfiCond456) CFA_XSP16 add(XSP16, 23)
        CFI Block cfiCond457 Using cfiCommon0
        CFI (cfiCond457) NoFunction
        CFI (cfiCond457) Conditional ??CrossCallReturnLabel_251, ??CrossCallReturnLabel_140, ??CrossCallReturnLabel_46
        CFI (cfiCond457) R6 load(1, XDATA, add(CFA_XSP16, literal(-10)))
        CFI (cfiCond457) VB load(1, XDATA, add(CFA_XSP16, literal(-9)))
        CFI (cfiCond457) V0 load(1, XDATA, add(CFA_XSP16, literal(-8)))
        CFI (cfiCond457) V1 load(1, XDATA, add(CFA_XSP16, literal(-7)))
        CFI (cfiCond457) R7 load(1, XDATA, add(CFA_XSP16, literal(-6)))
        CFI (cfiCond457) ?RET_LOW load(1, XDATA, add(CFA_XSP16, literal(-5)))
        CFI (cfiCond457) ?RET_HIGH load(1, XDATA, add(CFA_XSP16, literal(-4)))
        CFI (cfiCond457) ?BRET_EXT load(1, XDATA, add(CFA_XSP16, literal(-3)))
        CFI (cfiCond457) DPL0 load(1, XDATA, add(CFA_XSP16, literal(-2)))
        CFI (cfiCond457) DPH0 load(1, XDATA, add(CFA_XSP16, literal(-1)))
        CFI (cfiCond457) CFA_SP SP+0
        CFI (cfiCond457) CFA_XSP16 add(XSP16, 33)
        CFI Block cfiCond458 Using cfiCommon0
        CFI (cfiCond458) NoFunction
        CFI (cfiCond458) Conditional ??CrossCallReturnLabel_251, ??CrossCallReturnLabel_141, ??CrossCallReturnLabel_47
        CFI (cfiCond458) R6 load(1, XDATA, add(CFA_XSP16, literal(-12)))
        CFI (cfiCond458) VB load(1, XDATA, add(CFA_XSP16, literal(-11)))
        CFI (cfiCond458) V0 load(1, XDATA, add(CFA_XSP16, literal(-10)))
        CFI (cfiCond458) V1 load(1, XDATA, add(CFA_XSP16, literal(-9)))
        CFI (cfiCond458) V2 load(1, XDATA, add(CFA_XSP16, literal(-8)))
        CFI (cfiCond458) V3 load(1, XDATA, add(CFA_XSP16, literal(-7)))
        CFI (cfiCond458) R7 load(1, XDATA, add(CFA_XSP16, literal(-6)))
        CFI (cfiCond458) ?RET_LOW load(1, XDATA, add(CFA_XSP16, literal(-5)))
        CFI (cfiCond458) ?RET_HIGH load(1, XDATA, add(CFA_XSP16, literal(-4)))
        CFI (cfiCond458) ?BRET_EXT load(1, XDATA, add(CFA_XSP16, literal(-3)))
        CFI (cfiCond458) DPL0 load(1, XDATA, add(CFA_XSP16, literal(-2)))
        CFI (cfiCond458) DPH0 load(1, XDATA, add(CFA_XSP16, literal(-1)))
        CFI (cfiCond458) CFA_SP SP+0
        CFI (cfiCond458) CFA_XSP16 add(XSP16, 14)
        CFI Block cfiCond459 Using cfiCommon0
        CFI (cfiCond459) NoFunction
        CFI (cfiCond459) Conditional ??CrossCallReturnLabel_251, ??CrossCallReturnLabel_141, ??CrossCallReturnLabel_48
        CFI (cfiCond459) R6 load(1, XDATA, add(CFA_XSP16, literal(-12)))
        CFI (cfiCond459) VB load(1, XDATA, add(CFA_XSP16, literal(-11)))
        CFI (cfiCond459) V0 load(1, XDATA, add(CFA_XSP16, literal(-10)))
        CFI (cfiCond459) V1 load(1, XDATA, add(CFA_XSP16, literal(-9)))
        CFI (cfiCond459) V2 load(1, XDATA, add(CFA_XSP16, literal(-8)))
        CFI (cfiCond459) V3 load(1, XDATA, add(CFA_XSP16, literal(-7)))
        CFI (cfiCond459) R7 load(1, XDATA, add(CFA_XSP16, literal(-6)))
        CFI (cfiCond459) ?RET_LOW load(1, XDATA, add(CFA_XSP16, literal(-5)))
        CFI (cfiCond459) ?RET_HIGH load(1, XDATA, add(CFA_XSP16, literal(-4)))
        CFI (cfiCond459) ?BRET_EXT load(1, XDATA, add(CFA_XSP16, literal(-3)))
        CFI (cfiCond459) DPL0 load(1, XDATA, add(CFA_XSP16, literal(-2)))
        CFI (cfiCond459) DPH0 load(1, XDATA, add(CFA_XSP16, literal(-1)))
        CFI (cfiCond459) CFA_SP SP+0
        CFI (cfiCond459) CFA_XSP16 add(XSP16, 14)
        CFI Block cfiCond460 Using cfiCommon0
        CFI (cfiCond460) NoFunction
        CFI (cfiCond460) Conditional ??CrossCallReturnLabel_251, ??CrossCallReturnLabel_141, ??CrossCallReturnLabel_49
        CFI (cfiCond460) R6 load(1, XDATA, add(CFA_XSP16, literal(-9)))
        CFI (cfiCond460) VB load(1, XDATA, add(CFA_XSP16, literal(-8)))
        CFI (cfiCond460) V0 load(1, XDATA, add(CFA_XSP16, literal(-7)))
        CFI (cfiCond460) R7 load(1, XDATA, add(CFA_XSP16, literal(-6)))
        CFI (cfiCond460) ?RET_LOW load(1, XDATA, add(CFA_XSP16, literal(-5)))
        CFI (cfiCond460) ?RET_HIGH load(1, XDATA, add(CFA_XSP16, literal(-4)))
        CFI (cfiCond460) ?BRET_EXT load(1, XDATA, add(CFA_XSP16, literal(-3)))
        CFI (cfiCond460) DPL0 load(1, XDATA, add(CFA_XSP16, literal(-2)))
        CFI (cfiCond460) DPH0 load(1, XDATA, add(CFA_XSP16, literal(-1)))
        CFI (cfiCond460) CFA_SP SP+0
        CFI (cfiCond460) CFA_XSP16 add(XSP16, 11)
        CFI Block cfiPicker461 Using cfiCommon1
        CFI (cfiPicker461) NoFunction
        CFI (cfiPicker461) Picker
        MOVX    A,@DPTR
        MOV     R0,A
        INC     DPTR
        MOVX    A,@DPTR
        RET
        CFI EndBlock cfiCond394
        CFI EndBlock cfiCond395
        CFI EndBlock cfiCond396
        CFI EndBlock cfiCond397
        CFI EndBlock cfiCond398
        CFI EndBlock cfiCond399
        CFI EndBlock cfiCond400
        CFI EndBlock cfiCond401
        CFI EndBlock cfiCond402
        CFI EndBlock cfiCond403
        CFI EndBlock cfiCond404
        CFI EndBlock cfiCond405
        CFI EndBlock cfiCond406
        CFI EndBlock cfiCond407
        CFI EndBlock cfiCond408
        CFI EndBlock cfiCond409
        CFI EndBlock cfiCond410
        CFI EndBlock cfiCond411
        CFI EndBlock cfiCond412
        CFI EndBlock cfiCond413
        CFI EndBlock cfiCond414
        CFI EndBlock cfiCond415
        CFI EndBlock cfiCond416
        CFI EndBlock cfiCond417
        CFI EndBlock cfiCond418
        CFI EndBlock cfiCond419
        CFI EndBlock cfiCond420
        CFI EndBlock cfiCond421
        CFI EndBlock cfiCond422
        CFI EndBlock cfiCond423
        CFI EndBlock cfiCond424
        CFI EndBlock cfiCond425
        CFI EndBlock cfiCond426
        CFI EndBlock cfiCond427
        CFI EndBlock cfiCond428
        CFI EndBlock cfiCond429
        CFI EndBlock cfiCond430
        CFI EndBlock cfiCond431
        CFI EndBlock cfiCond432
        CFI EndBlock cfiCond433
        CFI EndBlock cfiCond434
        CFI EndBlock cfiCond435
        CFI EndBlock cfiCond436
        CFI EndBlock cfiCond437
        CFI EndBlock cfiCond438
        CFI EndBlock cfiCond439
        CFI EndBlock cfiCond440
        CFI EndBlock cfiCond441
        CFI EndBlock cfiCond442
        CFI EndBlock cfiCond443
        CFI EndBlock cfiCond444
        CFI EndBlock cfiCond445
        CFI EndBlock cfiCond446
        CFI EndBlock cfiCond447
        CFI EndBlock cfiCond448
        CFI EndBlock cfiCond449
        CFI EndBlock cfiCond450
        CFI EndBlock cfiCond451
        CFI EndBlock cfiCond452
        CFI EndBlock cfiCond453
        CFI EndBlock cfiCond454
        CFI EndBlock cfiCond455
        CFI EndBlock cfiCond456
        CFI EndBlock cfiCond457
        CFI EndBlock cfiCond458
        CFI EndBlock cfiCond459
        CFI EndBlock cfiCond460
        CFI EndBlock cfiPicker461

        RSEG BANKED_CODE:CODE:NOROOT(0)
?Subroutine32:
        CFI Block cfiCond462 Using cfiCommon0
        CFI NoFunction
        CFI Conditional ??CrossCallReturnLabel_197
        CFI R6 load(1, XDATA, add(CFA_XSP16, literal(-10)))
        CFI VB load(1, XDATA, add(CFA_XSP16, literal(-9)))
        CFI V0 load(1, XDATA, add(CFA_XSP16, literal(-8)))
        CFI V1 load(1, XDATA, add(CFA_XSP16, literal(-7)))
        CFI R7 load(1, XDATA, add(CFA_XSP16, literal(-6)))
        CFI ?RET_LOW load(1, XDATA, add(CFA_XSP16, literal(-5)))
        CFI ?RET_HIGH load(1, XDATA, add(CFA_XSP16, literal(-4)))
        CFI ?BRET_EXT load(1, XDATA, add(CFA_XSP16, literal(-3)))
        CFI DPL0 load(1, XDATA, add(CFA_XSP16, literal(-2)))
        CFI DPH0 load(1, XDATA, add(CFA_XSP16, literal(-1)))
        CFI CFA_SP SP+0
        CFI CFA_XSP16 add(XSP16, 12)
        CFI Block cfiCond463 Using cfiCommon0
        CFI (cfiCond463) NoFunction
        CFI (cfiCond463) Conditional ??CrossCallReturnLabel_198
        CFI (cfiCond463) R6 load(1, XDATA, add(CFA_XSP16, literal(-9)))
        CFI (cfiCond463) VB load(1, XDATA, add(CFA_XSP16, literal(-8)))
        CFI (cfiCond463) V0 load(1, XDATA, add(CFA_XSP16, literal(-7)))
        CFI (cfiCond463) R7 load(1, XDATA, add(CFA_XSP16, literal(-6)))
        CFI (cfiCond463) ?RET_LOW load(1, XDATA, add(CFA_XSP16, literal(-5)))
        CFI (cfiCond463) ?RET_HIGH load(1, XDATA, add(CFA_XSP16, literal(-4)))
        CFI (cfiCond463) ?BRET_EXT load(1, XDATA, add(CFA_XSP16, literal(-3)))
        CFI (cfiCond463) DPL0 load(1, XDATA, add(CFA_XSP16, literal(-2)))
        CFI (cfiCond463) DPH0 load(1, XDATA, add(CFA_XSP16, literal(-1)))
        CFI (cfiCond463) CFA_SP SP+0
        CFI (cfiCond463) CFA_XSP16 add(XSP16, 13)
        CFI Block cfiPicker464 Using cfiCommon1
        CFI (cfiPicker464) NoFunction
        CFI (cfiPicker464) Picker
        MOV     R3,A
        CFI EndBlock cfiCond462
        CFI EndBlock cfiCond463
        CFI EndBlock cfiPicker464
        REQUIRE ??Subroutine95_0
        ; // Fall through to label ??Subroutine95_0

        RSEG BANKED_CODE:CODE:NOROOT(0)
??Subroutine95_0:
        CFI Block cfiCond465 Using cfiCommon0
        CFI NoFunction
        CFI Conditional ??CrossCallReturnLabel_199
        CFI DPL0 Frame(CFA_SP, 4)
        CFI DPH0 Frame(CFA_SP, 5)
        CFI CFA_SP SP+-5
        CFI CFA_XSP16 add(XSP16, 2)
        CFI Block cfiCond466 Using cfiCommon0
        CFI (cfiCond466) NoFunction
        CFI (cfiCond466) Conditional ??CrossCallReturnLabel_197
        CFI (cfiCond466) R6 load(1, XDATA, add(CFA_XSP16, literal(-10)))
        CFI (cfiCond466) VB load(1, XDATA, add(CFA_XSP16, literal(-9)))
        CFI (cfiCond466) V0 load(1, XDATA, add(CFA_XSP16, literal(-8)))
        CFI (cfiCond466) V1 load(1, XDATA, add(CFA_XSP16, literal(-7)))
        CFI (cfiCond466) R7 load(1, XDATA, add(CFA_XSP16, literal(-6)))
        CFI (cfiCond466) ?RET_LOW load(1, XDATA, add(CFA_XSP16, literal(-5)))
        CFI (cfiCond466) ?RET_HIGH load(1, XDATA, add(CFA_XSP16, literal(-4)))
        CFI (cfiCond466) ?BRET_EXT load(1, XDATA, add(CFA_XSP16, literal(-3)))
        CFI (cfiCond466) DPL0 load(1, XDATA, add(CFA_XSP16, literal(-2)))
        CFI (cfiCond466) DPH0 load(1, XDATA, add(CFA_XSP16, literal(-1)))
        CFI (cfiCond466) CFA_SP SP+0
        CFI (cfiCond466) CFA_XSP16 add(XSP16, 12)
        CFI Block cfiCond467 Using cfiCommon0
        CFI (cfiCond467) NoFunction
        CFI (cfiCond467) Conditional ??CrossCallReturnLabel_198
        CFI (cfiCond467) R6 load(1, XDATA, add(CFA_XSP16, literal(-9)))
        CFI (cfiCond467) VB load(1, XDATA, add(CFA_XSP16, literal(-8)))
        CFI (cfiCond467) V0 load(1, XDATA, add(CFA_XSP16, literal(-7)))
        CFI (cfiCond467) R7 load(1, XDATA, add(CFA_XSP16, literal(-6)))
        CFI (cfiCond467) ?RET_LOW load(1, XDATA, add(CFA_XSP16, literal(-5)))
        CFI (cfiCond467) ?RET_HIGH load(1, XDATA, add(CFA_XSP16, literal(-4)))
        CFI (cfiCond467) ?BRET_EXT load(1, XDATA, add(CFA_XSP16, literal(-3)))
        CFI (cfiCond467) DPL0 load(1, XDATA, add(CFA_XSP16, literal(-2)))
        CFI (cfiCond467) DPH0 load(1, XDATA, add(CFA_XSP16, literal(-1)))
        CFI (cfiCond467) CFA_SP SP+0
        CFI (cfiCond467) CFA_XSP16 add(XSP16, 13)
        CFI Block cfiPicker468 Using cfiCommon1
        CFI (cfiPicker468) NoFunction
        CFI (cfiPicker468) Picker
        LCALL   ??ZDSecMgrCtrlLookup?relay
        CFI EndBlock cfiCond465
        CFI EndBlock cfiCond466
        CFI EndBlock cfiCond467
        CFI EndBlock cfiPicker468
        REQUIRE ??Subroutine96_0
        ; // Fall through to label ??Subroutine96_0

        RSEG BANKED_CODE:CODE:NOROOT(0)
??Subroutine96_0:
        CFI Block cfiCond469 Using cfiCommon0
        CFI NoFunction
        CFI Conditional ??CrossCallReturnLabel_210
        CFI R6 load(1, XDATA, add(CFA_XSP16, literal(-12)))
        CFI VB load(1, XDATA, add(CFA_XSP16, literal(-11)))
        CFI V0 load(1, XDATA, add(CFA_XSP16, literal(-10)))
        CFI V1 load(1, XDATA, add(CFA_XSP16, literal(-9)))
        CFI V2 load(1, XDATA, add(CFA_XSP16, literal(-8)))
        CFI V3 load(1, XDATA, add(CFA_XSP16, literal(-7)))
        CFI R7 load(1, XDATA, add(CFA_XSP16, literal(-6)))
        CFI ?RET_LOW load(1, XDATA, add(CFA_XSP16, literal(-5)))
        CFI ?RET_HIGH load(1, XDATA, add(CFA_XSP16, literal(-4)))
        CFI ?BRET_EXT load(1, XDATA, add(CFA_XSP16, literal(-3)))
        CFI DPL0 load(1, XDATA, add(CFA_XSP16, literal(-2)))
        CFI DPH0 load(1, XDATA, add(CFA_XSP16, literal(-1)))
        CFI CFA_SP SP+0
        CFI CFA_XSP16 add(XSP16, 14)
        CFI Block cfiCond470 Using cfiCommon0
        CFI (cfiCond470) NoFunction
        CFI (cfiCond470) Conditional ??CrossCallReturnLabel_211
        CFI (cfiCond470) R6 load(1, XDATA, add(CFA_XSP16, literal(-12)))
        CFI (cfiCond470) VB load(1, XDATA, add(CFA_XSP16, literal(-11)))
        CFI (cfiCond470) V0 load(1, XDATA, add(CFA_XSP16, literal(-10)))
        CFI (cfiCond470) V1 load(1, XDATA, add(CFA_XSP16, literal(-9)))
        CFI (cfiCond470) V2 load(1, XDATA, add(CFA_XSP16, literal(-8)))
        CFI (cfiCond470) V3 load(1, XDATA, add(CFA_XSP16, literal(-7)))
        CFI (cfiCond470) R7 load(1, XDATA, add(CFA_XSP16, literal(-6)))
        CFI (cfiCond470) ?RET_LOW load(1, XDATA, add(CFA_XSP16, literal(-5)))
        CFI (cfiCond470) ?RET_HIGH load(1, XDATA, add(CFA_XSP16, literal(-4)))
        CFI (cfiCond470) ?BRET_EXT load(1, XDATA, add(CFA_XSP16, literal(-3)))
        CFI (cfiCond470) DPL0 load(1, XDATA, add(CFA_XSP16, literal(-2)))
        CFI (cfiCond470) DPH0 load(1, XDATA, add(CFA_XSP16, literal(-1)))
        CFI (cfiCond470) CFA_SP SP+0
        CFI (cfiCond470) CFA_XSP16 add(XSP16, 16)
        CFI Block cfiCond471 Using cfiCommon0
        CFI (cfiCond471) NoFunction
        CFI (cfiCond471) Conditional ??CrossCallReturnLabel_199
        CFI (cfiCond471) DPL0 Frame(CFA_SP, 4)
        CFI (cfiCond471) DPH0 Frame(CFA_SP, 5)
        CFI (cfiCond471) CFA_SP SP+-5
        CFI (cfiCond471) CFA_XSP16 add(XSP16, 2)
        CFI Block cfiCond472 Using cfiCommon0
        CFI (cfiCond472) NoFunction
        CFI (cfiCond472) Conditional ??CrossCallReturnLabel_197
        CFI (cfiCond472) R6 load(1, XDATA, add(CFA_XSP16, literal(-10)))
        CFI (cfiCond472) VB load(1, XDATA, add(CFA_XSP16, literal(-9)))
        CFI (cfiCond472) V0 load(1, XDATA, add(CFA_XSP16, literal(-8)))
        CFI (cfiCond472) V1 load(1, XDATA, add(CFA_XSP16, literal(-7)))
        CFI (cfiCond472) R7 load(1, XDATA, add(CFA_XSP16, literal(-6)))
        CFI (cfiCond472) ?RET_LOW load(1, XDATA, add(CFA_XSP16, literal(-5)))
        CFI (cfiCond472) ?RET_HIGH load(1, XDATA, add(CFA_XSP16, literal(-4)))
        CFI (cfiCond472) ?BRET_EXT load(1, XDATA, add(CFA_XSP16, literal(-3)))
        CFI (cfiCond472) DPL0 load(1, XDATA, add(CFA_XSP16, literal(-2)))
        CFI (cfiCond472) DPH0 load(1, XDATA, add(CFA_XSP16, literal(-1)))
        CFI (cfiCond472) CFA_SP SP+0
        CFI (cfiCond472) CFA_XSP16 add(XSP16, 12)
        CFI Block cfiCond473 Using cfiCommon0
        CFI (cfiCond473) NoFunction
        CFI (cfiCond473) Conditional ??CrossCallReturnLabel_198
        CFI (cfiCond473) R6 load(1, XDATA, add(CFA_XSP16, literal(-9)))
        CFI (cfiCond473) VB load(1, XDATA, add(CFA_XSP16, literal(-8)))
        CFI (cfiCond473) V0 load(1, XDATA, add(CFA_XSP16, literal(-7)))
        CFI (cfiCond473) R7 load(1, XDATA, add(CFA_XSP16, literal(-6)))
        CFI (cfiCond473) ?RET_LOW load(1, XDATA, add(CFA_XSP16, literal(-5)))
        CFI (cfiCond473) ?RET_HIGH load(1, XDATA, add(CFA_XSP16, literal(-4)))
        CFI (cfiCond473) ?BRET_EXT load(1, XDATA, add(CFA_XSP16, literal(-3)))
        CFI (cfiCond473) DPL0 load(1, XDATA, add(CFA_XSP16, literal(-2)))
        CFI (cfiCond473) DPH0 load(1, XDATA, add(CFA_XSP16, literal(-1)))
        CFI (cfiCond473) CFA_SP SP+0
        CFI (cfiCond473) CFA_XSP16 add(XSP16, 13)
        CFI Block cfiPicker474 Using cfiCommon1
        CFI (cfiPicker474) NoFunction
        CFI (cfiPicker474) Picker
        MOV     DPL,?XSP + 0
        MOV     DPH,?XSP + 1
        CFI EndBlock cfiCond469
        CFI EndBlock cfiCond470
        CFI EndBlock cfiCond471
        CFI EndBlock cfiCond472
        CFI EndBlock cfiCond473
        CFI EndBlock cfiPicker474
        REQUIRE ??Subroutine97_0
        ; // Fall through to label ??Subroutine97_0

        RSEG BANKED_CODE:CODE:NOROOT(0)
??Subroutine97_0:
        CFI Block cfiCond475 Using cfiCommon0
        CFI NoFunction
        CFI Conditional ??CrossCallReturnLabel_200
        CFI DPL0 Frame(CFA_SP, 4)
        CFI DPH0 Frame(CFA_SP, 5)
        CFI CFA_SP SP+-5
        CFI Block cfiCond476 Using cfiCommon0
        CFI (cfiCond476) NoFunction
        CFI (cfiCond476) Conditional ??CrossCallReturnLabel_201
        CFI (cfiCond476) R6 load(1, XDATA, add(CFA_XSP16, literal(-10)))
        CFI (cfiCond476) VB load(1, XDATA, add(CFA_XSP16, literal(-9)))
        CFI (cfiCond476) V0 load(1, XDATA, add(CFA_XSP16, literal(-8)))
        CFI (cfiCond476) V1 load(1, XDATA, add(CFA_XSP16, literal(-7)))
        CFI (cfiCond476) R7 load(1, XDATA, add(CFA_XSP16, literal(-6)))
        CFI (cfiCond476) ?RET_LOW load(1, XDATA, add(CFA_XSP16, literal(-5)))
        CFI (cfiCond476) ?RET_HIGH load(1, XDATA, add(CFA_XSP16, literal(-4)))
        CFI (cfiCond476) ?BRET_EXT load(1, XDATA, add(CFA_XSP16, literal(-3)))
        CFI (cfiCond476) DPL0 load(1, XDATA, add(CFA_XSP16, literal(-2)))
        CFI (cfiCond476) DPH0 load(1, XDATA, add(CFA_XSP16, literal(-1)))
        CFI (cfiCond476) CFA_SP SP+0
        CFI (cfiCond476) CFA_XSP16 add(XSP16, 10)
        CFI Block cfiCond477 Using cfiCommon0
        CFI (cfiCond477) NoFunction
        CFI (cfiCond477) Conditional ??CrossCallReturnLabel_202
        CFI (cfiCond477) R6 load(1, XDATA, add(CFA_XSP16, literal(-14)))
        CFI (cfiCond477) VB load(1, XDATA, add(CFA_XSP16, literal(-13)))
        CFI (cfiCond477) V0 load(1, XDATA, add(CFA_XSP16, literal(-12)))
        CFI (cfiCond477) V1 load(1, XDATA, add(CFA_XSP16, literal(-11)))
        CFI (cfiCond477) V2 load(1, XDATA, add(CFA_XSP16, literal(-10)))
        CFI (cfiCond477) V3 load(1, XDATA, add(CFA_XSP16, literal(-9)))
        CFI (cfiCond477) V4 load(1, XDATA, add(CFA_XSP16, literal(-8)))
        CFI (cfiCond477) V5 load(1, XDATA, add(CFA_XSP16, literal(-7)))
        CFI (cfiCond477) R7 load(1, XDATA, add(CFA_XSP16, literal(-6)))
        CFI (cfiCond477) ?RET_LOW load(1, XDATA, add(CFA_XSP16, literal(-5)))
        CFI (cfiCond477) ?RET_HIGH load(1, XDATA, add(CFA_XSP16, literal(-4)))
        CFI (cfiCond477) ?BRET_EXT load(1, XDATA, add(CFA_XSP16, literal(-3)))
        CFI (cfiCond477) DPL0 load(1, XDATA, add(CFA_XSP16, literal(-2)))
        CFI (cfiCond477) DPH0 load(1, XDATA, add(CFA_XSP16, literal(-1)))
        CFI (cfiCond477) CFA_SP SP+0
        CFI (cfiCond477) CFA_XSP16 add(XSP16, 14)
        CFI Block cfiCond478 Using cfiCommon0
        CFI (cfiCond478) NoFunction
        CFI (cfiCond478) Conditional ??CrossCallReturnLabel_203
        CFI (cfiCond478) DPL0 Frame(CFA_SP, 4)
        CFI (cfiCond478) DPH0 Frame(CFA_SP, 5)
        CFI (cfiCond478) CFA_SP SP+-5
        CFI Block cfiCond479 Using cfiCommon0
        CFI (cfiCond479) NoFunction
        CFI (cfiCond479) Conditional ??CrossCallReturnLabel_204
        CFI (cfiCond479) R6 load(1, XDATA, add(CFA_XSP16, literal(-12)))
        CFI (cfiCond479) VB load(1, XDATA, add(CFA_XSP16, literal(-11)))
        CFI (cfiCond479) V0 load(1, XDATA, add(CFA_XSP16, literal(-10)))
        CFI (cfiCond479) V1 load(1, XDATA, add(CFA_XSP16, literal(-9)))
        CFI (cfiCond479) V2 load(1, XDATA, add(CFA_XSP16, literal(-8)))
        CFI (cfiCond479) V3 load(1, XDATA, add(CFA_XSP16, literal(-7)))
        CFI (cfiCond479) R7 load(1, XDATA, add(CFA_XSP16, literal(-6)))
        CFI (cfiCond479) ?RET_LOW load(1, XDATA, add(CFA_XSP16, literal(-5)))
        CFI (cfiCond479) ?RET_HIGH load(1, XDATA, add(CFA_XSP16, literal(-4)))
        CFI (cfiCond479) ?BRET_EXT load(1, XDATA, add(CFA_XSP16, literal(-3)))
        CFI (cfiCond479) DPL0 load(1, XDATA, add(CFA_XSP16, literal(-2)))
        CFI (cfiCond479) DPH0 load(1, XDATA, add(CFA_XSP16, literal(-1)))
        CFI (cfiCond479) CFA_SP SP+0
        CFI (cfiCond479) CFA_XSP16 add(XSP16, 12)
        CFI Block cfiCond480 Using cfiCommon0
        CFI (cfiCond480) NoFunction
        CFI (cfiCond480) Conditional ??CrossCallReturnLabel_205
        CFI (cfiCond480) DPL0 Frame(CFA_SP, 4)
        CFI (cfiCond480) DPH0 Frame(CFA_SP, 5)
        CFI (cfiCond480) CFA_SP SP+-5
        CFI Block cfiCond481 Using cfiCommon0
        CFI (cfiCond481) NoFunction
        CFI (cfiCond481) Conditional ??CrossCallReturnLabel_206
        CFI (cfiCond481) R6 load(1, XDATA, add(CFA_XSP16, literal(-9)))
        CFI (cfiCond481) VB load(1, XDATA, add(CFA_XSP16, literal(-8)))
        CFI (cfiCond481) V0 load(1, XDATA, add(CFA_XSP16, literal(-7)))
        CFI (cfiCond481) R7 load(1, XDATA, add(CFA_XSP16, literal(-6)))
        CFI (cfiCond481) ?RET_LOW load(1, XDATA, add(CFA_XSP16, literal(-5)))
        CFI (cfiCond481) ?RET_HIGH load(1, XDATA, add(CFA_XSP16, literal(-4)))
        CFI (cfiCond481) ?BRET_EXT load(1, XDATA, add(CFA_XSP16, literal(-3)))
        CFI (cfiCond481) DPL0 load(1, XDATA, add(CFA_XSP16, literal(-2)))
        CFI (cfiCond481) DPH0 load(1, XDATA, add(CFA_XSP16, literal(-1)))
        CFI (cfiCond481) CFA_SP SP+0
        CFI (cfiCond481) CFA_XSP16 add(XSP16, 13)
        CFI Block cfiCond482 Using cfiCommon0
        CFI (cfiCond482) NoFunction
        CFI (cfiCond482) Conditional ??CrossCallReturnLabel_207
        CFI (cfiCond482) R6 load(1, XDATA, add(CFA_XSP16, literal(-10)))
        CFI (cfiCond482) VB load(1, XDATA, add(CFA_XSP16, literal(-9)))
        CFI (cfiCond482) V0 load(1, XDATA, add(CFA_XSP16, literal(-8)))
        CFI (cfiCond482) V1 load(1, XDATA, add(CFA_XSP16, literal(-7)))
        CFI (cfiCond482) R7 load(1, XDATA, add(CFA_XSP16, literal(-6)))
        CFI (cfiCond482) ?RET_LOW load(1, XDATA, add(CFA_XSP16, literal(-5)))
        CFI (cfiCond482) ?RET_HIGH load(1, XDATA, add(CFA_XSP16, literal(-4)))
        CFI (cfiCond482) ?BRET_EXT load(1, XDATA, add(CFA_XSP16, literal(-3)))
        CFI (cfiCond482) DPL0 load(1, XDATA, add(CFA_XSP16, literal(-2)))
        CFI (cfiCond482) DPH0 load(1, XDATA, add(CFA_XSP16, literal(-1)))
        CFI (cfiCond482) CFA_SP SP+0
        CFI (cfiCond482) CFA_XSP16 add(XSP16, 33)
        CFI Block cfiCond483 Using cfiCommon0
        CFI (cfiCond483) NoFunction
        CFI (cfiCond483) Conditional ??CrossCallReturnLabel_208
        CFI (cfiCond483) R6 load(1, XDATA, add(CFA_XSP16, literal(-9)))
        CFI (cfiCond483) VB load(1, XDATA, add(CFA_XSP16, literal(-8)))
        CFI (cfiCond483) V0 load(1, XDATA, add(CFA_XSP16, literal(-7)))
        CFI (cfiCond483) R7 load(1, XDATA, add(CFA_XSP16, literal(-6)))
        CFI (cfiCond483) ?RET_LOW load(1, XDATA, add(CFA_XSP16, literal(-5)))
        CFI (cfiCond483) ?RET_HIGH load(1, XDATA, add(CFA_XSP16, literal(-4)))
        CFI (cfiCond483) ?BRET_EXT load(1, XDATA, add(CFA_XSP16, literal(-3)))
        CFI (cfiCond483) DPL0 load(1, XDATA, add(CFA_XSP16, literal(-2)))
        CFI (cfiCond483) DPH0 load(1, XDATA, add(CFA_XSP16, literal(-1)))
        CFI (cfiCond483) CFA_SP SP+0
        CFI (cfiCond483) CFA_XSP16 add(XSP16, 19)
        CFI Block cfiCond484 Using cfiCommon0
        CFI (cfiCond484) NoFunction
        CFI (cfiCond484) Conditional ??CrossCallReturnLabel_209
        CFI (cfiCond484) R6 load(1, XDATA, add(CFA_XSP16, literal(-9)))
        CFI (cfiCond484) VB load(1, XDATA, add(CFA_XSP16, literal(-8)))
        CFI (cfiCond484) V0 load(1, XDATA, add(CFA_XSP16, literal(-7)))
        CFI (cfiCond484) R7 load(1, XDATA, add(CFA_XSP16, literal(-6)))
        CFI (cfiCond484) ?RET_LOW load(1, XDATA, add(CFA_XSP16, literal(-5)))
        CFI (cfiCond484) ?RET_HIGH load(1, XDATA, add(CFA_XSP16, literal(-4)))
        CFI (cfiCond484) ?BRET_EXT load(1, XDATA, add(CFA_XSP16, literal(-3)))
        CFI (cfiCond484) DPL0 load(1, XDATA, add(CFA_XSP16, literal(-2)))
        CFI (cfiCond484) DPH0 load(1, XDATA, add(CFA_XSP16, literal(-1)))
        CFI (cfiCond484) CFA_SP SP+0
        CFI (cfiCond484) CFA_XSP16 add(XSP16, 9)
        CFI Block cfiCond485 Using cfiCommon0
        CFI (cfiCond485) NoFunction
        CFI (cfiCond485) Conditional ??CrossCallReturnLabel_210
        CFI (cfiCond485) R6 load(1, XDATA, add(CFA_XSP16, literal(-12)))
        CFI (cfiCond485) VB load(1, XDATA, add(CFA_XSP16, literal(-11)))
        CFI (cfiCond485) V0 load(1, XDATA, add(CFA_XSP16, literal(-10)))
        CFI (cfiCond485) V1 load(1, XDATA, add(CFA_XSP16, literal(-9)))
        CFI (cfiCond485) V2 load(1, XDATA, add(CFA_XSP16, literal(-8)))
        CFI (cfiCond485) V3 load(1, XDATA, add(CFA_XSP16, literal(-7)))
        CFI (cfiCond485) R7 load(1, XDATA, add(CFA_XSP16, literal(-6)))
        CFI (cfiCond485) ?RET_LOW load(1, XDATA, add(CFA_XSP16, literal(-5)))
        CFI (cfiCond485) ?RET_HIGH load(1, XDATA, add(CFA_XSP16, literal(-4)))
        CFI (cfiCond485) ?BRET_EXT load(1, XDATA, add(CFA_XSP16, literal(-3)))
        CFI (cfiCond485) DPL0 load(1, XDATA, add(CFA_XSP16, literal(-2)))
        CFI (cfiCond485) DPH0 load(1, XDATA, add(CFA_XSP16, literal(-1)))
        CFI (cfiCond485) CFA_SP SP+0
        CFI (cfiCond485) CFA_XSP16 add(XSP16, 14)
        CFI Block cfiCond486 Using cfiCommon0
        CFI (cfiCond486) NoFunction
        CFI (cfiCond486) Conditional ??CrossCallReturnLabel_211
        CFI (cfiCond486) R6 load(1, XDATA, add(CFA_XSP16, literal(-12)))
        CFI (cfiCond486) VB load(1, XDATA, add(CFA_XSP16, literal(-11)))
        CFI (cfiCond486) V0 load(1, XDATA, add(CFA_XSP16, literal(-10)))
        CFI (cfiCond486) V1 load(1, XDATA, add(CFA_XSP16, literal(-9)))
        CFI (cfiCond486) V2 load(1, XDATA, add(CFA_XSP16, literal(-8)))
        CFI (cfiCond486) V3 load(1, XDATA, add(CFA_XSP16, literal(-7)))
        CFI (cfiCond486) R7 load(1, XDATA, add(CFA_XSP16, literal(-6)))
        CFI (cfiCond486) ?RET_LOW load(1, XDATA, add(CFA_XSP16, literal(-5)))
        CFI (cfiCond486) ?RET_HIGH load(1, XDATA, add(CFA_XSP16, literal(-4)))
        CFI (cfiCond486) ?BRET_EXT load(1, XDATA, add(CFA_XSP16, literal(-3)))
        CFI (cfiCond486) DPL0 load(1, XDATA, add(CFA_XSP16, literal(-2)))
        CFI (cfiCond486) DPH0 load(1, XDATA, add(CFA_XSP16, literal(-1)))
        CFI (cfiCond486) CFA_SP SP+0
        CFI (cfiCond486) CFA_XSP16 add(XSP16, 16)
        CFI Block cfiCond487 Using cfiCommon0
        CFI (cfiCond487) NoFunction
        CFI (cfiCond487) Conditional ??CrossCallReturnLabel_199
        CFI (cfiCond487) DPL0 Frame(CFA_SP, 4)
        CFI (cfiCond487) DPH0 Frame(CFA_SP, 5)
        CFI (cfiCond487) CFA_SP SP+-5
        CFI (cfiCond487) CFA_XSP16 add(XSP16, 2)
        CFI Block cfiCond488 Using cfiCommon0
        CFI (cfiCond488) NoFunction
        CFI (cfiCond488) Conditional ??CrossCallReturnLabel_197
        CFI (cfiCond488) R6 load(1, XDATA, add(CFA_XSP16, literal(-10)))
        CFI (cfiCond488) VB load(1, XDATA, add(CFA_XSP16, literal(-9)))
        CFI (cfiCond488) V0 load(1, XDATA, add(CFA_XSP16, literal(-8)))
        CFI (cfiCond488) V1 load(1, XDATA, add(CFA_XSP16, literal(-7)))
        CFI (cfiCond488) R7 load(1, XDATA, add(CFA_XSP16, literal(-6)))
        CFI (cfiCond488) ?RET_LOW load(1, XDATA, add(CFA_XSP16, literal(-5)))
        CFI (cfiCond488) ?RET_HIGH load(1, XDATA, add(CFA_XSP16, literal(-4)))
        CFI (cfiCond488) ?BRET_EXT load(1, XDATA, add(CFA_XSP16, literal(-3)))
        CFI (cfiCond488) DPL0 load(1, XDATA, add(CFA_XSP16, literal(-2)))
        CFI (cfiCond488) DPH0 load(1, XDATA, add(CFA_XSP16, literal(-1)))
        CFI (cfiCond488) CFA_SP SP+0
        CFI (cfiCond488) CFA_XSP16 add(XSP16, 12)
        CFI Block cfiCond489 Using cfiCommon0
        CFI (cfiCond489) NoFunction
        CFI (cfiCond489) Conditional ??CrossCallReturnLabel_198
        CFI (cfiCond489) R6 load(1, XDATA, add(CFA_XSP16, literal(-9)))
        CFI (cfiCond489) VB load(1, XDATA, add(CFA_XSP16, literal(-8)))
        CFI (cfiCond489) V0 load(1, XDATA, add(CFA_XSP16, literal(-7)))
        CFI (cfiCond489) R7 load(1, XDATA, add(CFA_XSP16, literal(-6)))
        CFI (cfiCond489) ?RET_LOW load(1, XDATA, add(CFA_XSP16, literal(-5)))
        CFI (cfiCond489) ?RET_HIGH load(1, XDATA, add(CFA_XSP16, literal(-4)))
        CFI (cfiCond489) ?BRET_EXT load(1, XDATA, add(CFA_XSP16, literal(-3)))
        CFI (cfiCond489) DPL0 load(1, XDATA, add(CFA_XSP16, literal(-2)))
        CFI (cfiCond489) DPH0 load(1, XDATA, add(CFA_XSP16, literal(-1)))
        CFI (cfiCond489) CFA_SP SP+0
        CFI (cfiCond489) CFA_XSP16 add(XSP16, 13)
        CFI Block cfiPicker490 Using cfiCommon1
        CFI (cfiPicker490) NoFunction
        CFI (cfiPicker490) Picker
        LCALL   ?Subroutine66 & 0xFFFF
??CrossCallReturnLabel_214:
        RET
        CFI EndBlock cfiCond475
        CFI EndBlock cfiCond476
        CFI EndBlock cfiCond477
        CFI EndBlock cfiCond478
        CFI EndBlock cfiCond479
        CFI EndBlock cfiCond480
        CFI EndBlock cfiCond481
        CFI EndBlock cfiCond482
        CFI EndBlock cfiCond483
        CFI EndBlock cfiCond484
        CFI EndBlock cfiCond485
        CFI EndBlock cfiCond486
        CFI EndBlock cfiCond487
        CFI EndBlock cfiCond488
        CFI EndBlock cfiCond489
        CFI EndBlock cfiPicker490

        RSEG BANKED_CODE:CODE:NOROOT(0)
?Subroutine14:
        CFI Block cfiCond491 Using cfiCommon0
        CFI NoFunction
        CFI Conditional ??CrossCallReturnLabel_215
        CFI R6 load(1, XDATA, add(CFA_XSP16, literal(-10)))
        CFI VB load(1, XDATA, add(CFA_XSP16, literal(-9)))
        CFI V0 load(1, XDATA, add(CFA_XSP16, literal(-8)))
        CFI V1 load(1, XDATA, add(CFA_XSP16, literal(-7)))
        CFI R7 load(1, XDATA, add(CFA_XSP16, literal(-6)))
        CFI ?RET_LOW load(1, XDATA, add(CFA_XSP16, literal(-5)))
        CFI ?RET_HIGH load(1, XDATA, add(CFA_XSP16, literal(-4)))
        CFI ?BRET_EXT load(1, XDATA, add(CFA_XSP16, literal(-3)))
        CFI DPL0 load(1, XDATA, add(CFA_XSP16, literal(-2)))
        CFI DPH0 load(1, XDATA, add(CFA_XSP16, literal(-1)))
        CFI CFA_SP SP+0
        CFI CFA_XSP16 add(XSP16, 23)
        CFI Block cfiCond492 Using cfiCommon0
        CFI (cfiCond492) NoFunction
        CFI (cfiCond492) Conditional ??CrossCallReturnLabel_216
        CFI (cfiCond492) R6 load(1, XDATA, add(CFA_XSP16, literal(-10)))
        CFI (cfiCond492) VB load(1, XDATA, add(CFA_XSP16, literal(-9)))
        CFI (cfiCond492) V0 load(1, XDATA, add(CFA_XSP16, literal(-8)))
        CFI (cfiCond492) V1 load(1, XDATA, add(CFA_XSP16, literal(-7)))
        CFI (cfiCond492) R7 load(1, XDATA, add(CFA_XSP16, literal(-6)))
        CFI (cfiCond492) ?RET_LOW load(1, XDATA, add(CFA_XSP16, literal(-5)))
        CFI (cfiCond492) ?RET_HIGH load(1, XDATA, add(CFA_XSP16, literal(-4)))
        CFI (cfiCond492) ?BRET_EXT load(1, XDATA, add(CFA_XSP16, literal(-3)))
        CFI (cfiCond492) DPL0 load(1, XDATA, add(CFA_XSP16, literal(-2)))
        CFI (cfiCond492) DPH0 load(1, XDATA, add(CFA_XSP16, literal(-1)))
        CFI (cfiCond492) CFA_SP SP+0
        CFI (cfiCond492) CFA_XSP16 add(XSP16, 23)
        CFI Block cfiPicker493 Using cfiCommon1
        CFI (cfiPicker493) NoFunction
        CFI (cfiPicker493) Picker
        MOV     DPL,?XSP + 0
        MOV     DPH,?XSP + 1
        CFI EndBlock cfiCond491
        CFI EndBlock cfiCond492
        CFI EndBlock cfiPicker493
        REQUIRE ??Subroutine98_0
        ; // Fall through to label ??Subroutine98_0

        RSEG BANKED_CODE:CODE:NOROOT(0)
??Subroutine98_0:
        CFI Block cfiCond494 Using cfiCommon0
        CFI NoFunction
        CFI Conditional ??CrossCallReturnLabel_217
        CFI R6 load(1, XDATA, add(CFA_XSP16, literal(-10)))
        CFI VB load(1, XDATA, add(CFA_XSP16, literal(-9)))
        CFI V0 load(1, XDATA, add(CFA_XSP16, literal(-8)))
        CFI V1 load(1, XDATA, add(CFA_XSP16, literal(-7)))
        CFI R7 load(1, XDATA, add(CFA_XSP16, literal(-6)))
        CFI ?RET_LOW load(1, XDATA, add(CFA_XSP16, literal(-5)))
        CFI ?RET_HIGH load(1, XDATA, add(CFA_XSP16, literal(-4)))
        CFI ?BRET_EXT load(1, XDATA, add(CFA_XSP16, literal(-3)))
        CFI DPL0 load(1, XDATA, add(CFA_XSP16, literal(-2)))
        CFI DPH0 load(1, XDATA, add(CFA_XSP16, literal(-1)))
        CFI CFA_SP SP+0
        CFI CFA_XSP16 add(XSP16, 49)
        CFI Block cfiCond495 Using cfiCommon0
        CFI (cfiCond495) NoFunction
        CFI (cfiCond495) Conditional ??CrossCallReturnLabel_218
        CFI (cfiCond495) R6 load(1, XDATA, add(CFA_XSP16, literal(-12)))
        CFI (cfiCond495) VB load(1, XDATA, add(CFA_XSP16, literal(-11)))
        CFI (cfiCond495) V0 load(1, XDATA, add(CFA_XSP16, literal(-10)))
        CFI (cfiCond495) V1 load(1, XDATA, add(CFA_XSP16, literal(-9)))
        CFI (cfiCond495) V2 load(1, XDATA, add(CFA_XSP16, literal(-8)))
        CFI (cfiCond495) V3 load(1, XDATA, add(CFA_XSP16, literal(-7)))
        CFI (cfiCond495) R7 load(1, XDATA, add(CFA_XSP16, literal(-6)))
        CFI (cfiCond495) ?RET_LOW load(1, XDATA, add(CFA_XSP16, literal(-5)))
        CFI (cfiCond495) ?RET_HIGH load(1, XDATA, add(CFA_XSP16, literal(-4)))
        CFI (cfiCond495) ?BRET_EXT load(1, XDATA, add(CFA_XSP16, literal(-3)))
        CFI (cfiCond495) DPL0 load(1, XDATA, add(CFA_XSP16, literal(-2)))
        CFI (cfiCond495) DPH0 load(1, XDATA, add(CFA_XSP16, literal(-1)))
        CFI (cfiCond495) CFA_SP SP+0
        CFI (cfiCond495) CFA_XSP16 add(XSP16, 35)
        CFI Block cfiCond496 Using cfiCommon0
        CFI (cfiCond496) NoFunction
        CFI (cfiCond496) Conditional ??CrossCallReturnLabel_219
        CFI (cfiCond496) R6 load(1, XDATA, add(CFA_XSP16, literal(-10)))
        CFI (cfiCond496) VB load(1, XDATA, add(CFA_XSP16, literal(-9)))
        CFI (cfiCond496) V0 load(1, XDATA, add(CFA_XSP16, literal(-8)))
        CFI (cfiCond496) V1 load(1, XDATA, add(CFA_XSP16, literal(-7)))
        CFI (cfiCond496) R7 load(1, XDATA, add(CFA_XSP16, literal(-6)))
        CFI (cfiCond496) ?RET_LOW load(1, XDATA, add(CFA_XSP16, literal(-5)))
        CFI (cfiCond496) ?RET_HIGH load(1, XDATA, add(CFA_XSP16, literal(-4)))
        CFI (cfiCond496) ?BRET_EXT load(1, XDATA, add(CFA_XSP16, literal(-3)))
        CFI (cfiCond496) DPL0 load(1, XDATA, add(CFA_XSP16, literal(-2)))
        CFI (cfiCond496) DPH0 load(1, XDATA, add(CFA_XSP16, literal(-1)))
        CFI (cfiCond496) CFA_SP SP+0
        CFI (cfiCond496) CFA_XSP16 add(XSP16, 33)
        CFI Block cfiCond497 Using cfiCommon0
        CFI (cfiCond497) NoFunction
        CFI (cfiCond497) Conditional ??CrossCallReturnLabel_220
        CFI (cfiCond497) R6 load(1, XDATA, add(CFA_XSP16, literal(-10)))
        CFI (cfiCond497) VB load(1, XDATA, add(CFA_XSP16, literal(-9)))
        CFI (cfiCond497) V0 load(1, XDATA, add(CFA_XSP16, literal(-8)))
        CFI (cfiCond497) V1 load(1, XDATA, add(CFA_XSP16, literal(-7)))
        CFI (cfiCond497) R7 load(1, XDATA, add(CFA_XSP16, literal(-6)))
        CFI (cfiCond497) ?RET_LOW load(1, XDATA, add(CFA_XSP16, literal(-5)))
        CFI (cfiCond497) ?RET_HIGH load(1, XDATA, add(CFA_XSP16, literal(-4)))
        CFI (cfiCond497) ?BRET_EXT load(1, XDATA, add(CFA_XSP16, literal(-3)))
        CFI (cfiCond497) DPL0 load(1, XDATA, add(CFA_XSP16, literal(-2)))
        CFI (cfiCond497) DPH0 load(1, XDATA, add(CFA_XSP16, literal(-1)))
        CFI (cfiCond497) CFA_SP SP+0
        CFI (cfiCond497) CFA_XSP16 add(XSP16, 33)
        CFI Block cfiCond498 Using cfiCommon0
        CFI (cfiCond498) NoFunction
        CFI (cfiCond498) Conditional ??CrossCallReturnLabel_215
        CFI (cfiCond498) R6 load(1, XDATA, add(CFA_XSP16, literal(-10)))
        CFI (cfiCond498) VB load(1, XDATA, add(CFA_XSP16, literal(-9)))
        CFI (cfiCond498) V0 load(1, XDATA, add(CFA_XSP16, literal(-8)))
        CFI (cfiCond498) V1 load(1, XDATA, add(CFA_XSP16, literal(-7)))
        CFI (cfiCond498) R7 load(1, XDATA, add(CFA_XSP16, literal(-6)))
        CFI (cfiCond498) ?RET_LOW load(1, XDATA, add(CFA_XSP16, literal(-5)))
        CFI (cfiCond498) ?RET_HIGH load(1, XDATA, add(CFA_XSP16, literal(-4)))
        CFI (cfiCond498) ?BRET_EXT load(1, XDATA, add(CFA_XSP16, literal(-3)))
        CFI (cfiCond498) DPL0 load(1, XDATA, add(CFA_XSP16, literal(-2)))
        CFI (cfiCond498) DPH0 load(1, XDATA, add(CFA_XSP16, literal(-1)))
        CFI (cfiCond498) CFA_SP SP+0
        CFI (cfiCond498) CFA_XSP16 add(XSP16, 23)
        CFI Block cfiCond499 Using cfiCommon0
        CFI (cfiCond499) NoFunction
        CFI (cfiCond499) Conditional ??CrossCallReturnLabel_216
        CFI (cfiCond499) R6 load(1, XDATA, add(CFA_XSP16, literal(-10)))
        CFI (cfiCond499) VB load(1, XDATA, add(CFA_XSP16, literal(-9)))
        CFI (cfiCond499) V0 load(1, XDATA, add(CFA_XSP16, literal(-8)))
        CFI (cfiCond499) V1 load(1, XDATA, add(CFA_XSP16, literal(-7)))
        CFI (cfiCond499) R7 load(1, XDATA, add(CFA_XSP16, literal(-6)))
        CFI (cfiCond499) ?RET_LOW load(1, XDATA, add(CFA_XSP16, literal(-5)))
        CFI (cfiCond499) ?RET_HIGH load(1, XDATA, add(CFA_XSP16, literal(-4)))
        CFI (cfiCond499) ?BRET_EXT load(1, XDATA, add(CFA_XSP16, literal(-3)))
        CFI (cfiCond499) DPL0 load(1, XDATA, add(CFA_XSP16, literal(-2)))
        CFI (cfiCond499) DPH0 load(1, XDATA, add(CFA_XSP16, literal(-1)))
        CFI (cfiCond499) CFA_SP SP+0
        CFI (cfiCond499) CFA_XSP16 add(XSP16, 23)
        CFI Block cfiPicker500 Using cfiCommon1
        CFI (cfiPicker500) NoFunction
        CFI (cfiPicker500) Picker
        LCALL   ?Subroutine77 & 0xFFFF
??CrossCallReturnLabel_226:
        ; Setup parameters for call to function AddrMgrEntryGet
        ; Setup parameters for call to function AddrMgrEntryGet
        MOV     A,#0xa
        RET
        CFI EndBlock cfiCond494
        CFI EndBlock cfiCond495
        CFI EndBlock cfiCond496
        CFI EndBlock cfiCond497
        CFI EndBlock cfiCond498
        CFI EndBlock cfiCond499
        CFI EndBlock cfiPicker500

        RSEG BANKED_CODE:CODE:NOROOT(0)
?Subroutine2:
        CFI Block cfiBlock501 Using cfiCommon0
        CFI NoFunction
        CFI CFA_SP SP+0
        CFI CFA_XSP16 add(XSP16, 12)
        CFI VB load(1, XDATA, add(CFA_XSP16, literal(-9)))
        CFI DPL0 load(1, XDATA, add(CFA_XSP16, literal(-2)))
        CFI DPH0 load(1, XDATA, add(CFA_XSP16, literal(-1)))
        CFI R6 load(1, XDATA, add(CFA_XSP16, literal(-10)))
        CFI R7 load(1, XDATA, add(CFA_XSP16, literal(-6)))
        CFI V0 load(1, XDATA, add(CFA_XSP16, literal(-8)))
        CFI V1 load(1, XDATA, add(CFA_XSP16, literal(-7)))
        CFI ?BRET_EXT load(1, XDATA, add(CFA_XSP16, literal(-3)))
        CFI ?RET_HIGH load(1, XDATA, add(CFA_XSP16, literal(-4)))
        CFI ?RET_LOW load(1, XDATA, add(CFA_XSP16, literal(-5)))
        MOV     DPL,?XSP + 0
        MOV     DPH,?XSP + 1
        MOV     ?V0 + 0,DPL
        MOV     ?V0 + 1,DPH
        MOV     R0,#?V0 + 0
        LCALL   ?PUSH_XSTACK_I_TWO
        CFI CFA_XSP16 add(XSP16, 14)
        MOV     ?V0 + 0,#0x2
        MOV     ?V0 + 1,#0x0
        MOV     R0,#?V0 + 0
        LCALL   ?PUSH_XSTACK_I_TWO
        CFI CFA_XSP16 add(XSP16, 16)
        MOV     R4,#0x0
        MOV     R5,#0x0
        MOV     R2,#0x4c
        MOV     R3,#0x0
        LCALL   ??osal_nv_write?relay
        MOV     A,#0x4
        LCALL   ?DEALLOC_XSTACK8
        CFI EndBlock cfiBlock501
        REQUIRE ??Subroutine99_0
        ; // Fall through to label ??Subroutine99_0

        RSEG BANKED_CODE:CODE:NOROOT(0)
??Subroutine99_0:
        CFI Block cfiBlock502 Using cfiCommon0
        CFI NoFunction
        CFI CFA_SP SP+0
        CFI CFA_XSP16 add(XSP16, 12)
        CFI VB load(1, XDATA, add(CFA_XSP16, literal(-9)))
        CFI DPL0 load(1, XDATA, add(CFA_XSP16, literal(-2)))
        CFI DPH0 load(1, XDATA, add(CFA_XSP16, literal(-1)))
        CFI R6 load(1, XDATA, add(CFA_XSP16, literal(-10)))
        CFI R7 load(1, XDATA, add(CFA_XSP16, literal(-6)))
        CFI V0 load(1, XDATA, add(CFA_XSP16, literal(-8)))
        CFI V1 load(1, XDATA, add(CFA_XSP16, literal(-7)))
        CFI ?BRET_EXT load(1, XDATA, add(CFA_XSP16, literal(-3)))
        CFI ?RET_HIGH load(1, XDATA, add(CFA_XSP16, literal(-4)))
        CFI ?RET_LOW load(1, XDATA, add(CFA_XSP16, literal(-5)))
        MOV     A,#0x2
        CFI EndBlock cfiBlock502
        REQUIRE ??Subroutine100_0
        ; // Fall through to label ??Subroutine100_0

        RSEG BANKED_CODE:CODE:NOROOT(0)
??Subroutine100_0:
        CFI Block cfiBlock503 Using cfiCommon0
        CFI NoFunction
        CFI CFA_SP SP+0
        CFI CFA_XSP16 add(XSP16, 23)
        CFI VB load(1, XDATA, add(CFA_XSP16, literal(-9)))
        CFI DPL0 load(1, XDATA, add(CFA_XSP16, literal(-2)))
        CFI DPH0 load(1, XDATA, add(CFA_XSP16, literal(-1)))
        CFI R6 load(1, XDATA, add(CFA_XSP16, literal(-10)))
        CFI R7 load(1, XDATA, add(CFA_XSP16, literal(-6)))
        CFI V0 load(1, XDATA, add(CFA_XSP16, literal(-8)))
        CFI V1 load(1, XDATA, add(CFA_XSP16, literal(-7)))
        CFI ?BRET_EXT load(1, XDATA, add(CFA_XSP16, literal(-3)))
        CFI ?RET_HIGH load(1, XDATA, add(CFA_XSP16, literal(-4)))
        CFI ?RET_LOW load(1, XDATA, add(CFA_XSP16, literal(-5)))
        CFI Invalid
        LCALL   ?DEALLOC_XSTACK8
        CFI EndBlock cfiBlock503
        REQUIRE ??Subroutine101_0
        ; // Fall through to label ??Subroutine101_0

        RSEG BANKED_CODE:CODE:NOROOT(0)
??Subroutine101_0:
        CFI Block cfiBlock504 Using cfiCommon0
        CFI NoFunction
        CFI CFA_SP SP+0
        CFI CFA_XSP16 add(XSP16, 10)
        CFI VB load(1, XDATA, add(CFA_XSP16, literal(-9)))
        CFI DPL0 load(1, XDATA, add(CFA_XSP16, literal(-2)))
        CFI DPH0 load(1, XDATA, add(CFA_XSP16, literal(-1)))
        CFI R6 load(1, XDATA, add(CFA_XSP16, literal(-10)))
        CFI R7 load(1, XDATA, add(CFA_XSP16, literal(-6)))
        CFI V0 load(1, XDATA, add(CFA_XSP16, literal(-8)))
        CFI V1 load(1, XDATA, add(CFA_XSP16, literal(-7)))
        CFI ?BRET_EXT load(1, XDATA, add(CFA_XSP16, literal(-3)))
        CFI ?RET_HIGH load(1, XDATA, add(CFA_XSP16, literal(-4)))
        CFI ?RET_LOW load(1, XDATA, add(CFA_XSP16, literal(-5)))
        MOV     R7,#0x2
        LJMP    ?BANKED_LEAVE_XDATA
        CFI EndBlock cfiBlock504
// 2548 
// 2549 /******************************************************************************
// 2550  * @fn          ZDSecMgrEstablishKeyCfm
// 2551  *
// 2552  * @brief       Process the ZDO_EstablishKeyCfm_t message.
// 2553  *
// 2554  * @param       cfm - [in] ZDO_EstablishKeyCfm_t confirmation
// 2555  *
// 2556  * @return      none
// 2557  */

        RSEG BANKED_CODE:CODE:NOROOT(0)
// 2558 void ZDSecMgrEstablishKeyCfm( ZDO_EstablishKeyCfm_t* cfm )
ZDSecMgrEstablishKeyCfm:
        CFI Block cfiBlock505 Using cfiCommon0
        CFI Function ZDSecMgrEstablishKeyCfm
        CODE
// 2559 {
        FUNCALL ZDSecMgrEstablishKeyCfm, ZDSecMgrDeviceCtrlUpdate
        LOCFRAME ISTACK, 2, STACK
        LOCFRAME PSTACK, 0, STACK
        LOCFRAME XSTACK, 0, STACK
        LOCFRAME IOVERLAY, 0, STATIC
        LOCFRAME DOVERLAY, 0, STATIC
        ARGFRAME ISTACK, 2, STACK
        ARGFRAME PSTACK, 0, STACK
        ARGFRAME XSTACK, 0, STACK
        ARGFRAME IOVERLAY, 0, STATIC
        ARGFRAME DOVERLAY, 0, STATIC
        PUSH    DPL
        CFI DPL0 Frame(CFA_SP, 4)
        CFI CFA_SP SP+-4
        PUSH    DPH
        CFI DPH0 Frame(CFA_SP, 5)
        CFI CFA_SP SP+-5
        ; Saved register size: 2
        ; Auto size: 0
// 2560   // send the NWK key
// 2561   if ( ( ZG_BUILD_COORDINATOR_TYPE ) && ( ZG_DEVICE_COORDINATOR_TYPE ) )
// 2562   {
// 2563     // update control for specified EXT address
// 2564     ZDSecMgrDeviceCtrlUpdate( cfm->partExtAddr, ZDSECMGR_CTRL_SKKE_DONE );
        ; Setup parameters for call to function ZDSecMgrDeviceCtrlUpdate
        MOV     R1,#0x5
        LCALL   ?Subroutine61 & 0xFFFF
// 2565   }
??CrossCallReturnLabel_86:
        LCALL   ??ZDSecMgrDeviceCtrlUpdate?relay
// 2566   else
// 2567   {
// 2568     // this should be done when receiving the NWK key
// 2569     // if devState ==
// 2570     //if ( devState == DEV_END_DEVICE_UNAUTH )
// 2571         //osal_set_event( ZDAppTaskID, ZDO_DEVICE_AUTH );
// 2572 
// 2573     // if not in joining state -- this should trigger an event for an
// 2574     // end point that requested SKKE
// 2575     // if ( devState == DEV_END_DEVICE )
// 2576    //       devState == DEV_ROUTER;
// 2577 
// 2578   }
// 2579 }
        LJMP    ??Subroutine91_0 & 0xFFFF
        CFI EndBlock cfiBlock505

        RSEG BANKED_CODE:CODE:NOROOT(0)
?Subroutine61:
        CFI Block cfiCond506 Using cfiCommon0
        CFI NoFunction
        CFI Conditional ??CrossCallReturnLabel_85
        CFI R6 load(1, XDATA, add(CFA_XSP16, literal(-14)))
        CFI VB load(1, XDATA, add(CFA_XSP16, literal(-13)))
        CFI V0 load(1, XDATA, add(CFA_XSP16, literal(-12)))
        CFI V1 load(1, XDATA, add(CFA_XSP16, literal(-11)))
        CFI V2 load(1, XDATA, add(CFA_XSP16, literal(-10)))
        CFI V3 load(1, XDATA, add(CFA_XSP16, literal(-9)))
        CFI V4 load(1, XDATA, add(CFA_XSP16, literal(-8)))
        CFI V5 load(1, XDATA, add(CFA_XSP16, literal(-7)))
        CFI R7 load(1, XDATA, add(CFA_XSP16, literal(-6)))
        CFI ?RET_LOW load(1, XDATA, add(CFA_XSP16, literal(-5)))
        CFI ?RET_HIGH load(1, XDATA, add(CFA_XSP16, literal(-4)))
        CFI ?BRET_EXT load(1, XDATA, add(CFA_XSP16, literal(-3)))
        CFI DPL0 load(1, XDATA, add(CFA_XSP16, literal(-2)))
        CFI DPH0 load(1, XDATA, add(CFA_XSP16, literal(-1)))
        CFI CFA_SP SP+0
        CFI CFA_XSP16 add(XSP16, 14)
        CFI Block cfiCond507 Using cfiCommon0
        CFI (cfiCond507) NoFunction
        CFI (cfiCond507) Conditional ??CrossCallReturnLabel_86
        CFI (cfiCond507) DPL0 Frame(CFA_SP, 4)
        CFI (cfiCond507) DPH0 Frame(CFA_SP, 5)
        CFI (cfiCond507) CFA_SP SP+-5
        CFI Block cfiPicker508 Using cfiCommon1
        CFI (cfiPicker508) NoFunction
        CFI (cfiPicker508) Picker
        MOV     A,R2
        ADD     A,#0x2
        INC     R2
        INC     R2
        MOV     A,R3
        ADDC    A,#0x0
        MOV     R3,A
        RET
        CFI EndBlock cfiCond506
        CFI EndBlock cfiCond507
        CFI EndBlock cfiPicker508
// 2580 
// 2581 uint8 ZDSecMgrTCExtAddrCheck( uint8* extAddr );

        RSEG BANKED_CODE:CODE:NOROOT(0)
// 2582 uint8 ZDSecMgrTCExtAddrCheck( uint8* extAddr )
ZDSecMgrTCExtAddrCheck:
        CFI Block cfiBlock509 Using cfiCommon0
        CFI Function ZDSecMgrTCExtAddrCheck
        CODE
// 2583 {
        FUNCALL ZDSecMgrTCExtAddrCheck, AddrMgrExtAddrLookup
        LOCFRAME ISTACK, 0, STACK
        LOCFRAME PSTACK, 0, STACK
        LOCFRAME XSTACK, 17, STACK
        LOCFRAME IOVERLAY, 0, STATIC
        LOCFRAME DOVERLAY, 0, STATIC
        ARGFRAME ISTACK, 0, STACK
        ARGFRAME PSTACK, 0, STACK
        ARGFRAME XSTACK, 17, STACK
        ARGFRAME IOVERLAY, 0, STATIC
        ARGFRAME DOVERLAY, 0, STATIC
        FUNCALL ZDSecMgrTCExtAddrCheck, AddrMgrExtAddrEqual
        LOCFRAME ISTACK, 0, STACK
        LOCFRAME PSTACK, 0, STACK
        LOCFRAME XSTACK, 17, STACK
        LOCFRAME IOVERLAY, 0, STATIC
        LOCFRAME DOVERLAY, 0, STATIC
        ARGFRAME ISTACK, 0, STACK
        ARGFRAME PSTACK, 0, STACK
        ARGFRAME XSTACK, 17, STACK
        ARGFRAME IOVERLAY, 0, STATIC
        ARGFRAME DOVERLAY, 0, STATIC
        MOV     A,#-0x9
        LCALL   ?BANKED_ENTER_XDATA
        CFI DPH0 load(1, XDATA, add(CFA_XSP16, literal(-1)))
        CFI DPL0 load(1, XDATA, add(CFA_XSP16, literal(-2)))
        CFI ?BRET_EXT load(1, XDATA, add(CFA_XSP16, literal(-3)))
        CFI ?RET_HIGH load(1, XDATA, add(CFA_XSP16, literal(-4)))
        CFI ?RET_LOW load(1, XDATA, add(CFA_XSP16, literal(-5)))
        CFI R7 load(1, XDATA, add(CFA_XSP16, literal(-6)))
        CFI V0 load(1, XDATA, add(CFA_XSP16, literal(-7)))
        CFI VB load(1, XDATA, add(CFA_XSP16, literal(-8)))
        CFI R6 load(1, XDATA, add(CFA_XSP16, literal(-9)))
        CFI CFA_SP SP+0
        CFI CFA_XSP16 add(XSP16, 9)
        ; Saved register size: 9
        ; Auto size: 8
        MOV     A,#-0x8
        LCALL   ?ALLOC_XSTACK8
        CFI CFA_XSP16 add(XSP16, 17)
        MOV     A,R2
        MOV     R6,A
        MOV     A,R3
        MOV     R7,A
// 2584   uint8  match;
// 2585   uint8  lookup[Z_EXTADDR_LEN];
// 2586 
// 2587   match = FALSE;
        MOV     ?V0 + 0,#0x0
// 2588 
// 2589   if ( AddrMgrExtAddrLookup( APSME_TRUSTCENTER_NWKADDR, lookup ) )
        ; Setup parameters for call to function AddrMgrExtAddrLookup
        MOV     DPL,?XSP + 0
        MOV     DPH,?XSP + 1
        MOV     R4,DPL
        MOV     R5,DPH
        MOV     R2,#0x0
        MOV     R3,#0x0
        LCALL   ??AddrMgrExtAddrLookup?relay
        MOV     A,R1
        JZ      ??ZDSecMgrTCExtAddrCheck_0
// 2590   {
// 2591     match = AddrMgrExtAddrEqual( lookup, extAddr );
        ; Setup parameters for call to function AddrMgrExtAddrEqual
        MOV     A,R6
        MOV     R4,A
        MOV     A,R7
        MOV     R5,A
        MOV     DPL,?XSP + 0
        MOV     DPH,?XSP + 1
        MOV     R2,DPL
        MOV     R3,DPH
        LCALL   ??AddrMgrExtAddrEqual?relay
        MOV     A,R1
        MOV     ?V0 + 0,A
// 2592   }
// 2593 
// 2594   return match;
??ZDSecMgrTCExtAddrCheck_0:
        MOV     R1,?V0 + 0
        MOV     A,#0x8
        SJMP    ??Subroutine103_0
        CFI EndBlock cfiBlock509
// 2595 }

        RSEG BANKED_CODE:CODE:NOROOT(0)
?Subroutine1:
        CFI Block cfiBlock510 Using cfiCommon0
        CFI NoFunction
        CFI CFA_SP SP+0
        CFI CFA_XSP16 add(XSP16, 11)
        CFI VB load(1, XDATA, add(CFA_XSP16, literal(-8)))
        CFI DPL0 load(1, XDATA, add(CFA_XSP16, literal(-2)))
        CFI DPH0 load(1, XDATA, add(CFA_XSP16, literal(-1)))
        CFI R6 load(1, XDATA, add(CFA_XSP16, literal(-9)))
        CFI R7 load(1, XDATA, add(CFA_XSP16, literal(-6)))
        CFI V0 load(1, XDATA, add(CFA_XSP16, literal(-7)))
        CFI ?BRET_EXT load(1, XDATA, add(CFA_XSP16, literal(-3)))
        CFI ?RET_HIGH load(1, XDATA, add(CFA_XSP16, literal(-4)))
        CFI ?RET_LOW load(1, XDATA, add(CFA_XSP16, literal(-5)))
        MOV     R1,?V0 + 0
        CFI EndBlock cfiBlock510
        REQUIRE ??Subroutine102_0
        ; // Fall through to label ??Subroutine102_0

        RSEG BANKED_CODE:CODE:NOROOT(0)
??Subroutine102_0:
        CFI Block cfiBlock511 Using cfiCommon0
        CFI NoFunction
        CFI CFA_SP SP+0
        CFI CFA_XSP16 add(XSP16, 11)
        CFI VB load(1, XDATA, add(CFA_XSP16, literal(-8)))
        CFI DPL0 load(1, XDATA, add(CFA_XSP16, literal(-2)))
        CFI DPH0 load(1, XDATA, add(CFA_XSP16, literal(-1)))
        CFI R6 load(1, XDATA, add(CFA_XSP16, literal(-9)))
        CFI R7 load(1, XDATA, add(CFA_XSP16, literal(-6)))
        CFI V0 load(1, XDATA, add(CFA_XSP16, literal(-7)))
        CFI ?BRET_EXT load(1, XDATA, add(CFA_XSP16, literal(-3)))
        CFI ?RET_HIGH load(1, XDATA, add(CFA_XSP16, literal(-4)))
        CFI ?RET_LOW load(1, XDATA, add(CFA_XSP16, literal(-5)))
        MOV     A,#0x2
        CFI EndBlock cfiBlock511
        REQUIRE ??Subroutine103_0
        ; // Fall through to label ??Subroutine103_0

        RSEG BANKED_CODE:CODE:NOROOT(0)
??Subroutine103_0:
        CFI Block cfiBlock512 Using cfiCommon0
        CFI NoFunction
        CFI CFA_SP SP+0
        CFI CFA_XSP16 add(XSP16, 22)
        CFI VB load(1, XDATA, add(CFA_XSP16, literal(-8)))
        CFI DPL0 load(1, XDATA, add(CFA_XSP16, literal(-2)))
        CFI DPH0 load(1, XDATA, add(CFA_XSP16, literal(-1)))
        CFI R6 load(1, XDATA, add(CFA_XSP16, literal(-9)))
        CFI R7 load(1, XDATA, add(CFA_XSP16, literal(-6)))
        CFI V0 load(1, XDATA, add(CFA_XSP16, literal(-7)))
        CFI ?BRET_EXT load(1, XDATA, add(CFA_XSP16, literal(-3)))
        CFI ?RET_HIGH load(1, XDATA, add(CFA_XSP16, literal(-4)))
        CFI ?RET_LOW load(1, XDATA, add(CFA_XSP16, literal(-5)))
        CFI Invalid
        LCALL   ?DEALLOC_XSTACK8
        CFI EndBlock cfiBlock512
        REQUIRE ??Subroutine104_0
        ; // Fall through to label ??Subroutine104_0

        RSEG BANKED_CODE:CODE:NOROOT(0)
??Subroutine104_0:
        CFI Block cfiBlock513 Using cfiCommon0
        CFI NoFunction
        CFI CFA_SP SP+0
        CFI CFA_XSP16 add(XSP16, 9)
        CFI VB load(1, XDATA, add(CFA_XSP16, literal(-8)))
        CFI DPL0 load(1, XDATA, add(CFA_XSP16, literal(-2)))
        CFI DPH0 load(1, XDATA, add(CFA_XSP16, literal(-1)))
        CFI R6 load(1, XDATA, add(CFA_XSP16, literal(-9)))
        CFI R7 load(1, XDATA, add(CFA_XSP16, literal(-6)))
        CFI V0 load(1, XDATA, add(CFA_XSP16, literal(-7)))
        CFI ?BRET_EXT load(1, XDATA, add(CFA_XSP16, literal(-3)))
        CFI ?RET_HIGH load(1, XDATA, add(CFA_XSP16, literal(-4)))
        CFI ?RET_LOW load(1, XDATA, add(CFA_XSP16, literal(-5)))
        MOV     R7,#0x1
        LJMP    ?BANKED_LEAVE_XDATA
        CFI EndBlock cfiBlock513
// 2596 
// 2597 void ZDSecMgrTCDataLoad( uint8* extAddr );

        RSEG BANKED_CODE:CODE:NOROOT(0)
// 2598 void ZDSecMgrTCDataLoad( uint8* extAddr )
ZDSecMgrTCDataLoad:
        CFI Block cfiBlock514 Using cfiCommon0
        CFI Function ZDSecMgrTCDataLoad
        CODE
// 2599 {
        FUNCALL ZDSecMgrTCDataLoad, ZDSecMgrAddrStore
        LOCFRAME ISTACK, 0, STACK
        LOCFRAME PSTACK, 0, STACK
        LOCFRAME XSTACK, 16, STACK
        LOCFRAME IOVERLAY, 0, STATIC
        LOCFRAME DOVERLAY, 0, STATIC
        ARGFRAME ISTACK, 0, STACK
        ARGFRAME PSTACK, 0, STACK
        ARGFRAME XSTACK, 16, STACK
        ARGFRAME IOVERLAY, 0, STATIC
        ARGFRAME DOVERLAY, 0, STATIC
        FUNCALL ZDSecMgrTCDataLoad, ZDSecMgrMasterKeyLookup
        LOCFRAME ISTACK, 0, STACK
        LOCFRAME PSTACK, 0, STACK
        LOCFRAME XSTACK, 14, STACK
        LOCFRAME IOVERLAY, 0, STATIC
        LOCFRAME DOVERLAY, 0, STATIC
        ARGFRAME ISTACK, 0, STACK
        ARGFRAME PSTACK, 0, STACK
        ARGFRAME XSTACK, 14, STACK
        ARGFRAME IOVERLAY, 0, STATIC
        ARGFRAME DOVERLAY, 0, STATIC
        FUNCALL ZDSecMgrTCDataLoad, ZDSecMgrMasterKeyStore
        LOCFRAME ISTACK, 0, STACK
        LOCFRAME PSTACK, 0, STACK
        LOCFRAME XSTACK, 14, STACK
        LOCFRAME IOVERLAY, 0, STATIC
        LOCFRAME DOVERLAY, 0, STATIC
        ARGFRAME ISTACK, 0, STACK
        ARGFRAME PSTACK, 0, STACK
        ARGFRAME XSTACK, 14, STACK
        ARGFRAME IOVERLAY, 0, STATIC
        ARGFRAME DOVERLAY, 0, STATIC
        MOV     A,#-0xa
        LCALL   ?BANKED_ENTER_XDATA
        CFI DPH0 load(1, XDATA, add(CFA_XSP16, literal(-1)))
        CFI DPL0 load(1, XDATA, add(CFA_XSP16, literal(-2)))
        CFI ?BRET_EXT load(1, XDATA, add(CFA_XSP16, literal(-3)))
        CFI ?RET_HIGH load(1, XDATA, add(CFA_XSP16, literal(-4)))
        CFI ?RET_LOW load(1, XDATA, add(CFA_XSP16, literal(-5)))
        CFI R7 load(1, XDATA, add(CFA_XSP16, literal(-6)))
        CFI V1 load(1, XDATA, add(CFA_XSP16, literal(-7)))
        CFI V0 load(1, XDATA, add(CFA_XSP16, literal(-8)))
        CFI VB load(1, XDATA, add(CFA_XSP16, literal(-9)))
        CFI R6 load(1, XDATA, add(CFA_XSP16, literal(-10)))
        CFI CFA_SP SP+0
        CFI CFA_XSP16 add(XSP16, 10)
        ; Saved register size: 10
        ; Auto size: 4
        MOV     A,#-0x4
        LCALL   ?ALLOC_XSTACK8
        CFI CFA_XSP16 add(XSP16, 14)
// 2600   uint16 ami;
// 2601   uint8* key;
// 2602 
// 2603   if ( !ZDSecMgrTCDataLoaded )
        MOV     DPTR,#ZDSecMgrTCDataLoaded
        MOVX    A,@DPTR
        JNZ     ??ZDSecMgrTCDataLoad_0
// 2604   {
// 2605     if ( ZDSecMgrAddrStore( APSME_TRUSTCENTER_NWKADDR, extAddr, &ami ) == ZSuccess )
        ; Setup parameters for call to function ZDSecMgrAddrStore
        MOV     DPL,?XSP + 0
        MOV     DPH,?XSP + 1
        MOV     ?V0 + 0,DPL
        MOV     ?V0 + 1,DPH
        MOV     R0,#?V0 + 0
        LCALL   ?PUSH_XSTACK_I_TWO
        CFI CFA_XSP16 add(XSP16, 16)
        MOV     A,R2
        MOV     R4,A
        MOV     A,R3
        MOV     R5,A
        MOV     R2,#0x0
        MOV     R3,#0x0
        LCALL   ??ZDSecMgrAddrStore?relay
        MOV     A,#0x2
        LCALL   ?DEALLOC_XSTACK8
        CFI CFA_XSP16 add(XSP16, 14)
        MOV     A,R1
        JNZ     ??CrossCallReturnLabel_62
// 2606     {
// 2607       // if preconfigured load key
// 2608       if ( zgPreConfigKeys == TRUE )
        MOV     DPTR,#zgPreConfigKeys
        MOVX    A,@DPTR
        XRL     A,#0x1
        JNZ     ??CrossCallReturnLabel_62
// 2609       {
// 2610         if ( ZDSecMgrMasterKeyLookup( ami, &key ) != ZSuccess )
        ; Setup parameters for call to function ZDSecMgrMasterKeyLookup
        MOV     A,#0x2
        LCALL   ?XSTACK_DISP0_8
        LCALL   ?Subroutine36 & 0xFFFF
??CrossCallReturnLabel_35:
        JZ      ??CrossCallReturnLabel_62
// 2611         {
// 2612           ZDSecMgrMasterKeyStore( ami, ZDSecMgrTCMasterKey );
        ; Setup parameters for call to function ZDSecMgrMasterKeyStore
        MOV     R4,#ZDSecMgrTCMasterKey & 0xff
        MOV     R5,#(ZDSecMgrTCMasterKey >> 8) & 0xff
        LCALL   ?Subroutine49 & 0xFFFF
// 2613         }
// 2614       }
// 2615     }
// 2616 
// 2617     ZDSecMgrTCDataLoaded = TRUE;
??CrossCallReturnLabel_62:
        MOV     DPTR,#ZDSecMgrTCDataLoaded
        MOV     A,#0x1
        MOVX    @DPTR,A
// 2618   }
// 2619 }
??ZDSecMgrTCDataLoad_0:
        MOV     A,#0x4
        LJMP    ??Subroutine100_0 & 0xFFFF
        CFI EndBlock cfiBlock514

        RSEG BANKED_CODE:CODE:NOROOT(0)
?Subroutine49:
        CFI Block cfiCond515 Using cfiCommon0
        CFI NoFunction
        CFI Conditional ??CrossCallReturnLabel_61
        CFI R6 load(1, XDATA, add(CFA_XSP16, literal(-15)))
        CFI VB load(1, XDATA, add(CFA_XSP16, literal(-14)))
        CFI V0 load(1, XDATA, add(CFA_XSP16, literal(-13)))
        CFI V1 load(1, XDATA, add(CFA_XSP16, literal(-12)))
        CFI V2 load(1, XDATA, add(CFA_XSP16, literal(-11)))
        CFI V3 load(1, XDATA, add(CFA_XSP16, literal(-10)))
        CFI V4 load(1, XDATA, add(CFA_XSP16, literal(-9)))
        CFI V5 load(1, XDATA, add(CFA_XSP16, literal(-8)))
        CFI V6 load(1, XDATA, add(CFA_XSP16, literal(-7)))
        CFI R7 load(1, XDATA, add(CFA_XSP16, literal(-6)))
        CFI ?RET_LOW load(1, XDATA, add(CFA_XSP16, literal(-5)))
        CFI ?RET_HIGH load(1, XDATA, add(CFA_XSP16, literal(-4)))
        CFI ?BRET_EXT load(1, XDATA, add(CFA_XSP16, literal(-3)))
        CFI DPL0 load(1, XDATA, add(CFA_XSP16, literal(-2)))
        CFI DPH0 load(1, XDATA, add(CFA_XSP16, literal(-1)))
        CFI CFA_SP SP+0
        CFI CFA_XSP16 add(XSP16, 19)
        CFI Block cfiCond516 Using cfiCommon0
        CFI (cfiCond516) NoFunction
        CFI (cfiCond516) Conditional ??CrossCallReturnLabel_62
        CFI (cfiCond516) R6 load(1, XDATA, add(CFA_XSP16, literal(-10)))
        CFI (cfiCond516) VB load(1, XDATA, add(CFA_XSP16, literal(-9)))
        CFI (cfiCond516) V0 load(1, XDATA, add(CFA_XSP16, literal(-8)))
        CFI (cfiCond516) V1 load(1, XDATA, add(CFA_XSP16, literal(-7)))
        CFI (cfiCond516) R7 load(1, XDATA, add(CFA_XSP16, literal(-6)))
        CFI (cfiCond516) ?RET_LOW load(1, XDATA, add(CFA_XSP16, literal(-5)))
        CFI (cfiCond516) ?RET_HIGH load(1, XDATA, add(CFA_XSP16, literal(-4)))
        CFI (cfiCond516) ?BRET_EXT load(1, XDATA, add(CFA_XSP16, literal(-3)))
        CFI (cfiCond516) DPL0 load(1, XDATA, add(CFA_XSP16, literal(-2)))
        CFI (cfiCond516) DPH0 load(1, XDATA, add(CFA_XSP16, literal(-1)))
        CFI (cfiCond516) CFA_SP SP+0
        CFI (cfiCond516) CFA_XSP16 add(XSP16, 14)
        CFI Block cfiPicker517 Using cfiCommon1
        CFI (cfiPicker517) NoFunction
        CFI (cfiPicker517) Picker
        MOV     DPL,?XSP + 0
        MOV     DPH,?XSP + 1
        LCALL   ?Subroutine71 & 0xFFFF
??CrossCallReturnLabel_158:
        LCALL   ??ZDSecMgrMasterKeyStore?relay
        RET
        CFI EndBlock cfiCond515
        CFI EndBlock cfiCond516
        CFI EndBlock cfiPicker517
// 2620 
// 2621 /******************************************************************************
// 2622  * @fn          ZDSecMgrEstablishKeyInd
// 2623  *
// 2624  * @brief       Process the ZDO_EstablishKeyInd_t message.
// 2625  *
// 2626  * @param       ind - [in] ZDO_EstablishKeyInd_t indication
// 2627  *
// 2628  * @return      none
// 2629  */

        RSEG BANKED_CODE:CODE:NOROOT(0)
// 2630 void ZDSecMgrEstablishKeyInd( ZDO_EstablishKeyInd_t* ind )
ZDSecMgrEstablishKeyInd:
        CFI Block cfiBlock518 Using cfiCommon0
        CFI Function ZDSecMgrEstablishKeyInd
        CODE
// 2631 {
        FUNCALL ZDSecMgrEstablishKeyInd, ZDSecMgrTCDataLoad
        LOCFRAME ISTACK, 0, STACK
        LOCFRAME PSTACK, 0, STACK
        LOCFRAME XSTACK, 29, STACK
        LOCFRAME IOVERLAY, 0, STATIC
        LOCFRAME DOVERLAY, 0, STATIC
        ARGFRAME ISTACK, 0, STACK
        ARGFRAME PSTACK, 0, STACK
        ARGFRAME XSTACK, 29, STACK
        ARGFRAME IOVERLAY, 0, STATIC
        ARGFRAME DOVERLAY, 0, STATIC
        FUNCALL ZDSecMgrEstablishKeyInd, ZDSecMgrTCExtAddrCheck
        LOCFRAME ISTACK, 0, STACK
        LOCFRAME PSTACK, 0, STACK
        LOCFRAME XSTACK, 29, STACK
        LOCFRAME IOVERLAY, 0, STATIC
        LOCFRAME DOVERLAY, 0, STATIC
        ARGFRAME ISTACK, 0, STACK
        ARGFRAME PSTACK, 0, STACK
        ARGFRAME XSTACK, 29, STACK
        ARGFRAME IOVERLAY, 0, STATIC
        ARGFRAME DOVERLAY, 0, STATIC
        FUNCALL ZDSecMgrEstablishKeyInd, ZDSecMgrDeviceValidateSKKE
        LOCFRAME ISTACK, 0, STACK
        LOCFRAME PSTACK, 0, STACK
        LOCFRAME XSTACK, 29, STACK
        LOCFRAME IOVERLAY, 0, STATIC
        LOCFRAME DOVERLAY, 0, STATIC
        ARGFRAME ISTACK, 0, STACK
        ARGFRAME PSTACK, 0, STACK
        ARGFRAME XSTACK, 29, STACK
        ARGFRAME IOVERLAY, 0, STATIC
        ARGFRAME DOVERLAY, 0, STATIC
        FUNCALL ZDSecMgrEstablishKeyInd, APSME_EstablishKeyRsp
        LOCFRAME ISTACK, 0, STACK
        LOCFRAME PSTACK, 0, STACK
        LOCFRAME XSTACK, 29, STACK
        LOCFRAME IOVERLAY, 0, STATIC
        LOCFRAME DOVERLAY, 0, STATIC
        ARGFRAME ISTACK, 0, STACK
        ARGFRAME PSTACK, 0, STACK
        ARGFRAME XSTACK, 29, STACK
        ARGFRAME IOVERLAY, 0, STATIC
        ARGFRAME DOVERLAY, 0, STATIC
        MOV     A,#-0xc
        LCALL   ?BANKED_ENTER_XDATA
        CFI DPH0 load(1, XDATA, add(CFA_XSP16, literal(-1)))
        CFI DPL0 load(1, XDATA, add(CFA_XSP16, literal(-2)))
        CFI ?BRET_EXT load(1, XDATA, add(CFA_XSP16, literal(-3)))
        CFI ?RET_HIGH load(1, XDATA, add(CFA_XSP16, literal(-4)))
        CFI ?RET_LOW load(1, XDATA, add(CFA_XSP16, literal(-5)))
        CFI R7 load(1, XDATA, add(CFA_XSP16, literal(-6)))
        CFI V3 load(1, XDATA, add(CFA_XSP16, literal(-7)))
        CFI V2 load(1, XDATA, add(CFA_XSP16, literal(-8)))
        CFI V1 load(1, XDATA, add(CFA_XSP16, literal(-9)))
        CFI V0 load(1, XDATA, add(CFA_XSP16, literal(-10)))
        CFI VB load(1, XDATA, add(CFA_XSP16, literal(-11)))
        CFI R6 load(1, XDATA, add(CFA_XSP16, literal(-12)))
        CFI CFA_SP SP+0
        CFI CFA_XSP16 add(XSP16, 12)
        ; Saved register size: 12
        ; Auto size: 17
        MOV     A,#-0x11
        LCALL   ?ALLOC_XSTACK8
        CFI CFA_XSP16 add(XSP16, 29)
        MOV     A,R2
        MOV     R6,A
        MOV     A,R3
        MOV     R7,A
// 2632   ZDSecMgrDevice_t        device;
// 2633   APSME_EstablishKeyRsp_t rsp;
// 2634 
// 2635 
// 2636   // load Trust Center data if needed
// 2637   ZDSecMgrTCDataLoad( ind->initExtAddr );
        LCALL   ?Subroutine62 & 0xFFFF
??CrossCallReturnLabel_88:
        ; Setup parameters for call to function ZDSecMgrTCDataLoad
        MOV     R2,?V0 + 0
        MOV     R3,A
        LCALL   ??ZDSecMgrTCDataLoad?relay
// 2638 
// 2639   if ( ZDSecMgrTCExtAddrCheck( ind->initExtAddr ) )
        LCALL   ?Subroutine60 & 0xFFFF
??CrossCallReturnLabel_83:
        ; Setup parameters for call to function ZDSecMgrTCExtAddrCheck
        MOV     R2,?V0 + 0
        MOV     R3,?V0 + 1
        LCALL   ??ZDSecMgrTCExtAddrCheck?relay
        MOV     A,R1
        JZ      ??ZDSecMgrEstablishKeyInd_0
// 2640   {
// 2641     //IF (ind->srcAddr == APSME_TRUSTCENTER_NWKADDR)
// 2642     //OR
// 2643     //!ZDSecMgrTCAuthenticated
// 2644     //devtag.0604.critical
// 2645         //how is the parentAddr used here
// 2646 
// 2647     // initial SKKE from Trust Center via parent
// 2648     device.nwkAddr    = APSME_TRUSTCENTER_NWKADDR;
        MOV     A,#0x7
        LCALL   ?XSTACK_DISP0_8
        CLR     A
        MOVX    @DPTR,A
        INC     DPTR
        LCALL   ?Subroutine19 & 0xFFFF
// 2649     device.parentAddr = ind->srcAddr;
// 2650   }
??CrossCallReturnLabel_10:
        MOV     A,#0xb
        LCALL   ?XSTACK_DISP0_8
        MOV     A,R0
        MOVX    @DPTR,A
        INC     DPTR
        MOV     A,R1
        SJMP    ??ZDSecMgrEstablishKeyInd_1
// 2651   else
// 2652   {
// 2653     // Trust Center direct or E2E SKKE
// 2654     device.nwkAddr    = ind->srcAddr;
??ZDSecMgrEstablishKeyInd_0:
        MOV     DPL,?V0 + 2
        MOV     DPH,?V0 + 3
        LCALL   ??Subroutine106_0 & 0xFFFF
??CrossCallReturnLabel_234:
        MOV     A,#0x7
        LCALL   ?XSTACK_DISP0_8
        LCALL   ??Subroutine93_0 & 0xFFFF
// 2655     device.parentAddr = INVALID_NODE_ADDR;
??CrossCallReturnLabel_175:
        MOV     A,#0xb
        LCALL   ?XSTACK_DISP0_8
        MOV     A,#-0x2
        MOVX    @DPTR,A
        INC     DPTR
        INC     A
??ZDSecMgrEstablishKeyInd_1:
        MOVX    @DPTR,A
// 2656   }
// 2657 
// 2658   device.extAddr = ind->initExtAddr;
        MOV     A,#0x9
        LCALL   ?XSTACK_DISP0_8
        MOV     A,?V0 + 0
        MOVX    @DPTR,A
        INC     DPTR
        MOV     A,?V0 + 1
        MOVX    @DPTR,A
// 2659   //devtag.pro.security.0724.todo - verify usage
// 2660   device.secure  = ind->nwkSecure;
        MOV     A,R6
        ADD     A,#0xe
        LCALL   ?Subroutine59 & 0xFFFF
??CrossCallReturnLabel_81:
        PUSH    A
        CFI CFA_SP SP+-1
        MOV     A,#0xd
        LCALL   ?XSTACK_DISP0_8
        POP     A
        CFI CFA_SP SP+0
        MOVX    @DPTR,A
// 2661 
// 2662   // validate device for SKKE
// 2663   if ( ZDSecMgrDeviceValidateSKKE( &device ) == ZSuccess )
        ; Setup parameters for call to function ZDSecMgrDeviceValidateSKKE
        MOV     A,#0x7
        LCALL   ?XSTACK_DISP0_8
        MOV     R2,DPL
        MOV     R3,DPH
        LCALL   ??ZDSecMgrDeviceValidateSKKE?relay
        MOV     A,R1
        JNZ     ??ZDSecMgrEstablishKeyInd_2
// 2664   {
// 2665     rsp.accept = TRUE;
        MOV     A,#0x4
        LCALL   ?XSTACK_DISP0_8
        MOV     A,#0x1
        SJMP    ??ZDSecMgrEstablishKeyInd_3
// 2666   }
// 2667   else
// 2668   {
// 2669     rsp.accept = FALSE;
??ZDSecMgrEstablishKeyInd_2:
        MOV     A,#0x4
        LCALL   ?XSTACK_DISP0_8
        CLR     A
// 2670   }
??ZDSecMgrEstablishKeyInd_3:
        LCALL   ?Subroutine19 & 0xFFFF
// 2671 
// 2672   rsp.dstAddr     = ind->srcAddr;
??CrossCallReturnLabel_11:
        LCALL   ??Subroutine92_0 & 0xFFFF
// 2673   rsp.initExtAddr = &ind->initExtAddr[0];
??CrossCallReturnLabel_179:
        MOV     A,R6
        ADD     A,#0x4
        MOV     R0,A
        MOV     A,R7
        ADDC    A,#0x0
        MOV     R1,A
        MOV     A,#0x2
        LCALL   ?XSTACK_DISP0_8
        LCALL   ??Subroutine93_0 & 0xFFFF
// 2674   //devtag.0604.todo - remove obsolete
// 2675   rsp.apsSecure   = ind->apsSecure;
??CrossCallReturnLabel_176:
        MOV     A,R6
        ADD     A,#0xd
        MOV     DPL,A
        MOV     A,R7
        LCALL   ??Subroutine90_0 & 0xFFFF
??CrossCallReturnLabel_161:
        PUSH    A
        CFI CFA_SP SP+-1
        MOV     A,#0x5
        LCALL   ?XSTACK_DISP0_8
        POP     A
        CFI CFA_SP SP+0
        MOVX    @DPTR,A
// 2676   rsp.nwkSecure   = ind->nwkSecure;
        MOV     DPL,?V0 + 0
        MOV     DPH,?V0 + 1
        MOVX    A,@DPTR
        PUSH    A
        CFI CFA_SP SP+-1
        MOV     A,#0x6
        LCALL   ?XSTACK_DISP0_8
        POP     A
        CFI CFA_SP SP+0
        LCALL   ??Subroutine94_0 & 0xFFFF
// 2677 
// 2678   APSME_EstablishKeyRsp( &rsp );
??CrossCallReturnLabel_191:
        LCALL   ??APSME_EstablishKeyRsp?relay
// 2679 }
        MOV     A,#0x11
        SJMP    ??Subroutine108_0
        CFI EndBlock cfiBlock518

        RSEG BANKED_CODE:CODE:NOROOT(0)
?Subroutine62:
        CFI Block cfiCond519 Using cfiCommon0
        CFI NoFunction
        CFI Conditional ??CrossCallReturnLabel_87
        CFI R6 load(1, XDATA, add(CFA_XSP16, literal(-12)))
        CFI VB load(1, XDATA, add(CFA_XSP16, literal(-11)))
        CFI V0 load(1, XDATA, add(CFA_XSP16, literal(-10)))
        CFI V1 load(1, XDATA, add(CFA_XSP16, literal(-9)))
        CFI V2 load(1, XDATA, add(CFA_XSP16, literal(-8)))
        CFI V3 load(1, XDATA, add(CFA_XSP16, literal(-7)))
        CFI R7 load(1, XDATA, add(CFA_XSP16, literal(-6)))
        CFI ?RET_LOW load(1, XDATA, add(CFA_XSP16, literal(-5)))
        CFI ?RET_HIGH load(1, XDATA, add(CFA_XSP16, literal(-4)))
        CFI ?BRET_EXT load(1, XDATA, add(CFA_XSP16, literal(-3)))
        CFI DPL0 load(1, XDATA, add(CFA_XSP16, literal(-2)))
        CFI DPH0 load(1, XDATA, add(CFA_XSP16, literal(-1)))
        CFI CFA_SP SP+0
        CFI CFA_XSP16 add(XSP16, 25)
        CFI Block cfiCond520 Using cfiCommon0
        CFI (cfiCond520) NoFunction
        CFI (cfiCond520) Conditional ??CrossCallReturnLabel_88
        CFI (cfiCond520) R6 load(1, XDATA, add(CFA_XSP16, literal(-12)))
        CFI (cfiCond520) VB load(1, XDATA, add(CFA_XSP16, literal(-11)))
        CFI (cfiCond520) V0 load(1, XDATA, add(CFA_XSP16, literal(-10)))
        CFI (cfiCond520) V1 load(1, XDATA, add(CFA_XSP16, literal(-9)))
        CFI (cfiCond520) V2 load(1, XDATA, add(CFA_XSP16, literal(-8)))
        CFI (cfiCond520) V3 load(1, XDATA, add(CFA_XSP16, literal(-7)))
        CFI (cfiCond520) R7 load(1, XDATA, add(CFA_XSP16, literal(-6)))
        CFI (cfiCond520) ?RET_LOW load(1, XDATA, add(CFA_XSP16, literal(-5)))
        CFI (cfiCond520) ?RET_HIGH load(1, XDATA, add(CFA_XSP16, literal(-4)))
        CFI (cfiCond520) ?BRET_EXT load(1, XDATA, add(CFA_XSP16, literal(-3)))
        CFI (cfiCond520) DPL0 load(1, XDATA, add(CFA_XSP16, literal(-2)))
        CFI (cfiCond520) DPH0 load(1, XDATA, add(CFA_XSP16, literal(-1)))
        CFI (cfiCond520) CFA_SP SP+0
        CFI (cfiCond520) CFA_XSP16 add(XSP16, 29)
        CFI Block cfiCond521 Using cfiCommon0
        CFI (cfiCond521) NoFunction
        CFI (cfiCond521) Conditional ??CrossCallReturnLabel_89
        CFI (cfiCond521) R6 load(1, XDATA, add(CFA_XSP16, literal(-12)))
        CFI (cfiCond521) VB load(1, XDATA, add(CFA_XSP16, literal(-11)))
        CFI (cfiCond521) V0 load(1, XDATA, add(CFA_XSP16, literal(-10)))
        CFI (cfiCond521) V1 load(1, XDATA, add(CFA_XSP16, literal(-9)))
        CFI (cfiCond521) V2 load(1, XDATA, add(CFA_XSP16, literal(-8)))
        CFI (cfiCond521) V3 load(1, XDATA, add(CFA_XSP16, literal(-7)))
        CFI (cfiCond521) R7 load(1, XDATA, add(CFA_XSP16, literal(-6)))
        CFI (cfiCond521) ?RET_LOW load(1, XDATA, add(CFA_XSP16, literal(-5)))
        CFI (cfiCond521) ?RET_HIGH load(1, XDATA, add(CFA_XSP16, literal(-4)))
        CFI (cfiCond521) ?BRET_EXT load(1, XDATA, add(CFA_XSP16, literal(-3)))
        CFI (cfiCond521) DPL0 load(1, XDATA, add(CFA_XSP16, literal(-2)))
        CFI (cfiCond521) DPH0 load(1, XDATA, add(CFA_XSP16, literal(-1)))
        CFI (cfiCond521) CFA_SP SP+0
        CFI (cfiCond521) CFA_XSP16 add(XSP16, 32)
        CFI Block cfiPicker522 Using cfiCommon1
        CFI (cfiPicker522) NoFunction
        CFI (cfiPicker522) Picker
        MOV     A,R6
        ADD     A,#0x4
        MOV     ?V0 + 0,A
        MOV     A,R7
        ADDC    A,#0x0
        MOV     ?V0 + 1,A
        RET
        CFI EndBlock cfiCond519
        CFI EndBlock cfiCond520
        CFI EndBlock cfiCond521
        CFI EndBlock cfiPicker522

        RSEG BANKED_CODE:CODE:NOROOT(0)
?Subroutine45:
        CFI Block cfiCond523 Using cfiCommon0
        CFI NoFunction
        CFI Conditional ??CrossCallReturnLabel_227
        CFI R6 load(1, XDATA, add(CFA_XSP16, literal(-10)))
        CFI VB load(1, XDATA, add(CFA_XSP16, literal(-9)))
        CFI V0 load(1, XDATA, add(CFA_XSP16, literal(-8)))
        CFI V1 load(1, XDATA, add(CFA_XSP16, literal(-7)))
        CFI R7 load(1, XDATA, add(CFA_XSP16, literal(-6)))
        CFI ?RET_LOW load(1, XDATA, add(CFA_XSP16, literal(-5)))
        CFI ?RET_HIGH load(1, XDATA, add(CFA_XSP16, literal(-4)))
        CFI ?BRET_EXT load(1, XDATA, add(CFA_XSP16, literal(-3)))
        CFI DPL0 load(1, XDATA, add(CFA_XSP16, literal(-2)))
        CFI DPH0 load(1, XDATA, add(CFA_XSP16, literal(-1)))
        CFI CFA_SP SP+0
        CFI CFA_XSP16 add(XSP16, 17)
        CFI Block cfiCond524 Using cfiCommon0
        CFI (cfiCond524) NoFunction
        CFI (cfiCond524) Conditional ??CrossCallReturnLabel_228
        CFI (cfiCond524) R6 load(1, XDATA, add(CFA_XSP16, literal(-10)))
        CFI (cfiCond524) VB load(1, XDATA, add(CFA_XSP16, literal(-9)))
        CFI (cfiCond524) V0 load(1, XDATA, add(CFA_XSP16, literal(-8)))
        CFI (cfiCond524) V1 load(1, XDATA, add(CFA_XSP16, literal(-7)))
        CFI (cfiCond524) R7 load(1, XDATA, add(CFA_XSP16, literal(-6)))
        CFI (cfiCond524) ?RET_LOW load(1, XDATA, add(CFA_XSP16, literal(-5)))
        CFI (cfiCond524) ?RET_HIGH load(1, XDATA, add(CFA_XSP16, literal(-4)))
        CFI (cfiCond524) ?BRET_EXT load(1, XDATA, add(CFA_XSP16, literal(-3)))
        CFI (cfiCond524) DPL0 load(1, XDATA, add(CFA_XSP16, literal(-2)))
        CFI (cfiCond524) DPH0 load(1, XDATA, add(CFA_XSP16, literal(-1)))
        CFI (cfiCond524) CFA_SP SP+0
        CFI (cfiCond524) CFA_XSP16 add(XSP16, 23)
        CFI Block cfiPicker525 Using cfiCommon1
        CFI (cfiPicker525) NoFunction
        CFI (cfiPicker525) Picker
        LCALL   ??NLME_GetShortAddr?relay
        MOV     DPL,R6
        MOV     DPH,R7
        INC     DPTR
        INC     DPTR
        CFI EndBlock cfiCond523
        CFI EndBlock cfiCond524
        CFI EndBlock cfiPicker525
        REQUIRE ??Subroutine105_0
        ; // Fall through to label ??Subroutine105_0

        RSEG BANKED_CODE:CODE:NOROOT(0)
??Subroutine105_0:
        CFI Block cfiCond526 Using cfiCommon0
        CFI NoFunction
        CFI Conditional ??CrossCallReturnLabel_240
        CFI R6 load(1, XDATA, add(CFA_XSP16, literal(-12)))
        CFI VB load(1, XDATA, add(CFA_XSP16, literal(-11)))
        CFI V0 load(1, XDATA, add(CFA_XSP16, literal(-10)))
        CFI V1 load(1, XDATA, add(CFA_XSP16, literal(-9)))
        CFI V2 load(1, XDATA, add(CFA_XSP16, literal(-8)))
        CFI V3 load(1, XDATA, add(CFA_XSP16, literal(-7)))
        CFI R7 load(1, XDATA, add(CFA_XSP16, literal(-6)))
        CFI ?RET_LOW load(1, XDATA, add(CFA_XSP16, literal(-5)))
        CFI ?RET_HIGH load(1, XDATA, add(CFA_XSP16, literal(-4)))
        CFI ?BRET_EXT load(1, XDATA, add(CFA_XSP16, literal(-3)))
        CFI DPL0 load(1, XDATA, add(CFA_XSP16, literal(-2)))
        CFI DPH0 load(1, XDATA, add(CFA_XSP16, literal(-1)))
        CFI CFA_SP SP+0
        CFI CFA_XSP16 add(XSP16, 35)
        CFI Block cfiCond527 Using cfiCommon0
        CFI (cfiCond527) NoFunction
        CFI (cfiCond527) Conditional ??CrossCallReturnLabel_227
        CFI (cfiCond527) R6 load(1, XDATA, add(CFA_XSP16, literal(-10)))
        CFI (cfiCond527) VB load(1, XDATA, add(CFA_XSP16, literal(-9)))
        CFI (cfiCond527) V0 load(1, XDATA, add(CFA_XSP16, literal(-8)))
        CFI (cfiCond527) V1 load(1, XDATA, add(CFA_XSP16, literal(-7)))
        CFI (cfiCond527) R7 load(1, XDATA, add(CFA_XSP16, literal(-6)))
        CFI (cfiCond527) ?RET_LOW load(1, XDATA, add(CFA_XSP16, literal(-5)))
        CFI (cfiCond527) ?RET_HIGH load(1, XDATA, add(CFA_XSP16, literal(-4)))
        CFI (cfiCond527) ?BRET_EXT load(1, XDATA, add(CFA_XSP16, literal(-3)))
        CFI (cfiCond527) DPL0 load(1, XDATA, add(CFA_XSP16, literal(-2)))
        CFI (cfiCond527) DPH0 load(1, XDATA, add(CFA_XSP16, literal(-1)))
        CFI (cfiCond527) CFA_SP SP+0
        CFI (cfiCond527) CFA_XSP16 add(XSP16, 17)
        CFI Block cfiCond528 Using cfiCommon0
        CFI (cfiCond528) NoFunction
        CFI (cfiCond528) Conditional ??CrossCallReturnLabel_228
        CFI (cfiCond528) R6 load(1, XDATA, add(CFA_XSP16, literal(-10)))
        CFI (cfiCond528) VB load(1, XDATA, add(CFA_XSP16, literal(-9)))
        CFI (cfiCond528) V0 load(1, XDATA, add(CFA_XSP16, literal(-8)))
        CFI (cfiCond528) V1 load(1, XDATA, add(CFA_XSP16, literal(-7)))
        CFI (cfiCond528) R7 load(1, XDATA, add(CFA_XSP16, literal(-6)))
        CFI (cfiCond528) ?RET_LOW load(1, XDATA, add(CFA_XSP16, literal(-5)))
        CFI (cfiCond528) ?RET_HIGH load(1, XDATA, add(CFA_XSP16, literal(-4)))
        CFI (cfiCond528) ?BRET_EXT load(1, XDATA, add(CFA_XSP16, literal(-3)))
        CFI (cfiCond528) DPL0 load(1, XDATA, add(CFA_XSP16, literal(-2)))
        CFI (cfiCond528) DPH0 load(1, XDATA, add(CFA_XSP16, literal(-1)))
        CFI (cfiCond528) CFA_SP SP+0
        CFI (cfiCond528) CFA_XSP16 add(XSP16, 23)
        CFI Block cfiPicker529 Using cfiCommon1
        CFI (cfiPicker529) NoFunction
        CFI (cfiPicker529) Picker
        INC     DPTR
        INC     DPTR
        CFI EndBlock cfiCond526
        CFI EndBlock cfiCond527
        CFI EndBlock cfiCond528
        CFI EndBlock cfiPicker529
        REQUIRE ??Subroutine106_0
        ; // Fall through to label ??Subroutine106_0

        RSEG BANKED_CODE:CODE:NOROOT(0)
??Subroutine106_0:
        CFI Block cfiCond530 Using cfiCommon0
        CFI NoFunction
        CFI Conditional ??CrossCallReturnLabel_229
        CFI R6 load(1, XDATA, add(CFA_XSP16, literal(-9)))
        CFI VB load(1, XDATA, add(CFA_XSP16, literal(-8)))
        CFI V0 load(1, XDATA, add(CFA_XSP16, literal(-7)))
        CFI R7 load(1, XDATA, add(CFA_XSP16, literal(-6)))
        CFI ?RET_LOW load(1, XDATA, add(CFA_XSP16, literal(-5)))
        CFI ?RET_HIGH load(1, XDATA, add(CFA_XSP16, literal(-4)))
        CFI ?BRET_EXT load(1, XDATA, add(CFA_XSP16, literal(-3)))
        CFI DPL0 load(1, XDATA, add(CFA_XSP16, literal(-2)))
        CFI DPH0 load(1, XDATA, add(CFA_XSP16, literal(-1)))
        CFI CFA_SP SP+0
        CFI CFA_XSP16 add(XSP16, 9)
        CFI Block cfiCond531 Using cfiCommon0
        CFI (cfiCond531) NoFunction
        CFI (cfiCond531) Conditional ??CrossCallReturnLabel_230
        CFI (cfiCond531) R6 load(1, XDATA, add(CFA_XSP16, literal(-9)))
        CFI (cfiCond531) VB load(1, XDATA, add(CFA_XSP16, literal(-8)))
        CFI (cfiCond531) V0 load(1, XDATA, add(CFA_XSP16, literal(-7)))
        CFI (cfiCond531) R7 load(1, XDATA, add(CFA_XSP16, literal(-6)))
        CFI (cfiCond531) ?RET_LOW load(1, XDATA, add(CFA_XSP16, literal(-5)))
        CFI (cfiCond531) ?RET_HIGH load(1, XDATA, add(CFA_XSP16, literal(-4)))
        CFI (cfiCond531) ?BRET_EXT load(1, XDATA, add(CFA_XSP16, literal(-3)))
        CFI (cfiCond531) DPL0 load(1, XDATA, add(CFA_XSP16, literal(-2)))
        CFI (cfiCond531) DPH0 load(1, XDATA, add(CFA_XSP16, literal(-1)))
        CFI (cfiCond531) CFA_SP SP+0
        CFI (cfiCond531) CFA_XSP16 add(XSP16, 9)
        CFI Block cfiCond532 Using cfiCommon0
        CFI (cfiCond532) NoFunction
        CFI (cfiCond532) Conditional ??CrossCallReturnLabel_231
        CFI (cfiCond532) R6 load(1, XDATA, add(CFA_XSP16, literal(-10)))
        CFI (cfiCond532) VB load(1, XDATA, add(CFA_XSP16, literal(-9)))
        CFI (cfiCond532) V0 load(1, XDATA, add(CFA_XSP16, literal(-8)))
        CFI (cfiCond532) V1 load(1, XDATA, add(CFA_XSP16, literal(-7)))
        CFI (cfiCond532) R7 load(1, XDATA, add(CFA_XSP16, literal(-6)))
        CFI (cfiCond532) ?RET_LOW load(1, XDATA, add(CFA_XSP16, literal(-5)))
        CFI (cfiCond532) ?RET_HIGH load(1, XDATA, add(CFA_XSP16, literal(-4)))
        CFI (cfiCond532) ?BRET_EXT load(1, XDATA, add(CFA_XSP16, literal(-3)))
        CFI (cfiCond532) DPL0 load(1, XDATA, add(CFA_XSP16, literal(-2)))
        CFI (cfiCond532) DPH0 load(1, XDATA, add(CFA_XSP16, literal(-1)))
        CFI (cfiCond532) CFA_SP SP+0
        CFI (cfiCond532) CFA_XSP16 add(XSP16, 17)
        CFI Block cfiCond533 Using cfiCommon0
        CFI (cfiCond533) NoFunction
        CFI (cfiCond533) Conditional ??CrossCallReturnLabel_232
        CFI (cfiCond533) R6 load(1, XDATA, add(CFA_XSP16, literal(-10)))
        CFI (cfiCond533) VB load(1, XDATA, add(CFA_XSP16, literal(-9)))
        CFI (cfiCond533) V0 load(1, XDATA, add(CFA_XSP16, literal(-8)))
        CFI (cfiCond533) V1 load(1, XDATA, add(CFA_XSP16, literal(-7)))
        CFI (cfiCond533) R7 load(1, XDATA, add(CFA_XSP16, literal(-6)))
        CFI (cfiCond533) ?RET_LOW load(1, XDATA, add(CFA_XSP16, literal(-5)))
        CFI (cfiCond533) ?RET_HIGH load(1, XDATA, add(CFA_XSP16, literal(-4)))
        CFI (cfiCond533) ?BRET_EXT load(1, XDATA, add(CFA_XSP16, literal(-3)))
        CFI (cfiCond533) DPL0 load(1, XDATA, add(CFA_XSP16, literal(-2)))
        CFI (cfiCond533) DPH0 load(1, XDATA, add(CFA_XSP16, literal(-1)))
        CFI (cfiCond533) CFA_SP SP+0
        CFI (cfiCond533) CFA_XSP16 add(XSP16, 23)
        CFI Block cfiCond534 Using cfiCommon0
        CFI (cfiCond534) NoFunction
        CFI (cfiCond534) Conditional ??CrossCallReturnLabel_233
        CFI (cfiCond534) R6 load(1, XDATA, add(CFA_XSP16, literal(-10)))
        CFI (cfiCond534) VB load(1, XDATA, add(CFA_XSP16, literal(-9)))
        CFI (cfiCond534) V0 load(1, XDATA, add(CFA_XSP16, literal(-8)))
        CFI (cfiCond534) V1 load(1, XDATA, add(CFA_XSP16, literal(-7)))
        CFI (cfiCond534) R7 load(1, XDATA, add(CFA_XSP16, literal(-6)))
        CFI (cfiCond534) ?RET_LOW load(1, XDATA, add(CFA_XSP16, literal(-5)))
        CFI (cfiCond534) ?RET_HIGH load(1, XDATA, add(CFA_XSP16, literal(-4)))
        CFI (cfiCond534) ?BRET_EXT load(1, XDATA, add(CFA_XSP16, literal(-3)))
        CFI (cfiCond534) DPL0 load(1, XDATA, add(CFA_XSP16, literal(-2)))
        CFI (cfiCond534) DPH0 load(1, XDATA, add(CFA_XSP16, literal(-1)))
        CFI (cfiCond534) CFA_SP SP+0
        CFI (cfiCond534) CFA_XSP16 add(XSP16, 19)
        CFI Block cfiCond535 Using cfiCommon0
        CFI (cfiCond535) NoFunction
        CFI (cfiCond535) Conditional ??CrossCallReturnLabel_234
        CFI (cfiCond535) R6 load(1, XDATA, add(CFA_XSP16, literal(-12)))
        CFI (cfiCond535) VB load(1, XDATA, add(CFA_XSP16, literal(-11)))
        CFI (cfiCond535) V0 load(1, XDATA, add(CFA_XSP16, literal(-10)))
        CFI (cfiCond535) V1 load(1, XDATA, add(CFA_XSP16, literal(-9)))
        CFI (cfiCond535) V2 load(1, XDATA, add(CFA_XSP16, literal(-8)))
        CFI (cfiCond535) V3 load(1, XDATA, add(CFA_XSP16, literal(-7)))
        CFI (cfiCond535) R7 load(1, XDATA, add(CFA_XSP16, literal(-6)))
        CFI (cfiCond535) ?RET_LOW load(1, XDATA, add(CFA_XSP16, literal(-5)))
        CFI (cfiCond535) ?RET_HIGH load(1, XDATA, add(CFA_XSP16, literal(-4)))
        CFI (cfiCond535) ?BRET_EXT load(1, XDATA, add(CFA_XSP16, literal(-3)))
        CFI (cfiCond535) DPL0 load(1, XDATA, add(CFA_XSP16, literal(-2)))
        CFI (cfiCond535) DPH0 load(1, XDATA, add(CFA_XSP16, literal(-1)))
        CFI (cfiCond535) CFA_SP SP+0
        CFI (cfiCond535) CFA_XSP16 add(XSP16, 29)
        CFI Block cfiCond536 Using cfiCommon0
        CFI (cfiCond536) NoFunction
        CFI (cfiCond536) Conditional ??CrossCallReturnLabel_235
        CFI (cfiCond536) R6 load(1, XDATA, add(CFA_XSP16, literal(-12)))
        CFI (cfiCond536) VB load(1, XDATA, add(CFA_XSP16, literal(-11)))
        CFI (cfiCond536) V0 load(1, XDATA, add(CFA_XSP16, literal(-10)))
        CFI (cfiCond536) V1 load(1, XDATA, add(CFA_XSP16, literal(-9)))
        CFI (cfiCond536) V2 load(1, XDATA, add(CFA_XSP16, literal(-8)))
        CFI (cfiCond536) V3 load(1, XDATA, add(CFA_XSP16, literal(-7)))
        CFI (cfiCond536) R7 load(1, XDATA, add(CFA_XSP16, literal(-6)))
        CFI (cfiCond536) ?RET_LOW load(1, XDATA, add(CFA_XSP16, literal(-5)))
        CFI (cfiCond536) ?RET_HIGH load(1, XDATA, add(CFA_XSP16, literal(-4)))
        CFI (cfiCond536) ?BRET_EXT load(1, XDATA, add(CFA_XSP16, literal(-3)))
        CFI (cfiCond536) DPL0 load(1, XDATA, add(CFA_XSP16, literal(-2)))
        CFI (cfiCond536) DPH0 load(1, XDATA, add(CFA_XSP16, literal(-1)))
        CFI (cfiCond536) CFA_SP SP+0
        CFI (cfiCond536) CFA_XSP16 add(XSP16, 32)
        CFI Block cfiCond537 Using cfiCommon0
        CFI (cfiCond537) NoFunction
        CFI (cfiCond537) Conditional ??CrossCallReturnLabel_236
        CFI (cfiCond537) R6 load(1, XDATA, add(CFA_XSP16, literal(-12)))
        CFI (cfiCond537) VB load(1, XDATA, add(CFA_XSP16, literal(-11)))
        CFI (cfiCond537) V0 load(1, XDATA, add(CFA_XSP16, literal(-10)))
        CFI (cfiCond537) V1 load(1, XDATA, add(CFA_XSP16, literal(-9)))
        CFI (cfiCond537) V2 load(1, XDATA, add(CFA_XSP16, literal(-8)))
        CFI (cfiCond537) V3 load(1, XDATA, add(CFA_XSP16, literal(-7)))
        CFI (cfiCond537) R7 load(1, XDATA, add(CFA_XSP16, literal(-6)))
        CFI (cfiCond537) ?RET_LOW load(1, XDATA, add(CFA_XSP16, literal(-5)))
        CFI (cfiCond537) ?RET_HIGH load(1, XDATA, add(CFA_XSP16, literal(-4)))
        CFI (cfiCond537) ?BRET_EXT load(1, XDATA, add(CFA_XSP16, literal(-3)))
        CFI (cfiCond537) DPL0 load(1, XDATA, add(CFA_XSP16, literal(-2)))
        CFI (cfiCond537) DPH0 load(1, XDATA, add(CFA_XSP16, literal(-1)))
        CFI (cfiCond537) CFA_SP SP+0
        CFI (cfiCond537) CFA_XSP16 add(XSP16, 32)
        CFI Block cfiCond538 Using cfiCommon0
        CFI (cfiCond538) NoFunction
        CFI (cfiCond538) Conditional ??CrossCallReturnLabel_237
        CFI (cfiCond538) R6 load(1, XDATA, add(CFA_XSP16, literal(-10)))
        CFI (cfiCond538) VB load(1, XDATA, add(CFA_XSP16, literal(-9)))
        CFI (cfiCond538) V0 load(1, XDATA, add(CFA_XSP16, literal(-8)))
        CFI (cfiCond538) V1 load(1, XDATA, add(CFA_XSP16, literal(-7)))
        CFI (cfiCond538) R7 load(1, XDATA, add(CFA_XSP16, literal(-6)))
        CFI (cfiCond538) ?RET_LOW load(1, XDATA, add(CFA_XSP16, literal(-5)))
        CFI (cfiCond538) ?RET_HIGH load(1, XDATA, add(CFA_XSP16, literal(-4)))
        CFI (cfiCond538) ?BRET_EXT load(1, XDATA, add(CFA_XSP16, literal(-3)))
        CFI (cfiCond538) DPL0 load(1, XDATA, add(CFA_XSP16, literal(-2)))
        CFI (cfiCond538) DPH0 load(1, XDATA, add(CFA_XSP16, literal(-1)))
        CFI (cfiCond538) CFA_SP SP+0
        CFI (cfiCond538) CFA_XSP16 add(XSP16, 16)
        CFI Block cfiCond539 Using cfiCommon0
        CFI (cfiCond539) NoFunction
        CFI (cfiCond539) Conditional ??CrossCallReturnLabel_238
        CFI (cfiCond539) R6 load(1, XDATA, add(CFA_XSP16, literal(-13)))
        CFI (cfiCond539) VB load(1, XDATA, add(CFA_XSP16, literal(-12)))
        CFI (cfiCond539) V0 load(1, XDATA, add(CFA_XSP16, literal(-11)))
        CFI (cfiCond539) V1 load(1, XDATA, add(CFA_XSP16, literal(-10)))
        CFI (cfiCond539) V2 load(1, XDATA, add(CFA_XSP16, literal(-9)))
        CFI (cfiCond539) V3 load(1, XDATA, add(CFA_XSP16, literal(-8)))
        CFI (cfiCond539) V4 load(1, XDATA, add(CFA_XSP16, literal(-7)))
        CFI (cfiCond539) R7 load(1, XDATA, add(CFA_XSP16, literal(-6)))
        CFI (cfiCond539) ?RET_LOW load(1, XDATA, add(CFA_XSP16, literal(-5)))
        CFI (cfiCond539) ?RET_HIGH load(1, XDATA, add(CFA_XSP16, literal(-4)))
        CFI (cfiCond539) ?BRET_EXT load(1, XDATA, add(CFA_XSP16, literal(-3)))
        CFI (cfiCond539) DPL0 load(1, XDATA, add(CFA_XSP16, literal(-2)))
        CFI (cfiCond539) DPH0 load(1, XDATA, add(CFA_XSP16, literal(-1)))
        CFI (cfiCond539) CFA_SP SP+0
        CFI (cfiCond539) CFA_XSP16 add(XSP16, 15)
        CFI Block cfiCond540 Using cfiCommon0
        CFI (cfiCond540) NoFunction
        CFI (cfiCond540) Conditional ??CrossCallReturnLabel_239
        CFI (cfiCond540) DPL0 Frame(CFA_SP, 4)
        CFI (cfiCond540) DPH0 Frame(CFA_SP, 5)
        CFI (cfiCond540) CFA_SP SP+-5
        CFI (cfiCond540) CFA_XSP16 add(XSP16, 10)
        CFI Block cfiCond541 Using cfiCommon0
        CFI (cfiCond541) NoFunction
        CFI (cfiCond541) Conditional ??CrossCallReturnLabel_240
        CFI (cfiCond541) R6 load(1, XDATA, add(CFA_XSP16, literal(-12)))
        CFI (cfiCond541) VB load(1, XDATA, add(CFA_XSP16, literal(-11)))
        CFI (cfiCond541) V0 load(1, XDATA, add(CFA_XSP16, literal(-10)))
        CFI (cfiCond541) V1 load(1, XDATA, add(CFA_XSP16, literal(-9)))
        CFI (cfiCond541) V2 load(1, XDATA, add(CFA_XSP16, literal(-8)))
        CFI (cfiCond541) V3 load(1, XDATA, add(CFA_XSP16, literal(-7)))
        CFI (cfiCond541) R7 load(1, XDATA, add(CFA_XSP16, literal(-6)))
        CFI (cfiCond541) ?RET_LOW load(1, XDATA, add(CFA_XSP16, literal(-5)))
        CFI (cfiCond541) ?RET_HIGH load(1, XDATA, add(CFA_XSP16, literal(-4)))
        CFI (cfiCond541) ?BRET_EXT load(1, XDATA, add(CFA_XSP16, literal(-3)))
        CFI (cfiCond541) DPL0 load(1, XDATA, add(CFA_XSP16, literal(-2)))
        CFI (cfiCond541) DPH0 load(1, XDATA, add(CFA_XSP16, literal(-1)))
        CFI (cfiCond541) CFA_SP SP+0
        CFI (cfiCond541) CFA_XSP16 add(XSP16, 35)
        CFI Block cfiCond542 Using cfiCommon0
        CFI (cfiCond542) NoFunction
        CFI (cfiCond542) Conditional ??CrossCallReturnLabel_227
        CFI (cfiCond542) R6 load(1, XDATA, add(CFA_XSP16, literal(-10)))
        CFI (cfiCond542) VB load(1, XDATA, add(CFA_XSP16, literal(-9)))
        CFI (cfiCond542) V0 load(1, XDATA, add(CFA_XSP16, literal(-8)))
        CFI (cfiCond542) V1 load(1, XDATA, add(CFA_XSP16, literal(-7)))
        CFI (cfiCond542) R7 load(1, XDATA, add(CFA_XSP16, literal(-6)))
        CFI (cfiCond542) ?RET_LOW load(1, XDATA, add(CFA_XSP16, literal(-5)))
        CFI (cfiCond542) ?RET_HIGH load(1, XDATA, add(CFA_XSP16, literal(-4)))
        CFI (cfiCond542) ?BRET_EXT load(1, XDATA, add(CFA_XSP16, literal(-3)))
        CFI (cfiCond542) DPL0 load(1, XDATA, add(CFA_XSP16, literal(-2)))
        CFI (cfiCond542) DPH0 load(1, XDATA, add(CFA_XSP16, literal(-1)))
        CFI (cfiCond542) CFA_SP SP+0
        CFI (cfiCond542) CFA_XSP16 add(XSP16, 17)
        CFI Block cfiCond543 Using cfiCommon0
        CFI (cfiCond543) NoFunction
        CFI (cfiCond543) Conditional ??CrossCallReturnLabel_228
        CFI (cfiCond543) R6 load(1, XDATA, add(CFA_XSP16, literal(-10)))
        CFI (cfiCond543) VB load(1, XDATA, add(CFA_XSP16, literal(-9)))
        CFI (cfiCond543) V0 load(1, XDATA, add(CFA_XSP16, literal(-8)))
        CFI (cfiCond543) V1 load(1, XDATA, add(CFA_XSP16, literal(-7)))
        CFI (cfiCond543) R7 load(1, XDATA, add(CFA_XSP16, literal(-6)))
        CFI (cfiCond543) ?RET_LOW load(1, XDATA, add(CFA_XSP16, literal(-5)))
        CFI (cfiCond543) ?RET_HIGH load(1, XDATA, add(CFA_XSP16, literal(-4)))
        CFI (cfiCond543) ?BRET_EXT load(1, XDATA, add(CFA_XSP16, literal(-3)))
        CFI (cfiCond543) DPL0 load(1, XDATA, add(CFA_XSP16, literal(-2)))
        CFI (cfiCond543) DPH0 load(1, XDATA, add(CFA_XSP16, literal(-1)))
        CFI (cfiCond543) CFA_SP SP+0
        CFI (cfiCond543) CFA_XSP16 add(XSP16, 23)
        CFI Block cfiPicker544 Using cfiCommon1
        CFI (cfiPicker544) NoFunction
        CFI (cfiPicker544) Picker
        LCALL   ??Subroutine107_0 & 0xFFFF
??CrossCallReturnLabel_247:
        RET
        CFI EndBlock cfiCond530
        CFI EndBlock cfiCond531
        CFI EndBlock cfiCond532
        CFI EndBlock cfiCond533
        CFI EndBlock cfiCond534
        CFI EndBlock cfiCond535
        CFI EndBlock cfiCond536
        CFI EndBlock cfiCond537
        CFI EndBlock cfiCond538
        CFI EndBlock cfiCond539
        CFI EndBlock cfiCond540
        CFI EndBlock cfiCond541
        CFI EndBlock cfiCond542
        CFI EndBlock cfiCond543
        CFI EndBlock cfiPicker544

        RSEG BANKED_CODE:CODE:NOROOT(0)
?Subroutine19:
        CFI Block cfiCond545 Using cfiCommon0
        CFI NoFunction
        CFI Conditional ??CrossCallReturnLabel_10
        CFI R6 load(1, XDATA, add(CFA_XSP16, literal(-12)))
        CFI VB load(1, XDATA, add(CFA_XSP16, literal(-11)))
        CFI V0 load(1, XDATA, add(CFA_XSP16, literal(-10)))
        CFI V1 load(1, XDATA, add(CFA_XSP16, literal(-9)))
        CFI V2 load(1, XDATA, add(CFA_XSP16, literal(-8)))
        CFI V3 load(1, XDATA, add(CFA_XSP16, literal(-7)))
        CFI R7 load(1, XDATA, add(CFA_XSP16, literal(-6)))
        CFI ?RET_LOW load(1, XDATA, add(CFA_XSP16, literal(-5)))
        CFI ?RET_HIGH load(1, XDATA, add(CFA_XSP16, literal(-4)))
        CFI ?BRET_EXT load(1, XDATA, add(CFA_XSP16, literal(-3)))
        CFI DPL0 load(1, XDATA, add(CFA_XSP16, literal(-2)))
        CFI DPH0 load(1, XDATA, add(CFA_XSP16, literal(-1)))
        CFI CFA_SP SP+0
        CFI CFA_XSP16 add(XSP16, 29)
        CFI Block cfiCond546 Using cfiCommon0
        CFI (cfiCond546) NoFunction
        CFI (cfiCond546) Conditional ??CrossCallReturnLabel_11
        CFI (cfiCond546) R6 load(1, XDATA, add(CFA_XSP16, literal(-12)))
        CFI (cfiCond546) VB load(1, XDATA, add(CFA_XSP16, literal(-11)))
        CFI (cfiCond546) V0 load(1, XDATA, add(CFA_XSP16, literal(-10)))
        CFI (cfiCond546) V1 load(1, XDATA, add(CFA_XSP16, literal(-9)))
        CFI (cfiCond546) V2 load(1, XDATA, add(CFA_XSP16, literal(-8)))
        CFI (cfiCond546) V3 load(1, XDATA, add(CFA_XSP16, literal(-7)))
        CFI (cfiCond546) R7 load(1, XDATA, add(CFA_XSP16, literal(-6)))
        CFI (cfiCond546) ?RET_LOW load(1, XDATA, add(CFA_XSP16, literal(-5)))
        CFI (cfiCond546) ?RET_HIGH load(1, XDATA, add(CFA_XSP16, literal(-4)))
        CFI (cfiCond546) ?BRET_EXT load(1, XDATA, add(CFA_XSP16, literal(-3)))
        CFI (cfiCond546) DPL0 load(1, XDATA, add(CFA_XSP16, literal(-2)))
        CFI (cfiCond546) DPH0 load(1, XDATA, add(CFA_XSP16, literal(-1)))
        CFI (cfiCond546) CFA_SP SP+0
        CFI (cfiCond546) CFA_XSP16 add(XSP16, 29)
        CFI Block cfiPicker547 Using cfiCommon1
        CFI (cfiPicker547) NoFunction
        CFI (cfiPicker547) Picker
        MOVX    @DPTR,A
        MOV     DPL,?V0 + 2
        MOV     DPH,?V0 + 3
        LCALL   ??Subroutine107_0 & 0xFFFF
??CrossCallReturnLabel_241:
        RET
        CFI EndBlock cfiCond545
        CFI EndBlock cfiCond546
        CFI EndBlock cfiPicker547

        RSEG BANKED_CODE:CODE:NOROOT(0)
?Subroutine67:
        CFI Block cfiCond548 Using cfiCommon0
        CFI NoFunction
        CFI Conditional ??CrossCallReturnLabel_246, ??CrossCallReturnLabel_8
        CFI R6 load(1, XDATA, add(CFA_XSP16, literal(-10)))
        CFI VB load(1, XDATA, add(CFA_XSP16, literal(-9)))
        CFI V0 load(1, XDATA, add(CFA_XSP16, literal(-8)))
        CFI V1 load(1, XDATA, add(CFA_XSP16, literal(-7)))
        CFI R7 load(1, XDATA, add(CFA_XSP16, literal(-6)))
        CFI ?RET_LOW load(1, XDATA, add(CFA_XSP16, literal(-5)))
        CFI ?RET_HIGH load(1, XDATA, add(CFA_XSP16, literal(-4)))
        CFI ?BRET_EXT load(1, XDATA, add(CFA_XSP16, literal(-3)))
        CFI DPL0 load(1, XDATA, add(CFA_XSP16, literal(-2)))
        CFI DPH0 load(1, XDATA, add(CFA_XSP16, literal(-1)))
        CFI CFA_SP SP+0
        CFI CFA_XSP16 add(XSP16, 23)
        CFI Block cfiCond549 Using cfiCommon0
        CFI (cfiCond549) NoFunction
        CFI (cfiCond549) Conditional ??CrossCallReturnLabel_246, ??CrossCallReturnLabel_9
        CFI (cfiCond549) R6 load(1, XDATA, add(CFA_XSP16, literal(-12)))
        CFI (cfiCond549) VB load(1, XDATA, add(CFA_XSP16, literal(-11)))
        CFI (cfiCond549) V0 load(1, XDATA, add(CFA_XSP16, literal(-10)))
        CFI (cfiCond549) V1 load(1, XDATA, add(CFA_XSP16, literal(-9)))
        CFI (cfiCond549) V2 load(1, XDATA, add(CFA_XSP16, literal(-8)))
        CFI (cfiCond549) V3 load(1, XDATA, add(CFA_XSP16, literal(-7)))
        CFI (cfiCond549) R7 load(1, XDATA, add(CFA_XSP16, literal(-6)))
        CFI (cfiCond549) ?RET_LOW load(1, XDATA, add(CFA_XSP16, literal(-5)))
        CFI (cfiCond549) ?RET_HIGH load(1, XDATA, add(CFA_XSP16, literal(-4)))
        CFI (cfiCond549) ?BRET_EXT load(1, XDATA, add(CFA_XSP16, literal(-3)))
        CFI (cfiCond549) DPL0 load(1, XDATA, add(CFA_XSP16, literal(-2)))
        CFI (cfiCond549) DPH0 load(1, XDATA, add(CFA_XSP16, literal(-1)))
        CFI (cfiCond549) CFA_SP SP+0
        CFI (cfiCond549) CFA_XSP16 add(XSP16, 25)
        CFI Block cfiCond550 Using cfiCommon0
        CFI (cfiCond550) NoFunction
        CFI (cfiCond550) Conditional ??CrossCallReturnLabel_245, ??CrossCallReturnLabel_4
        CFI (cfiCond550) DPL0 Frame(CFA_SP, 4)
        CFI (cfiCond550) DPH0 Frame(CFA_SP, 5)
        CFI (cfiCond550) CFA_SP SP+-5
        CFI (cfiCond550) CFA_XSP16 add(XSP16, 8)
        CFI Block cfiCond551 Using cfiCommon0
        CFI (cfiCond551) NoFunction
        CFI (cfiCond551) Conditional ??CrossCallReturnLabel_245, ??CrossCallReturnLabel_5
        CFI (cfiCond551) DPL0 Frame(CFA_SP, 4)
        CFI (cfiCond551) DPH0 Frame(CFA_SP, 5)
        CFI (cfiCond551) CFA_SP SP+-5
        CFI (cfiCond551) CFA_XSP16 add(XSP16, 10)
        CFI Block cfiPicker552 Using cfiCommon1
        CFI (cfiPicker552) NoFunction
        CFI (cfiPicker552) Picker
        INC     DPTR
        INC     DPTR
        CFI EndBlock cfiCond548
        CFI EndBlock cfiCond549
        CFI EndBlock cfiCond550
        CFI EndBlock cfiCond551
        CFI EndBlock cfiPicker552
        REQUIRE ??Subroutine107_0
        ; // Fall through to label ??Subroutine107_0

        RSEG BANKED_CODE:CODE:NOROOT(0)
??Subroutine107_0:
        CFI Block cfiCond553 Using cfiCommon0
        CFI NoFunction
        CFI Conditional ??CrossCallReturnLabel_243, ??CrossCallReturnLabel_50
        CFI R6 load(1, XDATA, add(CFA_XSP16, literal(-10)))
        CFI VB load(1, XDATA, add(CFA_XSP16, literal(-9)))
        CFI V0 load(1, XDATA, add(CFA_XSP16, literal(-8)))
        CFI V1 load(1, XDATA, add(CFA_XSP16, literal(-7)))
        CFI R7 load(1, XDATA, add(CFA_XSP16, literal(-6)))
        CFI ?RET_LOW load(1, XDATA, add(CFA_XSP16, literal(-5)))
        CFI ?RET_HIGH load(1, XDATA, add(CFA_XSP16, literal(-4)))
        CFI ?BRET_EXT load(1, XDATA, add(CFA_XSP16, literal(-3)))
        CFI DPL0 load(1, XDATA, add(CFA_XSP16, literal(-2)))
        CFI DPH0 load(1, XDATA, add(CFA_XSP16, literal(-1)))
        CFI CFA_SP SP+0
        CFI CFA_XSP16 add(XSP16, 49)
        CFI Block cfiCond554 Using cfiCommon0
        CFI (cfiCond554) NoFunction
        CFI (cfiCond554) Conditional ??CrossCallReturnLabel_243, ??CrossCallReturnLabel_51
        CFI (cfiCond554) R6 load(1, XDATA, add(CFA_XSP16, literal(-10)))
        CFI (cfiCond554) VB load(1, XDATA, add(CFA_XSP16, literal(-9)))
        CFI (cfiCond554) V0 load(1, XDATA, add(CFA_XSP16, literal(-8)))
        CFI (cfiCond554) V1 load(1, XDATA, add(CFA_XSP16, literal(-7)))
        CFI (cfiCond554) R7 load(1, XDATA, add(CFA_XSP16, literal(-6)))
        CFI (cfiCond554) ?RET_LOW load(1, XDATA, add(CFA_XSP16, literal(-5)))
        CFI (cfiCond554) ?RET_HIGH load(1, XDATA, add(CFA_XSP16, literal(-4)))
        CFI (cfiCond554) ?BRET_EXT load(1, XDATA, add(CFA_XSP16, literal(-3)))
        CFI (cfiCond554) DPL0 load(1, XDATA, add(CFA_XSP16, literal(-2)))
        CFI (cfiCond554) DPH0 load(1, XDATA, add(CFA_XSP16, literal(-1)))
        CFI (cfiCond554) CFA_SP SP+0
        CFI (cfiCond554) CFA_XSP16 add(XSP16, 17)
        CFI Block cfiCond555 Using cfiCommon0
        CFI (cfiCond555) NoFunction
        CFI (cfiCond555) Conditional ??CrossCallReturnLabel_243, ??CrossCallReturnLabel_52
        CFI (cfiCond555) DPL0 Frame(CFA_SP, 4)
        CFI (cfiCond555) DPH0 Frame(CFA_SP, 5)
        CFI (cfiCond555) CFA_SP SP+-5
        CFI (cfiCond555) CFA_XSP16 add(XSP16, 8)
        CFI Block cfiCond556 Using cfiCommon0
        CFI (cfiCond556) NoFunction
        CFI (cfiCond556) Conditional ??CrossCallReturnLabel_242, ??CrossCallReturnLabel_180
        CFI (cfiCond556) R6 load(1, XDATA, add(CFA_XSP16, literal(-12)))
        CFI (cfiCond556) VB load(1, XDATA, add(CFA_XSP16, literal(-11)))
        CFI (cfiCond556) V0 load(1, XDATA, add(CFA_XSP16, literal(-10)))
        CFI (cfiCond556) V1 load(1, XDATA, add(CFA_XSP16, literal(-9)))
        CFI (cfiCond556) V2 load(1, XDATA, add(CFA_XSP16, literal(-8)))
        CFI (cfiCond556) V3 load(1, XDATA, add(CFA_XSP16, literal(-7)))
        CFI (cfiCond556) R7 load(1, XDATA, add(CFA_XSP16, literal(-6)))
        CFI (cfiCond556) ?RET_LOW load(1, XDATA, add(CFA_XSP16, literal(-5)))
        CFI (cfiCond556) ?RET_HIGH load(1, XDATA, add(CFA_XSP16, literal(-4)))
        CFI (cfiCond556) ?BRET_EXT load(1, XDATA, add(CFA_XSP16, literal(-3)))
        CFI (cfiCond556) DPL0 load(1, XDATA, add(CFA_XSP16, literal(-2)))
        CFI (cfiCond556) DPH0 load(1, XDATA, add(CFA_XSP16, literal(-1)))
        CFI (cfiCond556) CFA_SP SP+0
        CFI (cfiCond556) CFA_XSP16 add(XSP16, 35)
        CFI Block cfiCond557 Using cfiCommon0
        CFI (cfiCond557) NoFunction
        CFI (cfiCond557) Conditional ??CrossCallReturnLabel_242, ??CrossCallReturnLabel_181
        CFI (cfiCond557) R6 load(1, XDATA, add(CFA_XSP16, literal(-10)))
        CFI (cfiCond557) VB load(1, XDATA, add(CFA_XSP16, literal(-9)))
        CFI (cfiCond557) V0 load(1, XDATA, add(CFA_XSP16, literal(-8)))
        CFI (cfiCond557) V1 load(1, XDATA, add(CFA_XSP16, literal(-7)))
        CFI (cfiCond557) R7 load(1, XDATA, add(CFA_XSP16, literal(-6)))
        CFI (cfiCond557) ?RET_LOW load(1, XDATA, add(CFA_XSP16, literal(-5)))
        CFI (cfiCond557) ?RET_HIGH load(1, XDATA, add(CFA_XSP16, literal(-4)))
        CFI (cfiCond557) ?BRET_EXT load(1, XDATA, add(CFA_XSP16, literal(-3)))
        CFI (cfiCond557) DPL0 load(1, XDATA, add(CFA_XSP16, literal(-2)))
        CFI (cfiCond557) DPH0 load(1, XDATA, add(CFA_XSP16, literal(-1)))
        CFI (cfiCond557) CFA_SP SP+0
        CFI (cfiCond557) CFA_XSP16 add(XSP16, 33)
        CFI Block cfiCond558 Using cfiCommon0
        CFI (cfiCond558) NoFunction
        CFI (cfiCond558) Conditional ??CrossCallReturnLabel_242, ??CrossCallReturnLabel_182
        CFI (cfiCond558) DPL0 Frame(CFA_SP, 4)
        CFI (cfiCond558) DPH0 Frame(CFA_SP, 5)
        CFI (cfiCond558) CFA_SP SP+-5
        CFI (cfiCond558) CFA_XSP16 add(XSP16, 10)
        CFI Block cfiCond559 Using cfiCommon0
        CFI (cfiCond559) NoFunction
        CFI (cfiCond559) Conditional ??CrossCallReturnLabel_247, ??CrossCallReturnLabel_227
        CFI (cfiCond559) R6 load(1, XDATA, add(CFA_XSP16, literal(-10)))
        CFI (cfiCond559) VB load(1, XDATA, add(CFA_XSP16, literal(-9)))
        CFI (cfiCond559) V0 load(1, XDATA, add(CFA_XSP16, literal(-8)))
        CFI (cfiCond559) V1 load(1, XDATA, add(CFA_XSP16, literal(-7)))
        CFI (cfiCond559) R7 load(1, XDATA, add(CFA_XSP16, literal(-6)))
        CFI (cfiCond559) ?RET_LOW load(1, XDATA, add(CFA_XSP16, literal(-5)))
        CFI (cfiCond559) ?RET_HIGH load(1, XDATA, add(CFA_XSP16, literal(-4)))
        CFI (cfiCond559) ?BRET_EXT load(1, XDATA, add(CFA_XSP16, literal(-3)))
        CFI (cfiCond559) DPL0 load(1, XDATA, add(CFA_XSP16, literal(-2)))
        CFI (cfiCond559) DPH0 load(1, XDATA, add(CFA_XSP16, literal(-1)))
        CFI (cfiCond559) CFA_SP SP+0
        CFI (cfiCond559) CFA_XSP16 add(XSP16, 17)
        CFI Block cfiCond560 Using cfiCommon0
        CFI (cfiCond560) NoFunction
        CFI (cfiCond560) Conditional ??CrossCallReturnLabel_247, ??CrossCallReturnLabel_228
        CFI (cfiCond560) R6 load(1, XDATA, add(CFA_XSP16, literal(-10)))
        CFI (cfiCond560) VB load(1, XDATA, add(CFA_XSP16, literal(-9)))
        CFI (cfiCond560) V0 load(1, XDATA, add(CFA_XSP16, literal(-8)))
        CFI (cfiCond560) V1 load(1, XDATA, add(CFA_XSP16, literal(-7)))
        CFI (cfiCond560) R7 load(1, XDATA, add(CFA_XSP16, literal(-6)))
        CFI (cfiCond560) ?RET_LOW load(1, XDATA, add(CFA_XSP16, literal(-5)))
        CFI (cfiCond560) ?RET_HIGH load(1, XDATA, add(CFA_XSP16, literal(-4)))
        CFI (cfiCond560) ?BRET_EXT load(1, XDATA, add(CFA_XSP16, literal(-3)))
        CFI (cfiCond560) DPL0 load(1, XDATA, add(CFA_XSP16, literal(-2)))
        CFI (cfiCond560) DPH0 load(1, XDATA, add(CFA_XSP16, literal(-1)))
        CFI (cfiCond560) CFA_SP SP+0
        CFI (cfiCond560) CFA_XSP16 add(XSP16, 23)
        CFI Block cfiCond561 Using cfiCommon0
        CFI (cfiCond561) NoFunction
        CFI (cfiCond561) Conditional ??CrossCallReturnLabel_247, ??CrossCallReturnLabel_240
        CFI (cfiCond561) R6 load(1, XDATA, add(CFA_XSP16, literal(-12)))
        CFI (cfiCond561) VB load(1, XDATA, add(CFA_XSP16, literal(-11)))
        CFI (cfiCond561) V0 load(1, XDATA, add(CFA_XSP16, literal(-10)))
        CFI (cfiCond561) V1 load(1, XDATA, add(CFA_XSP16, literal(-9)))
        CFI (cfiCond561) V2 load(1, XDATA, add(CFA_XSP16, literal(-8)))
        CFI (cfiCond561) V3 load(1, XDATA, add(CFA_XSP16, literal(-7)))
        CFI (cfiCond561) R7 load(1, XDATA, add(CFA_XSP16, literal(-6)))
        CFI (cfiCond561) ?RET_LOW load(1, XDATA, add(CFA_XSP16, literal(-5)))
        CFI (cfiCond561) ?RET_HIGH load(1, XDATA, add(CFA_XSP16, literal(-4)))
        CFI (cfiCond561) ?BRET_EXT load(1, XDATA, add(CFA_XSP16, literal(-3)))
        CFI (cfiCond561) DPL0 load(1, XDATA, add(CFA_XSP16, literal(-2)))
        CFI (cfiCond561) DPH0 load(1, XDATA, add(CFA_XSP16, literal(-1)))
        CFI (cfiCond561) CFA_SP SP+0
        CFI (cfiCond561) CFA_XSP16 add(XSP16, 35)
        CFI Block cfiCond562 Using cfiCommon0
        CFI (cfiCond562) NoFunction
        CFI (cfiCond562) Conditional ??CrossCallReturnLabel_247, ??CrossCallReturnLabel_229
        CFI (cfiCond562) R6 load(1, XDATA, add(CFA_XSP16, literal(-9)))
        CFI (cfiCond562) VB load(1, XDATA, add(CFA_XSP16, literal(-8)))
        CFI (cfiCond562) V0 load(1, XDATA, add(CFA_XSP16, literal(-7)))
        CFI (cfiCond562) R7 load(1, XDATA, add(CFA_XSP16, literal(-6)))
        CFI (cfiCond562) ?RET_LOW load(1, XDATA, add(CFA_XSP16, literal(-5)))
        CFI (cfiCond562) ?RET_HIGH load(1, XDATA, add(CFA_XSP16, literal(-4)))
        CFI (cfiCond562) ?BRET_EXT load(1, XDATA, add(CFA_XSP16, literal(-3)))
        CFI (cfiCond562) DPL0 load(1, XDATA, add(CFA_XSP16, literal(-2)))
        CFI (cfiCond562) DPH0 load(1, XDATA, add(CFA_XSP16, literal(-1)))
        CFI (cfiCond562) CFA_SP SP+0
        CFI (cfiCond562) CFA_XSP16 add(XSP16, 9)
        CFI Block cfiCond563 Using cfiCommon0
        CFI (cfiCond563) NoFunction
        CFI (cfiCond563) Conditional ??CrossCallReturnLabel_247, ??CrossCallReturnLabel_230
        CFI (cfiCond563) R6 load(1, XDATA, add(CFA_XSP16, literal(-9)))
        CFI (cfiCond563) VB load(1, XDATA, add(CFA_XSP16, literal(-8)))
        CFI (cfiCond563) V0 load(1, XDATA, add(CFA_XSP16, literal(-7)))
        CFI (cfiCond563) R7 load(1, XDATA, add(CFA_XSP16, literal(-6)))
        CFI (cfiCond563) ?RET_LOW load(1, XDATA, add(CFA_XSP16, literal(-5)))
        CFI (cfiCond563) ?RET_HIGH load(1, XDATA, add(CFA_XSP16, literal(-4)))
        CFI (cfiCond563) ?BRET_EXT load(1, XDATA, add(CFA_XSP16, literal(-3)))
        CFI (cfiCond563) DPL0 load(1, XDATA, add(CFA_XSP16, literal(-2)))
        CFI (cfiCond563) DPH0 load(1, XDATA, add(CFA_XSP16, literal(-1)))
        CFI (cfiCond563) CFA_SP SP+0
        CFI (cfiCond563) CFA_XSP16 add(XSP16, 9)
        CFI Block cfiCond564 Using cfiCommon0
        CFI (cfiCond564) NoFunction
        CFI (cfiCond564) Conditional ??CrossCallReturnLabel_247, ??CrossCallReturnLabel_231
        CFI (cfiCond564) R6 load(1, XDATA, add(CFA_XSP16, literal(-10)))
        CFI (cfiCond564) VB load(1, XDATA, add(CFA_XSP16, literal(-9)))
        CFI (cfiCond564) V0 load(1, XDATA, add(CFA_XSP16, literal(-8)))
        CFI (cfiCond564) V1 load(1, XDATA, add(CFA_XSP16, literal(-7)))
        CFI (cfiCond564) R7 load(1, XDATA, add(CFA_XSP16, literal(-6)))
        CFI (cfiCond564) ?RET_LOW load(1, XDATA, add(CFA_XSP16, literal(-5)))
        CFI (cfiCond564) ?RET_HIGH load(1, XDATA, add(CFA_XSP16, literal(-4)))
        CFI (cfiCond564) ?BRET_EXT load(1, XDATA, add(CFA_XSP16, literal(-3)))
        CFI (cfiCond564) DPL0 load(1, XDATA, add(CFA_XSP16, literal(-2)))
        CFI (cfiCond564) DPH0 load(1, XDATA, add(CFA_XSP16, literal(-1)))
        CFI (cfiCond564) CFA_SP SP+0
        CFI (cfiCond564) CFA_XSP16 add(XSP16, 17)
        CFI Block cfiCond565 Using cfiCommon0
        CFI (cfiCond565) NoFunction
        CFI (cfiCond565) Conditional ??CrossCallReturnLabel_247, ??CrossCallReturnLabel_232
        CFI (cfiCond565) R6 load(1, XDATA, add(CFA_XSP16, literal(-10)))
        CFI (cfiCond565) VB load(1, XDATA, add(CFA_XSP16, literal(-9)))
        CFI (cfiCond565) V0 load(1, XDATA, add(CFA_XSP16, literal(-8)))
        CFI (cfiCond565) V1 load(1, XDATA, add(CFA_XSP16, literal(-7)))
        CFI (cfiCond565) R7 load(1, XDATA, add(CFA_XSP16, literal(-6)))
        CFI (cfiCond565) ?RET_LOW load(1, XDATA, add(CFA_XSP16, literal(-5)))
        CFI (cfiCond565) ?RET_HIGH load(1, XDATA, add(CFA_XSP16, literal(-4)))
        CFI (cfiCond565) ?BRET_EXT load(1, XDATA, add(CFA_XSP16, literal(-3)))
        CFI (cfiCond565) DPL0 load(1, XDATA, add(CFA_XSP16, literal(-2)))
        CFI (cfiCond565) DPH0 load(1, XDATA, add(CFA_XSP16, literal(-1)))
        CFI (cfiCond565) CFA_SP SP+0
        CFI (cfiCond565) CFA_XSP16 add(XSP16, 23)
        CFI Block cfiCond566 Using cfiCommon0
        CFI (cfiCond566) NoFunction
        CFI (cfiCond566) Conditional ??CrossCallReturnLabel_247, ??CrossCallReturnLabel_233
        CFI (cfiCond566) R6 load(1, XDATA, add(CFA_XSP16, literal(-10)))
        CFI (cfiCond566) VB load(1, XDATA, add(CFA_XSP16, literal(-9)))
        CFI (cfiCond566) V0 load(1, XDATA, add(CFA_XSP16, literal(-8)))
        CFI (cfiCond566) V1 load(1, XDATA, add(CFA_XSP16, literal(-7)))
        CFI (cfiCond566) R7 load(1, XDATA, add(CFA_XSP16, literal(-6)))
        CFI (cfiCond566) ?RET_LOW load(1, XDATA, add(CFA_XSP16, literal(-5)))
        CFI (cfiCond566) ?RET_HIGH load(1, XDATA, add(CFA_XSP16, literal(-4)))
        CFI (cfiCond566) ?BRET_EXT load(1, XDATA, add(CFA_XSP16, literal(-3)))
        CFI (cfiCond566) DPL0 load(1, XDATA, add(CFA_XSP16, literal(-2)))
        CFI (cfiCond566) DPH0 load(1, XDATA, add(CFA_XSP16, literal(-1)))
        CFI (cfiCond566) CFA_SP SP+0
        CFI (cfiCond566) CFA_XSP16 add(XSP16, 19)
        CFI Block cfiCond567 Using cfiCommon0
        CFI (cfiCond567) NoFunction
        CFI (cfiCond567) Conditional ??CrossCallReturnLabel_247, ??CrossCallReturnLabel_234
        CFI (cfiCond567) R6 load(1, XDATA, add(CFA_XSP16, literal(-12)))
        CFI (cfiCond567) VB load(1, XDATA, add(CFA_XSP16, literal(-11)))
        CFI (cfiCond567) V0 load(1, XDATA, add(CFA_XSP16, literal(-10)))
        CFI (cfiCond567) V1 load(1, XDATA, add(CFA_XSP16, literal(-9)))
        CFI (cfiCond567) V2 load(1, XDATA, add(CFA_XSP16, literal(-8)))
        CFI (cfiCond567) V3 load(1, XDATA, add(CFA_XSP16, literal(-7)))
        CFI (cfiCond567) R7 load(1, XDATA, add(CFA_XSP16, literal(-6)))
        CFI (cfiCond567) ?RET_LOW load(1, XDATA, add(CFA_XSP16, literal(-5)))
        CFI (cfiCond567) ?RET_HIGH load(1, XDATA, add(CFA_XSP16, literal(-4)))
        CFI (cfiCond567) ?BRET_EXT load(1, XDATA, add(CFA_XSP16, literal(-3)))
        CFI (cfiCond567) DPL0 load(1, XDATA, add(CFA_XSP16, literal(-2)))
        CFI (cfiCond567) DPH0 load(1, XDATA, add(CFA_XSP16, literal(-1)))
        CFI (cfiCond567) CFA_SP SP+0
        CFI (cfiCond567) CFA_XSP16 add(XSP16, 29)
        CFI Block cfiCond568 Using cfiCommon0
        CFI (cfiCond568) NoFunction
        CFI (cfiCond568) Conditional ??CrossCallReturnLabel_247, ??CrossCallReturnLabel_235
        CFI (cfiCond568) R6 load(1, XDATA, add(CFA_XSP16, literal(-12)))
        CFI (cfiCond568) VB load(1, XDATA, add(CFA_XSP16, literal(-11)))
        CFI (cfiCond568) V0 load(1, XDATA, add(CFA_XSP16, literal(-10)))
        CFI (cfiCond568) V1 load(1, XDATA, add(CFA_XSP16, literal(-9)))
        CFI (cfiCond568) V2 load(1, XDATA, add(CFA_XSP16, literal(-8)))
        CFI (cfiCond568) V3 load(1, XDATA, add(CFA_XSP16, literal(-7)))
        CFI (cfiCond568) R7 load(1, XDATA, add(CFA_XSP16, literal(-6)))
        CFI (cfiCond568) ?RET_LOW load(1, XDATA, add(CFA_XSP16, literal(-5)))
        CFI (cfiCond568) ?RET_HIGH load(1, XDATA, add(CFA_XSP16, literal(-4)))
        CFI (cfiCond568) ?BRET_EXT load(1, XDATA, add(CFA_XSP16, literal(-3)))
        CFI (cfiCond568) DPL0 load(1, XDATA, add(CFA_XSP16, literal(-2)))
        CFI (cfiCond568) DPH0 load(1, XDATA, add(CFA_XSP16, literal(-1)))
        CFI (cfiCond568) CFA_SP SP+0
        CFI (cfiCond568) CFA_XSP16 add(XSP16, 32)
        CFI Block cfiCond569 Using cfiCommon0
        CFI (cfiCond569) NoFunction
        CFI (cfiCond569) Conditional ??CrossCallReturnLabel_247, ??CrossCallReturnLabel_236
        CFI (cfiCond569) R6 load(1, XDATA, add(CFA_XSP16, literal(-12)))
        CFI (cfiCond569) VB load(1, XDATA, add(CFA_XSP16, literal(-11)))
        CFI (cfiCond569) V0 load(1, XDATA, add(CFA_XSP16, literal(-10)))
        CFI (cfiCond569) V1 load(1, XDATA, add(CFA_XSP16, literal(-9)))
        CFI (cfiCond569) V2 load(1, XDATA, add(CFA_XSP16, literal(-8)))
        CFI (cfiCond569) V3 load(1, XDATA, add(CFA_XSP16, literal(-7)))
        CFI (cfiCond569) R7 load(1, XDATA, add(CFA_XSP16, literal(-6)))
        CFI (cfiCond569) ?RET_LOW load(1, XDATA, add(CFA_XSP16, literal(-5)))
        CFI (cfiCond569) ?RET_HIGH load(1, XDATA, add(CFA_XSP16, literal(-4)))
        CFI (cfiCond569) ?BRET_EXT load(1, XDATA, add(CFA_XSP16, literal(-3)))
        CFI (cfiCond569) DPL0 load(1, XDATA, add(CFA_XSP16, literal(-2)))
        CFI (cfiCond569) DPH0 load(1, XDATA, add(CFA_XSP16, literal(-1)))
        CFI (cfiCond569) CFA_SP SP+0
        CFI (cfiCond569) CFA_XSP16 add(XSP16, 32)
        CFI Block cfiCond570 Using cfiCommon0
        CFI (cfiCond570) NoFunction
        CFI (cfiCond570) Conditional ??CrossCallReturnLabel_247, ??CrossCallReturnLabel_237
        CFI (cfiCond570) R6 load(1, XDATA, add(CFA_XSP16, literal(-10)))
        CFI (cfiCond570) VB load(1, XDATA, add(CFA_XSP16, literal(-9)))
        CFI (cfiCond570) V0 load(1, XDATA, add(CFA_XSP16, literal(-8)))
        CFI (cfiCond570) V1 load(1, XDATA, add(CFA_XSP16, literal(-7)))
        CFI (cfiCond570) R7 load(1, XDATA, add(CFA_XSP16, literal(-6)))
        CFI (cfiCond570) ?RET_LOW load(1, XDATA, add(CFA_XSP16, literal(-5)))
        CFI (cfiCond570) ?RET_HIGH load(1, XDATA, add(CFA_XSP16, literal(-4)))
        CFI (cfiCond570) ?BRET_EXT load(1, XDATA, add(CFA_XSP16, literal(-3)))
        CFI (cfiCond570) DPL0 load(1, XDATA, add(CFA_XSP16, literal(-2)))
        CFI (cfiCond570) DPH0 load(1, XDATA, add(CFA_XSP16, literal(-1)))
        CFI (cfiCond570) CFA_SP SP+0
        CFI (cfiCond570) CFA_XSP16 add(XSP16, 16)
        CFI Block cfiCond571 Using cfiCommon0
        CFI (cfiCond571) NoFunction
        CFI (cfiCond571) Conditional ??CrossCallReturnLabel_247, ??CrossCallReturnLabel_238
        CFI (cfiCond571) R6 load(1, XDATA, add(CFA_XSP16, literal(-13)))
        CFI (cfiCond571) VB load(1, XDATA, add(CFA_XSP16, literal(-12)))
        CFI (cfiCond571) V0 load(1, XDATA, add(CFA_XSP16, literal(-11)))
        CFI (cfiCond571) V1 load(1, XDATA, add(CFA_XSP16, literal(-10)))
        CFI (cfiCond571) V2 load(1, XDATA, add(CFA_XSP16, literal(-9)))
        CFI (cfiCond571) V3 load(1, XDATA, add(CFA_XSP16, literal(-8)))
        CFI (cfiCond571) V4 load(1, XDATA, add(CFA_XSP16, literal(-7)))
        CFI (cfiCond571) R7 load(1, XDATA, add(CFA_XSP16, literal(-6)))
        CFI (cfiCond571) ?RET_LOW load(1, XDATA, add(CFA_XSP16, literal(-5)))
        CFI (cfiCond571) ?RET_HIGH load(1, XDATA, add(CFA_XSP16, literal(-4)))
        CFI (cfiCond571) ?BRET_EXT load(1, XDATA, add(CFA_XSP16, literal(-3)))
        CFI (cfiCond571) DPL0 load(1, XDATA, add(CFA_XSP16, literal(-2)))
        CFI (cfiCond571) DPH0 load(1, XDATA, add(CFA_XSP16, literal(-1)))
        CFI (cfiCond571) CFA_SP SP+0
        CFI (cfiCond571) CFA_XSP16 add(XSP16, 15)
        CFI Block cfiCond572 Using cfiCommon0
        CFI (cfiCond572) NoFunction
        CFI (cfiCond572) Conditional ??CrossCallReturnLabel_247, ??CrossCallReturnLabel_239
        CFI (cfiCond572) DPL0 Frame(CFA_SP, 4)
        CFI (cfiCond572) DPH0 Frame(CFA_SP, 5)
        CFI (cfiCond572) CFA_SP SP+-5
        CFI (cfiCond572) CFA_XSP16 add(XSP16, 10)
        CFI Block cfiCond573 Using cfiCommon0
        CFI (cfiCond573) NoFunction
        CFI (cfiCond573) Conditional ??CrossCallReturnLabel_241, ??CrossCallReturnLabel_10
        CFI (cfiCond573) R6 load(1, XDATA, add(CFA_XSP16, literal(-12)))
        CFI (cfiCond573) VB load(1, XDATA, add(CFA_XSP16, literal(-11)))
        CFI (cfiCond573) V0 load(1, XDATA, add(CFA_XSP16, literal(-10)))
        CFI (cfiCond573) V1 load(1, XDATA, add(CFA_XSP16, literal(-9)))
        CFI (cfiCond573) V2 load(1, XDATA, add(CFA_XSP16, literal(-8)))
        CFI (cfiCond573) V3 load(1, XDATA, add(CFA_XSP16, literal(-7)))
        CFI (cfiCond573) R7 load(1, XDATA, add(CFA_XSP16, literal(-6)))
        CFI (cfiCond573) ?RET_LOW load(1, XDATA, add(CFA_XSP16, literal(-5)))
        CFI (cfiCond573) ?RET_HIGH load(1, XDATA, add(CFA_XSP16, literal(-4)))
        CFI (cfiCond573) ?BRET_EXT load(1, XDATA, add(CFA_XSP16, literal(-3)))
        CFI (cfiCond573) DPL0 load(1, XDATA, add(CFA_XSP16, literal(-2)))
        CFI (cfiCond573) DPH0 load(1, XDATA, add(CFA_XSP16, literal(-1)))
        CFI (cfiCond573) CFA_SP SP+0
        CFI (cfiCond573) CFA_XSP16 add(XSP16, 29)
        CFI Block cfiCond574 Using cfiCommon0
        CFI (cfiCond574) NoFunction
        CFI (cfiCond574) Conditional ??CrossCallReturnLabel_241, ??CrossCallReturnLabel_11
        CFI (cfiCond574) R6 load(1, XDATA, add(CFA_XSP16, literal(-12)))
        CFI (cfiCond574) VB load(1, XDATA, add(CFA_XSP16, literal(-11)))
        CFI (cfiCond574) V0 load(1, XDATA, add(CFA_XSP16, literal(-10)))
        CFI (cfiCond574) V1 load(1, XDATA, add(CFA_XSP16, literal(-9)))
        CFI (cfiCond574) V2 load(1, XDATA, add(CFA_XSP16, literal(-8)))
        CFI (cfiCond574) V3 load(1, XDATA, add(CFA_XSP16, literal(-7)))
        CFI (cfiCond574) R7 load(1, XDATA, add(CFA_XSP16, literal(-6)))
        CFI (cfiCond574) ?RET_LOW load(1, XDATA, add(CFA_XSP16, literal(-5)))
        CFI (cfiCond574) ?RET_HIGH load(1, XDATA, add(CFA_XSP16, literal(-4)))
        CFI (cfiCond574) ?BRET_EXT load(1, XDATA, add(CFA_XSP16, literal(-3)))
        CFI (cfiCond574) DPL0 load(1, XDATA, add(CFA_XSP16, literal(-2)))
        CFI (cfiCond574) DPH0 load(1, XDATA, add(CFA_XSP16, literal(-1)))
        CFI (cfiCond574) CFA_SP SP+0
        CFI (cfiCond574) CFA_XSP16 add(XSP16, 29)
        CFI Block cfiCond575 Using cfiCommon0
        CFI (cfiCond575) NoFunction
        CFI (cfiCond575) Conditional ??CrossCallReturnLabel_244, ??CrossCallReturnLabel_53
        CFI (cfiCond575) R6 load(1, XDATA, add(CFA_XSP16, literal(-12)))
        CFI (cfiCond575) VB load(1, XDATA, add(CFA_XSP16, literal(-11)))
        CFI (cfiCond575) V0 load(1, XDATA, add(CFA_XSP16, literal(-10)))
        CFI (cfiCond575) V1 load(1, XDATA, add(CFA_XSP16, literal(-9)))
        CFI (cfiCond575) V2 load(1, XDATA, add(CFA_XSP16, literal(-8)))
        CFI (cfiCond575) V3 load(1, XDATA, add(CFA_XSP16, literal(-7)))
        CFI (cfiCond575) R7 load(1, XDATA, add(CFA_XSP16, literal(-6)))
        CFI (cfiCond575) ?RET_LOW load(1, XDATA, add(CFA_XSP16, literal(-5)))
        CFI (cfiCond575) ?RET_HIGH load(1, XDATA, add(CFA_XSP16, literal(-4)))
        CFI (cfiCond575) ?BRET_EXT load(1, XDATA, add(CFA_XSP16, literal(-3)))
        CFI (cfiCond575) DPL0 load(1, XDATA, add(CFA_XSP16, literal(-2)))
        CFI (cfiCond575) DPH0 load(1, XDATA, add(CFA_XSP16, literal(-1)))
        CFI (cfiCond575) CFA_SP SP+0
        CFI (cfiCond575) CFA_XSP16 add(XSP16, 25)
        CFI Block cfiCond576 Using cfiCommon0
        CFI (cfiCond576) NoFunction
        CFI (cfiCond576) Conditional ??CrossCallReturnLabel_244, ??CrossCallReturnLabel_54
        CFI (cfiCond576) R6 load(1, XDATA, add(CFA_XSP16, literal(-12)))
        CFI (cfiCond576) VB load(1, XDATA, add(CFA_XSP16, literal(-11)))
        CFI (cfiCond576) V0 load(1, XDATA, add(CFA_XSP16, literal(-10)))
        CFI (cfiCond576) V1 load(1, XDATA, add(CFA_XSP16, literal(-9)))
        CFI (cfiCond576) V2 load(1, XDATA, add(CFA_XSP16, literal(-8)))
        CFI (cfiCond576) V3 load(1, XDATA, add(CFA_XSP16, literal(-7)))
        CFI (cfiCond576) R7 load(1, XDATA, add(CFA_XSP16, literal(-6)))
        CFI (cfiCond576) ?RET_LOW load(1, XDATA, add(CFA_XSP16, literal(-5)))
        CFI (cfiCond576) ?RET_HIGH load(1, XDATA, add(CFA_XSP16, literal(-4)))
        CFI (cfiCond576) ?BRET_EXT load(1, XDATA, add(CFA_XSP16, literal(-3)))
        CFI (cfiCond576) DPL0 load(1, XDATA, add(CFA_XSP16, literal(-2)))
        CFI (cfiCond576) DPH0 load(1, XDATA, add(CFA_XSP16, literal(-1)))
        CFI (cfiCond576) CFA_SP SP+0
        CFI (cfiCond576) CFA_XSP16 add(XSP16, 16)
        CFI Block cfiCond577 Using cfiCommon0
        CFI (cfiCond577) NoFunction
        CFI (cfiCond577) Conditional ??CrossCallReturnLabel_246, ??CrossCallReturnLabel_8
        CFI (cfiCond577) R6 load(1, XDATA, add(CFA_XSP16, literal(-10)))
        CFI (cfiCond577) VB load(1, XDATA, add(CFA_XSP16, literal(-9)))
        CFI (cfiCond577) V0 load(1, XDATA, add(CFA_XSP16, literal(-8)))
        CFI (cfiCond577) V1 load(1, XDATA, add(CFA_XSP16, literal(-7)))
        CFI (cfiCond577) R7 load(1, XDATA, add(CFA_XSP16, literal(-6)))
        CFI (cfiCond577) ?RET_LOW load(1, XDATA, add(CFA_XSP16, literal(-5)))
        CFI (cfiCond577) ?RET_HIGH load(1, XDATA, add(CFA_XSP16, literal(-4)))
        CFI (cfiCond577) ?BRET_EXT load(1, XDATA, add(CFA_XSP16, literal(-3)))
        CFI (cfiCond577) DPL0 load(1, XDATA, add(CFA_XSP16, literal(-2)))
        CFI (cfiCond577) DPH0 load(1, XDATA, add(CFA_XSP16, literal(-1)))
        CFI (cfiCond577) CFA_SP SP+0
        CFI (cfiCond577) CFA_XSP16 add(XSP16, 23)
        CFI Block cfiCond578 Using cfiCommon0
        CFI (cfiCond578) NoFunction
        CFI (cfiCond578) Conditional ??CrossCallReturnLabel_246, ??CrossCallReturnLabel_9
        CFI (cfiCond578) R6 load(1, XDATA, add(CFA_XSP16, literal(-12)))
        CFI (cfiCond578) VB load(1, XDATA, add(CFA_XSP16, literal(-11)))
        CFI (cfiCond578) V0 load(1, XDATA, add(CFA_XSP16, literal(-10)))
        CFI (cfiCond578) V1 load(1, XDATA, add(CFA_XSP16, literal(-9)))
        CFI (cfiCond578) V2 load(1, XDATA, add(CFA_XSP16, literal(-8)))
        CFI (cfiCond578) V3 load(1, XDATA, add(CFA_XSP16, literal(-7)))
        CFI (cfiCond578) R7 load(1, XDATA, add(CFA_XSP16, literal(-6)))
        CFI (cfiCond578) ?RET_LOW load(1, XDATA, add(CFA_XSP16, literal(-5)))
        CFI (cfiCond578) ?RET_HIGH load(1, XDATA, add(CFA_XSP16, literal(-4)))
        CFI (cfiCond578) ?BRET_EXT load(1, XDATA, add(CFA_XSP16, literal(-3)))
        CFI (cfiCond578) DPL0 load(1, XDATA, add(CFA_XSP16, literal(-2)))
        CFI (cfiCond578) DPH0 load(1, XDATA, add(CFA_XSP16, literal(-1)))
        CFI (cfiCond578) CFA_SP SP+0
        CFI (cfiCond578) CFA_XSP16 add(XSP16, 25)
        CFI Block cfiCond579 Using cfiCommon0
        CFI (cfiCond579) NoFunction
        CFI (cfiCond579) Conditional ??CrossCallReturnLabel_245, ??CrossCallReturnLabel_4
        CFI (cfiCond579) DPL0 Frame(CFA_SP, 4)
        CFI (cfiCond579) DPH0 Frame(CFA_SP, 5)
        CFI (cfiCond579) CFA_SP SP+-5
        CFI (cfiCond579) CFA_XSP16 add(XSP16, 8)
        CFI Block cfiCond580 Using cfiCommon0
        CFI (cfiCond580) NoFunction
        CFI (cfiCond580) Conditional ??CrossCallReturnLabel_245, ??CrossCallReturnLabel_5
        CFI (cfiCond580) DPL0 Frame(CFA_SP, 4)
        CFI (cfiCond580) DPH0 Frame(CFA_SP, 5)
        CFI (cfiCond580) CFA_SP SP+-5
        CFI (cfiCond580) CFA_XSP16 add(XSP16, 10)
        CFI Block cfiPicker581 Using cfiCommon1
        CFI (cfiPicker581) NoFunction
        CFI (cfiPicker581) Picker
        LCALL   ?Subroutine79 & 0xFFFF
??CrossCallReturnLabel_253:
        MOV     R1,A
        RET
        CFI EndBlock cfiCond553
        CFI EndBlock cfiCond554
        CFI EndBlock cfiCond555
        CFI EndBlock cfiCond556
        CFI EndBlock cfiCond557
        CFI EndBlock cfiCond558
        CFI EndBlock cfiCond559
        CFI EndBlock cfiCond560
        CFI EndBlock cfiCond561
        CFI EndBlock cfiCond562
        CFI EndBlock cfiCond563
        CFI EndBlock cfiCond564
        CFI EndBlock cfiCond565
        CFI EndBlock cfiCond566
        CFI EndBlock cfiCond567
        CFI EndBlock cfiCond568
        CFI EndBlock cfiCond569
        CFI EndBlock cfiCond570
        CFI EndBlock cfiCond571
        CFI EndBlock cfiCond572
        CFI EndBlock cfiCond573
        CFI EndBlock cfiCond574
        CFI EndBlock cfiCond575
        CFI EndBlock cfiCond576
        CFI EndBlock cfiCond577
        CFI EndBlock cfiCond578
        CFI EndBlock cfiCond579
        CFI EndBlock cfiCond580
        CFI EndBlock cfiPicker581

        RSEG BANKED_CODE:CODE:NOROOT(0)
?Subroutine3:
        CFI Block cfiBlock582 Using cfiCommon0
        CFI NoFunction
        CFI CFA_SP SP+0
        CFI CFA_XSP16 add(XSP16, 14)
        CFI VB load(1, XDATA, add(CFA_XSP16, literal(-11)))
        CFI DPL0 load(1, XDATA, add(CFA_XSP16, literal(-2)))
        CFI DPH0 load(1, XDATA, add(CFA_XSP16, literal(-1)))
        CFI R6 load(1, XDATA, add(CFA_XSP16, literal(-12)))
        CFI R7 load(1, XDATA, add(CFA_XSP16, literal(-6)))
        CFI V0 load(1, XDATA, add(CFA_XSP16, literal(-10)))
        CFI V1 load(1, XDATA, add(CFA_XSP16, literal(-9)))
        CFI V2 load(1, XDATA, add(CFA_XSP16, literal(-8)))
        CFI V3 load(1, XDATA, add(CFA_XSP16, literal(-7)))
        CFI ?BRET_EXT load(1, XDATA, add(CFA_XSP16, literal(-3)))
        CFI ?RET_HIGH load(1, XDATA, add(CFA_XSP16, literal(-4)))
        CFI ?RET_LOW load(1, XDATA, add(CFA_XSP16, literal(-5)))
        MOV     A,#0x2
        CFI EndBlock cfiBlock582
        REQUIRE ??Subroutine108_0
        ; // Fall through to label ??Subroutine108_0

        RSEG BANKED_CODE:CODE:NOROOT(0)
??Subroutine108_0:
        CFI Block cfiBlock583 Using cfiCommon0
        CFI NoFunction
        CFI CFA_SP SP+0
        CFI CFA_XSP16 add(XSP16, 25)
        CFI VB load(1, XDATA, add(CFA_XSP16, literal(-11)))
        CFI DPL0 load(1, XDATA, add(CFA_XSP16, literal(-2)))
        CFI DPH0 load(1, XDATA, add(CFA_XSP16, literal(-1)))
        CFI R6 load(1, XDATA, add(CFA_XSP16, literal(-12)))
        CFI R7 load(1, XDATA, add(CFA_XSP16, literal(-6)))
        CFI V0 load(1, XDATA, add(CFA_XSP16, literal(-10)))
        CFI V1 load(1, XDATA, add(CFA_XSP16, literal(-9)))
        CFI V2 load(1, XDATA, add(CFA_XSP16, literal(-8)))
        CFI V3 load(1, XDATA, add(CFA_XSP16, literal(-7)))
        CFI ?BRET_EXT load(1, XDATA, add(CFA_XSP16, literal(-3)))
        CFI ?RET_HIGH load(1, XDATA, add(CFA_XSP16, literal(-4)))
        CFI ?RET_LOW load(1, XDATA, add(CFA_XSP16, literal(-5)))
        CFI Invalid
        LCALL   ?DEALLOC_XSTACK8
        CFI EndBlock cfiBlock583
        REQUIRE ??Subroutine109_0
        ; // Fall through to label ??Subroutine109_0

        RSEG BANKED_CODE:CODE:NOROOT(0)
??Subroutine109_0:
        CFI Block cfiBlock584 Using cfiCommon0
        CFI NoFunction
        CFI CFA_SP SP+0
        CFI CFA_XSP16 add(XSP16, 12)
        CFI VB load(1, XDATA, add(CFA_XSP16, literal(-11)))
        CFI DPL0 load(1, XDATA, add(CFA_XSP16, literal(-2)))
        CFI DPH0 load(1, XDATA, add(CFA_XSP16, literal(-1)))
        CFI R6 load(1, XDATA, add(CFA_XSP16, literal(-12)))
        CFI R7 load(1, XDATA, add(CFA_XSP16, literal(-6)))
        CFI V0 load(1, XDATA, add(CFA_XSP16, literal(-10)))
        CFI V1 load(1, XDATA, add(CFA_XSP16, literal(-9)))
        CFI V2 load(1, XDATA, add(CFA_XSP16, literal(-8)))
        CFI V3 load(1, XDATA, add(CFA_XSP16, literal(-7)))
        CFI ?BRET_EXT load(1, XDATA, add(CFA_XSP16, literal(-3)))
        CFI ?RET_HIGH load(1, XDATA, add(CFA_XSP16, literal(-4)))
        CFI ?RET_LOW load(1, XDATA, add(CFA_XSP16, literal(-5)))
        MOV     R7,#0x4
        LJMP    ?BANKED_LEAVE_XDATA
        CFI EndBlock cfiBlock584
// 2680 //devtag.pro.security
// 2681 #if 0
// 2682 void ZDSecMgrEstablishKeyInd( ZDO_EstablishKeyInd_t* ind )
// 2683 {
// 2684   ZDSecMgrDevice_t        device;
// 2685   APSME_EstablishKeyRsp_t rsp;
// 2686 
// 2687 
// 2688   device.extAddr = ind->initExtAddr;
// 2689   device.secure  = ind->secure;
// 2690 
// 2691   if ( ind->secure == FALSE )
// 2692   {
// 2693     // SKKE from Trust Center is not secured between child and parent
// 2694     device.nwkAddr    = APSME_TRUSTCENTER_NWKADDR;
// 2695     device.parentAddr = ind->srcAddr;
// 2696   }
// 2697   else
// 2698   {
// 2699     // SKKE from initiator should be secured
// 2700     device.nwkAddr    = ind->srcAddr;
// 2701     device.parentAddr = INVALID_NODE_ADDR;
// 2702   }
// 2703 
// 2704   rsp.dstAddr     = ind->srcAddr;
// 2705   rsp.initExtAddr = &ind->initExtAddr[0];
// 2706   rsp.secure      = ind->secure;
// 2707 
// 2708   // validate device for SKKE
// 2709   if ( ZDSecMgrDeviceValidateSKKE( &device ) == ZSuccess )
// 2710   {
// 2711     rsp.accept = TRUE;
// 2712   }
// 2713   else
// 2714   {
// 2715     rsp.accept = FALSE;
// 2716   }
// 2717 
// 2718   APSME_EstablishKeyRsp( &rsp );
// 2719 }
// 2720 #endif
// 2721 
// 2722 /******************************************************************************
// 2723  * @fn          ZDSecMgrTransportKeyInd
// 2724  *
// 2725  * @brief       Process the ZDO_TransportKeyInd_t message.
// 2726  *
// 2727  * @param       ind - [in] ZDO_TransportKeyInd_t indication
// 2728  *
// 2729  * @return      none
// 2730  */

        RSEG BANKED_CODE:CODE:NOROOT(0)
// 2731 void ZDSecMgrTransportKeyInd( ZDO_TransportKeyInd_t* ind )
ZDSecMgrTransportKeyInd:
        CFI Block cfiBlock585 Using cfiCommon0
        CFI Function ZDSecMgrTransportKeyInd
        CODE
// 2732 {
        FUNCALL ZDSecMgrTransportKeyInd, ZDSecMgrTCDataLoad
        LOCFRAME ISTACK, 0, STACK
        LOCFRAME PSTACK, 0, STACK
        LOCFRAME XSTACK, 10, STACK
        LOCFRAME IOVERLAY, 0, STATIC
        LOCFRAME DOVERLAY, 0, STATIC
        ARGFRAME ISTACK, 0, STACK
        ARGFRAME PSTACK, 0, STACK
        ARGFRAME XSTACK, 10, STACK
        ARGFRAME IOVERLAY, 0, STATIC
        ARGFRAME DOVERLAY, 0, STATIC
        FUNCALL ZDSecMgrTransportKeyInd, SSP_UpdateNwkKey
        LOCFRAME ISTACK, 0, STACK
        LOCFRAME PSTACK, 0, STACK
        LOCFRAME XSTACK, 10, STACK
        LOCFRAME IOVERLAY, 0, STATIC
        LOCFRAME DOVERLAY, 0, STATIC
        ARGFRAME ISTACK, 0, STACK
        ARGFRAME PSTACK, 0, STACK
        ARGFRAME XSTACK, 10, STACK
        ARGFRAME IOVERLAY, 0, STATIC
        ARGFRAME DOVERLAY, 0, STATIC
        FUNCALL ZDSecMgrTransportKeyInd, SSP_SwitchNwkKey
        LOCFRAME ISTACK, 0, STACK
        LOCFRAME PSTACK, 0, STACK
        LOCFRAME XSTACK, 10, STACK
        LOCFRAME IOVERLAY, 0, STATIC
        LOCFRAME DOVERLAY, 0, STATIC
        ARGFRAME ISTACK, 0, STACK
        ARGFRAME PSTACK, 0, STACK
        ARGFRAME XSTACK, 10, STACK
        ARGFRAME IOVERLAY, 0, STATIC
        ARGFRAME DOVERLAY, 0, STATIC
        FUNCALL ZDSecMgrTransportKeyInd, SSP_UpdateNwkKey
        LOCFRAME ISTACK, 0, STACK
        LOCFRAME PSTACK, 0, STACK
        LOCFRAME XSTACK, 10, STACK
        LOCFRAME IOVERLAY, 0, STATIC
        LOCFRAME DOVERLAY, 0, STATIC
        ARGFRAME ISTACK, 0, STACK
        ARGFRAME PSTACK, 0, STACK
        ARGFRAME XSTACK, 10, STACK
        ARGFRAME IOVERLAY, 0, STATIC
        ARGFRAME DOVERLAY, 0, STATIC
        FUNCALL ZDSecMgrTransportKeyInd, SSP_SwitchNwkKey
        LOCFRAME ISTACK, 0, STACK
        LOCFRAME PSTACK, 0, STACK
        LOCFRAME XSTACK, 10, STACK
        LOCFRAME IOVERLAY, 0, STATIC
        LOCFRAME DOVERLAY, 0, STATIC
        ARGFRAME ISTACK, 0, STACK
        ARGFRAME PSTACK, 0, STACK
        ARGFRAME XSTACK, 10, STACK
        ARGFRAME IOVERLAY, 0, STATIC
        ARGFRAME DOVERLAY, 0, STATIC
        FUNCALL ZDSecMgrTransportKeyInd, ZDSecMgrAuthNwkKey
        LOCFRAME ISTACK, 0, STACK
        LOCFRAME PSTACK, 0, STACK
        LOCFRAME XSTACK, 10, STACK
        LOCFRAME IOVERLAY, 0, STATIC
        LOCFRAME DOVERLAY, 0, STATIC
        ARGFRAME ISTACK, 0, STACK
        ARGFRAME PSTACK, 0, STACK
        ARGFRAME XSTACK, 10, STACK
        ARGFRAME IOVERLAY, 0, STATIC
        ARGFRAME DOVERLAY, 0, STATIC
        MOV     A,#-0xa
        LCALL   ?BANKED_ENTER_XDATA
        CFI DPH0 load(1, XDATA, add(CFA_XSP16, literal(-1)))
        CFI DPL0 load(1, XDATA, add(CFA_XSP16, literal(-2)))
        CFI ?BRET_EXT load(1, XDATA, add(CFA_XSP16, literal(-3)))
        CFI ?RET_HIGH load(1, XDATA, add(CFA_XSP16, literal(-4)))
        CFI ?RET_LOW load(1, XDATA, add(CFA_XSP16, literal(-5)))
        CFI R7 load(1, XDATA, add(CFA_XSP16, literal(-6)))
        CFI V1 load(1, XDATA, add(CFA_XSP16, literal(-7)))
        CFI V0 load(1, XDATA, add(CFA_XSP16, literal(-8)))
        CFI VB load(1, XDATA, add(CFA_XSP16, literal(-9)))
        CFI R6 load(1, XDATA, add(CFA_XSP16, literal(-10)))
        CFI CFA_SP SP+0
        CFI CFA_XSP16 add(XSP16, 10)
        ; Saved register size: 10
        ; Auto size: 0
        MOV     A,R2
        MOV     R6,A
        MOV     A,R3
        MOV     R7,A
// 2733   uint8 index;
// 2734 
// 2735   // load Trust Center data if needed
// 2736   ZDSecMgrTCDataLoad( ind->srcExtAddr );
        ; Setup parameters for call to function ZDSecMgrTCDataLoad
        MOV     A,R6
        ADD     A,#0x16
        MOV     R2,A
        MOV     A,R7
        ADDC    A,#0x0
        MOV     R3,A
        LCALL   ??ZDSecMgrTCDataLoad?relay
// 2737 
// 2738   if ( ind->keyType == KEY_TYPE_TC_MASTER )
        MOV     A,R6
        ADD     A,#0x4
        MOV     DPL,A
        MOV     A,R7
        LCALL   ??Subroutine90_0 & 0xFFFF
??CrossCallReturnLabel_162:
        JZ      ??ZDSecMgrTransportKeyInd_0
// 2739   {
// 2740     if ( ZG_CHECK_SECURITY_MODE == ZG_SECURITY_PRO_HIGH )
// 2741     //ZDSecMgrTCMasterKey( ind );
// 2742     {
// 2743       if ( zgPreConfigKeys != TRUE )
// 2744       {
// 2745         // devtag.pro.security.todo - check if Trust Center address is configured and correct
// 2746         ZDSecMgrMasterKeyLoad( ind->srcExtAddr, ind->key );
// 2747       }
// 2748       else
// 2749       {
// 2750         // error condition - reject key
// 2751       }
// 2752     }
// 2753   }
// 2754   else if ( ( ind->keyType == KEY_TYPE_NWK      ) ||
// 2755             ( ind->keyType == 6                 ) ||
// 2756             ( ind->keyType == KEY_TYPE_NWK_HIGH )    )
        XRL     A,#0x1
        JZ      ??ZDSecMgrTransportKeyInd_1
        MOVX    A,@DPTR
        XRL     A,#0x6
        JZ      ??ZDSecMgrTransportKeyInd_1
        MOVX    A,@DPTR
        XRL     A,#0x5
        JNZ     ??ZDSecMgrTransportKeyInd_0
// 2757   {
// 2758     // check for dummy NWK key (all zeros)
// 2759     for ( index = 0;
??ZDSecMgrTransportKeyInd_1:
        MOV     R0,#0x0
??ZDSecMgrTransportKeyInd_2:
        MOV     ?V0 + 0,R0
        MOV     A,R6
        ADD     A,?V0 + 0
        MOV     DPL,A
        MOV     A,R7
        ADDC    A,#0x0
        MOV     DPH,A
        INC     DPTR
        INC     DPTR
        INC     DPTR
        INC     DPTR
        INC     DPTR
        INC     DPTR
        MOVX    A,@DPTR
        JNZ     ??ZDSecMgrTransportKeyInd_3
// 2760           ( (index < SEC_KEY_LEN) && (ind->key[index] == 0) );
// 2761           index++ );
        INC     R0
        MOV     A,R0
        CLR     C
        SUBB    A,#0x10
        JC      ??ZDSecMgrTransportKeyInd_2
// 2762 
// 2763     if ( index == SEC_KEY_LEN )
??ZDSecMgrTransportKeyInd_3:
        MOV     A,#0x10
        XRL     A,R0
        JNZ     ??ZDSecMgrTransportKeyInd_4
// 2764     {
// 2765       // load preconfigured key - once!!
// 2766       if ( !_NIB.nwkKeyLoaded )
        MOV     DPTR,#_NIB + 61
        MOVX    A,@DPTR
        JNZ     ??ZDSecMgrTransportKeyInd_5
// 2767       {
// 2768         SSP_UpdateNwkKey( (byte*)zgPreConfigKey, 0 );
        ; Setup parameters for call to function SSP_UpdateNwkKey
        MOV     R1,#0x0
        MOV     R2,#zgPreConfigKey & 0xff
        MOV     R3,#(zgPreConfigKey >> 8) & 0xff
        LCALL   ??SSP_UpdateNwkKey?relay
// 2769         SSP_SwitchNwkKey( 0 );
        ; Setup parameters for call to function SSP_SwitchNwkKey
        MOV     R1,#0x0
        SJMP    ??ZDSecMgrTransportKeyInd_6
// 2770       }
// 2771     }
// 2772     else
// 2773     {
// 2774       SSP_UpdateNwkKey( ind->key, ind->keySeqNum );
??ZDSecMgrTransportKeyInd_4:
        MOV     A,R6
        ADD     A,#0x5
        LCALL   ?Subroutine59 & 0xFFFF
??CrossCallReturnLabel_82:
        MOV     R1,A
        MOV     A,R6
        ADD     A,#0x6
        MOV     R2,A
        MOV     A,R7
        ADDC    A,#0x0
        MOV     R3,A
        LCALL   ??SSP_UpdateNwkKey?relay
// 2775       if ( !_NIB.nwkKeyLoaded )
        MOV     DPTR,#_NIB + 61
        MOVX    A,@DPTR
        JNZ     ??ZDSecMgrTransportKeyInd_5
// 2776       {
// 2777         SSP_SwitchNwkKey( ind->keySeqNum );
        ; Setup parameters for call to function SSP_SwitchNwkKey
        MOV     DPL,?V0 + 0
        MOV     DPH,?V0 + 1
        MOVX    A,@DPTR
        MOV     R1,A
??ZDSecMgrTransportKeyInd_6:
        LCALL   ??SSP_SwitchNwkKey?relay
// 2778       }
// 2779     }
// 2780 
// 2781     // handle next step in authentication process
// 2782     ZDSecMgrAuthNwkKey();
??ZDSecMgrTransportKeyInd_5:
        ; Setup parameters for call to function ZDSecMgrAuthNwkKey
        LCALL   ??ZDSecMgrAuthNwkKey?relay
// 2783   }
// 2784   else if ( ind->keyType == KEY_TYPE_TC_LINK )
// 2785   {
// 2786     if ( ZG_CHECK_SECURITY_MODE == ZG_SECURITY_PRO_HIGH )
// 2787     {
// 2788       //ZDSecMgrTCLinkKey( ind );
// 2789     }
// 2790   }
// 2791   else if ( ind->keyType == KEY_TYPE_APP_MASTER )
// 2792   {
// 2793     if ( ZG_CHECK_SECURITY_MODE == ZG_SECURITY_PRO_HIGH )
// 2794     {
// 2795       uint16           ami;
// 2796       AddrMgrEntry_t   entry;
// 2797       ZDSecMgrEntry_t* entryZD;
// 2798 
// 2799       ZDSecMgrExtAddrLookup( ind->srcExtAddr, &ami );
// 2800 
// 2801       if ( ind->initiator == TRUE )
// 2802       {
// 2803         // get the ami data
// 2804         entry.user  = ADDRMGR_USER_SECURITY;
// 2805         entry.index = ami;
// 2806         AddrMgrEntryGet( &entry );
// 2807 
// 2808         if ( entry.nwkAddr != INVALID_NODE_ADDR )
// 2809         {
// 2810           APSME_EstablishKeyReq_t req;
// 2811           ZDSecMgrMasterKeyLoad( ind->srcExtAddr, ind->key );
// 2812 
// 2813           ZDSecMgrEntryLookupAMI( ami, &entryZD );
// 2814 
// 2815           if ( entryZD == NULL )
// 2816           {
// 2817             // get new entry
// 2818             if ( ZDSecMgrEntryNew( &entryZD ) == ZSuccess )
// 2819             {
// 2820               // finish setting up entry
// 2821               entryZD->ami = ami;
// 2822             }
// 2823           }
// 2824 
// 2825           req.respExtAddr = ind->srcExtAddr;
// 2826           req.method      = APSME_SKKE_METHOD;
// 2827           req.dstAddr     = entry.nwkAddr;
// 2828           //devtag.0604.todo - remove obsolete
// 2829           req.apsSecure   = FALSE;
// 2830           req.nwkSecure   = TRUE;
// 2831           APSME_EstablishKeyReq( &req );
// 2832         }
// 2833       }
// 2834       else
// 2835       {
// 2836         if ( ami == INVALID_NODE_ADDR )
// 2837         {
// 2838           // store new EXT address
// 2839           ZDSecMgrAddrStore( INVALID_NODE_ADDR, ind->srcExtAddr, &ami );
// 2840         }
// 2841 
// 2842         ZDSecMgrMasterKeyLoad( ind->srcExtAddr, ind->key );
// 2843       }
// 2844 
// 2845       //if ( entry.nwkAddr == INVALID_NODE_ADDR )
// 2846       //{
// 2847       //  ZDP_NwkAddrReq( ind->srcExtAddr, ZDP_ADDR_REQTYPE_SINGLE, 0, 0 );
// 2848       //}
// 2849     }
// 2850   }
// 2851   else if ( ind->keyType == KEY_TYPE_APP_LINK )
// 2852   {
// 2853     if ( ZG_CHECK_SECURITY_MODE == ZG_SECURITY_PRO_HIGH )
// 2854     {
// 2855       uint16           ami;
// 2856       ZDSecMgrEntry_t* entry;
// 2857 
// 2858       // get the address index
// 2859       if ( ZDSecMgrExtAddrLookup( ind->srcExtAddr, &ami ) != ZSuccess )
// 2860       {
// 2861         // store new EXT address
// 2862         ZDSecMgrAddrStore( INVALID_NODE_ADDR, ind->srcExtAddr, &ami );
// 2863         ZDP_NwkAddrReq( ind->srcExtAddr, ZDP_ADDR_REQTYPE_SINGLE, 0, 0 );
// 2864       }
// 2865 
// 2866       ZDSecMgrEntryLookupAMI( ami, &entry );
// 2867 
// 2868       if ( entry == NULL )
// 2869       {
// 2870         // get new entry
// 2871         if ( ZDSecMgrEntryNew( &entry ) == ZSuccess )
// 2872         {
// 2873           // finish setting up entry
// 2874           entry->ami = ami;
// 2875         }
// 2876       }
// 2877 
// 2878       ZDSecMgrLinkKeySet( ind->srcExtAddr, ind->key );
// 2879     }
// 2880   }
// 2881 }
??ZDSecMgrTransportKeyInd_0:
        LJMP    ??Subroutine101_0 & 0xFFFF
        CFI EndBlock cfiBlock585

        RSEG BANKED_CODE:CODE:NOROOT(0)
?Subroutine59:
        CFI Block cfiCond586 Using cfiCommon0
        CFI NoFunction
        CFI Conditional ??CrossCallReturnLabel_81
        CFI R6 load(1, XDATA, add(CFA_XSP16, literal(-12)))
        CFI VB load(1, XDATA, add(CFA_XSP16, literal(-11)))
        CFI V0 load(1, XDATA, add(CFA_XSP16, literal(-10)))
        CFI V1 load(1, XDATA, add(CFA_XSP16, literal(-9)))
        CFI V2 load(1, XDATA, add(CFA_XSP16, literal(-8)))
        CFI V3 load(1, XDATA, add(CFA_XSP16, literal(-7)))
        CFI R7 load(1, XDATA, add(CFA_XSP16, literal(-6)))
        CFI ?RET_LOW load(1, XDATA, add(CFA_XSP16, literal(-5)))
        CFI ?RET_HIGH load(1, XDATA, add(CFA_XSP16, literal(-4)))
        CFI ?BRET_EXT load(1, XDATA, add(CFA_XSP16, literal(-3)))
        CFI DPL0 load(1, XDATA, add(CFA_XSP16, literal(-2)))
        CFI DPH0 load(1, XDATA, add(CFA_XSP16, literal(-1)))
        CFI CFA_SP SP+0
        CFI CFA_XSP16 add(XSP16, 29)
        CFI Block cfiCond587 Using cfiCommon0
        CFI (cfiCond587) NoFunction
        CFI (cfiCond587) Conditional ??CrossCallReturnLabel_82
        CFI (cfiCond587) R6 load(1, XDATA, add(CFA_XSP16, literal(-10)))
        CFI (cfiCond587) VB load(1, XDATA, add(CFA_XSP16, literal(-9)))
        CFI (cfiCond587) V0 load(1, XDATA, add(CFA_XSP16, literal(-8)))
        CFI (cfiCond587) V1 load(1, XDATA, add(CFA_XSP16, literal(-7)))
        CFI (cfiCond587) R7 load(1, XDATA, add(CFA_XSP16, literal(-6)))
        CFI (cfiCond587) ?RET_LOW load(1, XDATA, add(CFA_XSP16, literal(-5)))
        CFI (cfiCond587) ?RET_HIGH load(1, XDATA, add(CFA_XSP16, literal(-4)))
        CFI (cfiCond587) ?BRET_EXT load(1, XDATA, add(CFA_XSP16, literal(-3)))
        CFI (cfiCond587) DPL0 load(1, XDATA, add(CFA_XSP16, literal(-2)))
        CFI (cfiCond587) DPH0 load(1, XDATA, add(CFA_XSP16, literal(-1)))
        CFI (cfiCond587) CFA_SP SP+0
        CFI (cfiCond587) CFA_XSP16 add(XSP16, 10)
        CFI Block cfiPicker588 Using cfiCommon1
        CFI (cfiPicker588) NoFunction
        CFI (cfiPicker588) Picker
        MOV     ?V0 + 0,A
        MOV     A,R7
        ADDC    A,#0x0
        MOV     ?V0 + 1,A
        ; Setup parameters for call to function SSP_UpdateNwkKey
        MOV     DPL,?V0 + 0
        MOV     DPH,A
        MOVX    A,@DPTR
        RET
        CFI EndBlock cfiCond586
        CFI EndBlock cfiCond587
        CFI EndBlock cfiPicker588
// 2882 
// 2883 /******************************************************************************
// 2884  * @fn          ZDSecMgrUpdateDeviceInd
// 2885  *
// 2886  * @brief       Process the ZDO_UpdateDeviceInd_t message.
// 2887  *
// 2888  * @param       ind - [in] ZDO_UpdateDeviceInd_t indication
// 2889  *
// 2890  * @return      none
// 2891  */

        RSEG BANKED_CODE:CODE:NOROOT(0)
// 2892 void ZDSecMgrUpdateDeviceInd( ZDO_UpdateDeviceInd_t* ind )
ZDSecMgrUpdateDeviceInd:
        CFI Block cfiBlock589 Using cfiCommon0
        CFI Function ZDSecMgrUpdateDeviceInd
        CODE
// 2893 {
        FUNCALL ZDSecMgrUpdateDeviceInd, ZDSecMgrDeviceJoin
        LOCFRAME ISTACK, 2, STACK
        LOCFRAME PSTACK, 0, STACK
        LOCFRAME XSTACK, 10, STACK
        LOCFRAME IOVERLAY, 0, STATIC
        LOCFRAME DOVERLAY, 0, STATIC
        ARGFRAME ISTACK, 2, STACK
        ARGFRAME PSTACK, 0, STACK
        ARGFRAME XSTACK, 10, STACK
        ARGFRAME IOVERLAY, 0, STATIC
        ARGFRAME DOVERLAY, 0, STATIC
        PUSH    DPL
        CFI DPL0 Frame(CFA_SP, 4)
        CFI CFA_SP SP+-4
        PUSH    DPH
        CFI DPH0 Frame(CFA_SP, 5)
        CFI CFA_SP SP+-5
        ; Saved register size: 2
        ; Auto size: 10
        MOV     A,#-0xa
        LCALL   ?ALLOC_XSTACK8
        CFI CFA_XSP16 add(XSP16, 10)
// 2894   ZDSecMgrDevice_t device;
// 2895 
// 2896 
// 2897   device.nwkAddr    = ind->devAddr;
        MOV     A,R2
        ADD     A,#0xc
        MOV     DPL,A
        MOV     A,R3
        ADDC    A,#0x0
        MOV     DPH,A
        LCALL   ?Subroutine30 & 0xFFFF
// 2898   device.extAddr    = ind->devExtAddr;
??CrossCallReturnLabel_182:
        MOV     A,R2
        ADD     A,#0x4
        MOV     R0,A
        MOV     A,R3
        ADDC    A,#0x0
        MOV     R1,A
        MOV     A,#0x2
        LCALL   ?XSTACK_DISP0_8
        LCALL   ?Subroutine15 & 0xFFFF
// 2899   device.parentAddr = ind->srcAddr;
??CrossCallReturnLabel_5:
        LCALL   ?XSTACK_DISP0_8
        LCALL   ?Subroutine10 & 0xFFFF
// 2900 
// 2901   //if ( ( ind->status == APSME_UD_SECURED_JOIN   ) ||
// 2902   //     ( ind->status == APSME_UD_UNSECURED_JOIN )   )
// 2903   //{
// 2904   //  if ( ind->status == APSME_UD_SECURED_JOIN )
// 2905   //  {
// 2906   //    device.secure = TRUE;
// 2907   //  }
// 2908   //  else
// 2909   //  {
// 2910   //    device.secure = FALSE;
// 2911   //  }
// 2912 
// 2913     // try to join this device
// 2914     ZDSecMgrDeviceJoin( &device );
??CrossCallReturnLabel_1:
        LCALL   ??ZDSecMgrDeviceJoin?relay
// 2915   //}
// 2916 }
        LJMP    ?Subroutine4 & 0xFFFF
        CFI EndBlock cfiBlock589

        RSEG BANKED_CODE:CODE:NOROOT(0)
?Subroutine15:
        CFI Block cfiCond590 Using cfiCommon0
        CFI NoFunction
        CFI Conditional ??CrossCallReturnLabel_4
        CFI DPL0 Frame(CFA_SP, 4)
        CFI DPH0 Frame(CFA_SP, 5)
        CFI CFA_SP SP+-5
        CFI CFA_XSP16 add(XSP16, 8)
        CFI Block cfiCond591 Using cfiCommon0
        CFI (cfiCond591) NoFunction
        CFI (cfiCond591) Conditional ??CrossCallReturnLabel_5
        CFI (cfiCond591) DPL0 Frame(CFA_SP, 4)
        CFI (cfiCond591) DPH0 Frame(CFA_SP, 5)
        CFI (cfiCond591) CFA_SP SP+-5
        CFI (cfiCond591) CFA_XSP16 add(XSP16, 10)
        CFI Block cfiPicker592 Using cfiCommon1
        CFI (cfiPicker592) NoFunction
        CFI (cfiPicker592) Picker
        MOV     A,R0
        MOVX    @DPTR,A
        INC     DPTR
        MOV     A,R1
        LCALL   ?Subroutine74 & 0xFFFF
??CrossCallReturnLabel_103:
        LCALL   ?Subroutine67 & 0xFFFF
??CrossCallReturnLabel_245:
        MOV     A,#0x4
        RET
        CFI EndBlock cfiCond590
        CFI EndBlock cfiCond591
        CFI EndBlock cfiPicker592
// 2917 
// 2918 /******************************************************************************
// 2919  * @fn          ZDSecMgrRemoveDeviceInd
// 2920  *
// 2921  * @brief       Process the ZDO_RemoveDeviceInd_t message.
// 2922  *
// 2923  * @param       ind - [in] ZDO_RemoveDeviceInd_t indication
// 2924  *
// 2925  * @return      none
// 2926  */

        RSEG BANKED_CODE:CODE:NOROOT(0)
// 2927 void ZDSecMgrRemoveDeviceInd( ZDO_RemoveDeviceInd_t* ind )
ZDSecMgrRemoveDeviceInd:
        CFI Block cfiBlock593 Using cfiCommon0
        CFI Function ZDSecMgrRemoveDeviceInd
        CODE
// 2928 {
        FUNCALL ZDSecMgrRemoveDeviceInd, APSME_LookupNwkAddr
        LOCFRAME ISTACK, 0, STACK
        LOCFRAME PSTACK, 0, STACK
        LOCFRAME XSTACK, 19, STACK
        LOCFRAME IOVERLAY, 0, STATIC
        LOCFRAME DOVERLAY, 0, STATIC
        ARGFRAME ISTACK, 0, STACK
        ARGFRAME PSTACK, 0, STACK
        ARGFRAME XSTACK, 19, STACK
        ARGFRAME IOVERLAY, 0, STATIC
        ARGFRAME DOVERLAY, 0, STATIC
        FUNCALL ZDSecMgrRemoveDeviceInd, NLME_GetShortAddr
        LOCFRAME ISTACK, 0, STACK
        LOCFRAME PSTACK, 0, STACK
        LOCFRAME XSTACK, 19, STACK
        LOCFRAME IOVERLAY, 0, STATIC
        LOCFRAME DOVERLAY, 0, STATIC
        ARGFRAME ISTACK, 0, STACK
        ARGFRAME PSTACK, 0, STACK
        ARGFRAME XSTACK, 19, STACK
        ARGFRAME IOVERLAY, 0, STATIC
        ARGFRAME DOVERLAY, 0, STATIC
        FUNCALL ZDSecMgrRemoveDeviceInd, ZDSecMgrDeviceRemove
        LOCFRAME ISTACK, 0, STACK
        LOCFRAME PSTACK, 0, STACK
        LOCFRAME XSTACK, 19, STACK
        LOCFRAME IOVERLAY, 0, STATIC
        LOCFRAME DOVERLAY, 0, STATIC
        ARGFRAME ISTACK, 0, STACK
        ARGFRAME PSTACK, 0, STACK
        ARGFRAME XSTACK, 19, STACK
        ARGFRAME IOVERLAY, 0, STATIC
        ARGFRAME DOVERLAY, 0, STATIC
        MOV     A,#-0x9
        LCALL   ?BANKED_ENTER_XDATA
        CFI DPH0 load(1, XDATA, add(CFA_XSP16, literal(-1)))
        CFI DPL0 load(1, XDATA, add(CFA_XSP16, literal(-2)))
        CFI ?BRET_EXT load(1, XDATA, add(CFA_XSP16, literal(-3)))
        CFI ?RET_HIGH load(1, XDATA, add(CFA_XSP16, literal(-4)))
        CFI ?RET_LOW load(1, XDATA, add(CFA_XSP16, literal(-5)))
        CFI R7 load(1, XDATA, add(CFA_XSP16, literal(-6)))
        CFI V0 load(1, XDATA, add(CFA_XSP16, literal(-7)))
        CFI VB load(1, XDATA, add(CFA_XSP16, literal(-8)))
        CFI R6 load(1, XDATA, add(CFA_XSP16, literal(-9)))
        CFI CFA_SP SP+0
        CFI CFA_XSP16 add(XSP16, 9)
        ; Saved register size: 9
        ; Auto size: 10
        MOV     A,#-0xa
        LCALL   ?ALLOC_XSTACK8
        CFI CFA_XSP16 add(XSP16, 19)
// 2929   ZDSecMgrDevice_t device;
// 2930 
// 2931 
// 2932   // only accept from Trust Center
// 2933   if ( ind->srcAddr == APSME_TRUSTCENTER_NWKADDR )
        MOV     DPL,R2
        MOV     DPH,R3
        INC     DPTR
        INC     DPTR
        LCALL   ??Subroutine97_0 & 0xFFFF
??CrossCallReturnLabel_208:
        JNZ     ??ZDSecMgrRemoveDeviceInd_0
// 2934   {
// 2935     // look up NWK address
// 2936     if ( APSME_LookupNwkAddr( ind->childExtAddr, &device.nwkAddr ) == TRUE )
        MOV     A,R2
        ADD     A,#0x4
        MOV     R6,A
        MOV     A,R3
        ADDC    A,#0x0
        MOV     R7,A
        ; Setup parameters for call to function APSME_LookupNwkAddr
        MOV     DPL,?XSP + 0
        MOV     DPH,?XSP + 1
        MOV     R4,DPL
        MOV     R5,DPH
        MOV     A,R6
        MOV     R2,A
        MOV     A,R7
        MOV     R3,A
        LCALL   ??APSME_LookupNwkAddr?relay
        MOV     A,R1
        XRL     A,#0x1
        JNZ     ??ZDSecMgrRemoveDeviceInd_0
// 2937     {
// 2938       device.parentAddr = NLME_GetShortAddr();
        ; Setup parameters for call to function NLME_GetShortAddr
        LCALL   ??NLME_GetShortAddr?relay
        MOV     A,#0x4
        LCALL   ?XSTACK_DISP0_8
        LCALL   ??Subroutine110_0 & 0xFFFF
// 2939       device.extAddr    = ind->childExtAddr;
// 2940 
// 2941       // remove device
// 2942       ZDSecMgrDeviceRemove( &device );
// 2943     }
// 2944   }
??CrossCallReturnLabel_256:
        LCALL   ?XSTACK_DISP0_8
        MOV     A,R6
        MOVX    @DPTR,A
        INC     DPTR
        MOV     A,R7
        LCALL   ??Subroutine94_0 & 0xFFFF
??CrossCallReturnLabel_192:
        LCALL   ??ZDSecMgrDeviceRemove?relay
// 2945 }
??ZDSecMgrRemoveDeviceInd_0:
        MOV     A,#0xa
        LJMP    ??Subroutine103_0 & 0xFFFF
        CFI EndBlock cfiBlock593
// 2946 
// 2947 /******************************************************************************
// 2948  * @fn          ZDSecMgrRequestKeyInd
// 2949  *
// 2950  * @brief       Process the ZDO_RequestKeyInd_t message.
// 2951  *
// 2952  * @param       ind - [in] ZDO_RequestKeyInd_t indication
// 2953  *
// 2954  * @return      none
// 2955  */

        RSEG BANKED_CODE:CODE:NOROOT(0)
// 2956 void ZDSecMgrRequestKeyInd( ZDO_RequestKeyInd_t* ind )
ZDSecMgrRequestKeyInd:
        CFI Block cfiBlock594 Using cfiCommon0
        CFI Function ZDSecMgrRequestKeyInd
        CODE
// 2957 {
        FUNCALL ZDSecMgrRequestKeyInd, ZDSecMgrAppKeyReq
        LOCFRAME ISTACK, 2, STACK
        LOCFRAME PSTACK, 0, STACK
        LOCFRAME XSTACK, 0, STACK
        LOCFRAME IOVERLAY, 0, STATIC
        LOCFRAME DOVERLAY, 0, STATIC
        ARGFRAME ISTACK, 2, STACK
        ARGFRAME PSTACK, 0, STACK
        ARGFRAME XSTACK, 0, STACK
        ARGFRAME IOVERLAY, 0, STATIC
        ARGFRAME DOVERLAY, 0, STATIC
        PUSH    DPL
        CFI DPL0 Frame(CFA_SP, 4)
        CFI CFA_SP SP+-4
        PUSH    DPH
        CFI DPH0 Frame(CFA_SP, 5)
        CFI CFA_SP SP+-5
        ; Saved register size: 2
        ; Auto size: 0
// 2958   if ( ind->keyType == KEY_TYPE_NWK )
        MOV     DPL,R2
        MOV     DPH,R3
        INC     DPTR
        INC     DPTR
        INC     DPTR
        INC     DPTR
        MOVX    A,@DPTR
        MOV     R0,A
        MOV     A,#0x1
        XRL     A,R0
        JZ      ??ZDSecMgrRequestKeyInd_0
// 2959   {
// 2960   }
// 2961   else if ( ind->keyType == KEY_TYPE_APP_MASTER )
        MOV     A,#0x2
        XRL     A,R0
        JNZ     ??ZDSecMgrRequestKeyInd_0
// 2962   {
// 2963     ZDSecMgrAppKeyReq( ind );
        ; Setup parameters for call to function ZDSecMgrAppKeyReq
        LCALL   ??ZDSecMgrAppKeyReq?relay
// 2964   }
// 2965   else if ( ind->keyType == KEY_TYPE_TC_LINK )
// 2966   {
// 2967   }
// 2968   //else ignore
// 2969 }
??ZDSecMgrRequestKeyInd_0:
        LJMP    ??Subroutine91_0 & 0xFFFF
        CFI EndBlock cfiBlock594
// 2970 
// 2971 /******************************************************************************
// 2972  * @fn          ZDSecMgrSwitchKeyInd
// 2973  *
// 2974  * @brief       Process the ZDO_SwitchKeyInd_t message.
// 2975  *
// 2976  * @param       ind - [in] ZDO_SwitchKeyInd_t indication
// 2977  *
// 2978  * @return      none
// 2979  */

        RSEG BANKED_CODE:CODE:NOROOT(0)
// 2980 void ZDSecMgrSwitchKeyInd( ZDO_SwitchKeyInd_t* ind )
ZDSecMgrSwitchKeyInd:
        CFI Block cfiBlock595 Using cfiCommon0
        CFI Function ZDSecMgrSwitchKeyInd
        CODE
// 2981 {
        FUNCALL ZDSecMgrSwitchKeyInd, SSP_SwitchNwkKey
        LOCFRAME ISTACK, 2, STACK
        LOCFRAME PSTACK, 0, STACK
        LOCFRAME XSTACK, 0, STACK
        LOCFRAME IOVERLAY, 0, STATIC
        LOCFRAME DOVERLAY, 0, STATIC
        ARGFRAME ISTACK, 2, STACK
        ARGFRAME PSTACK, 0, STACK
        ARGFRAME XSTACK, 0, STACK
        ARGFRAME IOVERLAY, 0, STATIC
        ARGFRAME DOVERLAY, 0, STATIC
        FUNCALL ZDSecMgrSwitchKeyInd, ZDApp_NVUpdate
        LOCFRAME ISTACK, 2, STACK
        LOCFRAME PSTACK, 0, STACK
        LOCFRAME XSTACK, 0, STACK
        LOCFRAME IOVERLAY, 0, STATIC
        LOCFRAME DOVERLAY, 0, STATIC
        ARGFRAME ISTACK, 2, STACK
        ARGFRAME PSTACK, 0, STACK
        ARGFRAME XSTACK, 0, STACK
        ARGFRAME IOVERLAY, 0, STATIC
        ARGFRAME DOVERLAY, 0, STATIC
        PUSH    DPL
        CFI DPL0 Frame(CFA_SP, 4)
        CFI CFA_SP SP+-4
        PUSH    DPH
        CFI DPH0 Frame(CFA_SP, 5)
        CFI CFA_SP SP+-5
        ; Saved register size: 2
        ; Auto size: 0
// 2982   SSP_SwitchNwkKey( ind->keySeqNum );
        ; Setup parameters for call to function SSP_SwitchNwkKey
        MOV     DPL,R2
        MOV     DPH,R3
        INC     DPTR
        INC     DPTR
        INC     DPTR
        INC     DPTR
        MOVX    A,@DPTR
        MOV     R1,A
        LCALL   ??SSP_SwitchNwkKey?relay
// 2983 
// 2984   // Save if nv
// 2985   ZDApp_NVUpdate();
        ; Setup parameters for call to function ZDApp_NVUpdate
        LCALL   ??ZDApp_NVUpdate?relay
// 2986 }
        LJMP    ??Subroutine91_0 & 0xFFFF
        CFI EndBlock cfiBlock595
// 2987 
// 2988 /******************************************************************************
// 2989  * @fn          ZDSecMgrAuthenticateInd
// 2990  *
// 2991  * @brief       Process the ZDO_AuthenticateInd_t message.
// 2992  *
// 2993  * @param       ind - [in] ZDO_AuthenticateInd_t indication
// 2994  *
// 2995  * @return      none
// 2996  */

        RSEG BANKED_CODE:CODE:NOROOT(0)
// 2997 void ZDSecMgrAuthenticateInd( ZDO_AuthenticateInd_t* ind )
ZDSecMgrAuthenticateInd:
        CFI Block cfiBlock596 Using cfiCommon0
        CFI Function ZDSecMgrAuthenticateInd
        CODE
// 2998 {
        FUNCALL ZDSecMgrAuthenticateInd, AddrMgrExtAddrSet
        LOCFRAME ISTACK, 0, STACK
        LOCFRAME PSTACK, 0, STACK
        LOCFRAME XSTACK, 32, STACK
        LOCFRAME IOVERLAY, 0, STATIC
        LOCFRAME DOVERLAY, 0, STATIC
        ARGFRAME ISTACK, 0, STACK
        ARGFRAME PSTACK, 0, STACK
        ARGFRAME XSTACK, 32, STACK
        ARGFRAME IOVERLAY, 0, STATIC
        ARGFRAME DOVERLAY, 0, STATIC
        FUNCALL ZDSecMgrAuthenticateInd, AddrMgrEntryUpdate
        LOCFRAME ISTACK, 0, STACK
        LOCFRAME PSTACK, 0, STACK
        LOCFRAME XSTACK, 32, STACK
        LOCFRAME IOVERLAY, 0, STATIC
        LOCFRAME DOVERLAY, 0, STATIC
        ARGFRAME ISTACK, 0, STACK
        ARGFRAME PSTACK, 0, STACK
        ARGFRAME XSTACK, 32, STACK
        ARGFRAME IOVERLAY, 0, STATIC
        ARGFRAME DOVERLAY, 0, STATIC
        FUNCALL ZDSecMgrAuthenticateInd, APSME_AuthenticateReq
        LOCFRAME ISTACK, 0, STACK
        LOCFRAME PSTACK, 0, STACK
        LOCFRAME XSTACK, 32, STACK
        LOCFRAME IOVERLAY, 0, STATIC
        LOCFRAME DOVERLAY, 0, STATIC
        ARGFRAME ISTACK, 0, STACK
        ARGFRAME PSTACK, 0, STACK
        ARGFRAME XSTACK, 32, STACK
        ARGFRAME IOVERLAY, 0, STATIC
        ARGFRAME DOVERLAY, 0, STATIC
        MOV     A,#-0xc
        LCALL   ?BANKED_ENTER_XDATA
        CFI DPH0 load(1, XDATA, add(CFA_XSP16, literal(-1)))
        CFI DPL0 load(1, XDATA, add(CFA_XSP16, literal(-2)))
        CFI ?BRET_EXT load(1, XDATA, add(CFA_XSP16, literal(-3)))
        CFI ?RET_HIGH load(1, XDATA, add(CFA_XSP16, literal(-4)))
        CFI ?RET_LOW load(1, XDATA, add(CFA_XSP16, literal(-5)))
        CFI R7 load(1, XDATA, add(CFA_XSP16, literal(-6)))
        CFI V3 load(1, XDATA, add(CFA_XSP16, literal(-7)))
        CFI V2 load(1, XDATA, add(CFA_XSP16, literal(-8)))
        CFI V1 load(1, XDATA, add(CFA_XSP16, literal(-9)))
        CFI V0 load(1, XDATA, add(CFA_XSP16, literal(-10)))
        CFI VB load(1, XDATA, add(CFA_XSP16, literal(-11)))
        CFI R6 load(1, XDATA, add(CFA_XSP16, literal(-12)))
        CFI CFA_SP SP+0
        CFI CFA_XSP16 add(XSP16, 12)
        ; Saved register size: 12
        ; Auto size: 20
        MOV     A,#-0x14
        LCALL   ?ALLOC_XSTACK8
        CFI CFA_XSP16 add(XSP16, 32)
        MOV     A,R2
        MOV     R6,A
        MOV     A,R3
        MOV     R7,A
// 2999   APSME_AuthenticateReq_t req;
// 3000   AddrMgrEntry_t          entry;
// 3001 
// 3002 
// 3003   // update the address manager
// 3004   //---------------------------------------------------------------------------
// 3005   // note:
// 3006   // required for EA processing, but ultimately EA logic could also use the
// 3007   // neighbor table to look up addresses -- also(IF using EA) the neighbor
// 3008   // table is supposed to have authentication states for neighbors
// 3009   //---------------------------------------------------------------------------
// 3010   entry.user    = ADDRMGR_USER_SECURITY;
        MOV     A,#0x7
        LCALL   ?XSTACK_DISP0_8
        MOV     A,#0x2
        MOVX    @DPTR,A
// 3011   entry.nwkAddr = ind->aps.initNwkAddr;
        LCALL   ?Subroutine60 & 0xFFFF
??CrossCallReturnLabel_84:
        MOV     DPL,?V0 + 2
        MOV     DPH,A
        LCALL   ??Subroutine106_0 & 0xFFFF
??CrossCallReturnLabel_235:
        MOV     A,#0x8
        LCALL   ?XSTACK_DISP0_8
        LCALL   ??Subroutine93_0 & 0xFFFF
// 3012   AddrMgrExtAddrSet( entry.extAddr, ind->aps.initExtAddr );
??CrossCallReturnLabel_177:
        LCALL   ?Subroutine62 & 0xFFFF
??CrossCallReturnLabel_89:
        ; Setup parameters for call to function AddrMgrExtAddrSet
        MOV     R4,?V0 + 0
        MOV     R5,A
        MOV     A,#0xa
        LCALL   ?XSTACK_DISP0_8
        MOV     R2,DPL
        MOV     R3,DPH
        LCALL   ??AddrMgrExtAddrSet?relay
// 3013 
// 3014   if ( AddrMgrEntryUpdate( &entry ) == TRUE )
        ; Setup parameters for call to function AddrMgrEntryUpdate
        MOV     A,#0x7
        LCALL   ?XSTACK_DISP0_8
        MOV     R2,DPL
        MOV     R3,DPH
        LCALL   ??AddrMgrEntryUpdate?relay
        MOV     A,R1
        XRL     A,#0x1
        JNZ     ??ZDSecMgrAuthenticateInd_0
// 3015   {
// 3016     // set request fields
// 3017     req.nwkAddr   = ind->aps.initNwkAddr;
        MOV     DPL,?V0 + 2
        MOV     DPH,?V0 + 3
        LCALL   ??Subroutine106_0 & 0xFFFF
??CrossCallReturnLabel_236:
        LCALL   ?Subroutine29 & 0xFFFF
// 3018     req.extAddr   = ind->aps.initExtAddr;
??CrossCallReturnLabel_144:
        LCALL   ?XSTACK_DISP0_8
        MOV     A,?V0 + 0
        MOVX    @DPTR,A
        INC     DPTR
        MOV     A,?V0 + 1
        MOVX    @DPTR,A
// 3019     req.action    = APSME_EA_ACCEPT;
        MOV     A,#0x6
        LCALL   ?XSTACK_DISP0_8
        MOV     A,#0x1
        MOVX    @DPTR,A
// 3020     req.challenge = ind->aps.challenge;
        MOV     A,R6
        ADD     A,#0xc
        MOV     R0,A
        MOV     A,R7
        ADDC    A,#0x0
        MOV     R1,A
        MOV     A,#0x4
        LCALL   ?XSTACK_DISP0_8
        LCALL   ?Subroutine10 & 0xFFFF
// 3021 
// 3022     // start EA processing
// 3023     APSME_AuthenticateReq( &req );
// 3024   }
??CrossCallReturnLabel_2:
        LCALL   ??APSME_AuthenticateReq?relay
// 3025 }
??ZDSecMgrAuthenticateInd_0:
        MOV     A,#0x14
        LJMP    ??Subroutine108_0 & 0xFFFF
        CFI EndBlock cfiBlock596

        RSEG BANKED_CODE:CODE:NOROOT(0)
?Subroutine60:
        CFI Block cfiCond597 Using cfiCommon0
        CFI NoFunction
        CFI Conditional ??CrossCallReturnLabel_83
        CFI R6 load(1, XDATA, add(CFA_XSP16, literal(-12)))
        CFI VB load(1, XDATA, add(CFA_XSP16, literal(-11)))
        CFI V0 load(1, XDATA, add(CFA_XSP16, literal(-10)))
        CFI V1 load(1, XDATA, add(CFA_XSP16, literal(-9)))
        CFI V2 load(1, XDATA, add(CFA_XSP16, literal(-8)))
        CFI V3 load(1, XDATA, add(CFA_XSP16, literal(-7)))
        CFI R7 load(1, XDATA, add(CFA_XSP16, literal(-6)))
        CFI ?RET_LOW load(1, XDATA, add(CFA_XSP16, literal(-5)))
        CFI ?RET_HIGH load(1, XDATA, add(CFA_XSP16, literal(-4)))
        CFI ?BRET_EXT load(1, XDATA, add(CFA_XSP16, literal(-3)))
        CFI DPL0 load(1, XDATA, add(CFA_XSP16, literal(-2)))
        CFI DPH0 load(1, XDATA, add(CFA_XSP16, literal(-1)))
        CFI CFA_SP SP+0
        CFI CFA_XSP16 add(XSP16, 29)
        CFI Block cfiCond598 Using cfiCommon0
        CFI (cfiCond598) NoFunction
        CFI (cfiCond598) Conditional ??CrossCallReturnLabel_84
        CFI (cfiCond598) R6 load(1, XDATA, add(CFA_XSP16, literal(-12)))
        CFI (cfiCond598) VB load(1, XDATA, add(CFA_XSP16, literal(-11)))
        CFI (cfiCond598) V0 load(1, XDATA, add(CFA_XSP16, literal(-10)))
        CFI (cfiCond598) V1 load(1, XDATA, add(CFA_XSP16, literal(-9)))
        CFI (cfiCond598) V2 load(1, XDATA, add(CFA_XSP16, literal(-8)))
        CFI (cfiCond598) V3 load(1, XDATA, add(CFA_XSP16, literal(-7)))
        CFI (cfiCond598) R7 load(1, XDATA, add(CFA_XSP16, literal(-6)))
        CFI (cfiCond598) ?RET_LOW load(1, XDATA, add(CFA_XSP16, literal(-5)))
        CFI (cfiCond598) ?RET_HIGH load(1, XDATA, add(CFA_XSP16, literal(-4)))
        CFI (cfiCond598) ?BRET_EXT load(1, XDATA, add(CFA_XSP16, literal(-3)))
        CFI (cfiCond598) DPL0 load(1, XDATA, add(CFA_XSP16, literal(-2)))
        CFI (cfiCond598) DPH0 load(1, XDATA, add(CFA_XSP16, literal(-1)))
        CFI (cfiCond598) CFA_SP SP+0
        CFI (cfiCond598) CFA_XSP16 add(XSP16, 32)
        CFI Block cfiPicker599 Using cfiCommon1
        CFI (cfiPicker599) NoFunction
        CFI (cfiPicker599) Picker
        MOV     A,R6
        ADD     A,#0x2
        MOV     ?V0 + 2,A
        MOV     A,R7
        ADDC    A,#0x0
        MOV     ?V0 + 3,A
        RET
        CFI EndBlock cfiCond597
        CFI EndBlock cfiCond598
        CFI EndBlock cfiPicker599

        RSEG BANKED_CODE:CODE:NOROOT(0)
?Subroutine10:
        CFI Block cfiCond600 Using cfiCommon0
        CFI NoFunction
        CFI Conditional ??CrossCallReturnLabel_0
        CFI R6 load(1, XDATA, add(CFA_XSP16, literal(-10)))
        CFI VB load(1, XDATA, add(CFA_XSP16, literal(-9)))
        CFI V0 load(1, XDATA, add(CFA_XSP16, literal(-8)))
        CFI V1 load(1, XDATA, add(CFA_XSP16, literal(-7)))
        CFI R7 load(1, XDATA, add(CFA_XSP16, literal(-6)))
        CFI ?RET_LOW load(1, XDATA, add(CFA_XSP16, literal(-5)))
        CFI ?RET_HIGH load(1, XDATA, add(CFA_XSP16, literal(-4)))
        CFI ?BRET_EXT load(1, XDATA, add(CFA_XSP16, literal(-3)))
        CFI DPL0 load(1, XDATA, add(CFA_XSP16, literal(-2)))
        CFI DPH0 load(1, XDATA, add(CFA_XSP16, literal(-1)))
        CFI CFA_SP SP+0
        CFI CFA_XSP16 add(XSP16, 33)
        CFI Block cfiCond601 Using cfiCommon0
        CFI (cfiCond601) NoFunction
        CFI (cfiCond601) Conditional ??CrossCallReturnLabel_1
        CFI (cfiCond601) DPL0 Frame(CFA_SP, 4)
        CFI (cfiCond601) DPH0 Frame(CFA_SP, 5)
        CFI (cfiCond601) CFA_SP SP+-5
        CFI (cfiCond601) CFA_XSP16 add(XSP16, 10)
        CFI Block cfiCond602 Using cfiCommon0
        CFI (cfiCond602) NoFunction
        CFI (cfiCond602) Conditional ??CrossCallReturnLabel_2
        CFI (cfiCond602) R6 load(1, XDATA, add(CFA_XSP16, literal(-12)))
        CFI (cfiCond602) VB load(1, XDATA, add(CFA_XSP16, literal(-11)))
        CFI (cfiCond602) V0 load(1, XDATA, add(CFA_XSP16, literal(-10)))
        CFI (cfiCond602) V1 load(1, XDATA, add(CFA_XSP16, literal(-9)))
        CFI (cfiCond602) V2 load(1, XDATA, add(CFA_XSP16, literal(-8)))
        CFI (cfiCond602) V3 load(1, XDATA, add(CFA_XSP16, literal(-7)))
        CFI (cfiCond602) R7 load(1, XDATA, add(CFA_XSP16, literal(-6)))
        CFI (cfiCond602) ?RET_LOW load(1, XDATA, add(CFA_XSP16, literal(-5)))
        CFI (cfiCond602) ?RET_HIGH load(1, XDATA, add(CFA_XSP16, literal(-4)))
        CFI (cfiCond602) ?BRET_EXT load(1, XDATA, add(CFA_XSP16, literal(-3)))
        CFI (cfiCond602) DPL0 load(1, XDATA, add(CFA_XSP16, literal(-2)))
        CFI (cfiCond602) DPH0 load(1, XDATA, add(CFA_XSP16, literal(-1)))
        CFI (cfiCond602) CFA_SP SP+0
        CFI (cfiCond602) CFA_XSP16 add(XSP16, 32)
        CFI Block cfiCond603 Using cfiCommon0
        CFI (cfiCond603) NoFunction
        CFI (cfiCond603) Conditional ??CrossCallReturnLabel_3
        CFI (cfiCond603) DPL0 Frame(CFA_SP, 4)
        CFI (cfiCond603) DPH0 Frame(CFA_SP, 5)
        CFI (cfiCond603) CFA_SP SP+-5
        CFI (cfiCond603) CFA_XSP16 add(XSP16, 10)
        CFI Block cfiPicker604 Using cfiCommon1
        CFI (cfiPicker604) NoFunction
        CFI (cfiPicker604) Picker
        MOV     A,R0
        MOVX    @DPTR,A
        INC     DPTR
        MOV     A,R1
        LCALL   ?Subroutine72 & 0xFFFF
??CrossCallReturnLabel_195:
        RET
        CFI EndBlock cfiCond600
        CFI EndBlock cfiCond601
        CFI EndBlock cfiCond602
        CFI EndBlock cfiCond603
        CFI EndBlock cfiPicker604

        RSEG BANKED_CODE:CODE:NOROOT(0)
?Subroutine72:
        CFI Block cfiCond605 Using cfiCommon0
        CFI NoFunction
        CFI Conditional ??CrossCallReturnLabel_194, ??CrossCallReturnLabel_183
        CFI R6 load(1, XDATA, add(CFA_XSP16, literal(-10)))
        CFI VB load(1, XDATA, add(CFA_XSP16, literal(-9)))
        CFI V0 load(1, XDATA, add(CFA_XSP16, literal(-8)))
        CFI V1 load(1, XDATA, add(CFA_XSP16, literal(-7)))
        CFI R7 load(1, XDATA, add(CFA_XSP16, literal(-6)))
        CFI ?RET_LOW load(1, XDATA, add(CFA_XSP16, literal(-5)))
        CFI ?RET_HIGH load(1, XDATA, add(CFA_XSP16, literal(-4)))
        CFI ?BRET_EXT load(1, XDATA, add(CFA_XSP16, literal(-3)))
        CFI DPL0 load(1, XDATA, add(CFA_XSP16, literal(-2)))
        CFI DPH0 load(1, XDATA, add(CFA_XSP16, literal(-1)))
        CFI CFA_SP SP+0
        CFI CFA_XSP16 add(XSP16, 23)
        CFI Block cfiCond606 Using cfiCommon0
        CFI (cfiCond606) NoFunction
        CFI (cfiCond606) Conditional ??CrossCallReturnLabel_194, ??CrossCallReturnLabel_184
        CFI (cfiCond606) R6 load(1, XDATA, add(CFA_XSP16, literal(-9)))
        CFI (cfiCond606) VB load(1, XDATA, add(CFA_XSP16, literal(-8)))
        CFI (cfiCond606) V0 load(1, XDATA, add(CFA_XSP16, literal(-7)))
        CFI (cfiCond606) R7 load(1, XDATA, add(CFA_XSP16, literal(-6)))
        CFI (cfiCond606) ?RET_LOW load(1, XDATA, add(CFA_XSP16, literal(-5)))
        CFI (cfiCond606) ?RET_HIGH load(1, XDATA, add(CFA_XSP16, literal(-4)))
        CFI (cfiCond606) ?BRET_EXT load(1, XDATA, add(CFA_XSP16, literal(-3)))
        CFI (cfiCond606) DPL0 load(1, XDATA, add(CFA_XSP16, literal(-2)))
        CFI (cfiCond606) DPH0 load(1, XDATA, add(CFA_XSP16, literal(-1)))
        CFI (cfiCond606) CFA_SP SP+0
        CFI (cfiCond606) CFA_XSP16 add(XSP16, 22)
        CFI Block cfiCond607 Using cfiCommon0
        CFI (cfiCond607) NoFunction
        CFI (cfiCond607) Conditional ??CrossCallReturnLabel_194, ??CrossCallReturnLabel_185
        CFI (cfiCond607) R6 load(1, XDATA, add(CFA_XSP16, literal(-10)))
        CFI (cfiCond607) VB load(1, XDATA, add(CFA_XSP16, literal(-9)))
        CFI (cfiCond607) V0 load(1, XDATA, add(CFA_XSP16, literal(-8)))
        CFI (cfiCond607) V1 load(1, XDATA, add(CFA_XSP16, literal(-7)))
        CFI (cfiCond607) R7 load(1, XDATA, add(CFA_XSP16, literal(-6)))
        CFI (cfiCond607) ?RET_LOW load(1, XDATA, add(CFA_XSP16, literal(-5)))
        CFI (cfiCond607) ?RET_HIGH load(1, XDATA, add(CFA_XSP16, literal(-4)))
        CFI (cfiCond607) ?BRET_EXT load(1, XDATA, add(CFA_XSP16, literal(-3)))
        CFI (cfiCond607) DPL0 load(1, XDATA, add(CFA_XSP16, literal(-2)))
        CFI (cfiCond607) DPH0 load(1, XDATA, add(CFA_XSP16, literal(-1)))
        CFI (cfiCond607) CFA_SP SP+0
        CFI (cfiCond607) CFA_XSP16 add(XSP16, 17)
        CFI Block cfiCond608 Using cfiCommon0
        CFI (cfiCond608) NoFunction
        CFI (cfiCond608) Conditional ??CrossCallReturnLabel_194, ??CrossCallReturnLabel_186
        CFI (cfiCond608) R6 load(1, XDATA, add(CFA_XSP16, literal(-9)))
        CFI (cfiCond608) VB load(1, XDATA, add(CFA_XSP16, literal(-8)))
        CFI (cfiCond608) V0 load(1, XDATA, add(CFA_XSP16, literal(-7)))
        CFI (cfiCond608) R7 load(1, XDATA, add(CFA_XSP16, literal(-6)))
        CFI (cfiCond608) ?RET_LOW load(1, XDATA, add(CFA_XSP16, literal(-5)))
        CFI (cfiCond608) ?RET_HIGH load(1, XDATA, add(CFA_XSP16, literal(-4)))
        CFI (cfiCond608) ?BRET_EXT load(1, XDATA, add(CFA_XSP16, literal(-3)))
        CFI (cfiCond608) DPL0 load(1, XDATA, add(CFA_XSP16, literal(-2)))
        CFI (cfiCond608) DPH0 load(1, XDATA, add(CFA_XSP16, literal(-1)))
        CFI (cfiCond608) CFA_SP SP+0
        CFI (cfiCond608) CFA_XSP16 add(XSP16, 22)
        CFI Block cfiCond609 Using cfiCommon0
        CFI (cfiCond609) NoFunction
        CFI (cfiCond609) Conditional ??CrossCallReturnLabel_194, ??CrossCallReturnLabel_187
        CFI (cfiCond609) R6 load(1, XDATA, add(CFA_XSP16, literal(-10)))
        CFI (cfiCond609) VB load(1, XDATA, add(CFA_XSP16, literal(-9)))
        CFI (cfiCond609) V0 load(1, XDATA, add(CFA_XSP16, literal(-8)))
        CFI (cfiCond609) V1 load(1, XDATA, add(CFA_XSP16, literal(-7)))
        CFI (cfiCond609) R7 load(1, XDATA, add(CFA_XSP16, literal(-6)))
        CFI (cfiCond609) ?RET_LOW load(1, XDATA, add(CFA_XSP16, literal(-5)))
        CFI (cfiCond609) ?RET_HIGH load(1, XDATA, add(CFA_XSP16, literal(-4)))
        CFI (cfiCond609) ?BRET_EXT load(1, XDATA, add(CFA_XSP16, literal(-3)))
        CFI (cfiCond609) DPL0 load(1, XDATA, add(CFA_XSP16, literal(-2)))
        CFI (cfiCond609) DPH0 load(1, XDATA, add(CFA_XSP16, literal(-1)))
        CFI (cfiCond609) CFA_SP SP+0
        CFI (cfiCond609) CFA_XSP16 add(XSP16, 19)
        CFI Block cfiCond610 Using cfiCommon0
        CFI (cfiCond610) NoFunction
        CFI (cfiCond610) Conditional ??CrossCallReturnLabel_194, ??CrossCallReturnLabel_188
        CFI (cfiCond610) DPL0 Frame(CFA_SP, 4)
        CFI (cfiCond610) DPH0 Frame(CFA_SP, 5)
        CFI (cfiCond610) CFA_SP SP+-5
        CFI (cfiCond610) CFA_XSP16 add(XSP16, 8)
        CFI Block cfiCond611 Using cfiCommon0
        CFI (cfiCond611) NoFunction
        CFI (cfiCond611) Conditional ??CrossCallReturnLabel_194, ??CrossCallReturnLabel_189
        CFI (cfiCond611) R6 load(1, XDATA, add(CFA_XSP16, literal(-9)))
        CFI (cfiCond611) VB load(1, XDATA, add(CFA_XSP16, literal(-8)))
        CFI (cfiCond611) V0 load(1, XDATA, add(CFA_XSP16, literal(-7)))
        CFI (cfiCond611) R7 load(1, XDATA, add(CFA_XSP16, literal(-6)))
        CFI (cfiCond611) ?RET_LOW load(1, XDATA, add(CFA_XSP16, literal(-5)))
        CFI (cfiCond611) ?RET_HIGH load(1, XDATA, add(CFA_XSP16, literal(-4)))
        CFI (cfiCond611) ?BRET_EXT load(1, XDATA, add(CFA_XSP16, literal(-3)))
        CFI (cfiCond611) DPL0 load(1, XDATA, add(CFA_XSP16, literal(-2)))
        CFI (cfiCond611) DPH0 load(1, XDATA, add(CFA_XSP16, literal(-1)))
        CFI (cfiCond611) CFA_SP SP+0
        CFI (cfiCond611) CFA_XSP16 add(XSP16, 16)
        CFI Block cfiCond612 Using cfiCommon0
        CFI (cfiCond612) NoFunction
        CFI (cfiCond612) Conditional ??CrossCallReturnLabel_194, ??CrossCallReturnLabel_190
        CFI (cfiCond612) R6 load(1, XDATA, add(CFA_XSP16, literal(-12)))
        CFI (cfiCond612) VB load(1, XDATA, add(CFA_XSP16, literal(-11)))
        CFI (cfiCond612) V0 load(1, XDATA, add(CFA_XSP16, literal(-10)))
        CFI (cfiCond612) V1 load(1, XDATA, add(CFA_XSP16, literal(-9)))
        CFI (cfiCond612) V2 load(1, XDATA, add(CFA_XSP16, literal(-8)))
        CFI (cfiCond612) V3 load(1, XDATA, add(CFA_XSP16, literal(-7)))
        CFI (cfiCond612) R7 load(1, XDATA, add(CFA_XSP16, literal(-6)))
        CFI (cfiCond612) ?RET_LOW load(1, XDATA, add(CFA_XSP16, literal(-5)))
        CFI (cfiCond612) ?RET_HIGH load(1, XDATA, add(CFA_XSP16, literal(-4)))
        CFI (cfiCond612) ?BRET_EXT load(1, XDATA, add(CFA_XSP16, literal(-3)))
        CFI (cfiCond612) DPL0 load(1, XDATA, add(CFA_XSP16, literal(-2)))
        CFI (cfiCond612) DPH0 load(1, XDATA, add(CFA_XSP16, literal(-1)))
        CFI (cfiCond612) CFA_SP SP+0
        CFI (cfiCond612) CFA_XSP16 add(XSP16, 35)
        CFI Block cfiCond613 Using cfiCommon0
        CFI (cfiCond613) NoFunction
        CFI (cfiCond613) Conditional ??CrossCallReturnLabel_194, ??CrossCallReturnLabel_191
        CFI (cfiCond613) R6 load(1, XDATA, add(CFA_XSP16, literal(-12)))
        CFI (cfiCond613) VB load(1, XDATA, add(CFA_XSP16, literal(-11)))
        CFI (cfiCond613) V0 load(1, XDATA, add(CFA_XSP16, literal(-10)))
        CFI (cfiCond613) V1 load(1, XDATA, add(CFA_XSP16, literal(-9)))
        CFI (cfiCond613) V2 load(1, XDATA, add(CFA_XSP16, literal(-8)))
        CFI (cfiCond613) V3 load(1, XDATA, add(CFA_XSP16, literal(-7)))
        CFI (cfiCond613) R7 load(1, XDATA, add(CFA_XSP16, literal(-6)))
        CFI (cfiCond613) ?RET_LOW load(1, XDATA, add(CFA_XSP16, literal(-5)))
        CFI (cfiCond613) ?RET_HIGH load(1, XDATA, add(CFA_XSP16, literal(-4)))
        CFI (cfiCond613) ?BRET_EXT load(1, XDATA, add(CFA_XSP16, literal(-3)))
        CFI (cfiCond613) DPL0 load(1, XDATA, add(CFA_XSP16, literal(-2)))
        CFI (cfiCond613) DPH0 load(1, XDATA, add(CFA_XSP16, literal(-1)))
        CFI (cfiCond613) CFA_SP SP+0
        CFI (cfiCond613) CFA_XSP16 add(XSP16, 29)
        CFI Block cfiCond614 Using cfiCommon0
        CFI (cfiCond614) NoFunction
        CFI (cfiCond614) Conditional ??CrossCallReturnLabel_194, ??CrossCallReturnLabel_192
        CFI (cfiCond614) R6 load(1, XDATA, add(CFA_XSP16, literal(-9)))
        CFI (cfiCond614) VB load(1, XDATA, add(CFA_XSP16, literal(-8)))
        CFI (cfiCond614) V0 load(1, XDATA, add(CFA_XSP16, literal(-7)))
        CFI (cfiCond614) R7 load(1, XDATA, add(CFA_XSP16, literal(-6)))
        CFI (cfiCond614) ?RET_LOW load(1, XDATA, add(CFA_XSP16, literal(-5)))
        CFI (cfiCond614) ?RET_HIGH load(1, XDATA, add(CFA_XSP16, literal(-4)))
        CFI (cfiCond614) ?BRET_EXT load(1, XDATA, add(CFA_XSP16, literal(-3)))
        CFI (cfiCond614) DPL0 load(1, XDATA, add(CFA_XSP16, literal(-2)))
        CFI (cfiCond614) DPH0 load(1, XDATA, add(CFA_XSP16, literal(-1)))
        CFI (cfiCond614) CFA_SP SP+0
        CFI (cfiCond614) CFA_XSP16 add(XSP16, 19)
        CFI Block cfiCond615 Using cfiCommon0
        CFI (cfiCond615) NoFunction
        CFI (cfiCond615) Conditional ??CrossCallReturnLabel_194, ??CrossCallReturnLabel_193
        CFI (cfiCond615) R6 load(1, XDATA, add(CFA_XSP16, literal(-9)))
        CFI (cfiCond615) VB load(1, XDATA, add(CFA_XSP16, literal(-8)))
        CFI (cfiCond615) V0 load(1, XDATA, add(CFA_XSP16, literal(-7)))
        CFI (cfiCond615) R7 load(1, XDATA, add(CFA_XSP16, literal(-6)))
        CFI (cfiCond615) ?RET_LOW load(1, XDATA, add(CFA_XSP16, literal(-5)))
        CFI (cfiCond615) ?RET_HIGH load(1, XDATA, add(CFA_XSP16, literal(-4)))
        CFI (cfiCond615) ?BRET_EXT load(1, XDATA, add(CFA_XSP16, literal(-3)))
        CFI (cfiCond615) DPL0 load(1, XDATA, add(CFA_XSP16, literal(-2)))
        CFI (cfiCond615) DPH0 load(1, XDATA, add(CFA_XSP16, literal(-1)))
        CFI (cfiCond615) CFA_SP SP+0
        CFI (cfiCond615) CFA_XSP16 add(XSP16, 12)
        CFI Block cfiCond616 Using cfiCommon0
        CFI (cfiCond616) NoFunction
        CFI (cfiCond616) Conditional ??CrossCallReturnLabel_195, ??CrossCallReturnLabel_0
        CFI (cfiCond616) R6 load(1, XDATA, add(CFA_XSP16, literal(-10)))
        CFI (cfiCond616) VB load(1, XDATA, add(CFA_XSP16, literal(-9)))
        CFI (cfiCond616) V0 load(1, XDATA, add(CFA_XSP16, literal(-8)))
        CFI (cfiCond616) V1 load(1, XDATA, add(CFA_XSP16, literal(-7)))
        CFI (cfiCond616) R7 load(1, XDATA, add(CFA_XSP16, literal(-6)))
        CFI (cfiCond616) ?RET_LOW load(1, XDATA, add(CFA_XSP16, literal(-5)))
        CFI (cfiCond616) ?RET_HIGH load(1, XDATA, add(CFA_XSP16, literal(-4)))
        CFI (cfiCond616) ?BRET_EXT load(1, XDATA, add(CFA_XSP16, literal(-3)))
        CFI (cfiCond616) DPL0 load(1, XDATA, add(CFA_XSP16, literal(-2)))
        CFI (cfiCond616) DPH0 load(1, XDATA, add(CFA_XSP16, literal(-1)))
        CFI (cfiCond616) CFA_SP SP+0
        CFI (cfiCond616) CFA_XSP16 add(XSP16, 33)
        CFI Block cfiCond617 Using cfiCommon0
        CFI (cfiCond617) NoFunction
        CFI (cfiCond617) Conditional ??CrossCallReturnLabel_195, ??CrossCallReturnLabel_1
        CFI (cfiCond617) DPL0 Frame(CFA_SP, 4)
        CFI (cfiCond617) DPH0 Frame(CFA_SP, 5)
        CFI (cfiCond617) CFA_SP SP+-5
        CFI (cfiCond617) CFA_XSP16 add(XSP16, 10)
        CFI Block cfiCond618 Using cfiCommon0
        CFI (cfiCond618) NoFunction
        CFI (cfiCond618) Conditional ??CrossCallReturnLabel_195, ??CrossCallReturnLabel_2
        CFI (cfiCond618) R6 load(1, XDATA, add(CFA_XSP16, literal(-12)))
        CFI (cfiCond618) VB load(1, XDATA, add(CFA_XSP16, literal(-11)))
        CFI (cfiCond618) V0 load(1, XDATA, add(CFA_XSP16, literal(-10)))
        CFI (cfiCond618) V1 load(1, XDATA, add(CFA_XSP16, literal(-9)))
        CFI (cfiCond618) V2 load(1, XDATA, add(CFA_XSP16, literal(-8)))
        CFI (cfiCond618) V3 load(1, XDATA, add(CFA_XSP16, literal(-7)))
        CFI (cfiCond618) R7 load(1, XDATA, add(CFA_XSP16, literal(-6)))
        CFI (cfiCond618) ?RET_LOW load(1, XDATA, add(CFA_XSP16, literal(-5)))
        CFI (cfiCond618) ?RET_HIGH load(1, XDATA, add(CFA_XSP16, literal(-4)))
        CFI (cfiCond618) ?BRET_EXT load(1, XDATA, add(CFA_XSP16, literal(-3)))
        CFI (cfiCond618) DPL0 load(1, XDATA, add(CFA_XSP16, literal(-2)))
        CFI (cfiCond618) DPH0 load(1, XDATA, add(CFA_XSP16, literal(-1)))
        CFI (cfiCond618) CFA_SP SP+0
        CFI (cfiCond618) CFA_XSP16 add(XSP16, 32)
        CFI Block cfiCond619 Using cfiCommon0
        CFI (cfiCond619) NoFunction
        CFI (cfiCond619) Conditional ??CrossCallReturnLabel_195, ??CrossCallReturnLabel_3
        CFI (cfiCond619) DPL0 Frame(CFA_SP, 4)
        CFI (cfiCond619) DPH0 Frame(CFA_SP, 5)
        CFI (cfiCond619) CFA_SP SP+-5
        CFI (cfiCond619) CFA_XSP16 add(XSP16, 10)
        CFI Block cfiCond620 Using cfiCommon0
        CFI (cfiCond620) NoFunction
        CFI (cfiCond620) Conditional ??CrossCallReturnLabel_196, ??CrossCallReturnLabel_6
        CFI (cfiCond620) R6 load(1, XDATA, add(CFA_XSP16, literal(-10)))
        CFI (cfiCond620) VB load(1, XDATA, add(CFA_XSP16, literal(-9)))
        CFI (cfiCond620) V0 load(1, XDATA, add(CFA_XSP16, literal(-8)))
        CFI (cfiCond620) V1 load(1, XDATA, add(CFA_XSP16, literal(-7)))
        CFI (cfiCond620) R7 load(1, XDATA, add(CFA_XSP16, literal(-6)))
        CFI (cfiCond620) ?RET_LOW load(1, XDATA, add(CFA_XSP16, literal(-5)))
        CFI (cfiCond620) ?RET_HIGH load(1, XDATA, add(CFA_XSP16, literal(-4)))
        CFI (cfiCond620) ?BRET_EXT load(1, XDATA, add(CFA_XSP16, literal(-3)))
        CFI (cfiCond620) DPL0 load(1, XDATA, add(CFA_XSP16, literal(-2)))
        CFI (cfiCond620) DPH0 load(1, XDATA, add(CFA_XSP16, literal(-1)))
        CFI (cfiCond620) CFA_SP SP+0
        CFI (cfiCond620) CFA_XSP16 add(XSP16, 23)
        CFI Block cfiCond621 Using cfiCommon0
        CFI (cfiCond621) NoFunction
        CFI (cfiCond621) Conditional ??CrossCallReturnLabel_196, ??CrossCallReturnLabel_7
        CFI (cfiCond621) R6 load(1, XDATA, add(CFA_XSP16, literal(-10)))
        CFI (cfiCond621) VB load(1, XDATA, add(CFA_XSP16, literal(-9)))
        CFI (cfiCond621) V0 load(1, XDATA, add(CFA_XSP16, literal(-8)))
        CFI (cfiCond621) V1 load(1, XDATA, add(CFA_XSP16, literal(-7)))
        CFI (cfiCond621) R7 load(1, XDATA, add(CFA_XSP16, literal(-6)))
        CFI (cfiCond621) ?RET_LOW load(1, XDATA, add(CFA_XSP16, literal(-5)))
        CFI (cfiCond621) ?RET_HIGH load(1, XDATA, add(CFA_XSP16, literal(-4)))
        CFI (cfiCond621) ?BRET_EXT load(1, XDATA, add(CFA_XSP16, literal(-3)))
        CFI (cfiCond621) DPL0 load(1, XDATA, add(CFA_XSP16, literal(-2)))
        CFI (cfiCond621) DPH0 load(1, XDATA, add(CFA_XSP16, literal(-1)))
        CFI (cfiCond621) CFA_SP SP+0
        CFI (cfiCond621) CFA_XSP16 add(XSP16, 23)
        CFI Block cfiPicker622 Using cfiCommon1
        CFI (cfiPicker622) NoFunction
        CFI (cfiPicker622) Picker
        MOVX    @DPTR,A
        ; Setup parameters for call to function AddrMgrEntryLookupNwk
        ; Setup parameters for call to function AddrMgrEntryGet
        ; Setup parameters for call to function APSME_EstablishKeyReq
        ; Setup parameters for call to function AddrMgrEntryUpdate
        ; Setup parameters for call to function NLME_LeaveReq
        ; Setup parameters for call to function APSME_UpdateDeviceReq
        ; Setup parameters for call to function APSME_AuthenticateReq
        ; Setup parameters for call to function ZDSecMgrDeviceNew
        ; Setup parameters for call to function APSME_EstablishKeyRsp
        ; Setup parameters for call to function ZDSecMgrDeviceRemove
        ; Setup parameters for call to function APSME_SwitchKeyReq
        ; Setup parameters for call to function ZDSecMgrDeviceCtrlHandler
        ; Setup parameters for call to function ZDSecMgrDeviceJoin
        ; Setup parameters for call to function APSME_AuthenticateReq
        ; Setup parameters for call to function ZDSecMgrDeviceRemove
        ; Setup parameters for call to function APSME_TransportKeyReq
        ; Setup parameters for call to function APSME_TransportKeyReq
        MOV     DPL,?XSP + 0
        MOV     DPH,?XSP + 1
        MOV     R2,DPL
        MOV     R3,DPH
        RET
        CFI EndBlock cfiCond605
        CFI EndBlock cfiCond606
        CFI EndBlock cfiCond607
        CFI EndBlock cfiCond608
        CFI EndBlock cfiCond609
        CFI EndBlock cfiCond610
        CFI EndBlock cfiCond611
        CFI EndBlock cfiCond612
        CFI EndBlock cfiCond613
        CFI EndBlock cfiCond614
        CFI EndBlock cfiCond615
        CFI EndBlock cfiCond616
        CFI EndBlock cfiCond617
        CFI EndBlock cfiCond618
        CFI EndBlock cfiCond619
        CFI EndBlock cfiCond620
        CFI EndBlock cfiCond621
        CFI EndBlock cfiPicker622
// 3026 
// 3027 /******************************************************************************
// 3028  * @fn          ZDSecMgrAuthenticateCfm
// 3029  *
// 3030  * @brief       Process the ZDO_AuthenticateCfm_t message.
// 3031  *
// 3032  * @param       cfm - [in] ZDO_AuthenticateCfm_t confirmation
// 3033  *
// 3034  * @return      none
// 3035  */

        RSEG BANKED_CODE:CODE:NOROOT(0)
// 3036 void ZDSecMgrAuthenticateCfm( ZDO_AuthenticateCfm_t* cfm )
ZDSecMgrAuthenticateCfm:
        CFI Block cfiBlock623 Using cfiCommon0
        CFI Function ZDSecMgrAuthenticateCfm
        CODE
// 3037 {
        FUNCALL ZDSecMgrAuthenticateCfm, osal_set_event
        LOCFRAME ISTACK, 2, STACK
        LOCFRAME PSTACK, 0, STACK
        LOCFRAME XSTACK, 0, STACK
        LOCFRAME IOVERLAY, 0, STATIC
        LOCFRAME DOVERLAY, 0, STATIC
        ARGFRAME ISTACK, 2, STACK
        ARGFRAME PSTACK, 0, STACK
        ARGFRAME XSTACK, 0, STACK
        ARGFRAME IOVERLAY, 0, STATIC
        ARGFRAME DOVERLAY, 0, STATIC
        PUSH    DPL
        CFI DPL0 Frame(CFA_SP, 4)
        CFI CFA_SP SP+-4
        PUSH    DPH
        CFI DPH0 Frame(CFA_SP, 5)
        CFI CFA_SP SP+-5
        ; Saved register size: 2
        ; Auto size: 0
// 3038   if ( cfm->aps.status == ZSuccess )
        MOV     A,R2
        ADD     A,#0xb
        LCALL   ?Subroutine57 & 0xFFFF
??CrossCallReturnLabel_165:
        JNZ     ??ZDSecMgrAuthenticateCfm_0
// 3039   {
// 3040     if ( ( cfm->aps.initiator == TRUE ) && ( devState == DEV_END_DEVICE_UNAUTH ) )
        MOV     DPL,R2
        MOV     DPH,R3
        INC     DPTR
        INC     DPTR
        MOVX    A,@DPTR
        XRL     A,#0x1
        JNZ     ??ZDSecMgrAuthenticateCfm_0
        MOV     DPTR,#devState
        MOVX    A,@DPTR
        XRL     A,#0x5
        JNZ     ??ZDSecMgrAuthenticateCfm_0
// 3041     {
// 3042       // inform ZDO that device has been authenticated
// 3043       osal_set_event ( ZDAppTaskID, ZDO_DEVICE_AUTH );
        ; Setup parameters for call to function osal_set_event
        MOV     R2,#-0x80
        MOV     R3,#0x0
        MOV     DPTR,#ZDAppTaskID
        MOVX    A,@DPTR
        MOV     R1,A
        LCALL   ??osal_set_event?relay
// 3044     }
// 3045   }
// 3046 }
??ZDSecMgrAuthenticateCfm_0:
        LJMP    ??Subroutine91_0 & 0xFFFF
        CFI EndBlock cfiBlock623
// 3047 
// 3048 #if ( ZG_BUILD_COORDINATOR_TYPE )
// 3049 /******************************************************************************
// 3050  * @fn          ZDSecMgrUpdateNwkKey
// 3051  *
// 3052  * @brief       Load a new NWK key and trigger a network wide update.
// 3053  *
// 3054  * @param       key       - [in] new NWK key
// 3055  * @param       keySeqNum - [in] new NWK key sequence number
// 3056  *
// 3057  * @return      ZStatus_t
// 3058  */

        RSEG BANKED_CODE:CODE:NOROOT(0)
// 3059 ZStatus_t ZDSecMgrUpdateNwkKey( uint8* key, uint8 keySeqNum, uint16 dstAddr )
ZDSecMgrUpdateNwkKey:
        CFI Block cfiBlock624 Using cfiCommon0
        CFI Function ZDSecMgrUpdateNwkKey
        CODE
// 3060 {
        FUNCALL ZDSecMgrUpdateNwkKey, APSME_TransportKeyReq
        LOCFRAME ISTACK, 0, STACK
        LOCFRAME PSTACK, 0, STACK
        LOCFRAME XSTACK, 23, STACK
        LOCFRAME IOVERLAY, 0, STATIC
        LOCFRAME DOVERLAY, 0, STATIC
        ARGFRAME ISTACK, 0, STACK
        ARGFRAME PSTACK, 0, STACK
        ARGFRAME XSTACK, 23, STACK
        ARGFRAME IOVERLAY, 0, STATIC
        ARGFRAME DOVERLAY, 0, STATIC
        FUNCALL ZDSecMgrUpdateNwkKey, SSP_UpdateNwkKey
        LOCFRAME ISTACK, 0, STACK
        LOCFRAME PSTACK, 0, STACK
        LOCFRAME XSTACK, 23, STACK
        LOCFRAME IOVERLAY, 0, STATIC
        LOCFRAME DOVERLAY, 0, STATIC
        ARGFRAME ISTACK, 0, STACK
        ARGFRAME PSTACK, 0, STACK
        ARGFRAME XSTACK, 23, STACK
        ARGFRAME IOVERLAY, 0, STATIC
        ARGFRAME DOVERLAY, 0, STATIC
        FUNCALL ZDSecMgrUpdateNwkKey, ZDApp_NVUpdate
        LOCFRAME ISTACK, 0, STACK
        LOCFRAME PSTACK, 0, STACK
        LOCFRAME XSTACK, 23, STACK
        LOCFRAME IOVERLAY, 0, STATIC
        LOCFRAME DOVERLAY, 0, STATIC
        ARGFRAME ISTACK, 0, STACK
        ARGFRAME PSTACK, 0, STACK
        ARGFRAME XSTACK, 23, STACK
        ARGFRAME IOVERLAY, 0, STATIC
        ARGFRAME DOVERLAY, 0, STATIC
        MOV     A,#-0xa
        LCALL   ?BANKED_ENTER_XDATA
        CFI DPH0 load(1, XDATA, add(CFA_XSP16, literal(-1)))
        CFI DPL0 load(1, XDATA, add(CFA_XSP16, literal(-2)))
        CFI ?BRET_EXT load(1, XDATA, add(CFA_XSP16, literal(-3)))
        CFI ?RET_HIGH load(1, XDATA, add(CFA_XSP16, literal(-4)))
        CFI ?RET_LOW load(1, XDATA, add(CFA_XSP16, literal(-5)))
        CFI R7 load(1, XDATA, add(CFA_XSP16, literal(-6)))
        CFI V1 load(1, XDATA, add(CFA_XSP16, literal(-7)))
        CFI V0 load(1, XDATA, add(CFA_XSP16, literal(-8)))
        CFI VB load(1, XDATA, add(CFA_XSP16, literal(-9)))
        CFI R6 load(1, XDATA, add(CFA_XSP16, literal(-10)))
        CFI CFA_SP SP+0
        CFI CFA_XSP16 add(XSP16, 10)
        ; Saved register size: 10
        ; Auto size: 13
        MOV     A,#-0xd
        LCALL   ?ALLOC_XSTACK8
        CFI CFA_XSP16 add(XSP16, 23)
        MOV     A,R2
        MOV     R6,A
        MOV     A,R3
        MOV     R7,A
        MOV     ?V0 + 0,R1
// 3061   ZStatus_t               status;
// 3062   APSME_TransportKeyReq_t req;
// 3063 
// 3064   // initialize common elements of local variables
// 3065   if ( ZG_CHECK_SECURITY_MODE == ZG_SECURITY_PRO_HIGH )
// 3066     req.keyType   = KEY_TYPE_NWK_HIGH;
// 3067   else
// 3068     req.keyType   = KEY_TYPE_NWK;
        MOV     A,#0x2
        LCALL   ?XSTACK_DISP0_8
        MOV     A,#0x1
        LCALL   ?Subroutine25 & 0xFFFF
// 3069 
// 3070   req.dstAddr   = dstAddr;
??CrossCallReturnLabel_20:
        MOV     A,R4
        MOVX    @DPTR,A
        INC     DPTR
        MOV     A,R5
        MOVX    @DPTR,A
// 3071   req.keySeqNum = keySeqNum;
        MOV     A,#0x3
        LCALL   ?XSTACK_DISP0_8
        MOV     A,R1
        MOVX    @DPTR,A
// 3072   req.key       = key;
        MOV     A,#0x4
        LCALL   ?XSTACK_DISP0_8
        MOV     A,R6
        MOVX    @DPTR,A
        INC     DPTR
        MOV     A,R7
        MOVX    @DPTR,A
// 3073   req.extAddr   = NULL;
        MOV     A,#0x6
        LCALL   ?XSTACK_DISP0_8
        CLR     A
        MOVX    @DPTR,A
        INC     DPTR
        MOVX    @DPTR,A
// 3074   req.nwkSecure = TRUE;
        MOV     A,#0xa
        LCALL   ?XSTACK_DISP0_8
        MOV     A,#0x1
        MOVX    @DPTR,A
// 3075   req.apsSecure = TRUE;
        MOV     A,#0x9
        LCALL   ?XSTACK_DISP0_8
        MOV     A,#0x1
        MOVX    @DPTR,A
// 3076   req.tunnel    = NULL;
        MOV     A,#0xb
        LCALL   ?XSTACK_DISP0_8
        CLR     A
        MOVX    @DPTR,A
        INC     DPTR
        LCALL   ?Subroutine16 & 0xFFFF
// 3077 
// 3078   if ( ZG_CHECK_SECURITY_MODE == ZG_SECURITY_PRO_HIGH )
// 3079   {
// 3080     ZDSecMgrEntry_t*        entry;
// 3081     uint16                  index;
// 3082     AddrMgrEntry_t          addrEntry;
// 3083 
// 3084     addrEntry.user = ADDRMGR_USER_SECURITY;
// 3085 
// 3086     status = ZFailure;
// 3087 
// 3088     // verify data is available
// 3089     if ( ZDSecMgrEntries != NULL )
// 3090     {
// 3091       // find available entry
// 3092       for ( index = 0; index < ZDSECMGR_ENTRY_MAX ; index++ )
// 3093       {
// 3094         if ( ZDSecMgrEntries[index].ami != INVALID_NODE_ADDR )
// 3095         {
// 3096           // return successful result
// 3097           entry = &ZDSecMgrEntries[index];
// 3098 
// 3099           // get NWK address
// 3100           addrEntry.index = entry->ami;
// 3101           if ( AddrMgrEntryGet( &addrEntry ) == TRUE )
// 3102           {
// 3103             req.dstAddr = addrEntry.nwkAddr;
// 3104             req.extAddr = addrEntry.extAddr;
// 3105             status = APSME_TransportKeyReq( &req );
// 3106           }
// 3107         }
// 3108       }
// 3109     }
// 3110   }
// 3111   else // ( ZG_CHECK_SECURITY_MODE == ZG_SECURITY_RESIDENTIAL )
// 3112   {
// 3113     status = APSME_TransportKeyReq( &req );
??CrossCallReturnLabel_7:
        MOV     A,R1
        MOV     ?V0 + 1,A
// 3114   }
// 3115 
// 3116   SSP_UpdateNwkKey( key, keySeqNum );
        ; Setup parameters for call to function SSP_UpdateNwkKey
        MOV     R1,?V0 + 0
        MOV     A,R6
        MOV     R2,A
        MOV     A,R7
        MOV     R3,A
        LCALL   ??SSP_UpdateNwkKey?relay
// 3117 
// 3118   // Save if nv
// 3119   ZDApp_NVUpdate();
        ; Setup parameters for call to function ZDApp_NVUpdate
        LCALL   ??ZDApp_NVUpdate?relay
// 3120 
// 3121   return status;
        MOV     R1,?V0 + 1
        LJMP    ?Subroutine8 & 0xFFFF
        CFI EndBlock cfiBlock624
// 3122 }

        RSEG BANKED_CODE:CODE:NOROOT(0)
?Subroutine16:
        CFI Block cfiCond625 Using cfiCommon0
        CFI NoFunction
        CFI Conditional ??CrossCallReturnLabel_6
        CFI R6 load(1, XDATA, add(CFA_XSP16, literal(-10)))
        CFI VB load(1, XDATA, add(CFA_XSP16, literal(-9)))
        CFI V0 load(1, XDATA, add(CFA_XSP16, literal(-8)))
        CFI V1 load(1, XDATA, add(CFA_XSP16, literal(-7)))
        CFI R7 load(1, XDATA, add(CFA_XSP16, literal(-6)))
        CFI ?RET_LOW load(1, XDATA, add(CFA_XSP16, literal(-5)))
        CFI ?RET_HIGH load(1, XDATA, add(CFA_XSP16, literal(-4)))
        CFI ?BRET_EXT load(1, XDATA, add(CFA_XSP16, literal(-3)))
        CFI DPL0 load(1, XDATA, add(CFA_XSP16, literal(-2)))
        CFI DPH0 load(1, XDATA, add(CFA_XSP16, literal(-1)))
        CFI CFA_SP SP+0
        CFI CFA_XSP16 add(XSP16, 23)
        CFI Block cfiCond626 Using cfiCommon0
        CFI (cfiCond626) NoFunction
        CFI (cfiCond626) Conditional ??CrossCallReturnLabel_7
        CFI (cfiCond626) R6 load(1, XDATA, add(CFA_XSP16, literal(-10)))
        CFI (cfiCond626) VB load(1, XDATA, add(CFA_XSP16, literal(-9)))
        CFI (cfiCond626) V0 load(1, XDATA, add(CFA_XSP16, literal(-8)))
        CFI (cfiCond626) V1 load(1, XDATA, add(CFA_XSP16, literal(-7)))
        CFI (cfiCond626) R7 load(1, XDATA, add(CFA_XSP16, literal(-6)))
        CFI (cfiCond626) ?RET_LOW load(1, XDATA, add(CFA_XSP16, literal(-5)))
        CFI (cfiCond626) ?RET_HIGH load(1, XDATA, add(CFA_XSP16, literal(-4)))
        CFI (cfiCond626) ?BRET_EXT load(1, XDATA, add(CFA_XSP16, literal(-3)))
        CFI (cfiCond626) DPL0 load(1, XDATA, add(CFA_XSP16, literal(-2)))
        CFI (cfiCond626) DPH0 load(1, XDATA, add(CFA_XSP16, literal(-1)))
        CFI (cfiCond626) CFA_SP SP+0
        CFI (cfiCond626) CFA_XSP16 add(XSP16, 23)
        CFI Block cfiPicker627 Using cfiCommon1
        CFI (cfiPicker627) NoFunction
        CFI (cfiPicker627) Picker
        LCALL   ?Subroutine72 & 0xFFFF
??CrossCallReturnLabel_196:
        LCALL   ??APSME_TransportKeyReq?relay
        RET
        CFI EndBlock cfiCond625
        CFI EndBlock cfiCond626
        CFI EndBlock cfiPicker627
// 3123 #endif // ( ZG_BUILD_COORDINATOR_TYPE )
// 3124 
// 3125 #if ( ZG_BUILD_COORDINATOR_TYPE )
// 3126 /******************************************************************************
// 3127  * @fn          ZDSecMgrSwitchNwkKey
// 3128  *
// 3129  * @brief       Causes the NWK key to switch via a network wide command.
// 3130  *
// 3131  * @param       keySeqNum - [in] new NWK key sequence number
// 3132  *
// 3133  * @return      ZStatus_t
// 3134  */

        RSEG BANKED_CODE:CODE:NOROOT(0)
// 3135 ZStatus_t ZDSecMgrSwitchNwkKey( uint8 keySeqNum, uint16 dstAddr )
ZDSecMgrSwitchNwkKey:
        CFI Block cfiBlock628 Using cfiCommon0
        CFI Function ZDSecMgrSwitchNwkKey
        CODE
// 3136 {
        FUNCALL ZDSecMgrSwitchNwkKey, APSME_SwitchKeyReq
        LOCFRAME ISTACK, 0, STACK
        LOCFRAME PSTACK, 0, STACK
        LOCFRAME XSTACK, 12, STACK
        LOCFRAME IOVERLAY, 0, STATIC
        LOCFRAME DOVERLAY, 0, STATIC
        ARGFRAME ISTACK, 0, STACK
        ARGFRAME PSTACK, 0, STACK
        ARGFRAME XSTACK, 12, STACK
        ARGFRAME IOVERLAY, 0, STATIC
        ARGFRAME DOVERLAY, 0, STATIC
        FUNCALL ZDSecMgrSwitchNwkKey, SSP_SwitchNwkKey
        LOCFRAME ISTACK, 0, STACK
        LOCFRAME PSTACK, 0, STACK
        LOCFRAME XSTACK, 12, STACK
        LOCFRAME IOVERLAY, 0, STATIC
        LOCFRAME DOVERLAY, 0, STATIC
        ARGFRAME ISTACK, 0, STACK
        ARGFRAME PSTACK, 0, STACK
        ARGFRAME XSTACK, 12, STACK
        ARGFRAME IOVERLAY, 0, STATIC
        ARGFRAME DOVERLAY, 0, STATIC
        FUNCALL ZDSecMgrSwitchNwkKey, ZDApp_NVUpdate
        LOCFRAME ISTACK, 0, STACK
        LOCFRAME PSTACK, 0, STACK
        LOCFRAME XSTACK, 12, STACK
        LOCFRAME IOVERLAY, 0, STATIC
        LOCFRAME DOVERLAY, 0, STATIC
        ARGFRAME ISTACK, 0, STACK
        ARGFRAME PSTACK, 0, STACK
        ARGFRAME XSTACK, 12, STACK
        ARGFRAME IOVERLAY, 0, STATIC
        ARGFRAME DOVERLAY, 0, STATIC
        MOV     A,#-0x9
        LCALL   ?BANKED_ENTER_XDATA
        CFI DPH0 load(1, XDATA, add(CFA_XSP16, literal(-1)))
        CFI DPL0 load(1, XDATA, add(CFA_XSP16, literal(-2)))
        CFI ?BRET_EXT load(1, XDATA, add(CFA_XSP16, literal(-3)))
        CFI ?RET_HIGH load(1, XDATA, add(CFA_XSP16, literal(-4)))
        CFI ?RET_LOW load(1, XDATA, add(CFA_XSP16, literal(-5)))
        CFI R7 load(1, XDATA, add(CFA_XSP16, literal(-6)))
        CFI V0 load(1, XDATA, add(CFA_XSP16, literal(-7)))
        CFI VB load(1, XDATA, add(CFA_XSP16, literal(-8)))
        CFI R6 load(1, XDATA, add(CFA_XSP16, literal(-9)))
        CFI CFA_SP SP+0
        CFI CFA_XSP16 add(XSP16, 9)
        ; Saved register size: 9
        ; Auto size: 3
        MOV     A,#-0x3
        LCALL   ?ALLOC_XSTACK8
        CFI CFA_XSP16 add(XSP16, 12)
        MOV     A,R1
        MOV     R6,A
// 3137   ZStatus_t            status;
// 3138   APSME_SwitchKeyReq_t req;
// 3139 
// 3140   // initialize common elements of local variables
// 3141   req.dstAddr = dstAddr;
        LCALL   ?Subroutine23 & 0xFFFF
// 3142   req.keySeqNum = keySeqNum;
??CrossCallReturnLabel_254:
        LCALL   ?XSTACK_DISP0_8
        MOV     A,R1
        LCALL   ??Subroutine94_0 & 0xFFFF
// 3143 
// 3144   if ( ZG_CHECK_SECURITY_MODE == ZG_SECURITY_PRO_HIGH )
// 3145   {
// 3146     ZDSecMgrEntry_t*     entry;
// 3147     uint16               index;
// 3148     AddrMgrEntry_t       addrEntry;
// 3149 
// 3150     addrEntry.user = ADDRMGR_USER_SECURITY;
// 3151 
// 3152     status = ZFailure;
// 3153 
// 3154     // verify data is available
// 3155     if ( ZDSecMgrEntries != NULL )
// 3156     {
// 3157       // find available entry
// 3158       for ( index = 0; index < ZDSECMGR_ENTRY_MAX ; index++ )
// 3159       {
// 3160         if ( ZDSecMgrEntries[index].ami != INVALID_NODE_ADDR )
// 3161         {
// 3162           // return successful result
// 3163           entry = &ZDSecMgrEntries[index];
// 3164 
// 3165           // get NWK address
// 3166           addrEntry.index = entry->ami;
// 3167 
// 3168           if ( AddrMgrEntryGet( &addrEntry ) == TRUE )
// 3169           {
// 3170             req.dstAddr = addrEntry.nwkAddr;
// 3171             status = APSME_SwitchKeyReq( &req );
// 3172           }
// 3173         }
// 3174       }
// 3175     }
// 3176   }
// 3177   else // ( ZG_CHECK_SECURITY_MODE == ZG_SECURITY_RESIDENTIAL )
// 3178   {
// 3179     status = APSME_SwitchKeyReq( &req );
??CrossCallReturnLabel_193:
        LCALL   ??APSME_SwitchKeyReq?relay
        MOV     A,R1
        MOV     R7,A
// 3180   }
// 3181 
// 3182   SSP_SwitchNwkKey( keySeqNum );
        ; Setup parameters for call to function SSP_SwitchNwkKey
        MOV     A,R6
        MOV     R1,A
        LCALL   ??SSP_SwitchNwkKey?relay
// 3183 
// 3184   // Save if nv
// 3185   ZDApp_NVUpdate();
        ; Setup parameters for call to function ZDApp_NVUpdate
        LCALL   ??ZDApp_NVUpdate?relay
// 3186 
// 3187   return status;
        MOV     A,R7
        MOV     R1,A
        MOV     A,#0x3
        LJMP    ??Subroutine103_0 & 0xFFFF
        CFI EndBlock cfiBlock628
// 3188 }

        RSEG BANKED_CODE:CODE:NOROOT(0)
?Subroutine23:
        CFI Block cfiCond629 Using cfiCommon0
        CFI NoFunction
        CFI Conditional ??CrossCallReturnLabel_254
        CFI R6 load(1, XDATA, add(CFA_XSP16, literal(-9)))
        CFI VB load(1, XDATA, add(CFA_XSP16, literal(-8)))
        CFI V0 load(1, XDATA, add(CFA_XSP16, literal(-7)))
        CFI R7 load(1, XDATA, add(CFA_XSP16, literal(-6)))
        CFI ?RET_LOW load(1, XDATA, add(CFA_XSP16, literal(-5)))
        CFI ?RET_HIGH load(1, XDATA, add(CFA_XSP16, literal(-4)))
        CFI ?BRET_EXT load(1, XDATA, add(CFA_XSP16, literal(-3)))
        CFI DPL0 load(1, XDATA, add(CFA_XSP16, literal(-2)))
        CFI DPH0 load(1, XDATA, add(CFA_XSP16, literal(-1)))
        CFI CFA_SP SP+0
        CFI CFA_XSP16 add(XSP16, 12)
        CFI Block cfiCond630 Using cfiCommon0
        CFI (cfiCond630) NoFunction
        CFI (cfiCond630) Conditional ??CrossCallReturnLabel_255
        CFI (cfiCond630) DPL0 Frame(CFA_SP, 4)
        CFI (cfiCond630) DPH0 Frame(CFA_SP, 5)
        CFI (cfiCond630) CFA_SP SP+-5
        CFI (cfiCond630) CFA_XSP16 add(XSP16, 10)
        CFI Block cfiPicker631 Using cfiCommon1
        CFI (cfiPicker631) NoFunction
        CFI (cfiPicker631) Picker
        MOV     DPL,?XSP + 0
        MOV     DPH,?XSP + 1
        CFI EndBlock cfiCond629
        CFI EndBlock cfiCond630
        CFI EndBlock cfiPicker631
        REQUIRE ??Subroutine110_0
        ; // Fall through to label ??Subroutine110_0

        RSEG BANKED_CODE:CODE:NOROOT(0)
??Subroutine110_0:
        CFI Block cfiCond632 Using cfiCommon0
        CFI NoFunction
        CFI Conditional ??CrossCallReturnLabel_256
        CFI R6 load(1, XDATA, add(CFA_XSP16, literal(-9)))
        CFI VB load(1, XDATA, add(CFA_XSP16, literal(-8)))
        CFI V0 load(1, XDATA, add(CFA_XSP16, literal(-7)))
        CFI R7 load(1, XDATA, add(CFA_XSP16, literal(-6)))
        CFI ?RET_LOW load(1, XDATA, add(CFA_XSP16, literal(-5)))
        CFI ?RET_HIGH load(1, XDATA, add(CFA_XSP16, literal(-4)))
        CFI ?BRET_EXT load(1, XDATA, add(CFA_XSP16, literal(-3)))
        CFI DPL0 load(1, XDATA, add(CFA_XSP16, literal(-2)))
        CFI DPH0 load(1, XDATA, add(CFA_XSP16, literal(-1)))
        CFI CFA_SP SP+0
        CFI CFA_XSP16 add(XSP16, 19)
        CFI Block cfiCond633 Using cfiCommon0
        CFI (cfiCond633) NoFunction
        CFI (cfiCond633) Conditional ??CrossCallReturnLabel_254
        CFI (cfiCond633) R6 load(1, XDATA, add(CFA_XSP16, literal(-9)))
        CFI (cfiCond633) VB load(1, XDATA, add(CFA_XSP16, literal(-8)))
        CFI (cfiCond633) V0 load(1, XDATA, add(CFA_XSP16, literal(-7)))
        CFI (cfiCond633) R7 load(1, XDATA, add(CFA_XSP16, literal(-6)))
        CFI (cfiCond633) ?RET_LOW load(1, XDATA, add(CFA_XSP16, literal(-5)))
        CFI (cfiCond633) ?RET_HIGH load(1, XDATA, add(CFA_XSP16, literal(-4)))
        CFI (cfiCond633) ?BRET_EXT load(1, XDATA, add(CFA_XSP16, literal(-3)))
        CFI (cfiCond633) DPL0 load(1, XDATA, add(CFA_XSP16, literal(-2)))
        CFI (cfiCond633) DPH0 load(1, XDATA, add(CFA_XSP16, literal(-1)))
        CFI (cfiCond633) CFA_SP SP+0
        CFI (cfiCond633) CFA_XSP16 add(XSP16, 12)
        CFI Block cfiCond634 Using cfiCommon0
        CFI (cfiCond634) NoFunction
        CFI (cfiCond634) Conditional ??CrossCallReturnLabel_255
        CFI (cfiCond634) DPL0 Frame(CFA_SP, 4)
        CFI (cfiCond634) DPH0 Frame(CFA_SP, 5)
        CFI (cfiCond634) CFA_SP SP+-5
        CFI (cfiCond634) CFA_XSP16 add(XSP16, 10)
        CFI Block cfiPicker635 Using cfiCommon1
        CFI (cfiPicker635) NoFunction
        CFI (cfiPicker635) Picker
        MOV     A,R2
        MOVX    @DPTR,A
        INC     DPTR
        MOV     A,R3
        MOVX    @DPTR,A
        MOV     A,#0x2
        RET
        CFI EndBlock cfiCond632
        CFI EndBlock cfiCond633
        CFI EndBlock cfiCond634
        CFI EndBlock cfiPicker635
// 3189 #endif // ( ZG_BUILD_COORDINATOR_TYPE )
// 3190 
// 3191 #if ( ZG_BUILD_JOINING_TYPE )
// 3192 /******************************************************************************
// 3193  * @fn          ZDSecMgrRequestAppKey
// 3194  *
// 3195  * @brief       Request an application key with partner.
// 3196  *
// 3197  * @param       partNwkAddr - [in] partner network address
// 3198  *
// 3199  * @return      ZStatus_t
// 3200  */
// 3201 ZStatus_t ZDSecMgrRequestAppKey( uint16 partNwkAddr )
// 3202 {
// 3203   ZStatus_t             status;
// 3204   APSME_RequestKeyReq_t req;
// 3205   uint8                 partExtAddr[Z_EXTADDR_LEN];
// 3206 
// 3207 
// 3208   if ( AddrMgrExtAddrLookup( partNwkAddr, partExtAddr ) )
// 3209   {
// 3210     req.dstAddr = 0;
// 3211     req.keyType = KEY_TYPE_APP_MASTER;
// 3212     req.partExtAddr = partExtAddr;
// 3213     status = APSME_RequestKeyReq( &req );
// 3214   }
// 3215   else
// 3216   {
// 3217     status = ZFailure;
// 3218   }
// 3219 
// 3220   return status;
// 3221 }
// 3222 #endif // ( ZG_BUILD_JOINING_TYPE )
// 3223 
// 3224 #if ( ZG_BUILD_JOINING_TYPE )
// 3225 /******************************************************************************
// 3226  * @fn          ZDSecMgrSetupPartner
// 3227  *
// 3228  * @brief       Setup for application key partner.
// 3229  *
// 3230  * @param       partNwkAddr - [in] partner network address
// 3231  *
// 3232  * @return      ZStatus_t
// 3233  */
// 3234 ZStatus_t ZDSecMgrSetupPartner( uint16 partNwkAddr, uint8* partExtAddr )
// 3235 {
// 3236   AddrMgrEntry_t entry;
// 3237   ZStatus_t      status;
// 3238 
// 3239   status = ZFailure;
// 3240 
// 3241   // update the address manager
// 3242   entry.user    = ADDRMGR_USER_SECURITY;
// 3243   entry.nwkAddr = partNwkAddr;
// 3244   AddrMgrExtAddrSet( entry.extAddr, partExtAddr );
// 3245 
// 3246   if ( AddrMgrEntryUpdate( &entry ) == TRUE )
// 3247   {
// 3248     status = ZSuccess;
// 3249 
// 3250     // check for address discovery
// 3251     if ( partNwkAddr == INVALID_NODE_ADDR )
// 3252     {
// 3253       status = ZDP_NwkAddrReq( partExtAddr, ZDP_ADDR_REQTYPE_SINGLE, 0, 0 );
// 3254     }
// 3255     else if ( !AddrMgrExtAddrValid( partExtAddr ) )
// 3256     {
// 3257       status = ZDP_IEEEAddrReq( partNwkAddr, ZDP_ADDR_REQTYPE_SINGLE, 0, 0 );
// 3258     }
// 3259   }
// 3260 
// 3261   return status;
// 3262 }
// 3263 #endif // ( ZG_BUILD_JOINING_TYPE )
// 3264 
// 3265 #if ( ZG_BUILD_COORDINATOR_TYPE )
// 3266 /******************************************************************************
// 3267  * @fn          ZDSecMgrAppKeyTypeSet
// 3268  *
// 3269  * @brief       Set application key type.
// 3270  *
// 3271  * @param       keyType - [in] application key type (KEY_TYPE_APP_MASTER@2 or
// 3272  *                                                   KEY_TYPE_APP_LINK@3
// 3273  *
// 3274  * @return      ZStatus_t
// 3275  */

        RSEG BANKED_CODE:CODE:NOROOT(0)
// 3276 ZStatus_t ZDSecMgrAppKeyTypeSet( uint8 keyType )
ZDSecMgrAppKeyTypeSet:
        CFI Block cfiBlock636 Using cfiCommon0
        CFI Function ZDSecMgrAppKeyTypeSet
        CODE
// 3277 {
        PUSH    DPL
        CFI DPL0 Frame(CFA_SP, 4)
        CFI CFA_SP SP+-4
        PUSH    DPH
        CFI DPH0 Frame(CFA_SP, 5)
        CFI CFA_SP SP+-5
        ; Saved register size: 2
        ; Auto size: 0
        MOV     A,R1
        MOV     R0,A
// 3278   if ( keyType == KEY_TYPE_APP_LINK )
        MOV     A,#0x3
        XRL     A,R0
        MOV     DPTR,#ZDSecMgrAppKeyType
        JNZ     ??ZDSecMgrAppKeyTypeSet_0
// 3279   {
// 3280     ZDSecMgrAppKeyType = KEY_TYPE_APP_LINK;
        MOV     A,#0x3
        SJMP    ??ZDSecMgrAppKeyTypeSet_1
// 3281   }
// 3282   else
// 3283   {
// 3284     ZDSecMgrAppKeyType = KEY_TYPE_APP_MASTER;
??ZDSecMgrAppKeyTypeSet_0:
        MOV     A,#0x2
??ZDSecMgrAppKeyTypeSet_1:
        MOVX    @DPTR,A
// 3285   }
// 3286 
// 3287   return ZSuccess;
        MOV     R1,#0x0
        LJMP    ??Subroutine91_0 & 0xFFFF
        CFI EndBlock cfiBlock636
// 3288 }
// 3289 #endif
// 3290 
// 3291 /******************************************************************************
// 3292  * ZigBee Device Security Manager - Stub Implementations
// 3293  */
// 3294 /******************************************************************************
// 3295  * @fn          ZDSecMgrMasterKeyGet (stubs APSME_MasterKeyGet)
// 3296  *
// 3297  * @brief       Get MASTER key for specified EXT address.
// 3298  *
// 3299  * @param       extAddr - [in] EXT address
// 3300  * @param       key     - [out] MASTER key
// 3301  *
// 3302  * @return      ZStatus_t
// 3303  */

        RSEG BANKED_CODE:CODE:NOROOT(0)
// 3304 ZStatus_t ZDSecMgrMasterKeyGet( uint8* extAddr, uint8** key )
APSME_MasterKeyGet:
        CFI Block cfiBlock637 Using cfiCommon0
        CFI Function APSME_MasterKeyGet
        CODE
// 3305 {
        FUNCALL APSME_MasterKeyGet, ZDSecMgrExtAddrLookup
        LOCFRAME ISTACK, 0, STACK
        LOCFRAME PSTACK, 0, STACK
        LOCFRAME XSTACK, 11, STACK
        LOCFRAME IOVERLAY, 0, STATIC
        LOCFRAME DOVERLAY, 0, STATIC
        ARGFRAME ISTACK, 0, STACK
        ARGFRAME PSTACK, 0, STACK
        ARGFRAME XSTACK, 11, STACK
        ARGFRAME IOVERLAY, 0, STATIC
        ARGFRAME DOVERLAY, 0, STATIC
        FUNCALL APSME_MasterKeyGet, ZDSecMgrMasterKeyLookup
        LOCFRAME ISTACK, 0, STACK
        LOCFRAME PSTACK, 0, STACK
        LOCFRAME XSTACK, 11, STACK
        LOCFRAME IOVERLAY, 0, STATIC
        LOCFRAME DOVERLAY, 0, STATIC
        ARGFRAME ISTACK, 0, STACK
        ARGFRAME PSTACK, 0, STACK
        ARGFRAME XSTACK, 11, STACK
        ARGFRAME IOVERLAY, 0, STATIC
        ARGFRAME DOVERLAY, 0, STATIC
        MOV     A,#-0x9
        LCALL   ?BANKED_ENTER_XDATA
        CFI DPH0 load(1, XDATA, add(CFA_XSP16, literal(-1)))
        CFI DPL0 load(1, XDATA, add(CFA_XSP16, literal(-2)))
        CFI ?BRET_EXT load(1, XDATA, add(CFA_XSP16, literal(-3)))
        CFI ?RET_HIGH load(1, XDATA, add(CFA_XSP16, literal(-4)))
        CFI ?RET_LOW load(1, XDATA, add(CFA_XSP16, literal(-5)))
        CFI R7 load(1, XDATA, add(CFA_XSP16, literal(-6)))
        CFI V0 load(1, XDATA, add(CFA_XSP16, literal(-7)))
        CFI VB load(1, XDATA, add(CFA_XSP16, literal(-8)))
        CFI R6 load(1, XDATA, add(CFA_XSP16, literal(-9)))
        CFI CFA_SP SP+0
        CFI CFA_XSP16 add(XSP16, 9)
        ; Saved register size: 9
        ; Auto size: 2
        MOV     A,#-0x2
        LCALL   ?ALLOC_XSTACK8
        CFI CFA_XSP16 add(XSP16, 11)
        MOV     A,R4
        MOV     R6,A
        MOV     A,R5
        MOV     R7,A
// 3306   ZStatus_t status;
// 3307   uint16    ami;
// 3308 
// 3309 
// 3310   // lookup entry for specified EXT address
// 3311   status = ZDSecMgrExtAddrLookup( extAddr, &ami );
        ; Setup parameters for call to function ZDSecMgrExtAddrLookup
        MOV     DPL,?XSP + 0
        MOV     DPH,?XSP + 1
        MOV     R4,DPL
        MOV     R5,DPH
        LCALL   ??ZDSecMgrExtAddrLookup?relay
        MOV     A,R1
        MOV     ?V0 + 0,A
// 3312   //status = ZDSecMgrEntryLookupExt( extAddr, &entry );
// 3313 
// 3314   if ( status == ZSuccess )
        JNZ     ??APSME_MasterKeyGet_0
// 3315   {
// 3316     ZDSecMgrMasterKeyLookup( ami, key );
        ; Setup parameters for call to function ZDSecMgrMasterKeyLookup
        MOV     A,R6
        MOV     R4,A
        MOV     A,R7
        MOV     R5,A
        MOV     DPL,?XSP + 0
        MOV     DPH,?XSP + 1
        LCALL   ?Subroutine50 & 0xFFFF
// 3317   }
??CrossCallReturnLabel_64:
        SJMP    ??APSME_MasterKeyGet_1
// 3318   else
// 3319   {
// 3320     *key = NULL;
??APSME_MasterKeyGet_0:
        MOV     DPL,R6
        MOV     DPH,R7
        CLR     A
        MOVX    @DPTR,A
        INC     DPTR
        MOVX    @DPTR,A
// 3321   }
// 3322 
// 3323   return status;
??APSME_MasterKeyGet_1:
        LJMP    ?Subroutine1 & 0xFFFF
        CFI EndBlock cfiBlock637
// 3324 }

        RSEG BANKED_CODE:CODE:NOROOT(0)
?Subroutine50:
        CFI Block cfiCond638 Using cfiCommon0
        CFI NoFunction
        CFI Conditional ??CrossCallReturnLabel_63
        CFI R6 load(1, XDATA, add(CFA_XSP16, literal(-10)))
        CFI VB load(1, XDATA, add(CFA_XSP16, literal(-9)))
        CFI V0 load(1, XDATA, add(CFA_XSP16, literal(-8)))
        CFI V1 load(1, XDATA, add(CFA_XSP16, literal(-7)))
        CFI R7 load(1, XDATA, add(CFA_XSP16, literal(-6)))
        CFI ?RET_LOW load(1, XDATA, add(CFA_XSP16, literal(-5)))
        CFI ?RET_HIGH load(1, XDATA, add(CFA_XSP16, literal(-4)))
        CFI ?BRET_EXT load(1, XDATA, add(CFA_XSP16, literal(-3)))
        CFI DPL0 load(1, XDATA, add(CFA_XSP16, literal(-2)))
        CFI DPH0 load(1, XDATA, add(CFA_XSP16, literal(-1)))
        CFI CFA_SP SP+0
        CFI CFA_XSP16 add(XSP16, 23)
        CFI Block cfiCond639 Using cfiCommon0
        CFI (cfiCond639) NoFunction
        CFI (cfiCond639) Conditional ??CrossCallReturnLabel_64
        CFI (cfiCond639) R6 load(1, XDATA, add(CFA_XSP16, literal(-9)))
        CFI (cfiCond639) VB load(1, XDATA, add(CFA_XSP16, literal(-8)))
        CFI (cfiCond639) V0 load(1, XDATA, add(CFA_XSP16, literal(-7)))
        CFI (cfiCond639) R7 load(1, XDATA, add(CFA_XSP16, literal(-6)))
        CFI (cfiCond639) ?RET_LOW load(1, XDATA, add(CFA_XSP16, literal(-5)))
        CFI (cfiCond639) ?RET_HIGH load(1, XDATA, add(CFA_XSP16, literal(-4)))
        CFI (cfiCond639) ?BRET_EXT load(1, XDATA, add(CFA_XSP16, literal(-3)))
        CFI (cfiCond639) DPL0 load(1, XDATA, add(CFA_XSP16, literal(-2)))
        CFI (cfiCond639) DPH0 load(1, XDATA, add(CFA_XSP16, literal(-1)))
        CFI (cfiCond639) CFA_SP SP+0
        CFI (cfiCond639) CFA_XSP16 add(XSP16, 11)
        CFI Block cfiPicker640 Using cfiCommon1
        CFI (cfiPicker640) NoFunction
        CFI (cfiPicker640) Picker
        LCALL   ?Subroutine70 & 0xFFFF
??CrossCallReturnLabel_99:
        RET
        CFI EndBlock cfiCond638
        CFI EndBlock cfiCond639
        CFI EndBlock cfiPicker640

        RSEG BANKED_CODE:CODE:NOROOT(0)
?Subroutine70:
        CFI Block cfiCond641 Using cfiCommon0
        CFI NoFunction
        CFI Conditional ??CrossCallReturnLabel_98, ??CrossCallReturnLabel_33
        CFI R6 load(1, XDATA, add(CFA_XSP16, literal(-15)))
        CFI VB load(1, XDATA, add(CFA_XSP16, literal(-14)))
        CFI V0 load(1, XDATA, add(CFA_XSP16, literal(-13)))
        CFI V1 load(1, XDATA, add(CFA_XSP16, literal(-12)))
        CFI V2 load(1, XDATA, add(CFA_XSP16, literal(-11)))
        CFI V3 load(1, XDATA, add(CFA_XSP16, literal(-10)))
        CFI V4 load(1, XDATA, add(CFA_XSP16, literal(-9)))
        CFI V5 load(1, XDATA, add(CFA_XSP16, literal(-8)))
        CFI V6 load(1, XDATA, add(CFA_XSP16, literal(-7)))
        CFI R7 load(1, XDATA, add(CFA_XSP16, literal(-6)))
        CFI ?RET_LOW load(1, XDATA, add(CFA_XSP16, literal(-5)))
        CFI ?RET_HIGH load(1, XDATA, add(CFA_XSP16, literal(-4)))
        CFI ?BRET_EXT load(1, XDATA, add(CFA_XSP16, literal(-3)))
        CFI DPL0 load(1, XDATA, add(CFA_XSP16, literal(-2)))
        CFI DPH0 load(1, XDATA, add(CFA_XSP16, literal(-1)))
        CFI CFA_SP SP+0
        CFI CFA_XSP16 add(XSP16, 19)
        CFI Block cfiCond642 Using cfiCommon0
        CFI (cfiCond642) NoFunction
        CFI (cfiCond642) Conditional ??CrossCallReturnLabel_98, ??CrossCallReturnLabel_34
        CFI (cfiCond642) R6 load(1, XDATA, add(CFA_XSP16, literal(-9)))
        CFI (cfiCond642) VB load(1, XDATA, add(CFA_XSP16, literal(-8)))
        CFI (cfiCond642) V0 load(1, XDATA, add(CFA_XSP16, literal(-7)))
        CFI (cfiCond642) R7 load(1, XDATA, add(CFA_XSP16, literal(-6)))
        CFI (cfiCond642) ?RET_LOW load(1, XDATA, add(CFA_XSP16, literal(-5)))
        CFI (cfiCond642) ?RET_HIGH load(1, XDATA, add(CFA_XSP16, literal(-4)))
        CFI (cfiCond642) ?BRET_EXT load(1, XDATA, add(CFA_XSP16, literal(-3)))
        CFI (cfiCond642) DPL0 load(1, XDATA, add(CFA_XSP16, literal(-2)))
        CFI (cfiCond642) DPH0 load(1, XDATA, add(CFA_XSP16, literal(-1)))
        CFI (cfiCond642) CFA_SP SP+0
        CFI (cfiCond642) CFA_XSP16 add(XSP16, 13)
        CFI Block cfiCond643 Using cfiCommon0
        CFI (cfiCond643) NoFunction
        CFI (cfiCond643) Conditional ??CrossCallReturnLabel_98, ??CrossCallReturnLabel_35
        CFI (cfiCond643) R6 load(1, XDATA, add(CFA_XSP16, literal(-10)))
        CFI (cfiCond643) VB load(1, XDATA, add(CFA_XSP16, literal(-9)))
        CFI (cfiCond643) V0 load(1, XDATA, add(CFA_XSP16, literal(-8)))
        CFI (cfiCond643) V1 load(1, XDATA, add(CFA_XSP16, literal(-7)))
        CFI (cfiCond643) R7 load(1, XDATA, add(CFA_XSP16, literal(-6)))
        CFI (cfiCond643) ?RET_LOW load(1, XDATA, add(CFA_XSP16, literal(-5)))
        CFI (cfiCond643) ?RET_HIGH load(1, XDATA, add(CFA_XSP16, literal(-4)))
        CFI (cfiCond643) ?BRET_EXT load(1, XDATA, add(CFA_XSP16, literal(-3)))
        CFI (cfiCond643) DPL0 load(1, XDATA, add(CFA_XSP16, literal(-2)))
        CFI (cfiCond643) DPH0 load(1, XDATA, add(CFA_XSP16, literal(-1)))
        CFI (cfiCond643) CFA_SP SP+0
        CFI (cfiCond643) CFA_XSP16 add(XSP16, 14)
        CFI Block cfiCond644 Using cfiCommon0
        CFI (cfiCond644) NoFunction
        CFI (cfiCond644) Conditional ??CrossCallReturnLabel_99, ??CrossCallReturnLabel_63
        CFI (cfiCond644) R6 load(1, XDATA, add(CFA_XSP16, literal(-10)))
        CFI (cfiCond644) VB load(1, XDATA, add(CFA_XSP16, literal(-9)))
        CFI (cfiCond644) V0 load(1, XDATA, add(CFA_XSP16, literal(-8)))
        CFI (cfiCond644) V1 load(1, XDATA, add(CFA_XSP16, literal(-7)))
        CFI (cfiCond644) R7 load(1, XDATA, add(CFA_XSP16, literal(-6)))
        CFI (cfiCond644) ?RET_LOW load(1, XDATA, add(CFA_XSP16, literal(-5)))
        CFI (cfiCond644) ?RET_HIGH load(1, XDATA, add(CFA_XSP16, literal(-4)))
        CFI (cfiCond644) ?BRET_EXT load(1, XDATA, add(CFA_XSP16, literal(-3)))
        CFI (cfiCond644) DPL0 load(1, XDATA, add(CFA_XSP16, literal(-2)))
        CFI (cfiCond644) DPH0 load(1, XDATA, add(CFA_XSP16, literal(-1)))
        CFI (cfiCond644) CFA_SP SP+0
        CFI (cfiCond644) CFA_XSP16 add(XSP16, 23)
        CFI Block cfiCond645 Using cfiCommon0
        CFI (cfiCond645) NoFunction
        CFI (cfiCond645) Conditional ??CrossCallReturnLabel_99, ??CrossCallReturnLabel_64
        CFI (cfiCond645) R6 load(1, XDATA, add(CFA_XSP16, literal(-9)))
        CFI (cfiCond645) VB load(1, XDATA, add(CFA_XSP16, literal(-8)))
        CFI (cfiCond645) V0 load(1, XDATA, add(CFA_XSP16, literal(-7)))
        CFI (cfiCond645) R7 load(1, XDATA, add(CFA_XSP16, literal(-6)))
        CFI (cfiCond645) ?RET_LOW load(1, XDATA, add(CFA_XSP16, literal(-5)))
        CFI (cfiCond645) ?RET_HIGH load(1, XDATA, add(CFA_XSP16, literal(-4)))
        CFI (cfiCond645) ?BRET_EXT load(1, XDATA, add(CFA_XSP16, literal(-3)))
        CFI (cfiCond645) DPL0 load(1, XDATA, add(CFA_XSP16, literal(-2)))
        CFI (cfiCond645) DPH0 load(1, XDATA, add(CFA_XSP16, literal(-1)))
        CFI (cfiCond645) CFA_SP SP+0
        CFI (cfiCond645) CFA_XSP16 add(XSP16, 11)
        CFI Block cfiPicker646 Using cfiCommon1
        CFI (cfiPicker646) NoFunction
        CFI (cfiPicker646) Picker
        MOVX    A,@DPTR
        MOV     R2,A
        INC     DPTR
        MOVX    A,@DPTR
        MOV     R3,A
        LCALL   ??ZDSecMgrMasterKeyLookup?relay
        RET
        CFI EndBlock cfiCond641
        CFI EndBlock cfiCond642
        CFI EndBlock cfiCond643
        CFI EndBlock cfiCond644
        CFI EndBlock cfiCond645
        CFI EndBlock cfiPicker646
// 3325 
// 3326 /******************************************************************************
// 3327  * @fn          ZDSecMgrLinkKeySet (stubs APSME_LinkKeySet)
// 3328  *
// 3329  * @brief       Set <APSME_LinkKeyData_t> for specified NWK address.
// 3330  *
// 3331  * @param       extAddr - [in] EXT address
// 3332  * @param       data    - [in] APSME_LinkKeyData_t
// 3333  *
// 3334  * @return      ZStatus_t
// 3335  */

        RSEG BANKED_CODE:CODE:NOROOT(0)
// 3336 ZStatus_t ZDSecMgrLinkKeySet( uint8* extAddr, uint8* key )
APSME_LinkKeySet:
        CFI Block cfiBlock647 Using cfiCommon0
        CFI Function APSME_LinkKeySet
        CODE
// 3337 {
        FUNCALL APSME_LinkKeySet, ZDSecMgrEntryLookupExt
        LOCFRAME ISTACK, 0, STACK
        LOCFRAME PSTACK, 0, STACK
        LOCFRAME XSTACK, 13, STACK
        LOCFRAME IOVERLAY, 0, STATIC
        LOCFRAME DOVERLAY, 0, STATIC
        ARGFRAME ISTACK, 0, STACK
        ARGFRAME PSTACK, 0, STACK
        ARGFRAME XSTACK, 13, STACK
        ARGFRAME IOVERLAY, 0, STATIC
        ARGFRAME DOVERLAY, 0, STATIC
        FUNCALL APSME_LinkKeySet, osal_memcpy
        LOCFRAME ISTACK, 0, STACK
        LOCFRAME PSTACK, 0, STACK
        LOCFRAME XSTACK, 16, STACK
        LOCFRAME IOVERLAY, 0, STATIC
        LOCFRAME DOVERLAY, 0, STATIC
        ARGFRAME ISTACK, 0, STACK
        ARGFRAME PSTACK, 0, STACK
        ARGFRAME XSTACK, 16, STACK
        ARGFRAME IOVERLAY, 0, STATIC
        ARGFRAME DOVERLAY, 0, STATIC
        MOV     A,#-0xb
        LCALL   ?BANKED_ENTER_XDATA
        CFI DPH0 load(1, XDATA, add(CFA_XSP16, literal(-1)))
        CFI DPL0 load(1, XDATA, add(CFA_XSP16, literal(-2)))
        CFI ?BRET_EXT load(1, XDATA, add(CFA_XSP16, literal(-3)))
        CFI ?RET_HIGH load(1, XDATA, add(CFA_XSP16, literal(-4)))
        CFI ?RET_LOW load(1, XDATA, add(CFA_XSP16, literal(-5)))
        CFI R7 load(1, XDATA, add(CFA_XSP16, literal(-6)))
        CFI V2 load(1, XDATA, add(CFA_XSP16, literal(-7)))
        CFI V1 load(1, XDATA, add(CFA_XSP16, literal(-8)))
        CFI V0 load(1, XDATA, add(CFA_XSP16, literal(-9)))
        CFI VB load(1, XDATA, add(CFA_XSP16, literal(-10)))
        CFI R6 load(1, XDATA, add(CFA_XSP16, literal(-11)))
        CFI CFA_SP SP+0
        CFI CFA_XSP16 add(XSP16, 11)
        ; Saved register size: 11
        ; Auto size: 2
        MOV     A,#-0x2
        LCALL   ?ALLOC_XSTACK8
        CFI CFA_XSP16 add(XSP16, 13)
        MOV     ?V0 + 0,R4
        MOV     ?V0 + 1,R5
// 3338   ZStatus_t        status;
// 3339   ZDSecMgrEntry_t* entry;
// 3340 
// 3341 
// 3342   // lookup entry index for specified EXT address
// 3343   status = ZDSecMgrEntryLookupExt( extAddr, &entry );
        ; Setup parameters for call to function ZDSecMgrEntryLookupExt
        MOV     DPL,?XSP + 0
        MOV     DPH,?XSP + 1
        MOV     R4,DPL
        MOV     R5,DPH
        LCALL   ??ZDSecMgrEntryLookupExt?relay
        MOV     A,R1
        MOV     R6,A
// 3344 
// 3345   if ( status == ZSuccess )
        JNZ     ??APSME_LinkKeySet_0
// 3346   {
// 3347     // setup the link key data reference
// 3348     osal_memcpy( entry->lkd.key, key, SEC_KEY_LEN );
        ; Setup parameters for call to function osal_memcpy
        MOV     ?V0 + 2,#0x0
        MOV     R0,#?V0 + 0
        LCALL   ?PUSH_XSTACK_I_THREE
        CFI CFA_XSP16 add(XSP16, 16)
        MOV     R4,#0x10
        MOV     R5,#0x0
        MOV     A,#0x3
        LCALL   ?XSTACK_DISP0_8
        LCALL   ?Subroutine53 & 0xFFFF
??CrossCallReturnLabel_67:
        LCALL   ??osal_memcpy?relay
        MOV     A,#0x3
        LCALL   ?DEALLOC_XSTACK8
        CFI CFA_XSP16 add(XSP16, 13)
// 3349 
// 3350     entry->lkd.apsmelkd.rxFrmCntr = 0;
        MOV     DPTR,#__Constant_0
        LCALL   ?XLOAD_R2345
        MOV     DPL,?XSP + 0
        MOV     DPH,?XSP + 1
        MOVX    A,@DPTR
        ADD     A,#0x18
        LCALL   ?Subroutine39 & 0xFFFF
??CrossCallReturnLabel_41:
        LCALL   ?XSTORE_R2345
// 3351     entry->lkd.apsmelkd.txFrmCntr = 0;
        MOV     DPTR,#__Constant_0
        LCALL   ?XLOAD_R2345
        MOV     DPL,?XSP + 0
        MOV     DPH,?XSP + 1
        MOVX    A,@DPTR
        ADD     A,#0x14
        LCALL   ?Subroutine39 & 0xFFFF
// 3352   }
??CrossCallReturnLabel_42:
        LCALL   ?XSTORE_R2345
// 3353 
// 3354   return status;
??APSME_LinkKeySet_0:
        MOV     A,R6
        MOV     R1,A
        MOV     A,#0x2
        LCALL   ?DEALLOC_XSTACK8
        CFI CFA_XSP16 add(XSP16, 11)
        MOV     R7,#0x3
        LJMP    ?BANKED_LEAVE_XDATA
        CFI EndBlock cfiBlock647
// 3355 }

        RSEG BANKED_CODE:CODE:NOROOT(0)
?Subroutine39:
        CFI Block cfiCond648 Using cfiCommon0
        CFI NoFunction
        CFI Conditional ??CrossCallReturnLabel_40
        CFI R6 load(1, XDATA, add(CFA_XSP16, literal(-9)))
        CFI VB load(1, XDATA, add(CFA_XSP16, literal(-8)))
        CFI V0 load(1, XDATA, add(CFA_XSP16, literal(-7)))
        CFI R7 load(1, XDATA, add(CFA_XSP16, literal(-6)))
        CFI ?RET_LOW load(1, XDATA, add(CFA_XSP16, literal(-5)))
        CFI ?RET_HIGH load(1, XDATA, add(CFA_XSP16, literal(-4)))
        CFI ?BRET_EXT load(1, XDATA, add(CFA_XSP16, literal(-3)))
        CFI DPL0 load(1, XDATA, add(CFA_XSP16, literal(-2)))
        CFI DPH0 load(1, XDATA, add(CFA_XSP16, literal(-1)))
        CFI CFA_SP SP+0
        CFI CFA_XSP16 add(XSP16, 13)
        CFI Block cfiCond649 Using cfiCommon0
        CFI (cfiCond649) NoFunction
        CFI (cfiCond649) Conditional ??CrossCallReturnLabel_41
        CFI (cfiCond649) R6 load(1, XDATA, add(CFA_XSP16, literal(-11)))
        CFI (cfiCond649) VB load(1, XDATA, add(CFA_XSP16, literal(-10)))
        CFI (cfiCond649) V0 load(1, XDATA, add(CFA_XSP16, literal(-9)))
        CFI (cfiCond649) V1 load(1, XDATA, add(CFA_XSP16, literal(-8)))
        CFI (cfiCond649) V2 load(1, XDATA, add(CFA_XSP16, literal(-7)))
        CFI (cfiCond649) R7 load(1, XDATA, add(CFA_XSP16, literal(-6)))
        CFI (cfiCond649) ?RET_LOW load(1, XDATA, add(CFA_XSP16, literal(-5)))
        CFI (cfiCond649) ?RET_HIGH load(1, XDATA, add(CFA_XSP16, literal(-4)))
        CFI (cfiCond649) ?BRET_EXT load(1, XDATA, add(CFA_XSP16, literal(-3)))
        CFI (cfiCond649) DPL0 load(1, XDATA, add(CFA_XSP16, literal(-2)))
        CFI (cfiCond649) DPH0 load(1, XDATA, add(CFA_XSP16, literal(-1)))
        CFI (cfiCond649) CFA_SP SP+0
        CFI (cfiCond649) CFA_XSP16 add(XSP16, 13)
        CFI Block cfiCond650 Using cfiCommon0
        CFI (cfiCond650) NoFunction
        CFI (cfiCond650) Conditional ??CrossCallReturnLabel_42
        CFI (cfiCond650) R6 load(1, XDATA, add(CFA_XSP16, literal(-11)))
        CFI (cfiCond650) VB load(1, XDATA, add(CFA_XSP16, literal(-10)))
        CFI (cfiCond650) V0 load(1, XDATA, add(CFA_XSP16, literal(-9)))
        CFI (cfiCond650) V1 load(1, XDATA, add(CFA_XSP16, literal(-8)))
        CFI (cfiCond650) V2 load(1, XDATA, add(CFA_XSP16, literal(-7)))
        CFI (cfiCond650) R7 load(1, XDATA, add(CFA_XSP16, literal(-6)))
        CFI (cfiCond650) ?RET_LOW load(1, XDATA, add(CFA_XSP16, literal(-5)))
        CFI (cfiCond650) ?RET_HIGH load(1, XDATA, add(CFA_XSP16, literal(-4)))
        CFI (cfiCond650) ?BRET_EXT load(1, XDATA, add(CFA_XSP16, literal(-3)))
        CFI (cfiCond650) DPL0 load(1, XDATA, add(CFA_XSP16, literal(-2)))
        CFI (cfiCond650) DPH0 load(1, XDATA, add(CFA_XSP16, literal(-1)))
        CFI (cfiCond650) CFA_SP SP+0
        CFI (cfiCond650) CFA_XSP16 add(XSP16, 13)
        CFI Block cfiPicker651 Using cfiCommon1
        CFI (cfiPicker651) NoFunction
        CFI (cfiPicker651) Picker
        MOV     R0,A
        INC     DPTR
        MOVX    A,@DPTR
        ADDC    A,#0x0
        MOV     R1,A
        MOV     DPL,R0
        MOV     DPH,R1
        RET
        CFI EndBlock cfiCond648
        CFI EndBlock cfiCond649
        CFI EndBlock cfiCond650
        CFI EndBlock cfiPicker651
// 3356 
// 3357 /******************************************************************************
// 3358  * @fn          ZDSecMgrAuthenticationSet
// 3359  *
// 3360  * @brief       Mark the specific device as authenticated or not
// 3361  *
// 3362  * @param       extAddr - [in] EXT address
// 3363  * @param       option  - [in] authenticated or not
// 3364  *
// 3365  * @return      ZStatus_t
// 3366  */

        RSEG BANKED_CODE:CODE:NOROOT(0)
// 3367 ZStatus_t ZDSecMgrAuthenticationSet( uint8* extAddr, ZDSecMgr_Authentication_Option option )
ZDSecMgrAuthenticationSet:
        CFI Block cfiBlock652 Using cfiCommon0
        CFI Function ZDSecMgrAuthenticationSet
        CODE
// 3368 {
        FUNCALL ZDSecMgrAuthenticationSet, ZDSecMgrEntryLookupExt
        LOCFRAME ISTACK, 0, STACK
        LOCFRAME PSTACK, 0, STACK
        LOCFRAME XSTACK, 11, STACK
        LOCFRAME IOVERLAY, 0, STATIC
        LOCFRAME DOVERLAY, 0, STATIC
        ARGFRAME ISTACK, 0, STACK
        ARGFRAME PSTACK, 0, STACK
        ARGFRAME XSTACK, 11, STACK
        ARGFRAME IOVERLAY, 0, STATIC
        ARGFRAME DOVERLAY, 0, STATIC
        MOV     A,#-0x9
        LCALL   ?BANKED_ENTER_XDATA
        CFI DPH0 load(1, XDATA, add(CFA_XSP16, literal(-1)))
        CFI DPL0 load(1, XDATA, add(CFA_XSP16, literal(-2)))
        CFI ?BRET_EXT load(1, XDATA, add(CFA_XSP16, literal(-3)))
        CFI ?RET_HIGH load(1, XDATA, add(CFA_XSP16, literal(-4)))
        CFI ?RET_LOW load(1, XDATA, add(CFA_XSP16, literal(-5)))
        CFI R7 load(1, XDATA, add(CFA_XSP16, literal(-6)))
        CFI V0 load(1, XDATA, add(CFA_XSP16, literal(-7)))
        CFI VB load(1, XDATA, add(CFA_XSP16, literal(-8)))
        CFI R6 load(1, XDATA, add(CFA_XSP16, literal(-9)))
        CFI CFA_SP SP+0
        CFI CFA_XSP16 add(XSP16, 9)
        ; Saved register size: 9
        ; Auto size: 2
        MOV     A,#-0x2
        LCALL   ?ALLOC_XSTACK8
        CFI CFA_XSP16 add(XSP16, 11)
        MOV     A,R1
        MOV     R6,A
// 3369   ZStatus_t        status;
// 3370   ZDSecMgrEntry_t* entry;
// 3371 
// 3372 
// 3373   // lookup entry index for specified EXT address
// 3374   status = ZDSecMgrEntryLookupExt( extAddr, &entry );
        ; Setup parameters for call to function ZDSecMgrEntryLookupExt
        MOV     DPL,?XSP + 0
        MOV     DPH,?XSP + 1
        MOV     R4,DPL
        MOV     R5,DPH
        LCALL   ??ZDSecMgrEntryLookupExt?relay
        MOV     A,R1
// 3375 
// 3376   if ( status == ZSuccess )
        JNZ     ??ZDSecMgrAuthenticationSet_0
// 3377   {
// 3378     entry->authenticateOption = option;
        MOV     DPL,?XSP + 0
        MOV     DPH,?XSP + 1
        MOVX    A,@DPTR
        ADD     A,#0x1c
        MOV     R2,A
        INC     DPTR
        MOVX    A,@DPTR
        ADDC    A,#0x0
        MOV     R3,A
        MOV     DPL,R2
        MOV     DPH,R3
        MOV     A,R6
        MOVX    @DPTR,A
// 3379   }
// 3380 
// 3381   return status;
??ZDSecMgrAuthenticationSet_0:
        LJMP    ??Subroutine102_0 & 0xFFFF
        CFI EndBlock cfiBlock652
// 3382 }
// 3383 
// 3384 /******************************************************************************
// 3385  * @fn          ZDSecMgrAuthenticationCheck
// 3386  *
// 3387  * @brief       Check if the specific device has been authenticated or not
// 3388  *              For non-trust center device, always return true
// 3389  *
// 3390  * @param       shortAddr - [in] short address
// 3391  *
// 3392  * @return      TRUE @ authenticated with CBKE
// 3393  *              FALSE @ not authenticated
// 3394  */
// 3395 

        RSEG BANKED_CODE:CODE:NOROOT(0)
// 3396 uint8 ZDSecMgrAuthenticationCheck( uint16 shortAddr )
ZDSecMgrAuthenticationCheck:
        CFI Block cfiBlock653 Using cfiCommon0
        CFI Function ZDSecMgrAuthenticationCheck
        CODE
// 3397 {
        ; Saved register size: 0
        ; Auto size: 0
// 3398 #if defined (SE_PROFILE)
// 3399 
// 3400   ZDSecMgrEntry_t* entry;
// 3401   uint8 extAddr[Z_EXTADDR_LEN];
// 3402 
// 3403   // If the local device is not the trust center, always return TRUE
// 3404   if ( NLME_GetShortAddr() != TCshortAddr )
// 3405   {
// 3406     return TRUE;
// 3407   }
// 3408   // Otherwise, check the authentication option
// 3409   else if ( AddrMgrExtAddrLookup( shortAddr, extAddr ) )
// 3410   {
// 3411     // lookup entry index for specified EXT address
// 3412     if ( ZDSecMgrEntryLookupExt( extAddr, &entry ) == ZSuccess )
// 3413     {
// 3414       if ( entry->authenticateOption != ZDSecMgr_Not_Authenticated )
// 3415       {
// 3416         return TRUE;
// 3417       }
// 3418       else
// 3419       {
// 3420         return FALSE;
// 3421       }
// 3422     }
// 3423   }
// 3424   return FALSE;
// 3425 
// 3426 #else
// 3427   (void)shortAddr;  // Intentionally unreferenced parameter
// 3428   
// 3429   // For non AMI/SE Profile, perform no check and always return true.
// 3430   return TRUE;
        MOV     R1,#0x1
        LJMP    ?BRET
        CFI EndBlock cfiBlock653
// 3431 
// 3432 #endif // SE_PROFILE
// 3433 }
// 3434 
// 3435 
// 3436 /******************************************************************************
// 3437  * @fn          ZDSecMgrLinkKeyDataGet (stubs APSME_LinkKeyDataGet)
// 3438  *
// 3439  * @brief       Get <APSME_LinkKeyData_t> for specified NWK address.
// 3440  *
// 3441  * @param       extAddr - [in] EXT address
// 3442  * @param       data    - [out] APSME_LinkKeyData_t
// 3443  *
// 3444  * @return      ZStatus_t
// 3445  */

        RSEG BANKED_CODE:CODE:NOROOT(0)
// 3446 ZStatus_t ZDSecMgrLinkKeyDataGet(uint8* extAddr, APSME_LinkKeyData_t** data)
APSME_LinkKeyDataGet:
        CFI Block cfiBlock654 Using cfiCommon0
        CFI Function APSME_LinkKeyDataGet
        CODE
// 3447 {
        FUNCALL APSME_LinkKeyDataGet, ZDSecMgrEntryLookupExt
        LOCFRAME ISTACK, 0, STACK
        LOCFRAME PSTACK, 0, STACK
        LOCFRAME XSTACK, 11, STACK
        LOCFRAME IOVERLAY, 0, STATIC
        LOCFRAME DOVERLAY, 0, STATIC
        ARGFRAME ISTACK, 0, STACK
        ARGFRAME PSTACK, 0, STACK
        ARGFRAME XSTACK, 11, STACK
        ARGFRAME IOVERLAY, 0, STATIC
        ARGFRAME DOVERLAY, 0, STATIC
        MOV     A,#-0x9
        LCALL   ?BANKED_ENTER_XDATA
        CFI DPH0 load(1, XDATA, add(CFA_XSP16, literal(-1)))
        CFI DPL0 load(1, XDATA, add(CFA_XSP16, literal(-2)))
        CFI ?BRET_EXT load(1, XDATA, add(CFA_XSP16, literal(-3)))
        CFI ?RET_HIGH load(1, XDATA, add(CFA_XSP16, literal(-4)))
        CFI ?RET_LOW load(1, XDATA, add(CFA_XSP16, literal(-5)))
        CFI R7 load(1, XDATA, add(CFA_XSP16, literal(-6)))
        CFI V0 load(1, XDATA, add(CFA_XSP16, literal(-7)))
        CFI VB load(1, XDATA, add(CFA_XSP16, literal(-8)))
        CFI R6 load(1, XDATA, add(CFA_XSP16, literal(-9)))
        CFI CFA_SP SP+0
        CFI CFA_XSP16 add(XSP16, 9)
        ; Saved register size: 9
        ; Auto size: 2
        MOV     A,#-0x2
        LCALL   ?ALLOC_XSTACK8
        CFI CFA_XSP16 add(XSP16, 11)
        MOV     A,R4
        MOV     R6,A
        MOV     A,R5
        MOV     R7,A
// 3448   ZStatus_t        status;
// 3449   ZDSecMgrEntry_t* entry;
// 3450 
// 3451 
// 3452   // lookup entry index for specified NWK address
// 3453   status = ZDSecMgrEntryLookupExt( extAddr, &entry );
        ; Setup parameters for call to function ZDSecMgrEntryLookupExt
        MOV     DPL,?XSP + 0
        MOV     DPH,?XSP + 1
        MOV     R4,DPL
        MOV     R5,DPH
        LCALL   ??ZDSecMgrEntryLookupExt?relay
        MOV     A,R1
// 3454 
// 3455   if ( status == ZSuccess )
        JNZ     ??APSME_LinkKeyDataGet_0
// 3456   {
// 3457     // setup the link key data reference
// 3458     (*data) = &entry->lkd.apsmelkd;
        MOV     DPL,?XSP + 0
        MOV     DPH,?XSP + 1
        MOVX    A,@DPTR
        ADD     A,#0x12
        MOV     R2,A
        INC     DPTR
        MOVX    A,@DPTR
        ADDC    A,#0x0
        LCALL   ?Subroutine24 & 0xFFFF
// 3459     (*data)->key = entry->lkd.key;
??CrossCallReturnLabel_135:
        MOV     DPL,?XSP + 0
        MOV     DPH,?XSP + 1
        LCALL   ?Subroutine53 & 0xFFFF
// 3460   }
??CrossCallReturnLabel_68:
        MOV     DPL,R6
        MOV     DPH,R7
        LCALL   ?Subroutine42 & 0xFFFF
??CrossCallReturnLabel_49:
        MOV     A,R2
        MOVX    @DPTR,A
        INC     DPTR
        MOV     A,R3
        SJMP    ??APSME_LinkKeyDataGet_1
// 3461   else
// 3462   {
// 3463     *data = NULL;
??APSME_LinkKeyDataGet_0:
        MOV     DPL,R6
        MOV     DPH,R7
        CLR     A
        MOVX    @DPTR,A
        INC     DPTR
??APSME_LinkKeyDataGet_1:
        MOVX    @DPTR,A
// 3464   }
// 3465 
// 3466   return status;
        LJMP    ??Subroutine102_0 & 0xFFFF
        CFI EndBlock cfiBlock654
// 3467 }

        RSEG BANKED_CODE:CODE:NOROOT(0)
?Subroutine53:
        CFI Block cfiCond655 Using cfiCommon0
        CFI NoFunction
        CFI Conditional ??CrossCallReturnLabel_67
        CFI R6 load(1, XDATA, add(CFA_XSP16, literal(-11)))
        CFI VB load(1, XDATA, add(CFA_XSP16, literal(-10)))
        CFI V0 load(1, XDATA, add(CFA_XSP16, literal(-9)))
        CFI V1 load(1, XDATA, add(CFA_XSP16, literal(-8)))
        CFI V2 load(1, XDATA, add(CFA_XSP16, literal(-7)))
        CFI R7 load(1, XDATA, add(CFA_XSP16, literal(-6)))
        CFI ?RET_LOW load(1, XDATA, add(CFA_XSP16, literal(-5)))
        CFI ?RET_HIGH load(1, XDATA, add(CFA_XSP16, literal(-4)))
        CFI ?BRET_EXT load(1, XDATA, add(CFA_XSP16, literal(-3)))
        CFI DPL0 load(1, XDATA, add(CFA_XSP16, literal(-2)))
        CFI DPH0 load(1, XDATA, add(CFA_XSP16, literal(-1)))
        CFI CFA_SP SP+0
        CFI CFA_XSP16 add(XSP16, 16)
        CFI Block cfiCond656 Using cfiCommon0
        CFI (cfiCond656) NoFunction
        CFI (cfiCond656) Conditional ??CrossCallReturnLabel_68
        CFI (cfiCond656) R6 load(1, XDATA, add(CFA_XSP16, literal(-9)))
        CFI (cfiCond656) VB load(1, XDATA, add(CFA_XSP16, literal(-8)))
        CFI (cfiCond656) V0 load(1, XDATA, add(CFA_XSP16, literal(-7)))
        CFI (cfiCond656) R7 load(1, XDATA, add(CFA_XSP16, literal(-6)))
        CFI (cfiCond656) ?RET_LOW load(1, XDATA, add(CFA_XSP16, literal(-5)))
        CFI (cfiCond656) ?RET_HIGH load(1, XDATA, add(CFA_XSP16, literal(-4)))
        CFI (cfiCond656) ?BRET_EXT load(1, XDATA, add(CFA_XSP16, literal(-3)))
        CFI (cfiCond656) DPL0 load(1, XDATA, add(CFA_XSP16, literal(-2)))
        CFI (cfiCond656) DPH0 load(1, XDATA, add(CFA_XSP16, literal(-1)))
        CFI (cfiCond656) CFA_SP SP+0
        CFI (cfiCond656) CFA_XSP16 add(XSP16, 11)
        CFI Block cfiPicker657 Using cfiCommon1
        CFI (cfiPicker657) NoFunction
        CFI (cfiPicker657) Picker
        MOVX    A,@DPTR
        ADD     A,#0x2
        MOV     R2,A
        INC     DPTR
        MOVX    A,@DPTR
        ADDC    A,#0x0
        MOV     R3,A
        RET
        CFI EndBlock cfiCond655
        CFI EndBlock cfiCond656
        CFI EndBlock cfiPicker657

        RSEG BANKED_CODE:CODE:NOROOT(0)
?Subroutine42:
        CFI Block cfiCond658 Using cfiCommon0
        CFI NoFunction
        CFI Conditional ??CrossCallReturnLabel_47
        CFI R6 load(1, XDATA, add(CFA_XSP16, literal(-12)))
        CFI VB load(1, XDATA, add(CFA_XSP16, literal(-11)))
        CFI V0 load(1, XDATA, add(CFA_XSP16, literal(-10)))
        CFI V1 load(1, XDATA, add(CFA_XSP16, literal(-9)))
        CFI V2 load(1, XDATA, add(CFA_XSP16, literal(-8)))
        CFI V3 load(1, XDATA, add(CFA_XSP16, literal(-7)))
        CFI R7 load(1, XDATA, add(CFA_XSP16, literal(-6)))
        CFI ?RET_LOW load(1, XDATA, add(CFA_XSP16, literal(-5)))
        CFI ?RET_HIGH load(1, XDATA, add(CFA_XSP16, literal(-4)))
        CFI ?BRET_EXT load(1, XDATA, add(CFA_XSP16, literal(-3)))
        CFI DPL0 load(1, XDATA, add(CFA_XSP16, literal(-2)))
        CFI DPH0 load(1, XDATA, add(CFA_XSP16, literal(-1)))
        CFI CFA_SP SP+0
        CFI CFA_XSP16 add(XSP16, 14)
        CFI Block cfiCond659 Using cfiCommon0
        CFI (cfiCond659) NoFunction
        CFI (cfiCond659) Conditional ??CrossCallReturnLabel_48
        CFI (cfiCond659) R6 load(1, XDATA, add(CFA_XSP16, literal(-12)))
        CFI (cfiCond659) VB load(1, XDATA, add(CFA_XSP16, literal(-11)))
        CFI (cfiCond659) V0 load(1, XDATA, add(CFA_XSP16, literal(-10)))
        CFI (cfiCond659) V1 load(1, XDATA, add(CFA_XSP16, literal(-9)))
        CFI (cfiCond659) V2 load(1, XDATA, add(CFA_XSP16, literal(-8)))
        CFI (cfiCond659) V3 load(1, XDATA, add(CFA_XSP16, literal(-7)))
        CFI (cfiCond659) R7 load(1, XDATA, add(CFA_XSP16, literal(-6)))
        CFI (cfiCond659) ?RET_LOW load(1, XDATA, add(CFA_XSP16, literal(-5)))
        CFI (cfiCond659) ?RET_HIGH load(1, XDATA, add(CFA_XSP16, literal(-4)))
        CFI (cfiCond659) ?BRET_EXT load(1, XDATA, add(CFA_XSP16, literal(-3)))
        CFI (cfiCond659) DPL0 load(1, XDATA, add(CFA_XSP16, literal(-2)))
        CFI (cfiCond659) DPH0 load(1, XDATA, add(CFA_XSP16, literal(-1)))
        CFI (cfiCond659) CFA_SP SP+0
        CFI (cfiCond659) CFA_XSP16 add(XSP16, 14)
        CFI Block cfiCond660 Using cfiCommon0
        CFI (cfiCond660) NoFunction
        CFI (cfiCond660) Conditional ??CrossCallReturnLabel_49
        CFI (cfiCond660) R6 load(1, XDATA, add(CFA_XSP16, literal(-9)))
        CFI (cfiCond660) VB load(1, XDATA, add(CFA_XSP16, literal(-8)))
        CFI (cfiCond660) V0 load(1, XDATA, add(CFA_XSP16, literal(-7)))
        CFI (cfiCond660) R7 load(1, XDATA, add(CFA_XSP16, literal(-6)))
        CFI (cfiCond660) ?RET_LOW load(1, XDATA, add(CFA_XSP16, literal(-5)))
        CFI (cfiCond660) ?RET_HIGH load(1, XDATA, add(CFA_XSP16, literal(-4)))
        CFI (cfiCond660) ?BRET_EXT load(1, XDATA, add(CFA_XSP16, literal(-3)))
        CFI (cfiCond660) DPL0 load(1, XDATA, add(CFA_XSP16, literal(-2)))
        CFI (cfiCond660) DPH0 load(1, XDATA, add(CFA_XSP16, literal(-1)))
        CFI (cfiCond660) CFA_SP SP+0
        CFI (cfiCond660) CFA_XSP16 add(XSP16, 11)
        CFI Block cfiPicker661 Using cfiCommon1
        CFI (cfiPicker661) NoFunction
        CFI (cfiPicker661) Picker
        LCALL   ?Subroutine64 & 0xFFFF
??CrossCallReturnLabel_141:
        RET
        CFI EndBlock cfiCond658
        CFI EndBlock cfiCond659
        CFI EndBlock cfiCond660
        CFI EndBlock cfiPicker661

        RSEG BANKED_CODE:CODE:NOROOT(0)
?Subroutine64:
        CFI Block cfiCond662 Using cfiCommon0
        CFI NoFunction
        CFI Conditional ??CrossCallReturnLabel_142, ??CrossCallReturnLabel_137
        CFI R6 load(1, XDATA, add(CFA_XSP16, literal(-9)))
        CFI VB load(1, XDATA, add(CFA_XSP16, literal(-8)))
        CFI V0 load(1, XDATA, add(CFA_XSP16, literal(-7)))
        CFI R7 load(1, XDATA, add(CFA_XSP16, literal(-6)))
        CFI ?RET_LOW load(1, XDATA, add(CFA_XSP16, literal(-5)))
        CFI ?RET_HIGH load(1, XDATA, add(CFA_XSP16, literal(-4)))
        CFI ?BRET_EXT load(1, XDATA, add(CFA_XSP16, literal(-3)))
        CFI DPL0 load(1, XDATA, add(CFA_XSP16, literal(-2)))
        CFI DPH0 load(1, XDATA, add(CFA_XSP16, literal(-1)))
        CFI CFA_SP SP+0
        CFI CFA_XSP16 add(XSP16, 9)
        CFI Block cfiCond663 Using cfiCommon0
        CFI (cfiCond663) NoFunction
        CFI (cfiCond663) Conditional ??CrossCallReturnLabel_142, ??CrossCallReturnLabel_138
        CFI (cfiCond663) R6 load(1, XDATA, add(CFA_XSP16, literal(-9)))
        CFI (cfiCond663) VB load(1, XDATA, add(CFA_XSP16, literal(-8)))
        CFI (cfiCond663) V0 load(1, XDATA, add(CFA_XSP16, literal(-7)))
        CFI (cfiCond663) R7 load(1, XDATA, add(CFA_XSP16, literal(-6)))
        CFI (cfiCond663) ?RET_LOW load(1, XDATA, add(CFA_XSP16, literal(-5)))
        CFI (cfiCond663) ?RET_HIGH load(1, XDATA, add(CFA_XSP16, literal(-4)))
        CFI (cfiCond663) ?BRET_EXT load(1, XDATA, add(CFA_XSP16, literal(-3)))
        CFI (cfiCond663) DPL0 load(1, XDATA, add(CFA_XSP16, literal(-2)))
        CFI (cfiCond663) DPH0 load(1, XDATA, add(CFA_XSP16, literal(-1)))
        CFI (cfiCond663) CFA_SP SP+0
        CFI (cfiCond663) CFA_XSP16 add(XSP16, 9)
        CFI Block cfiCond664 Using cfiCommon0
        CFI (cfiCond664) NoFunction
        CFI (cfiCond664) Conditional ??CrossCallReturnLabel_142, ??CrossCallReturnLabel_139
        CFI (cfiCond664) R6 load(1, XDATA, add(CFA_XSP16, literal(-9)))
        CFI (cfiCond664) VB load(1, XDATA, add(CFA_XSP16, literal(-8)))
        CFI (cfiCond664) V0 load(1, XDATA, add(CFA_XSP16, literal(-7)))
        CFI (cfiCond664) R7 load(1, XDATA, add(CFA_XSP16, literal(-6)))
        CFI (cfiCond664) ?RET_LOW load(1, XDATA, add(CFA_XSP16, literal(-5)))
        CFI (cfiCond664) ?RET_HIGH load(1, XDATA, add(CFA_XSP16, literal(-4)))
        CFI (cfiCond664) ?BRET_EXT load(1, XDATA, add(CFA_XSP16, literal(-3)))
        CFI (cfiCond664) DPL0 load(1, XDATA, add(CFA_XSP16, literal(-2)))
        CFI (cfiCond664) DPH0 load(1, XDATA, add(CFA_XSP16, literal(-1)))
        CFI (cfiCond664) CFA_SP SP+0
        CFI (cfiCond664) CFA_XSP16 add(XSP16, 9)
        CFI Block cfiCond665 Using cfiCommon0
        CFI (cfiCond665) NoFunction
        CFI (cfiCond665) Conditional ??CrossCallReturnLabel_142, ??CrossCallReturnLabel_136
        CFI (cfiCond665) R6 load(1, XDATA, add(CFA_XSP16, literal(-9)))
        CFI (cfiCond665) VB load(1, XDATA, add(CFA_XSP16, literal(-8)))
        CFI (cfiCond665) V0 load(1, XDATA, add(CFA_XSP16, literal(-7)))
        CFI (cfiCond665) R7 load(1, XDATA, add(CFA_XSP16, literal(-6)))
        CFI (cfiCond665) ?RET_LOW load(1, XDATA, add(CFA_XSP16, literal(-5)))
        CFI (cfiCond665) ?RET_HIGH load(1, XDATA, add(CFA_XSP16, literal(-4)))
        CFI (cfiCond665) ?BRET_EXT load(1, XDATA, add(CFA_XSP16, literal(-3)))
        CFI (cfiCond665) DPL0 load(1, XDATA, add(CFA_XSP16, literal(-2)))
        CFI (cfiCond665) DPH0 load(1, XDATA, add(CFA_XSP16, literal(-1)))
        CFI (cfiCond665) CFA_SP SP+0
        CFI (cfiCond665) CFA_XSP16 add(XSP16, 13)
        CFI Block cfiCond666 Using cfiCommon0
        CFI (cfiCond666) NoFunction
        CFI (cfiCond666) Conditional ??CrossCallReturnLabel_140, ??CrossCallReturnLabel_45
        CFI (cfiCond666) R6 load(1, XDATA, add(CFA_XSP16, literal(-10)))
        CFI (cfiCond666) VB load(1, XDATA, add(CFA_XSP16, literal(-9)))
        CFI (cfiCond666) V0 load(1, XDATA, add(CFA_XSP16, literal(-8)))
        CFI (cfiCond666) V1 load(1, XDATA, add(CFA_XSP16, literal(-7)))
        CFI (cfiCond666) R7 load(1, XDATA, add(CFA_XSP16, literal(-6)))
        CFI (cfiCond666) ?RET_LOW load(1, XDATA, add(CFA_XSP16, literal(-5)))
        CFI (cfiCond666) ?RET_HIGH load(1, XDATA, add(CFA_XSP16, literal(-4)))
        CFI (cfiCond666) ?BRET_EXT load(1, XDATA, add(CFA_XSP16, literal(-3)))
        CFI (cfiCond666) DPL0 load(1, XDATA, add(CFA_XSP16, literal(-2)))
        CFI (cfiCond666) DPH0 load(1, XDATA, add(CFA_XSP16, literal(-1)))
        CFI (cfiCond666) CFA_SP SP+0
        CFI (cfiCond666) CFA_XSP16 add(XSP16, 23)
        CFI Block cfiCond667 Using cfiCommon0
        CFI (cfiCond667) NoFunction
        CFI (cfiCond667) Conditional ??CrossCallReturnLabel_140, ??CrossCallReturnLabel_46
        CFI (cfiCond667) R6 load(1, XDATA, add(CFA_XSP16, literal(-10)))
        CFI (cfiCond667) VB load(1, XDATA, add(CFA_XSP16, literal(-9)))
        CFI (cfiCond667) V0 load(1, XDATA, add(CFA_XSP16, literal(-8)))
        CFI (cfiCond667) V1 load(1, XDATA, add(CFA_XSP16, literal(-7)))
        CFI (cfiCond667) R7 load(1, XDATA, add(CFA_XSP16, literal(-6)))
        CFI (cfiCond667) ?RET_LOW load(1, XDATA, add(CFA_XSP16, literal(-5)))
        CFI (cfiCond667) ?RET_HIGH load(1, XDATA, add(CFA_XSP16, literal(-4)))
        CFI (cfiCond667) ?BRET_EXT load(1, XDATA, add(CFA_XSP16, literal(-3)))
        CFI (cfiCond667) DPL0 load(1, XDATA, add(CFA_XSP16, literal(-2)))
        CFI (cfiCond667) DPH0 load(1, XDATA, add(CFA_XSP16, literal(-1)))
        CFI (cfiCond667) CFA_SP SP+0
        CFI (cfiCond667) CFA_XSP16 add(XSP16, 33)
        CFI Block cfiCond668 Using cfiCommon0
        CFI (cfiCond668) NoFunction
        CFI (cfiCond668) Conditional ??CrossCallReturnLabel_141, ??CrossCallReturnLabel_47
        CFI (cfiCond668) R6 load(1, XDATA, add(CFA_XSP16, literal(-12)))
        CFI (cfiCond668) VB load(1, XDATA, add(CFA_XSP16, literal(-11)))
        CFI (cfiCond668) V0 load(1, XDATA, add(CFA_XSP16, literal(-10)))
        CFI (cfiCond668) V1 load(1, XDATA, add(CFA_XSP16, literal(-9)))
        CFI (cfiCond668) V2 load(1, XDATA, add(CFA_XSP16, literal(-8)))
        CFI (cfiCond668) V3 load(1, XDATA, add(CFA_XSP16, literal(-7)))
        CFI (cfiCond668) R7 load(1, XDATA, add(CFA_XSP16, literal(-6)))
        CFI (cfiCond668) ?RET_LOW load(1, XDATA, add(CFA_XSP16, literal(-5)))
        CFI (cfiCond668) ?RET_HIGH load(1, XDATA, add(CFA_XSP16, literal(-4)))
        CFI (cfiCond668) ?BRET_EXT load(1, XDATA, add(CFA_XSP16, literal(-3)))
        CFI (cfiCond668) DPL0 load(1, XDATA, add(CFA_XSP16, literal(-2)))
        CFI (cfiCond668) DPH0 load(1, XDATA, add(CFA_XSP16, literal(-1)))
        CFI (cfiCond668) CFA_SP SP+0
        CFI (cfiCond668) CFA_XSP16 add(XSP16, 14)
        CFI Block cfiCond669 Using cfiCommon0
        CFI (cfiCond669) NoFunction
        CFI (cfiCond669) Conditional ??CrossCallReturnLabel_141, ??CrossCallReturnLabel_48
        CFI (cfiCond669) R6 load(1, XDATA, add(CFA_XSP16, literal(-12)))
        CFI (cfiCond669) VB load(1, XDATA, add(CFA_XSP16, literal(-11)))
        CFI (cfiCond669) V0 load(1, XDATA, add(CFA_XSP16, literal(-10)))
        CFI (cfiCond669) V1 load(1, XDATA, add(CFA_XSP16, literal(-9)))
        CFI (cfiCond669) V2 load(1, XDATA, add(CFA_XSP16, literal(-8)))
        CFI (cfiCond669) V3 load(1, XDATA, add(CFA_XSP16, literal(-7)))
        CFI (cfiCond669) R7 load(1, XDATA, add(CFA_XSP16, literal(-6)))
        CFI (cfiCond669) ?RET_LOW load(1, XDATA, add(CFA_XSP16, literal(-5)))
        CFI (cfiCond669) ?RET_HIGH load(1, XDATA, add(CFA_XSP16, literal(-4)))
        CFI (cfiCond669) ?BRET_EXT load(1, XDATA, add(CFA_XSP16, literal(-3)))
        CFI (cfiCond669) DPL0 load(1, XDATA, add(CFA_XSP16, literal(-2)))
        CFI (cfiCond669) DPH0 load(1, XDATA, add(CFA_XSP16, literal(-1)))
        CFI (cfiCond669) CFA_SP SP+0
        CFI (cfiCond669) CFA_XSP16 add(XSP16, 14)
        CFI Block cfiCond670 Using cfiCommon0
        CFI (cfiCond670) NoFunction
        CFI (cfiCond670) Conditional ??CrossCallReturnLabel_141, ??CrossCallReturnLabel_49
        CFI (cfiCond670) R6 load(1, XDATA, add(CFA_XSP16, literal(-9)))
        CFI (cfiCond670) VB load(1, XDATA, add(CFA_XSP16, literal(-8)))
        CFI (cfiCond670) V0 load(1, XDATA, add(CFA_XSP16, literal(-7)))
        CFI (cfiCond670) R7 load(1, XDATA, add(CFA_XSP16, literal(-6)))
        CFI (cfiCond670) ?RET_LOW load(1, XDATA, add(CFA_XSP16, literal(-5)))
        CFI (cfiCond670) ?RET_HIGH load(1, XDATA, add(CFA_XSP16, literal(-4)))
        CFI (cfiCond670) ?BRET_EXT load(1, XDATA, add(CFA_XSP16, literal(-3)))
        CFI (cfiCond670) DPL0 load(1, XDATA, add(CFA_XSP16, literal(-2)))
        CFI (cfiCond670) DPH0 load(1, XDATA, add(CFA_XSP16, literal(-1)))
        CFI (cfiCond670) CFA_SP SP+0
        CFI (cfiCond670) CFA_XSP16 add(XSP16, 11)
        CFI Block cfiPicker671 Using cfiCommon1
        CFI (cfiPicker671) NoFunction
        CFI (cfiPicker671) Picker
        LCALL   ?Subroutine79 & 0xFFFF
??CrossCallReturnLabel_251:
        MOV     DPH,A
        MOV     DPL,R0
        RET
        CFI EndBlock cfiCond662
        CFI EndBlock cfiCond663
        CFI EndBlock cfiCond664
        CFI EndBlock cfiCond665
        CFI EndBlock cfiCond666
        CFI EndBlock cfiCond667
        CFI EndBlock cfiCond668
        CFI EndBlock cfiCond669
        CFI EndBlock cfiCond670
        CFI EndBlock cfiPicker671
// 3468 
// 3469 /******************************************************************************
// 3470  * @fn          ZDSecMgrKeyFwdToChild (stubs APSME_KeyFwdToChild)
// 3471  *
// 3472  * @brief       Verify and process key transportation to child.
// 3473  *
// 3474  * @param       ind - [in] APSME_TransportKeyInd_t
// 3475  *
// 3476  * @return      uint8 - success(TRUE:FALSE)
// 3477  */

        RSEG BANKED_CODE:CODE:NOROOT(0)
// 3478 uint8 ZDSecMgrKeyFwdToChild( APSME_TransportKeyInd_t* ind )
APSME_KeyFwdToChild:
        CFI Block cfiBlock672 Using cfiCommon0
        CFI Function APSME_KeyFwdToChild
        CODE
// 3479 {
        FUNCALL APSME_KeyFwdToChild, AssocGetWithExt
        LOCFRAME ISTACK, 0, STACK
        LOCFRAME PSTACK, 0, STACK
        LOCFRAME XSTACK, 9, STACK
        LOCFRAME IOVERLAY, 0, STATIC
        LOCFRAME DOVERLAY, 0, STATIC
        ARGFRAME ISTACK, 0, STACK
        ARGFRAME PSTACK, 0, STACK
        ARGFRAME XSTACK, 9, STACK
        ARGFRAME IOVERLAY, 0, STATIC
        ARGFRAME DOVERLAY, 0, STATIC
        FUNCALL APSME_KeyFwdToChild, ZDSecMgrAssocDeviceAuth
        LOCFRAME ISTACK, 0, STACK
        LOCFRAME PSTACK, 0, STACK
        LOCFRAME XSTACK, 9, STACK
        LOCFRAME IOVERLAY, 0, STATIC
        LOCFRAME DOVERLAY, 0, STATIC
        ARGFRAME ISTACK, 0, STACK
        ARGFRAME PSTACK, 0, STACK
        ARGFRAME XSTACK, 9, STACK
        ARGFRAME IOVERLAY, 0, STATIC
        ARGFRAME DOVERLAY, 0, STATIC
        MOV     A,#-0x9
        LCALL   ?BANKED_ENTER_XDATA
        CFI DPH0 load(1, XDATA, add(CFA_XSP16, literal(-1)))
        CFI DPL0 load(1, XDATA, add(CFA_XSP16, literal(-2)))
        CFI ?BRET_EXT load(1, XDATA, add(CFA_XSP16, literal(-3)))
        CFI ?RET_HIGH load(1, XDATA, add(CFA_XSP16, literal(-4)))
        CFI ?RET_LOW load(1, XDATA, add(CFA_XSP16, literal(-5)))
        CFI R7 load(1, XDATA, add(CFA_XSP16, literal(-6)))
        CFI V0 load(1, XDATA, add(CFA_XSP16, literal(-7)))
        CFI VB load(1, XDATA, add(CFA_XSP16, literal(-8)))
        CFI R6 load(1, XDATA, add(CFA_XSP16, literal(-9)))
        CFI CFA_SP SP+0
        CFI CFA_XSP16 add(XSP16, 9)
        ; Saved register size: 9
        ; Auto size: 0
// 3480   uint8 success;
// 3481 
// 3482   success = FALSE;
        MOV     R6,#0x0
// 3483 
// 3484   // verify from Trust Center
// 3485   if ( ind->srcAddr == APSME_TRUSTCENTER_NWKADDR )
        MOV     DPL,R2
        MOV     DPH,R3
        LCALL   ??Subroutine97_0 & 0xFFFF
??CrossCallReturnLabel_209:
        JNZ     ??APSME_KeyFwdToChild_0
// 3486   {
// 3487     success = TRUE;
        INC     R6
// 3488 
// 3489     // check for initial NWK key
// 3490     if ( ( ind->keyType == KEY_TYPE_NWK      ) ||
// 3491          ( ind->keyType == 6                 ) ||
// 3492          ( ind->keyType == KEY_TYPE_NWK_HIGH )    )
        MOV     DPL,R2
        MOV     DPH,R3
        INC     DPTR
        INC     DPTR
        MOVX    A,@DPTR
        MOV     R0,A
        MOV     A,R6
        XRL     A,R0
        JZ      ??APSME_KeyFwdToChild_1
        MOV     A,#0x6
        XRL     A,R0
        JZ      ??APSME_KeyFwdToChild_1
        MOV     A,#0x5
        XRL     A,R0
        JNZ     ??APSME_KeyFwdToChild_0
// 3493     {
// 3494       // set association status to authenticated
// 3495       ZDSecMgrAssocDeviceAuth( AssocGetWithExt( ind->dstExtAddr ) );
??APSME_KeyFwdToChild_1:
        ; Setup parameters for call to function ZDSecMgrAssocDeviceAuth
        ; Setup parameters for call to function AssocGetWithExt
        MOV     DPL,R2
        MOV     DPH,R3
        INC     DPTR
        INC     DPTR
        INC     DPTR
        INC     DPTR
        INC     DPTR
        INC     DPTR
        LCALL   ?Subroutine51 & 0xFFFF
// 3496     }
// 3497   }
??CrossCallReturnLabel_66:
        LCALL   ??ZDSecMgrAssocDeviceAuth?relay
// 3498 
// 3499   return success;
??APSME_KeyFwdToChild_0:
        MOV     A,R6
        MOV     R1,A
        LJMP    ??Subroutine104_0 & 0xFFFF
        CFI EndBlock cfiBlock672
// 3500 }

        RSEG BANKED_CODE:CODE:NOROOT(0)
?Subroutine51:
        CFI Block cfiCond673 Using cfiCommon0
        CFI NoFunction
        CFI Conditional ??CrossCallReturnLabel_65
        CFI R6 load(1, XDATA, add(CFA_XSP16, literal(-10)))
        CFI VB load(1, XDATA, add(CFA_XSP16, literal(-9)))
        CFI V0 load(1, XDATA, add(CFA_XSP16, literal(-8)))
        CFI V1 load(1, XDATA, add(CFA_XSP16, literal(-7)))
        CFI R7 load(1, XDATA, add(CFA_XSP16, literal(-6)))
        CFI ?RET_LOW load(1, XDATA, add(CFA_XSP16, literal(-5)))
        CFI ?RET_HIGH load(1, XDATA, add(CFA_XSP16, literal(-4)))
        CFI ?BRET_EXT load(1, XDATA, add(CFA_XSP16, literal(-3)))
        CFI DPL0 load(1, XDATA, add(CFA_XSP16, literal(-2)))
        CFI DPH0 load(1, XDATA, add(CFA_XSP16, literal(-1)))
        CFI CFA_SP SP+0
        CFI CFA_XSP16 add(XSP16, 19)
        CFI Block cfiCond674 Using cfiCommon0
        CFI (cfiCond674) NoFunction
        CFI (cfiCond674) Conditional ??CrossCallReturnLabel_66
        CFI (cfiCond674) R6 load(1, XDATA, add(CFA_XSP16, literal(-9)))
        CFI (cfiCond674) VB load(1, XDATA, add(CFA_XSP16, literal(-8)))
        CFI (cfiCond674) V0 load(1, XDATA, add(CFA_XSP16, literal(-7)))
        CFI (cfiCond674) R7 load(1, XDATA, add(CFA_XSP16, literal(-6)))
        CFI (cfiCond674) ?RET_LOW load(1, XDATA, add(CFA_XSP16, literal(-5)))
        CFI (cfiCond674) ?RET_HIGH load(1, XDATA, add(CFA_XSP16, literal(-4)))
        CFI (cfiCond674) ?BRET_EXT load(1, XDATA, add(CFA_XSP16, literal(-3)))
        CFI (cfiCond674) DPL0 load(1, XDATA, add(CFA_XSP16, literal(-2)))
        CFI (cfiCond674) DPH0 load(1, XDATA, add(CFA_XSP16, literal(-1)))
        CFI (cfiCond674) CFA_SP SP+0
        CFI (cfiCond674) CFA_XSP16 add(XSP16, 9)
        CFI Block cfiPicker675 Using cfiCommon1
        CFI (cfiPicker675) NoFunction
        CFI (cfiPicker675) Picker
        LCALL   ?Subroutine71 & 0xFFFF
??CrossCallReturnLabel_159:
        LCALL   ??AssocGetWithExt?relay
        RET
        CFI EndBlock cfiCond673
        CFI EndBlock cfiCond674
        CFI EndBlock cfiPicker675
// 3501 
// 3502 /******************************************************************************
// 3503  * @fn          ZDSecMgrAddLinkKey
// 3504  *
// 3505  * @brief       Add the application link key to ZDSecMgr. Also mark the device
// 3506  *              as authenticated in the authenticateOption. Note that this function
// 3507  *              is hardwared to CBKE right now.
// 3508  *
// 3509  * @param       shortAddr - short address of the partner device
// 3510  * @param       extAddr - extended address of the partner device
// 3511  * @param       key - link key
// 3512  *
// 3513  * @return      none
// 3514  */

        RSEG BANKED_CODE:CODE:NOROOT(0)
// 3515 void ZDSecMgrAddLinkKey( uint16 shortAddr, uint8 *extAddr, uint8 *key)
ZDSecMgrAddLinkKey:
        CFI Block cfiBlock676 Using cfiCommon0
        CFI Function ZDSecMgrAddLinkKey
        CODE
// 3516 {
        FUNCALL ZDSecMgrAddLinkKey, ZDSecMgrAddrStore
        LOCFRAME ISTACK, 0, STACK
        LOCFRAME PSTACK, 0, STACK
        LOCFRAME XSTACK, 18, STACK
        LOCFRAME IOVERLAY, 0, STATIC
        LOCFRAME DOVERLAY, 0, STATIC
        ARGFRAME ISTACK, 0, STACK
        ARGFRAME PSTACK, 0, STACK
        ARGFRAME XSTACK, 18, STACK
        ARGFRAME IOVERLAY, 0, STATIC
        ARGFRAME DOVERLAY, 0, STATIC
        FUNCALL ZDSecMgrAddLinkKey, ZDSecMgrEntryLookupAMI
        LOCFRAME ISTACK, 0, STACK
        LOCFRAME PSTACK, 0, STACK
        LOCFRAME XSTACK, 16, STACK
        LOCFRAME IOVERLAY, 0, STATIC
        LOCFRAME DOVERLAY, 0, STATIC
        ARGFRAME ISTACK, 0, STACK
        ARGFRAME PSTACK, 0, STACK
        ARGFRAME XSTACK, 16, STACK
        ARGFRAME IOVERLAY, 0, STATIC
        ARGFRAME DOVERLAY, 0, STATIC
        FUNCALL ZDSecMgrAddLinkKey, ZDSecMgrEntryNew
        LOCFRAME ISTACK, 0, STACK
        LOCFRAME PSTACK, 0, STACK
        LOCFRAME XSTACK, 16, STACK
        LOCFRAME IOVERLAY, 0, STATIC
        LOCFRAME DOVERLAY, 0, STATIC
        ARGFRAME ISTACK, 0, STACK
        ARGFRAME PSTACK, 0, STACK
        ARGFRAME XSTACK, 16, STACK
        ARGFRAME IOVERLAY, 0, STATIC
        ARGFRAME DOVERLAY, 0, STATIC
        FUNCALL ZDSecMgrAddLinkKey, APSME_LinkKeySet
        LOCFRAME ISTACK, 0, STACK
        LOCFRAME PSTACK, 0, STACK
        LOCFRAME XSTACK, 16, STACK
        LOCFRAME IOVERLAY, 0, STATIC
        LOCFRAME DOVERLAY, 0, STATIC
        ARGFRAME ISTACK, 0, STACK
        ARGFRAME PSTACK, 0, STACK
        ARGFRAME XSTACK, 16, STACK
        ARGFRAME IOVERLAY, 0, STATIC
        ARGFRAME DOVERLAY, 0, STATIC
        FUNCALL ZDSecMgrAddLinkKey, ZDSecMgrWriteNV
        LOCFRAME ISTACK, 0, STACK
        LOCFRAME PSTACK, 0, STACK
        LOCFRAME XSTACK, 16, STACK
        LOCFRAME IOVERLAY, 0, STATIC
        LOCFRAME DOVERLAY, 0, STATIC
        ARGFRAME ISTACK, 0, STACK
        ARGFRAME PSTACK, 0, STACK
        ARGFRAME XSTACK, 16, STACK
        ARGFRAME IOVERLAY, 0, STATIC
        ARGFRAME DOVERLAY, 0, STATIC
        MOV     A,#-0xc
        LCALL   ?BANKED_ENTER_XDATA
        CFI DPH0 load(1, XDATA, add(CFA_XSP16, literal(-1)))
        CFI DPL0 load(1, XDATA, add(CFA_XSP16, literal(-2)))
        CFI ?BRET_EXT load(1, XDATA, add(CFA_XSP16, literal(-3)))
        CFI ?RET_HIGH load(1, XDATA, add(CFA_XSP16, literal(-4)))
        CFI ?RET_LOW load(1, XDATA, add(CFA_XSP16, literal(-5)))
        CFI R7 load(1, XDATA, add(CFA_XSP16, literal(-6)))
        CFI V3 load(1, XDATA, add(CFA_XSP16, literal(-7)))
        CFI V2 load(1, XDATA, add(CFA_XSP16, literal(-8)))
        CFI V1 load(1, XDATA, add(CFA_XSP16, literal(-9)))
        CFI V0 load(1, XDATA, add(CFA_XSP16, literal(-10)))
        CFI VB load(1, XDATA, add(CFA_XSP16, literal(-11)))
        CFI R6 load(1, XDATA, add(CFA_XSP16, literal(-12)))
        CFI CFA_SP SP+0
        CFI CFA_XSP16 add(XSP16, 12)
        ; Saved register size: 12
        ; Auto size: 4
        MOV     A,#-0x4
        LCALL   ?ALLOC_XSTACK8
        CFI CFA_XSP16 add(XSP16, 16)
        MOV     A,R4
        MOV     R6,A
        MOV     A,R5
        MOV     R7,A
        MOV     A,#0x10
        LCALL   ?XSTACK_DISP0_8
        MOVX    A,@DPTR
        MOV     ?V0 + 0,A
        INC     DPTR
        MOVX    A,@DPTR
        MOV     ?V0 + 1,A
// 3517   uint16           ami;
// 3518   ZDSecMgrEntry_t* entry;
// 3519 
// 3520   ZDSecMgrAddrStore( shortAddr, extAddr, &ami );
        ; Setup parameters for call to function ZDSecMgrAddrStore
        MOV     A,#0x2
        LCALL   ?XSTACK_DISP0_8
        MOV     ?V0 + 2,DPL
        MOV     ?V0 + 3,DPH
        MOV     R0,#?V0 + 2
        LCALL   ?PUSH_XSTACK_I_TWO
        CFI CFA_XSP16 add(XSP16, 18)
        LCALL   ??ZDSecMgrAddrStore?relay
        MOV     A,#0x2
        LCALL   ?DEALLOC_XSTACK8
        CFI CFA_XSP16 add(XSP16, 16)
// 3521 
// 3522   ZDSecMgrEntryLookupAMI( ami, &entry );
        ; Setup parameters for call to function ZDSecMgrEntryLookupAMI
        MOV     DPL,?XSP + 0
        MOV     DPH,?XSP + 1
        MOV     R4,DPL
        MOV     R5,DPH
        MOV     A,#0x2
        LCALL   ?XSTACK_DISP0_8
        LCALL   ?Subroutine47 & 0xFFFF
// 3523 
// 3524   // If no existing entry, create one
// 3525   if ( entry == NULL )
??CrossCallReturnLabel_58:
        LCALL   ??Subroutine96_0 & 0xFFFF
??CrossCallReturnLabel_211:
        JNZ     ??CrossCallReturnLabel_178
// 3526   {
// 3527     if ( ZDSecMgrEntryNew( &entry ) == ZSuccess )
        ; Setup parameters for call to function ZDSecMgrEntryNew
        MOV     DPL,?XSP + 0
        MOV     DPH,?XSP + 1
        MOV     R2,DPL
        MOV     R3,DPH
        LCALL   ??ZDSecMgrEntryNew?relay
        MOV     A,R1
        JNZ     ??CrossCallReturnLabel_178
// 3528     {
// 3529       entry->ami = ami;
        MOV     A,#0x2
        LCALL   ?XSTACK_DISP0_8
        LCALL   ?Subroutine44 & 0xFFFF
// 3530     }
// 3531   }
??CrossCallReturnLabel_54:
        MOVX    A,@DPTR
        MOV     R2,A
        INC     DPTR
        MOVX    A,@DPTR
        MOV     DPH,A
        MOV     DPL,R2
        LCALL   ??Subroutine93_0 & 0xFFFF
// 3532   // Write the link key
// 3533   APSME_LinkKeySet( extAddr, key );
??CrossCallReturnLabel_178:
        ; Setup parameters for call to function APSME_LinkKeySet
        MOV     R4,?V0 + 0
        MOV     R5,?V0 + 1
        MOV     A,R6
        MOV     R2,A
        MOV     A,R7
        MOV     R3,A
        LCALL   ??APSME_LinkKeySet?relay
// 3534 
// 3535 #if defined (SE_PROFILE)
// 3536   // Mark the device as authenticated.
// 3537   ZDSecMgrAuthenticationSet( extAddr, ZDSecMgr_Authenticated_CBCK );
// 3538 #endif
// 3539 
// 3540   // Write the new established link key to NV.
// 3541   ZDSecMgrWriteNV();
        ; Setup parameters for call to function ZDSecMgrWriteNV
        LCALL   ??ZDSecMgrWriteNV?relay
// 3542 }
        MOV     A,#0x4
        LJMP    ??Subroutine108_0 & 0xFFFF
        CFI EndBlock cfiBlock676

        RSEG BANKED_CODE:CODE:NOROOT(0)
?Subroutine47:
        CFI Block cfiCond677 Using cfiCommon0
        CFI NoFunction
        CFI Conditional ??CrossCallReturnLabel_57
        CFI R6 load(1, XDATA, add(CFA_XSP16, literal(-9)))
        CFI VB load(1, XDATA, add(CFA_XSP16, literal(-8)))
        CFI V0 load(1, XDATA, add(CFA_XSP16, literal(-7)))
        CFI R7 load(1, XDATA, add(CFA_XSP16, literal(-6)))
        CFI ?RET_LOW load(1, XDATA, add(CFA_XSP16, literal(-5)))
        CFI ?RET_HIGH load(1, XDATA, add(CFA_XSP16, literal(-4)))
        CFI ?BRET_EXT load(1, XDATA, add(CFA_XSP16, literal(-3)))
        CFI DPL0 load(1, XDATA, add(CFA_XSP16, literal(-2)))
        CFI DPH0 load(1, XDATA, add(CFA_XSP16, literal(-1)))
        CFI CFA_SP SP+0
        CFI CFA_XSP16 add(XSP16, 11)
        CFI Block cfiCond678 Using cfiCommon0
        CFI (cfiCond678) NoFunction
        CFI (cfiCond678) Conditional ??CrossCallReturnLabel_58
        CFI (cfiCond678) R6 load(1, XDATA, add(CFA_XSP16, literal(-12)))
        CFI (cfiCond678) VB load(1, XDATA, add(CFA_XSP16, literal(-11)))
        CFI (cfiCond678) V0 load(1, XDATA, add(CFA_XSP16, literal(-10)))
        CFI (cfiCond678) V1 load(1, XDATA, add(CFA_XSP16, literal(-9)))
        CFI (cfiCond678) V2 load(1, XDATA, add(CFA_XSP16, literal(-8)))
        CFI (cfiCond678) V3 load(1, XDATA, add(CFA_XSP16, literal(-7)))
        CFI (cfiCond678) R7 load(1, XDATA, add(CFA_XSP16, literal(-6)))
        CFI (cfiCond678) ?RET_LOW load(1, XDATA, add(CFA_XSP16, literal(-5)))
        CFI (cfiCond678) ?RET_HIGH load(1, XDATA, add(CFA_XSP16, literal(-4)))
        CFI (cfiCond678) ?BRET_EXT load(1, XDATA, add(CFA_XSP16, literal(-3)))
        CFI (cfiCond678) DPL0 load(1, XDATA, add(CFA_XSP16, literal(-2)))
        CFI (cfiCond678) DPH0 load(1, XDATA, add(CFA_XSP16, literal(-1)))
        CFI (cfiCond678) CFA_SP SP+0
        CFI (cfiCond678) CFA_XSP16 add(XSP16, 16)
        CFI Block cfiPicker679 Using cfiCommon1
        CFI (cfiPicker679) NoFunction
        CFI (cfiPicker679) Picker
        LCALL   ?Subroutine71 & 0xFFFF
??CrossCallReturnLabel_157:
        LCALL   ??ZDSecMgrEntryLookupAMI?relay
        RET
        CFI EndBlock cfiCond677
        CFI EndBlock cfiCond678
        CFI EndBlock cfiPicker679

        RSEG BANKED_CODE:CODE:NOROOT(0)
?Subroutine44:
        CFI Block cfiCond680 Using cfiCommon0
        CFI NoFunction
        CFI Conditional ??CrossCallReturnLabel_53
        CFI R6 load(1, XDATA, add(CFA_XSP16, literal(-12)))
        CFI VB load(1, XDATA, add(CFA_XSP16, literal(-11)))
        CFI V0 load(1, XDATA, add(CFA_XSP16, literal(-10)))
        CFI V1 load(1, XDATA, add(CFA_XSP16, literal(-9)))
        CFI V2 load(1, XDATA, add(CFA_XSP16, literal(-8)))
        CFI V3 load(1, XDATA, add(CFA_XSP16, literal(-7)))
        CFI R7 load(1, XDATA, add(CFA_XSP16, literal(-6)))
        CFI ?RET_LOW load(1, XDATA, add(CFA_XSP16, literal(-5)))
        CFI ?RET_HIGH load(1, XDATA, add(CFA_XSP16, literal(-4)))
        CFI ?BRET_EXT load(1, XDATA, add(CFA_XSP16, literal(-3)))
        CFI DPL0 load(1, XDATA, add(CFA_XSP16, literal(-2)))
        CFI DPH0 load(1, XDATA, add(CFA_XSP16, literal(-1)))
        CFI CFA_SP SP+0
        CFI CFA_XSP16 add(XSP16, 25)
        CFI Block cfiCond681 Using cfiCommon0
        CFI (cfiCond681) NoFunction
        CFI (cfiCond681) Conditional ??CrossCallReturnLabel_54
        CFI (cfiCond681) R6 load(1, XDATA, add(CFA_XSP16, literal(-12)))
        CFI (cfiCond681) VB load(1, XDATA, add(CFA_XSP16, literal(-11)))
        CFI (cfiCond681) V0 load(1, XDATA, add(CFA_XSP16, literal(-10)))
        CFI (cfiCond681) V1 load(1, XDATA, add(CFA_XSP16, literal(-9)))
        CFI (cfiCond681) V2 load(1, XDATA, add(CFA_XSP16, literal(-8)))
        CFI (cfiCond681) V3 load(1, XDATA, add(CFA_XSP16, literal(-7)))
        CFI (cfiCond681) R7 load(1, XDATA, add(CFA_XSP16, literal(-6)))
        CFI (cfiCond681) ?RET_LOW load(1, XDATA, add(CFA_XSP16, literal(-5)))
        CFI (cfiCond681) ?RET_HIGH load(1, XDATA, add(CFA_XSP16, literal(-4)))
        CFI (cfiCond681) ?BRET_EXT load(1, XDATA, add(CFA_XSP16, literal(-3)))
        CFI (cfiCond681) DPL0 load(1, XDATA, add(CFA_XSP16, literal(-2)))
        CFI (cfiCond681) DPH0 load(1, XDATA, add(CFA_XSP16, literal(-1)))
        CFI (cfiCond681) CFA_SP SP+0
        CFI (cfiCond681) CFA_XSP16 add(XSP16, 16)
        CFI Block cfiPicker682 Using cfiCommon1
        CFI (cfiPicker682) NoFunction
        CFI (cfiPicker682) Picker
        LCALL   ??Subroutine107_0 & 0xFFFF
??CrossCallReturnLabel_244:
        MOV     DPL,?XSP + 0
        MOV     DPH,?XSP + 1
        RET
        CFI EndBlock cfiCond680
        CFI EndBlock cfiCond681
        CFI EndBlock cfiPicker682
// 3543 
// 3544 /******************************************************************************
// 3545  * @fn          ZDSecMgrInitNV
// 3546  *
// 3547  * @brief       Initialize the SecMgr entry data in NV.
// 3548  *
// 3549  * @param       none
// 3550  *
// 3551  * @return      uint8 - <osal_nv_item_init> return codes
// 3552  */

        RSEG BANKED_CODE:CODE:NOROOT(0)
// 3553 uint8 ZDSecMgrInitNV( void )
ZDSecMgrInitNV:
        CFI Block cfiBlock683 Using cfiCommon0
        CFI Function ZDSecMgrInitNV
        CODE
// 3554 {
        FUNCALL ZDSecMgrInitNV, osal_nv_item_init
        LOCFRAME ISTACK, 0, STACK
        LOCFRAME PSTACK, 0, STACK
        LOCFRAME XSTACK, 12, STACK
        LOCFRAME IOVERLAY, 0, STATIC
        LOCFRAME DOVERLAY, 0, STATIC
        ARGFRAME ISTACK, 0, STACK
        ARGFRAME PSTACK, 0, STACK
        ARGFRAME XSTACK, 12, STACK
        ARGFRAME IOVERLAY, 0, STATIC
        ARGFRAME DOVERLAY, 0, STATIC
        FUNCALL ZDSecMgrInitNV, ZDSecMgrSetDefaultNV
        LOCFRAME ISTACK, 0, STACK
        LOCFRAME PSTACK, 0, STACK
        LOCFRAME XSTACK, 10, STACK
        LOCFRAME IOVERLAY, 0, STATIC
        LOCFRAME DOVERLAY, 0, STATIC
        ARGFRAME ISTACK, 0, STACK
        ARGFRAME PSTACK, 0, STACK
        ARGFRAME XSTACK, 10, STACK
        ARGFRAME IOVERLAY, 0, STATIC
        ARGFRAME DOVERLAY, 0, STATIC
        MOV     A,#-0xa
        LCALL   ?BANKED_ENTER_XDATA
        CFI DPH0 load(1, XDATA, add(CFA_XSP16, literal(-1)))
        CFI DPL0 load(1, XDATA, add(CFA_XSP16, literal(-2)))
        CFI ?BRET_EXT load(1, XDATA, add(CFA_XSP16, literal(-3)))
        CFI ?RET_HIGH load(1, XDATA, add(CFA_XSP16, literal(-4)))
        CFI ?RET_LOW load(1, XDATA, add(CFA_XSP16, literal(-5)))
        CFI R7 load(1, XDATA, add(CFA_XSP16, literal(-6)))
        CFI V1 load(1, XDATA, add(CFA_XSP16, literal(-7)))
        CFI V0 load(1, XDATA, add(CFA_XSP16, literal(-8)))
        CFI VB load(1, XDATA, add(CFA_XSP16, literal(-9)))
        CFI R6 load(1, XDATA, add(CFA_XSP16, literal(-10)))
        CFI CFA_SP SP+0
        CFI CFA_XSP16 add(XSP16, 10)
        ; Saved register size: 10
        ; Auto size: 0
// 3555   uint8  status;
// 3556   uint16 size;
// 3557 
// 3558   size = (uint16)( sizeof(ZDSecMgrEntry_t) * ZDSECMGR_ENTRY_MAX );
// 3559 
// 3560   status = osal_nv_item_init( ZCD_NV_APS_LINK_KEY_TABLE, size, NULL );
        ; Setup parameters for call to function osal_nv_item_init
        CLR     A
        MOV     ?V0 + 0,A
        MOV     ?V0 + 1,A
        MOV     R0,#?V0 + 0
        LCALL   ?PUSH_XSTACK_I_TWO
        CFI CFA_XSP16 add(XSP16, 12)
        MOV     R4,#0x57
        MOV     R5,#0x0
        MOV     R2,#0x4c
        MOV     R3,#0x0
        LCALL   ??osal_nv_item_init?relay
        MOV     A,#0x2
        LCALL   ?DEALLOC_XSTACK8
        CFI CFA_XSP16 add(XSP16, 10)
        MOV     A,R1
        MOV     R6,A
// 3561 
// 3562   // The item does not already exist
// 3563   if ( status != ZSUCCESS )
        JZ      ??ZDSecMgrInitNV_0
// 3564   {
// 3565     ZDSecMgrSetDefaultNV();
        ; Setup parameters for call to function ZDSecMgrSetDefaultNV
        LCALL   ??ZDSecMgrSetDefaultNV?relay
// 3566   }
// 3567 
// 3568   return status;
??ZDSecMgrInitNV_0:
        MOV     A,R6
        MOV     R1,A
        LJMP    ??Subroutine101_0 & 0xFFFF
        CFI EndBlock cfiBlock683
// 3569 }
// 3570 
// 3571 
// 3572 /******************************************************************************
// 3573  * @fn          ZDSecMgrSetDefaultNV
// 3574  *
// 3575  * @brief       Set default SecMgr entry data in NV.
// 3576  *
// 3577  * @param       none
// 3578  *
// 3579  * @return      none
// 3580  */

        RSEG BANKED_CODE:CODE:NOROOT(0)
// 3581 void ZDSecMgrSetDefaultNV( void )
ZDSecMgrSetDefaultNV:
        CFI Block cfiBlock684 Using cfiCommon0
        CFI Function ZDSecMgrSetDefaultNV
        CODE
// 3582 {
        FUNCALL ZDSecMgrSetDefaultNV, osal_nv_write
        LOCFRAME ISTACK, 0, STACK
        LOCFRAME PSTACK, 0, STACK
        LOCFRAME XSTACK, 16, STACK
        LOCFRAME IOVERLAY, 0, STATIC
        LOCFRAME DOVERLAY, 0, STATIC
        ARGFRAME ISTACK, 0, STACK
        ARGFRAME PSTACK, 0, STACK
        ARGFRAME XSTACK, 16, STACK
        ARGFRAME IOVERLAY, 0, STATIC
        ARGFRAME DOVERLAY, 0, STATIC
        MOV     A,#-0xa
        LCALL   ?BANKED_ENTER_XDATA
        CFI DPH0 load(1, XDATA, add(CFA_XSP16, literal(-1)))
        CFI DPL0 load(1, XDATA, add(CFA_XSP16, literal(-2)))
        CFI ?BRET_EXT load(1, XDATA, add(CFA_XSP16, literal(-3)))
        CFI ?RET_HIGH load(1, XDATA, add(CFA_XSP16, literal(-4)))
        CFI ?RET_LOW load(1, XDATA, add(CFA_XSP16, literal(-5)))
        CFI R7 load(1, XDATA, add(CFA_XSP16, literal(-6)))
        CFI V1 load(1, XDATA, add(CFA_XSP16, literal(-7)))
        CFI V0 load(1, XDATA, add(CFA_XSP16, literal(-8)))
        CFI VB load(1, XDATA, add(CFA_XSP16, literal(-9)))
        CFI R6 load(1, XDATA, add(CFA_XSP16, literal(-10)))
        CFI CFA_SP SP+0
        CFI CFA_XSP16 add(XSP16, 10)
        ; Saved register size: 10
        ; Auto size: 2
        MOV     A,#-0x2
        LCALL   ?ALLOC_XSTACK8
        CFI CFA_XSP16 add(XSP16, 12)
// 3583   nvDeviceListHdr_t hdr;
// 3584 
// 3585   // Initialize the header
// 3586   hdr.numRecs = 0;
        MOV     DPL,?XSP + 0
        MOV     DPH,?XSP + 1
        CLR     A
        MOVX    @DPTR,A
        INC     DPTR
        MOVX    @DPTR,A
// 3587 
// 3588   // Save off the header
// 3589   osal_nv_write( ZCD_NV_APS_LINK_KEY_TABLE, 0, sizeof( nvDeviceListHdr_t ), &hdr );
        ; Setup parameters for call to function osal_nv_write
        LJMP    ?Subroutine2 & 0xFFFF
        CFI EndBlock cfiBlock684
// 3590 }
// 3591 
// 3592 
// 3593 
// 3594 /*********************************************************************
// 3595  * @fn      ZDSecMgrWriteNV()
// 3596  *
// 3597  * @brief   Save off the link key list to NV
// 3598  *
// 3599  * @param   none
// 3600  *
// 3601  * @return  none
// 3602  */

        RSEG BANKED_CODE:CODE:NOROOT(0)
// 3603 void ZDSecMgrWriteNV( void )
ZDSecMgrWriteNV:
        CFI Block cfiBlock685 Using cfiCommon0
        CFI Function ZDSecMgrWriteNV
        CODE
// 3604 {
        FUNCALL ZDSecMgrWriteNV, osal_nv_write
        LOCFRAME ISTACK, 0, STACK
        LOCFRAME PSTACK, 0, STACK
        LOCFRAME XSTACK, 16, STACK
        LOCFRAME IOVERLAY, 0, STATIC
        LOCFRAME DOVERLAY, 0, STATIC
        ARGFRAME ISTACK, 0, STACK
        ARGFRAME PSTACK, 0, STACK
        ARGFRAME XSTACK, 16, STACK
        ARGFRAME IOVERLAY, 0, STATIC
        ARGFRAME DOVERLAY, 0, STATIC
        FUNCALL ZDSecMgrWriteNV, osal_nv_write
        LOCFRAME ISTACK, 0, STACK
        LOCFRAME PSTACK, 0, STACK
        LOCFRAME XSTACK, 16, STACK
        LOCFRAME IOVERLAY, 0, STATIC
        LOCFRAME DOVERLAY, 0, STATIC
        ARGFRAME ISTACK, 0, STACK
        ARGFRAME PSTACK, 0, STACK
        ARGFRAME XSTACK, 16, STACK
        ARGFRAME IOVERLAY, 0, STATIC
        ARGFRAME DOVERLAY, 0, STATIC
        MOV     A,#-0xa
        LCALL   ?BANKED_ENTER_XDATA
        CFI DPH0 load(1, XDATA, add(CFA_XSP16, literal(-1)))
        CFI DPL0 load(1, XDATA, add(CFA_XSP16, literal(-2)))
        CFI ?BRET_EXT load(1, XDATA, add(CFA_XSP16, literal(-3)))
        CFI ?RET_HIGH load(1, XDATA, add(CFA_XSP16, literal(-4)))
        CFI ?RET_LOW load(1, XDATA, add(CFA_XSP16, literal(-5)))
        CFI R7 load(1, XDATA, add(CFA_XSP16, literal(-6)))
        CFI V1 load(1, XDATA, add(CFA_XSP16, literal(-7)))
        CFI V0 load(1, XDATA, add(CFA_XSP16, literal(-8)))
        CFI VB load(1, XDATA, add(CFA_XSP16, literal(-9)))
        CFI R6 load(1, XDATA, add(CFA_XSP16, literal(-10)))
        CFI CFA_SP SP+0
        CFI CFA_XSP16 add(XSP16, 10)
        ; Saved register size: 10
        ; Auto size: 2
        MOV     A,#-0x2
        LCALL   ?ALLOC_XSTACK8
        CFI CFA_XSP16 add(XSP16, 12)
// 3605   uint16 i;
// 3606   nvDeviceListHdr_t hdr;
// 3607 
// 3608   hdr.numRecs = 0;
        MOV     DPL,?XSP + 0
        MOV     DPH,?XSP + 1
        CLR     A
        MOVX    @DPTR,A
        INC     DPTR
        MOVX    @DPTR,A
// 3609 
// 3610   for ( i = 0; i < ZDSECMGR_ENTRY_MAX; i++ )
        MOV     R6,A
        MOV     R7,A
// 3611   {
// 3612     if ( ZDSecMgrEntries[i].ami != INVALID_NODE_ADDR )
??ZDSecMgrWriteNV_0:
        MOV     A,R6
        MOV     R0,A
        MOV     A,R7
        MOV     R1,A
        MOV     A,R0
        MOV     B,#0x1d
        MUL     AB
        MOV     R0,A
        MOV     R2,B
        MOV     B,#0x1d
        MOV     A,R1
        MUL     AB
        ADD     A,R2
        MOV     R1,A
        MOV     DPTR,#ZDSecMgrEntries
        MOVX    A,@DPTR
        ADD     A,R0
        MOV     ?V0 + 0,A
        INC     DPTR
        MOVX    A,@DPTR
        ADDC    A,R1
        MOV     ?V0 + 1,A
        MOV     DPL,?V0 + 0
        MOV     DPH,A
        MOVX    A,@DPTR
        XRL     A,#0xfe
        JNZ     ??ZDSecMgrWriteNV_1
        INC     DPTR
        MOVX    A,@DPTR
        CPL     A
??ZDSecMgrWriteNV_1:
        JZ      ??ZDSecMgrWriteNV_2
// 3613     {
// 3614       // Save off the record
// 3615       osal_nv_write( ZCD_NV_APS_LINK_KEY_TABLE,
// 3616               (uint16)((sizeof(nvDeviceListHdr_t)) + (hdr.numRecs * sizeof(ZDSecMgrEntry_t))),
// 3617                       sizeof(ZDSecMgrEntry_t), &ZDSecMgrEntries[i] );
        ; Setup parameters for call to function osal_nv_write
        MOV     R0,#?V0 + 0
        LCALL   ?PUSH_XSTACK_I_TWO
        CFI CFA_XSP16 add(XSP16, 14)
        MOV     ?V0 + 0,#0x1d
        MOV     ?V0 + 1,#0x0
        MOV     R0,#?V0 + 0
        LCALL   ?PUSH_XSTACK_I_TWO
        CFI CFA_XSP16 add(XSP16, 16)
        MOV     A,#0x4
        LCALL   ?XSTACK_DISP0_8
        LCALL   ??Subroutine106_0 & 0xFFFF
??CrossCallReturnLabel_237:
        MOV     A,R0
        MOV     B,#0x1d
        MUL     AB
        MOV     R0,A
        MOV     R2,B
        MOV     B,#0x1d
        MOV     A,R1
        MUL     AB
        ADD     A,R2
        MOV     R1,A
        MOV     A,R0
        ADD     A,#0x2
        MOV     R4,A
        MOV     A,R1
        ADDC    A,#0x0
        MOV     R5,A
        MOV     R2,#0x4c
        MOV     R3,#0x0
        LCALL   ??osal_nv_write?relay
        MOV     A,#0x4
        LCALL   ?DEALLOC_XSTACK8
        CFI CFA_XSP16 add(XSP16, 12)
// 3618       hdr.numRecs++;
        MOV     DPL,?XSP + 0
        MOV     DPH,?XSP + 1
        MOVX    A,@DPTR
        ADD     A,#0x1
        MOVX    @DPTR,A
        INC     DPTR
        MOVX    A,@DPTR
        ADDC    A,#0x0
        MOVX    @DPTR,A
// 3619     }
// 3620   }
??ZDSecMgrWriteNV_2:
        LCALL   ?Subroutine55 & 0xFFFF
??CrossCallReturnLabel_76:
        JC      ??ZDSecMgrWriteNV_0
// 3621 
// 3622   // Save off the header
// 3623   osal_nv_write( ZCD_NV_APS_LINK_KEY_TABLE, 0, sizeof( nvDeviceListHdr_t ), &hdr );
        ; Setup parameters for call to function osal_nv_write
        LJMP    ?Subroutine2 & 0xFFFF
        CFI EndBlock cfiBlock685
// 3624 }

        RSEG BANKED_CODE:CODE:NOROOT(0)
?Subroutine55:
        CFI Block cfiCond686 Using cfiCommon0
        CFI NoFunction
        CFI Conditional ??CrossCallReturnLabel_75
        CFI R6 load(1, XDATA, add(CFA_XSP16, literal(-10)))
        CFI VB load(1, XDATA, add(CFA_XSP16, literal(-9)))
        CFI V0 load(1, XDATA, add(CFA_XSP16, literal(-8)))
        CFI V1 load(1, XDATA, add(CFA_XSP16, literal(-7)))
        CFI R7 load(1, XDATA, add(CFA_XSP16, literal(-6)))
        CFI ?RET_LOW load(1, XDATA, add(CFA_XSP16, literal(-5)))
        CFI ?RET_HIGH load(1, XDATA, add(CFA_XSP16, literal(-4)))
        CFI ?BRET_EXT load(1, XDATA, add(CFA_XSP16, literal(-3)))
        CFI DPL0 load(1, XDATA, add(CFA_XSP16, literal(-2)))
        CFI DPH0 load(1, XDATA, add(CFA_XSP16, literal(-1)))
        CFI CFA_SP SP+0
        CFI CFA_XSP16 add(XSP16, 33)
        CFI Block cfiCond687 Using cfiCommon0
        CFI (cfiCond687) NoFunction
        CFI (cfiCond687) Conditional ??CrossCallReturnLabel_76
        CFI (cfiCond687) R6 load(1, XDATA, add(CFA_XSP16, literal(-10)))
        CFI (cfiCond687) VB load(1, XDATA, add(CFA_XSP16, literal(-9)))
        CFI (cfiCond687) V0 load(1, XDATA, add(CFA_XSP16, literal(-8)))
        CFI (cfiCond687) V1 load(1, XDATA, add(CFA_XSP16, literal(-7)))
        CFI (cfiCond687) R7 load(1, XDATA, add(CFA_XSP16, literal(-6)))
        CFI (cfiCond687) ?RET_LOW load(1, XDATA, add(CFA_XSP16, literal(-5)))
        CFI (cfiCond687) ?RET_HIGH load(1, XDATA, add(CFA_XSP16, literal(-4)))
        CFI (cfiCond687) ?BRET_EXT load(1, XDATA, add(CFA_XSP16, literal(-3)))
        CFI (cfiCond687) DPL0 load(1, XDATA, add(CFA_XSP16, literal(-2)))
        CFI (cfiCond687) DPH0 load(1, XDATA, add(CFA_XSP16, literal(-1)))
        CFI (cfiCond687) CFA_SP SP+0
        CFI (cfiCond687) CFA_XSP16 add(XSP16, 12)
        CFI Block cfiPicker688 Using cfiCommon1
        CFI (cfiPicker688) NoFunction
        CFI (cfiPicker688) Picker
        MOV     A,R6
        ADD     A,#0x1
        INC     R6
        MOV     A,R7
        ADDC    A,#0x0
        MOV     R7,A
        CLR     C
        MOV     A,R6
        SUBB    A,#0x3
        MOV     A,R7
        SUBB    A,#0x0
        RET
        CFI EndBlock cfiCond686
        CFI EndBlock cfiCond687
        CFI EndBlock cfiPicker688
// 3625 
// 3626 /******************************************************************************
// 3627  * @fn          ZDSecMgrRestoreFromNV
// 3628  *
// 3629  * @brief       Restore the SecMgr entry data from NV.
// 3630  *
// 3631  * @param       none
// 3632  *
// 3633  * @return      ZStatus_t ZSuccess or ZFailure
// 3634  */

        RSEG BANKED_CODE:CODE:NOROOT(0)
// 3635 ZStatus_t ZDSecMgrRestoreFromNV( void )
ZDSecMgrRestoreFromNV:
        CFI Block cfiBlock689 Using cfiCommon0
        CFI Function ZDSecMgrRestoreFromNV
        CODE
// 3636 {
        FUNCALL ZDSecMgrRestoreFromNV, osal_nv_read
        LOCFRAME ISTACK, 0, STACK
        LOCFRAME PSTACK, 0, STACK
        LOCFRAME XSTACK, 19, STACK
        LOCFRAME IOVERLAY, 0, STATIC
        LOCFRAME DOVERLAY, 0, STATIC
        ARGFRAME ISTACK, 0, STACK
        ARGFRAME PSTACK, 0, STACK
        ARGFRAME XSTACK, 19, STACK
        ARGFRAME IOVERLAY, 0, STATIC
        ARGFRAME DOVERLAY, 0, STATIC
        FUNCALL ZDSecMgrRestoreFromNV, osal_nv_read
        LOCFRAME ISTACK, 0, STACK
        LOCFRAME PSTACK, 0, STACK
        LOCFRAME XSTACK, 19, STACK
        LOCFRAME IOVERLAY, 0, STATIC
        LOCFRAME DOVERLAY, 0, STATIC
        ARGFRAME ISTACK, 0, STACK
        ARGFRAME PSTACK, 0, STACK
        ARGFRAME XSTACK, 19, STACK
        ARGFRAME IOVERLAY, 0, STATIC
        ARGFRAME DOVERLAY, 0, STATIC
        FUNCALL ZDSecMgrRestoreFromNV, ZDSecMgrWriteNV
        LOCFRAME ISTACK, 0, STACK
        LOCFRAME PSTACK, 0, STACK
        LOCFRAME XSTACK, 15, STACK
        LOCFRAME IOVERLAY, 0, STATIC
        LOCFRAME DOVERLAY, 0, STATIC
        ARGFRAME ISTACK, 0, STACK
        ARGFRAME PSTACK, 0, STACK
        ARGFRAME XSTACK, 15, STACK
        ARGFRAME IOVERLAY, 0, STATIC
        ARGFRAME DOVERLAY, 0, STATIC
        MOV     A,#-0xd
        LCALL   ?BANKED_ENTER_XDATA
        CFI DPH0 load(1, XDATA, add(CFA_XSP16, literal(-1)))
        CFI DPL0 load(1, XDATA, add(CFA_XSP16, literal(-2)))
        CFI ?BRET_EXT load(1, XDATA, add(CFA_XSP16, literal(-3)))
        CFI ?RET_HIGH load(1, XDATA, add(CFA_XSP16, literal(-4)))
        CFI ?RET_LOW load(1, XDATA, add(CFA_XSP16, literal(-5)))
        CFI R7 load(1, XDATA, add(CFA_XSP16, literal(-6)))
        CFI V4 load(1, XDATA, add(CFA_XSP16, literal(-7)))
        CFI V3 load(1, XDATA, add(CFA_XSP16, literal(-8)))
        CFI V2 load(1, XDATA, add(CFA_XSP16, literal(-9)))
        CFI V1 load(1, XDATA, add(CFA_XSP16, literal(-10)))
        CFI V0 load(1, XDATA, add(CFA_XSP16, literal(-11)))
        CFI VB load(1, XDATA, add(CFA_XSP16, literal(-12)))
        CFI R6 load(1, XDATA, add(CFA_XSP16, literal(-13)))
        CFI CFA_SP SP+0
        CFI CFA_XSP16 add(XSP16, 13)
        ; Saved register size: 13
        ; Auto size: 2
        MOV     A,#-0x2
        LCALL   ?ALLOC_XSTACK8
        CFI CFA_XSP16 add(XSP16, 15)
// 3637   uint8 x = 0;
        MOV     ?V0 + 4,#0x0
// 3638   nvDeviceListHdr_t hdr;
// 3639 
// 3640   // Initialize the device list
// 3641   if ( osal_nv_read( ZCD_NV_APS_LINK_KEY_TABLE, 0, sizeof(nvDeviceListHdr_t), &hdr ) == ZSUCCESS )
        ; Setup parameters for call to function osal_nv_read
        MOV     DPL,?XSP + 0
        MOV     DPH,?XSP + 1
        MOV     ?V0 + 0,DPL
        MOV     ?V0 + 1,DPH
        MOV     R0,#?V0 + 0
        LCALL   ?PUSH_XSTACK_I_TWO
        CFI CFA_XSP16 add(XSP16, 17)
        MOV     ?V0 + 0,#0x2
        MOV     ?V0 + 1,#0x0
        MOV     R0,#?V0 + 0
        LCALL   ?PUSH_XSTACK_I_TWO
        CFI CFA_XSP16 add(XSP16, 19)
        MOV     R4,#0x0
        MOV     R5,#0x0
        MOV     R2,#0x4c
        MOV     R3,#0x0
        LCALL   ??osal_nv_read?relay
        MOV     A,#0x4
        LCALL   ?DEALLOC_XSTACK8
        CFI CFA_XSP16 add(XSP16, 15)
        MOV     A,R1
        JZ      ??ZDSecMgrRestoreFromNV_0
// 3642   {
// 3643     // Read in the device list
// 3644     for ( ; x < hdr.numRecs; x++ )
// 3645     {
// 3646       if ( osal_nv_read( ZCD_NV_APS_LINK_KEY_TABLE,
// 3647                 (uint16)(sizeof(nvDeviceListHdr_t) + (x * sizeof(ZDSecMgrEntry_t))),
// 3648                       sizeof(ZDSecMgrEntry_t), &ZDSecMgrEntries[x] ) == ZSUCCESS )
// 3649       {
// 3650         ZDSecMgrEntries[x].lkd.apsmelkd.txFrmCntr += ( MAX_APS_FRAMECOUNTER_CHANGES + 1 );
// 3651       }
// 3652     }
// 3653 
// 3654     // Write the updated entry back to NV.
// 3655     ZDSecMgrWriteNV();
// 3656 
// 3657     return ZSuccess;
// 3658   }
// 3659   return ZFailure;
        MOV     R1,#0x1
??ZDSecMgrRestoreFromNV_1:
        MOV     A,#0x2
        LCALL   ?DEALLOC_XSTACK8
        CFI CFA_XSP16 add(XSP16, 13)
        MOV     R7,#0x5
        LJMP    ?BANKED_LEAVE_XDATA
        CFI CFA_XSP16 add(XSP16, 15)
??ZDSecMgrRestoreFromNV_2:
        MOV     A,R2
        MOV     B,#0x1d
        MUL     AB
        MOV     R6,A
        MOV     R7,B
        ; Setup parameters for call to function osal_nv_read
        MOV     DPTR,#ZDSecMgrEntries
        MOVX    A,@DPTR
        ADD     A,R6
        MOV     ?V0 + 0,A
        INC     DPTR
        MOVX    A,@DPTR
        ADDC    A,R7
        MOV     ?V0 + 1,A
        MOV     R0,#?V0 + 0
        LCALL   ?PUSH_XSTACK_I_TWO
        CFI CFA_XSP16 add(XSP16, 17)
        MOV     ?V0 + 0,#0x1d
        MOV     ?V0 + 1,#0x0
        MOV     R0,#?V0 + 0
        LCALL   ?PUSH_XSTACK_I_TWO
        CFI CFA_XSP16 add(XSP16, 19)
        MOV     A,R2
        MOV     B,#0x1d
        MUL     AB
        ADD     A,#0x2
        MOV     R4,A
        MOV     A,B
        ADDC    A,#0x0
        MOV     R5,A
        MOV     R2,#0x4c
        MOV     R3,#0x0
        LCALL   ??osal_nv_read?relay
        MOV     A,#0x4
        LCALL   ?DEALLOC_XSTACK8
        CFI CFA_XSP16 add(XSP16, 15)
        MOV     A,R1
        JNZ     ??ZDSecMgrRestoreFromNV_3
        MOV     DPTR,#__Constant_b
        MOV     R0,#?V0 + 0
        LCALL   ?L_MOV_X
        MOV     DPTR,#ZDSecMgrEntries
        MOVX    A,@DPTR
        ADD     A,R6
        MOV     R0,A
        INC     DPTR
        MOVX    A,@DPTR
        ADDC    A,R7
        MOV     R1,A
        MOV     A,R0
        ADD     A,#0x14
        MOV     DPL,A
        MOV     A,R1
        ADDC    A,#0x0
        MOV     DPH,A
        MOV     R0,#?V0 + 0
        LCALL   ?L_ADD_TO_X
??ZDSecMgrRestoreFromNV_3:
        INC     ?V0 + 4
??ZDSecMgrRestoreFromNV_0:
        MOV     DPL,?V0 + 4
        MOV     R2,DPL
        MOV     DPL,?XSP + 0
        MOV     DPH,?XSP + 1
        LCALL   ??Subroutine106_0 & 0xFFFF
??CrossCallReturnLabel_238:
        CLR     C
        MOV     A,R2
        SUBB    A,R0
        CLR     A
        SUBB    A,R1
        JC      ??ZDSecMgrRestoreFromNV_2
        ; Setup parameters for call to function ZDSecMgrWriteNV
        LCALL   ??ZDSecMgrWriteNV?relay
        MOV     R1,#0x0
        LJMP    ??ZDSecMgrRestoreFromNV_1 & 0xFFFF
        CFI EndBlock cfiBlock689
// 3660 }
// 3661 
// 3662 /******************************************************************************
// 3663  * @fn          ZDSecMgrAPSRemove
// 3664  *
// 3665  * @brief       Remove device from network.
// 3666  *
// 3667  * @param       nwkAddr - device's NWK address
// 3668  * @param       extAddr - device's Extended address
// 3669  * @param       parentAddr - parent's NWK address
// 3670  *
// 3671  * @return      ZStatus_t
// 3672  */

        RSEG BANKED_CODE:CODE:NOROOT(0)
// 3673 ZStatus_t ZDSecMgrAPSRemove( uint16 nwkAddr, uint8 *extAddr, uint16 parentAddr )
ZDSecMgrAPSRemove:
        CFI Block cfiBlock690 Using cfiCommon0
        CFI Function ZDSecMgrAPSRemove
        CODE
// 3674 {
        FUNCALL ZDSecMgrAPSRemove, ZDSecMgrDeviceRemove
        LOCFRAME ISTACK, 2, STACK
        LOCFRAME PSTACK, 0, STACK
        LOCFRAME XSTACK, 10, STACK
        LOCFRAME IOVERLAY, 0, STATIC
        LOCFRAME DOVERLAY, 0, STATIC
        ARGFRAME ISTACK, 2, STACK
        ARGFRAME PSTACK, 0, STACK
        ARGFRAME XSTACK, 10, STACK
        ARGFRAME IOVERLAY, 0, STATIC
        ARGFRAME DOVERLAY, 0, STATIC
        PUSH    DPL
        CFI DPL0 Frame(CFA_SP, 4)
        CFI CFA_SP SP+-4
        PUSH    DPH
        CFI DPH0 Frame(CFA_SP, 5)
        CFI CFA_SP SP+-5
        ; Saved register size: 2
        ; Auto size: 10
        MOV     A,#-0xa
        LCALL   ?ALLOC_XSTACK8
        CFI CFA_XSP16 add(XSP16, 10)
        MOV     A,#0xa
        LCALL   ?XSTACK_DISP0_8
        LCALL   ??Subroutine106_0 & 0xFFFF
// 3675   ZDSecMgrDevice_t device;
// 3676 
// 3677   if ( ( nwkAddr == INVALID_NODE_ADDR ) ||
// 3678        ( extAddr == NULL )              ||
// 3679        ( parentAddr == INVALID_NODE_ADDR ) )
??CrossCallReturnLabel_239:
        MOV     A,#-0x2
        XRL     A,R2
        JNZ     ??ZDSecMgrAPSRemove_0
        MOV     A,#-0x1
        XRL     A,R3
??ZDSecMgrAPSRemove_0:
        JZ      ??ZDSecMgrAPSRemove_1
        MOV     A,R4
        ORL     A,R5
        JZ      ??ZDSecMgrAPSRemove_1
        MOV     A,#-0x2
        XRL     A,R0
        JNZ     ??ZDSecMgrAPSRemove_2
        MOV     A,#-0x1
        XRL     A,R1
??ZDSecMgrAPSRemove_2:
        JNZ     ??ZDSecMgrAPSRemove_3
// 3680   {
// 3681     return ( ZFailure );
??ZDSecMgrAPSRemove_1:
        MOV     R1,#0x1
        SJMP    ??ZDSecMgrAPSRemove_4
// 3682   }
// 3683 
// 3684   device.nwkAddr = nwkAddr;
??ZDSecMgrAPSRemove_3:
        LCALL   ?Subroutine23 & 0xFFFF
// 3685   device.extAddr = extAddr;
??CrossCallReturnLabel_255:
        LCALL   ?XSTACK_DISP0_8
        MOV     A,R4
        MOVX    @DPTR,A
        INC     DPTR
        MOV     A,R5
        MOVX    @DPTR,A
// 3686   device.parentAddr = parentAddr;
        MOV     A,#0x4
        LCALL   ?XSTACK_DISP0_8
        LCALL   ?Subroutine10 & 0xFFFF
// 3687 
// 3688   // remove device
// 3689   ZDSecMgrDeviceRemove( &device );
??CrossCallReturnLabel_3:
        LCALL   ??ZDSecMgrDeviceRemove?relay
// 3690 
// 3691   return ( ZSuccess );
        MOV     R1,#0x0
??ZDSecMgrAPSRemove_4:
        LJMP    ?Subroutine4 & 0xFFFF
        CFI EndBlock cfiBlock690
// 3692 }

        RSEG XDATA_ID:CODE:NOROOT(0)
`?<Initializer for ZDSecMgrTCMasterKey>`:
        DATA8
        DB 0
        DB 0
        DB 0
        DB 0
        DB 0
        DB 0
        DB 0
        DB 0
        DB 137
        DB 103
        DB 69
        DB 35
        DB 1
        DB 239
        DB 205
        DB 171

        RSEG XDATA_ID:CODE:NOROOT(0)
`?<Initializer for ZDSecMgrAppKeyType>`:
        DATA8
        DB 3

        RSEG XDATA_ROM_C:CONST:REORDER:NOROOT(0)
        DATA32
__Constant_0:
        DD 0

        RSEG XDATA_ROM_C:CONST:REORDER:NOROOT(0)
        DATA32
__Constant_b:
        DD 11

        RSEG BANK_RELAYS:CODE:REORDER:NOROOT(0)
??ZDSecMgrMasterKeyInit?relay:
        LCALL   ?BDISPATCH
        DATA
        DC24    ZDSecMgrMasterKeyInit

        RSEG BANK_RELAYS:CODE:REORDER:NOROOT(0)
??ZDSecMgrAddrStore?relay:
        LCALL   ?BDISPATCH
        DATA
        DC24    ZDSecMgrAddrStore

        RSEG BANK_RELAYS:CODE:REORDER:NOROOT(0)
??ZDSecMgrExtAddrStore?relay:
        LCALL   ?BDISPATCH
        DATA
        DC24    ZDSecMgrExtAddrStore

        RSEG BANK_RELAYS:CODE:REORDER:NOROOT(0)
??ZDSecMgrExtAddrLookup?relay:
        LCALL   ?BDISPATCH
        DATA
        DC24    ZDSecMgrExtAddrLookup

        RSEG BANK_RELAYS:CODE:REORDER:NOROOT(0)
??ZDSecMgrMasterKeyLookup?relay:
        LCALL   ?BDISPATCH
        DATA
        DC24    ZDSecMgrMasterKeyLookup

        RSEG BANK_RELAYS:CODE:REORDER:NOROOT(0)
??ZDSecMgrMasterKeyStore?relay:
        LCALL   ?BDISPATCH
        DATA
        DC24    ZDSecMgrMasterKeyStore

        RSEG BANK_RELAYS:CODE:REORDER:NOROOT(0)
??ZDSecMgrEntryInit?relay:
        LCALL   ?BDISPATCH
        DATA
        DC24    ZDSecMgrEntryInit

        RSEG BANK_RELAYS:CODE:REORDER:NOROOT(0)
??ZDSecMgrEntryLookup?relay:
        LCALL   ?BDISPATCH
        DATA
        DC24    ZDSecMgrEntryLookup

        RSEG BANK_RELAYS:CODE:REORDER:NOROOT(0)
??ZDSecMgrEntryLookupAMI?relay:
        LCALL   ?BDISPATCH
        DATA
        DC24    ZDSecMgrEntryLookupAMI

        RSEG BANK_RELAYS:CODE:REORDER:NOROOT(0)
??ZDSecMgrEntryLookupExt?relay:
        LCALL   ?BDISPATCH
        DATA
        DC24    ZDSecMgrEntryLookupExt

        RSEG BANK_RELAYS:CODE:REORDER:NOROOT(0)
??ZDSecMgrEntryFree?relay:
        LCALL   ?BDISPATCH
        DATA
        DC24    ZDSecMgrEntryFree

        RSEG BANK_RELAYS:CODE:REORDER:NOROOT(0)
??ZDSecMgrEntryNew?relay:
        LCALL   ?BDISPATCH
        DATA
        DC24    ZDSecMgrEntryNew

        RSEG BANK_RELAYS:CODE:REORDER:NOROOT(0)
??ZDSecMgrCtrlInit?relay:
        LCALL   ?BDISPATCH
        DATA
        DC24    ZDSecMgrCtrlInit

        RSEG BANK_RELAYS:CODE:REORDER:NOROOT(0)
??ZDSecMgrCtrlRelease?relay:
        LCALL   ?BDISPATCH
        DATA
        DC24    ZDSecMgrCtrlRelease

        RSEG BANK_RELAYS:CODE:REORDER:NOROOT(0)
??ZDSecMgrCtrlLookup?relay:
        LCALL   ?BDISPATCH
        DATA
        DC24    ZDSecMgrCtrlLookup

        RSEG BANK_RELAYS:CODE:REORDER:NOROOT(0)
??ZDSecMgrCtrlSet?relay:
        LCALL   ?BDISPATCH
        DATA
        DC24    ZDSecMgrCtrlSet

        RSEG BANK_RELAYS:CODE:REORDER:NOROOT(0)
??ZDSecMgrCtrlAdd?relay:
        LCALL   ?BDISPATCH
        DATA
        DC24    ZDSecMgrCtrlAdd

        RSEG BANK_RELAYS:CODE:REORDER:NOROOT(0)
??ZDSecMgrCtrlTerm?relay:
        LCALL   ?BDISPATCH
        DATA
        DC24    ZDSecMgrCtrlTerm

        RSEG BANK_RELAYS:CODE:REORDER:NOROOT(0)
??ZDSecMgrCtrlReset?relay:
        LCALL   ?BDISPATCH
        DATA
        DC24    ZDSecMgrCtrlReset

        RSEG BANK_RELAYS:CODE:REORDER:NOROOT(0)
??ZDSecMgrMasterKeyLoad?relay:
        LCALL   ?BDISPATCH
        DATA
        DC24    ZDSecMgrMasterKeyLoad

        RSEG BANK_RELAYS:CODE:REORDER:NOROOT(0)
??ZDSecMgrAppKeyGet?relay:
        LCALL   ?BDISPATCH
        DATA
        DC24    ZDSecMgrAppKeyGet

        RSEG BANK_RELAYS:CODE:REORDER:NOROOT(0)
??ZDSecMgrAppKeyReq?relay:
        LCALL   ?BDISPATCH
        DATA
        DC24    ZDSecMgrAppKeyReq

        RSEG BANK_RELAYS:CODE:REORDER:NOROOT(0)
??ZDSecMgrEstablishKey?relay:
        LCALL   ?BDISPATCH
        DATA
        DC24    ZDSecMgrEstablishKey

        RSEG BANK_RELAYS:CODE:REORDER:NOROOT(0)
??ZDSecMgrSendMasterKey?relay:
        LCALL   ?BDISPATCH
        DATA
        DC24    ZDSecMgrSendMasterKey

        RSEG BANK_RELAYS:CODE:REORDER:NOROOT(0)
??ZDSecMgrSendNwkKey?relay:
        LCALL   ?BDISPATCH
        DATA
        DC24    ZDSecMgrSendNwkKey

        RSEG BANK_RELAYS:CODE:REORDER:NOROOT(0)
??ZDSecMgrDeviceEntryRemove?relay:
        LCALL   ?BDISPATCH
        DATA
        DC24    ZDSecMgrDeviceEntryRemove

        RSEG BANK_RELAYS:CODE:REORDER:NOROOT(0)
??ZDSecMgrAddrMgrUpdate?relay:
        LCALL   ?BDISPATCH
        DATA
        DC24    ZDSecMgrAddrMgrUpdate

        RSEG BANK_RELAYS:CODE:REORDER:NOROOT(0)
??ZDSecMgrDeviceEntryAdd?relay:
        LCALL   ?BDISPATCH
        DATA
        DC24    ZDSecMgrDeviceEntryAdd

        RSEG BANK_RELAYS:CODE:REORDER:NOROOT(0)
??ZDSecMgrDeviceCtrlHandler?relay:
        LCALL   ?BDISPATCH
        DATA
        DC24    ZDSecMgrDeviceCtrlHandler

        RSEG BANK_RELAYS:CODE:REORDER:NOROOT(0)
??ZDSecMgrDeviceCtrlSetup?relay:
        LCALL   ?BDISPATCH
        DATA
        DC24    ZDSecMgrDeviceCtrlSetup

        RSEG BANK_RELAYS:CODE:REORDER:NOROOT(0)
??ZDSecMgrDeviceCtrlUpdate?relay:
        LCALL   ?BDISPATCH
        DATA
        DC24    ZDSecMgrDeviceCtrlUpdate

        RSEG BANK_RELAYS:CODE:REORDER:NOROOT(0)
??APSME_SKA_TimerExpired?relay:
        LCALL   ?BDISPATCH
        DATA
        DC24    APSME_SKA_TimerExpired

        RSEG BANK_RELAYS:CODE:REORDER:NOROOT(0)
??ZDSecMgrDeviceRemove?relay:
        LCALL   ?BDISPATCH
        DATA
        DC24    ZDSecMgrDeviceRemove

        RSEG BANK_RELAYS:CODE:REORDER:NOROOT(0)
??ZDSecMgrDeviceValidateSKKE?relay:
        LCALL   ?BDISPATCH
        DATA
        DC24    ZDSecMgrDeviceValidateSKKE

        RSEG BANK_RELAYS:CODE:REORDER:NOROOT(0)
??ZDSecMgrDeviceValidateRM?relay:
        LCALL   ?BDISPATCH
        DATA
        DC24    ZDSecMgrDeviceValidateRM

        RSEG BANK_RELAYS:CODE:REORDER:NOROOT(0)
??ZDSecMgrDeviceValidateCM?relay:
        LCALL   ?BDISPATCH
        DATA
        DC24    ZDSecMgrDeviceValidateCM

        RSEG BANK_RELAYS:CODE:REORDER:NOROOT(0)
??ZDSecMgrDeviceValidate?relay:
        LCALL   ?BDISPATCH
        DATA
        DC24    ZDSecMgrDeviceValidate

        RSEG BANK_RELAYS:CODE:REORDER:NOROOT(0)
??ZDSecMgrDeviceJoin?relay:
        LCALL   ?BDISPATCH
        DATA
        DC24    ZDSecMgrDeviceJoin

        RSEG BANK_RELAYS:CODE:REORDER:NOROOT(0)
??ZDSecMgrDeviceJoinDirect?relay:
        LCALL   ?BDISPATCH
        DATA
        DC24    ZDSecMgrDeviceJoinDirect

        RSEG BANK_RELAYS:CODE:REORDER:NOROOT(0)
??ZDSecMgrDeviceJoinFwd?relay:
        LCALL   ?BDISPATCH
        DATA
        DC24    ZDSecMgrDeviceJoinFwd

        RSEG BANK_RELAYS:CODE:REORDER:NOROOT(0)
??ZDSecMgrDeviceNew?relay:
        LCALL   ?BDISPATCH
        DATA
        DC24    ZDSecMgrDeviceNew

        RSEG BANK_RELAYS:CODE:REORDER:NOROOT(0)
??ZDSecMgrAssocDeviceAuth?relay:
        LCALL   ?BDISPATCH
        DATA
        DC24    ZDSecMgrAssocDeviceAuth

        RSEG BANK_RELAYS:CODE:REORDER:NOROOT(0)
??ZDSecMgrAuthInitiate?relay:
        LCALL   ?BDISPATCH
        DATA
        DC24    ZDSecMgrAuthInitiate

        RSEG BANK_RELAYS:CODE:REORDER:NOROOT(0)
??ZDSecMgrAuthNwkKey?relay:
        LCALL   ?BDISPATCH
        DATA
        DC24    ZDSecMgrAuthNwkKey

        RSEG BANK_RELAYS:CODE:REORDER:NOROOT(0)
??ZDSecMgrInit?relay:
        LCALL   ?BDISPATCH
        DATA
        DC24    ZDSecMgrInit

        RSEG BANK_RELAYS:CODE:REORDER:NOROOT(0)
??ZDSecMgrConfig?relay:
        LCALL   ?BDISPATCH
        DATA
        DC24    ZDSecMgrConfig

        RSEG BANK_RELAYS:CODE:REORDER:NOROOT(0)
??ZDSecMgrPermitJoining?relay:
        LCALL   ?BDISPATCH
        DATA
        DC24    ZDSecMgrPermitJoining

        RSEG BANK_RELAYS:CODE:REORDER:NOROOT(0)
??ZDSecMgrPermitJoiningTimeout?relay:
        LCALL   ?BDISPATCH
        DATA
        DC24    ZDSecMgrPermitJoiningTimeout

        RSEG BANK_RELAYS:CODE:REORDER:NOROOT(0)
??ZDSecMgrNewDeviceEvent?relay:
        LCALL   ?BDISPATCH
        DATA
        DC24    ZDSecMgrNewDeviceEvent

        RSEG BANK_RELAYS:CODE:REORDER:NOROOT(0)
??ZDSecMgrEvent?relay:
        LCALL   ?BDISPATCH
        DATA
        DC24    ZDSecMgrEvent

        RSEG BANK_RELAYS:CODE:REORDER:NOROOT(0)
??ZDSecMgrEstablishKeyCfm?relay:
        LCALL   ?BDISPATCH
        DATA
        DC24    ZDSecMgrEstablishKeyCfm

        RSEG BANK_RELAYS:CODE:REORDER:NOROOT(0)
??ZDSecMgrTCExtAddrCheck?relay:
        LCALL   ?BDISPATCH
        DATA
        DC24    ZDSecMgrTCExtAddrCheck

        RSEG BANK_RELAYS:CODE:REORDER:NOROOT(0)
??ZDSecMgrTCDataLoad?relay:
        LCALL   ?BDISPATCH
        DATA
        DC24    ZDSecMgrTCDataLoad

        RSEG BANK_RELAYS:CODE:REORDER:NOROOT(0)
??ZDSecMgrEstablishKeyInd?relay:
        LCALL   ?BDISPATCH
        DATA
        DC24    ZDSecMgrEstablishKeyInd

        RSEG BANK_RELAYS:CODE:REORDER:NOROOT(0)
??ZDSecMgrTransportKeyInd?relay:
        LCALL   ?BDISPATCH
        DATA
        DC24    ZDSecMgrTransportKeyInd

        RSEG BANK_RELAYS:CODE:REORDER:NOROOT(0)
??ZDSecMgrUpdateDeviceInd?relay:
        LCALL   ?BDISPATCH
        DATA
        DC24    ZDSecMgrUpdateDeviceInd

        RSEG BANK_RELAYS:CODE:REORDER:NOROOT(0)
??ZDSecMgrRemoveDeviceInd?relay:
        LCALL   ?BDISPATCH
        DATA
        DC24    ZDSecMgrRemoveDeviceInd

        RSEG BANK_RELAYS:CODE:REORDER:NOROOT(0)
??ZDSecMgrRequestKeyInd?relay:
        LCALL   ?BDISPATCH
        DATA
        DC24    ZDSecMgrRequestKeyInd

        RSEG BANK_RELAYS:CODE:REORDER:NOROOT(0)
??ZDSecMgrSwitchKeyInd?relay:
        LCALL   ?BDISPATCH
        DATA
        DC24    ZDSecMgrSwitchKeyInd

        RSEG BANK_RELAYS:CODE:REORDER:NOROOT(0)
??ZDSecMgrAuthenticateInd?relay:
        LCALL   ?BDISPATCH
        DATA
        DC24    ZDSecMgrAuthenticateInd

        RSEG BANK_RELAYS:CODE:REORDER:NOROOT(0)
??ZDSecMgrAuthenticateCfm?relay:
        LCALL   ?BDISPATCH
        DATA
        DC24    ZDSecMgrAuthenticateCfm

        RSEG BANK_RELAYS:CODE:REORDER:NOROOT(0)
??ZDSecMgrUpdateNwkKey?relay:
        LCALL   ?BDISPATCH
        DATA
        DC24    ZDSecMgrUpdateNwkKey

        RSEG BANK_RELAYS:CODE:REORDER:NOROOT(0)
??ZDSecMgrSwitchNwkKey?relay:
        LCALL   ?BDISPATCH
        DATA
        DC24    ZDSecMgrSwitchNwkKey

        RSEG BANK_RELAYS:CODE:REORDER:NOROOT(0)
??ZDSecMgrAppKeyTypeSet?relay:
        LCALL   ?BDISPATCH
        DATA
        DC24    ZDSecMgrAppKeyTypeSet

        RSEG BANK_RELAYS:CODE:REORDER:NOROOT(0)
??APSME_MasterKeyGet?relay:
        LCALL   ?BDISPATCH
        DATA
        DC24    APSME_MasterKeyGet

        RSEG BANK_RELAYS:CODE:REORDER:NOROOT(0)
??APSME_LinkKeySet?relay:
        LCALL   ?BDISPATCH
        DATA
        DC24    APSME_LinkKeySet

        RSEG BANK_RELAYS:CODE:REORDER:NOROOT(0)
??ZDSecMgrAuthenticationSet?relay:
        LCALL   ?BDISPATCH
        DATA
        DC24    ZDSecMgrAuthenticationSet

        RSEG BANK_RELAYS:CODE:REORDER:NOROOT(0)
??ZDSecMgrAuthenticationCheck?relay:
        LCALL   ?BDISPATCH
        DATA
        DC24    ZDSecMgrAuthenticationCheck

        RSEG BANK_RELAYS:CODE:REORDER:NOROOT(0)
??APSME_LinkKeyDataGet?relay:
        LCALL   ?BDISPATCH
        DATA
        DC24    APSME_LinkKeyDataGet

        RSEG BANK_RELAYS:CODE:REORDER:NOROOT(0)
??APSME_KeyFwdToChild?relay:
        LCALL   ?BDISPATCH
        DATA
        DC24    APSME_KeyFwdToChild

        RSEG BANK_RELAYS:CODE:REORDER:NOROOT(0)
??ZDSecMgrAddLinkKey?relay:
        LCALL   ?BDISPATCH
        DATA
        DC24    ZDSecMgrAddLinkKey

        RSEG BANK_RELAYS:CODE:REORDER:NOROOT(0)
??ZDSecMgrInitNV?relay:
        LCALL   ?BDISPATCH
        DATA
        DC24    ZDSecMgrInitNV

        RSEG BANK_RELAYS:CODE:REORDER:NOROOT(0)
??ZDSecMgrSetDefaultNV?relay:
        LCALL   ?BDISPATCH
        DATA
        DC24    ZDSecMgrSetDefaultNV

        RSEG BANK_RELAYS:CODE:REORDER:NOROOT(0)
??ZDSecMgrWriteNV?relay:
        LCALL   ?BDISPATCH
        DATA
        DC24    ZDSecMgrWriteNV

        RSEG BANK_RELAYS:CODE:REORDER:NOROOT(0)
??ZDSecMgrRestoreFromNV?relay:
        LCALL   ?BDISPATCH
        DATA
        DC24    ZDSecMgrRestoreFromNV

        RSEG BANK_RELAYS:CODE:REORDER:NOROOT(0)
??ZDSecMgrAPSRemove?relay:
        LCALL   ?BDISPATCH
        DATA
        DC24    ZDSecMgrAPSRemove

        END
// 3693 
// 3694 /******************************************************************************
// 3695 ******************************************************************************/
// 3696 
// 
// 6 827 bytes in segment BANKED_CODE
//   456 bytes in segment BANK_RELAYS
//    17 bytes in segment XDATA_I
//    17 bytes in segment XDATA_ID
//     8 bytes in segment XDATA_ROM_C
//    28 bytes in segment XDATA_Z
// 
// 7 300 bytes of CODE  memory
//     0 bytes of CONST memory (+ 8 bytes shared)
//    45 bytes of XDATA memory
//
//Errors: none
//Warnings: none
