///////////////////////////////////////////////////////////////////////////////
//                                                                            /
// IAR C/C++ Compiler V8.10.1.10194/W32 for 8051        14/Jun/2016  16:18:46 /
// Copyright 2004-2011 IAR Systems AB.                                        /
//                                                                            /
//    Core               =  plain                                             /
//    Code model         =  banked                                            /
//    Data model         =  large                                             /
//    Calling convention =  xdata reentrant                                   /
//    Constant location  =  data_rom                                          /
//    Dptr setup         =  1,16                                              /
//    Source file        =  F:\π‚≈Ã◊ ¡œ\ETC-WSNŒÔ¡™Õ¯π‚≈Ã◊ ¡œ210\ZigBeeÕ¯¬Á\W /
//                          SN-CS‘¥¬Î\ZStack-CC2530-2.5.1a\Projects\zstack\Ut /
//                          ilities\SerialApp\Coordinator\Coordinator.c       /
//    Command line       =  -f F:\π‚≈Ã◊ ¡œ\ETC-WSNŒÔ¡™Õ¯π‚≈Ã◊ ¡œ210\ZigBeeÕ¯¬ /
//                          Á\WSN-CS‘¥¬Î\ZStack-CC2530-2.5.1a\Projects\zstack /
//                          \Utilities\SerialApp\CC2530DB\..\..\..\Tools\CC25 /
//                          30DB\f8wCoord.cfg (-DCPU32MHZ -DROOT=__near_func  /
//                          -DMAC_CFG_APP_PENDING_QUEUE=TRUE                  /
//                          -DMAC_CFG_TX_DATA_MAX=5 -DMAC_CFG_TX_MAX=8        /
//                          -DMAC_CFG_RX_MAX=5 -DZDO_COORDINATOR -DRTR_NWK)   /
//                          -f F:\π‚≈Ã◊ ¡œ\ETC-WSNŒÔ¡™Õ¯π‚≈Ã◊ ¡œ210\ZigBeeÕ¯¬ /
//                          Á\WSN-CS‘¥¬Î\ZStack-CC2530-2.5.1a\Projects\zstack /
//                          \Utilities\SerialApp\CC2530DB\..\..\..\Tools\CC25 /
//                          30DB\f8wConfig.cfg (-DZIGBEEPRO -DSECURE=0        /
//                          -DZG_SECURE_DYNAMIC=0 -DREFLECTOR                 /
//                          -DDEFAULT_CHANLIST=0x00000800                     /
//                          -DZDAPP_CONFIG_PAN_ID=0x1001                      /
//                          -DNWK_START_DELAY=100 -DEXTENDED_JOINING_RANDOM_M /
//                          ASK=0x007F -DBEACON_REQUEST_DELAY=100             /
//                          -DBEACON_REQ_DELAY_MASK=0x00FF                    /
//                          -DLINK_STATUS_JITTER_MASK=0x007F                  /
//                          -DROUTE_EXPIRY_TIME=30 -DAPSC_ACK_WAIT_DURATION_P /
//                          OLLED=3000 -DNWK_INDIRECT_MSG_TIMEOUT=7           /
//                          -DMAX_RREQ_ENTRIES=8 -DAPSC_MAX_FRAME_RETRIES=3   /
//                          -DNWK_MAX_DATA_RETRIES=2                          /
//                          -DMAX_POLL_FAILURE_RETRIES=2 -DMAX_BCAST=9        /
//                          -DAPS_MAX_GROUPS=16 -DMAX_RTG_ENTRIES=40          /
//                          -DNWK_MAX_BINDING_ENTRIES=4                       /
//                          -DMAX_BINDING_CLUSTER_IDS=4                       /
//                          "-DDEFAULT_KEY={0x01, 0x03, 0x05, 0x07, 0x09,     /
//                          0x0B, 0x0D, 0x0F, 0x00, 0x02, 0x04, 0x06, 0x08,   /
//                          0x0A, 0x0C, 0x0D}" -DMAC_MAX_FRAME_SIZE=116       /
//                          -DZDNWKMGR_MIN_TRANSMISSIONS=20 "-DCONST=const    /
//                          __code" -DGENERIC=__generic                       /
//                          -DRFD_RCVC_ALWAYS_ON=FALSE -DPOLL_RATE=1000       /
//                          -DQUEUED_POLL_RATE=100 -DRESPONSE_POLL_RATE=100)  /
//                          -DREJOIN_POLL_RATE=440 F:\π‚≈Ã◊ ¡œ\ETC-WSNŒÔ¡™Õ¯π /
//                          ‚≈Ã◊ ¡œ210\ZigBeeÕ¯¬Á\WSN-CS‘¥¬Î\ZStack-CC2530-2. /
//                          5.1a\Projects\zstack\Utilities\SerialApp\Coordina /
//                          tor\Coordinator.c -D HAL_UART=TRUE -D             /
//                          SERIAL_APP_PORT=0 -D COOR -D LCD_SUPPORTED -D     /
//                          NV_INIT -lC F:\π‚≈Ã◊ ¡œ\ETC-WSNŒÔ¡™Õ¯π‚≈Ã◊ ¡œ210\ /
//                          ZigBeeÕ¯¬Á\WSN-CS‘¥¬Î\ZStack-CC2530-2.5.1a\Projec /
//                          ts\zstack\Utilities\SerialApp\CC2530DB\Coordinato /
//                          rEB\List\ -lA F:\π‚≈Ã◊ ¡œ\ETC-WSNŒÔ¡™Õ¯π‚≈Ã◊ ¡œ21 /
//                          0\ZigBeeÕ¯¬Á\WSN-CS‘¥¬Î\ZStack-CC2530-2.5.1a\Proj /
//                          ects\zstack\Utilities\SerialApp\CC2530DB\Coordina /
//                          torEB\List\ --diag_suppress Pe001,Pa010 -o        /
//                          F:\π‚≈Ã◊ ¡œ\ETC-WSNŒÔ¡™Õ¯π‚≈Ã◊ ¡œ210\ZigBeeÕ¯¬Á\W /
//                          SN-CS‘¥¬Î\ZStack-CC2530-2.5.1a\Projects\zstack\Ut /
//                          ilities\SerialApp\CC2530DB\CoordinatorEB\Obj\ -e  /
//                          --no_code_motion --debug --core=plain             /
//                          --dptr=16,1 --data_model=large                    /
//                          --code_model=banked --calling_convention=xdata_re /
//                          entrant --place_constants=data_rom                /
//                          --nr_virtual_regs 16 -I                           /
//                          F:\π‚≈Ã◊ ¡œ\ETC-WSNŒÔ¡™Õ¯π‚≈Ã◊ ¡œ210\ZigBeeÕ¯¬Á\W /
//                          SN-CS‘¥¬Î\ZStack-CC2530-2.5.1a\Projects\zstack\Ut /
//                          ilities\SerialApp\CC2530DB\ -I                    /
//                          F:\π‚≈Ã◊ ¡œ\ETC-WSNŒÔ¡™Õ¯π‚≈Ã◊ ¡œ210\ZigBeeÕ¯¬Á\W /
//                          SN-CS‘¥¬Î\ZStack-CC2530-2.5.1a\Projects\zstack\Ut /
//                          ilities\SerialApp\CC2530DB\..\Public\ -I          /
//                          F:\π‚≈Ã◊ ¡œ\ETC-WSNŒÔ¡™Õ¯π‚≈Ã◊ ¡œ210\ZigBeeÕ¯¬Á\W /
//                          SN-CS‘¥¬Î\ZStack-CC2530-2.5.1a\Projects\zstack\Ut /
//                          ilities\SerialApp\CC2530DB\..\..\..\..\..\Compone /
//                          nts\uCGUI\Core\ -I F:\π‚≈Ã◊ ¡œ\ETC-WSNŒÔ¡™Õ¯π‚≈Ã◊ /
//                           ¡œ210\ZigBeeÕ¯¬Á\WSN-CS‘¥¬Î\ZStack-CC2530-2.5.1a /
//                          \Projects\zstack\Utilities\SerialApp\CC2530DB\..\ /
//                          ..\..\..\..\Components\uCGUI\MultiLayer\ -I       /
//                          F:\π‚≈Ã◊ ¡œ\ETC-WSNŒÔ¡™Õ¯π‚≈Ã◊ ¡œ210\ZigBeeÕ¯¬Á\W /
//                          SN-CS‘¥¬Î\ZStack-CC2530-2.5.1a\Projects\zstack\Ut /
//                          ilities\SerialApp\CC2530DB\..\..\..\..\..\Compone /
//                          nts\uCGUI\Config\ -I F:\π‚≈Ã◊ ¡œ\ETC-WSNŒÔ¡™Õ¯π‚≈ /
//                          Ã◊ ¡œ210\ZigBeeÕ¯¬Á\WSN-CS‘¥¬Î\ZStack-CC2530-2.5. /
//                          1a\Projects\zstack\Utilities\SerialApp\CC2530DB\. /
//                          .\Coordinator\ -I F:\π‚≈Ã◊ ¡œ\ETC-WSNŒÔ¡™Õ¯π‚≈Ã◊  /
//                          ¡œ210\ZigBeeÕ¯¬Á\WSN-CS‘¥¬Î\ZStack-CC2530-2.5.1a\ /
//                          Projects\zstack\Utilities\SerialApp\CC2530DB\..\. /
//                          .\..\ZMain\TI2530DB\ -I                           /
//                          F:\π‚≈Ã◊ ¡œ\ETC-WSNŒÔ¡™Õ¯π‚≈Ã◊ ¡œ210\ZigBeeÕ¯¬Á\W /
//                          SN-CS‘¥¬Î\ZStack-CC2530-2.5.1a\Projects\zstack\Ut /
//                          ilities\SerialApp\CC2530DB\..\..\..\..\..\Compone /
//                          nts\hal\include\ -I F:\π‚≈Ã◊ ¡œ\ETC-WSNŒÔ¡™Õ¯π‚≈Ã /
//                          ◊ ¡œ210\ZigBeeÕ¯¬Á\WSN-CS‘¥¬Î\ZStack-CC2530-2.5.1 /
//                          a\Projects\zstack\Utilities\SerialApp\CC2530DB\.. /
//                          \..\..\..\..\Components\hal\target\CC2530EB\ -I   /
//                          F:\π‚≈Ã◊ ¡œ\ETC-WSNŒÔ¡™Õ¯π‚≈Ã◊ ¡œ210\ZigBeeÕ¯¬Á\W /
//                          SN-CS‘¥¬Î\ZStack-CC2530-2.5.1a\Projects\zstack\Ut /
//                          ilities\SerialApp\CC2530DB\..\..\..\..\..\Compone /
//                          nts\mac\include\ -I F:\π‚≈Ã◊ ¡œ\ETC-WSNŒÔ¡™Õ¯π‚≈Ã /
//                          ◊ ¡œ210\ZigBeeÕ¯¬Á\WSN-CS‘¥¬Î\ZStack-CC2530-2.5.1 /
//                          a\Projects\zstack\Utilities\SerialApp\CC2530DB\.. /
//                          \..\..\..\..\Components\mac\high_level\ -I        /
//                          F:\π‚≈Ã◊ ¡œ\ETC-WSNŒÔ¡™Õ¯π‚≈Ã◊ ¡œ210\ZigBeeÕ¯¬Á\W /
//                          SN-CS‘¥¬Î\ZStack-CC2530-2.5.1a\Projects\zstack\Ut /
//                          ilities\SerialApp\CC2530DB\..\..\..\..\..\Compone /
//                          nts\mac\low_level\srf04\ -I                       /
//                          F:\π‚≈Ã◊ ¡œ\ETC-WSNŒÔ¡™Õ¯π‚≈Ã◊ ¡œ210\ZigBeeÕ¯¬Á\W /
//                          SN-CS‘¥¬Î\ZStack-CC2530-2.5.1a\Projects\zstack\Ut /
//                          ilities\SerialApp\CC2530DB\..\..\..\..\..\Compone /
//                          nts\mac\low_level\srf04\single_chip\ -I           /
//                          F:\π‚≈Ã◊ ¡œ\ETC-WSNŒÔ¡™Õ¯π‚≈Ã◊ ¡œ210\ZigBeeÕ¯¬Á\W /
//                          SN-CS‘¥¬Î\ZStack-CC2530-2.5.1a\Projects\zstack\Ut /
//                          ilities\SerialApp\CC2530DB\..\..\..\..\..\Compone /
//                          nts\mt\ -I F:\π‚≈Ã◊ ¡œ\ETC-WSNŒÔ¡™Õ¯π‚≈Ã◊ ¡œ210\Z /
//                          igBeeÕ¯¬Á\WSN-CS‘¥¬Î\ZStack-CC2530-2.5.1a\Project /
//                          s\zstack\Utilities\SerialApp\CC2530DB\..\..\..\.. /
//                          \..\Components\osal\include\ -I                   /
//                          F:\π‚≈Ã◊ ¡œ\ETC-WSNŒÔ¡™Õ¯π‚≈Ã◊ ¡œ210\ZigBeeÕ¯¬Á\W /
//                          SN-CS‘¥¬Î\ZStack-CC2530-2.5.1a\Projects\zstack\Ut /
//                          ilities\SerialApp\CC2530DB\..\..\..\..\..\Compone /
//                          nts\services\saddr\ -I F:\π‚≈Ã◊ ¡œ\ETC-WSNŒÔ¡™Õ¯π /
//                          ‚≈Ã◊ ¡œ210\ZigBeeÕ¯¬Á\WSN-CS‘¥¬Î\ZStack-CC2530-2. /
//                          5.1a\Projects\zstack\Utilities\SerialApp\CC2530DB /
//                          \..\..\..\..\..\Components\services\sdata\ -I     /
//                          F:\π‚≈Ã◊ ¡œ\ETC-WSNŒÔ¡™Õ¯π‚≈Ã◊ ¡œ210\ZigBeeÕ¯¬Á\W /
//                          SN-CS‘¥¬Î\ZStack-CC2530-2.5.1a\Projects\zstack\Ut /
//                          ilities\SerialApp\CC2530DB\..\..\..\..\..\Compone /
//                          nts\stack\af\ -I F:\π‚≈Ã◊ ¡œ\ETC-WSNŒÔ¡™Õ¯π‚≈Ã◊ ¡ /
//                          œ210\ZigBeeÕ¯¬Á\WSN-CS‘¥¬Î\ZStack-CC2530-2.5.1a\P /
//                          rojects\zstack\Utilities\SerialApp\CC2530DB\..\.. /
//                          \..\..\..\Components\stack\nwk\ -I                /
//                          F:\π‚≈Ã◊ ¡œ\ETC-WSNŒÔ¡™Õ¯π‚≈Ã◊ ¡œ210\ZigBeeÕ¯¬Á\W /
//                          SN-CS‘¥¬Î\ZStack-CC2530-2.5.1a\Projects\zstack\Ut /
//                          ilities\SerialApp\CC2530DB\..\..\..\..\..\Compone /
//                          nts\stack\sapi\ -I F:\π‚≈Ã◊ ¡œ\ETC-WSNŒÔ¡™Õ¯π‚≈Ã◊ /
//                           ¡œ210\ZigBeeÕ¯¬Á\WSN-CS‘¥¬Î\ZStack-CC2530-2.5.1a /
//                          \Projects\zstack\Utilities\SerialApp\CC2530DB\..\ /
//                          ..\..\..\..\Components\stack\sec\ -I              /
//                          F:\π‚≈Ã◊ ¡œ\ETC-WSNŒÔ¡™Õ¯π‚≈Ã◊ ¡œ210\ZigBeeÕ¯¬Á\W /
//                          SN-CS‘¥¬Î\ZStack-CC2530-2.5.1a\Projects\zstack\Ut /
//                          ilities\SerialApp\CC2530DB\..\..\..\..\..\Compone /
//                          nts\stack\sys\ -I F:\π‚≈Ã◊ ¡œ\ETC-WSNŒÔ¡™Õ¯π‚≈Ã◊  /
//                          ¡œ210\ZigBeeÕ¯¬Á\WSN-CS‘¥¬Î\ZStack-CC2530-2.5.1a\ /
//                          Projects\zstack\Utilities\SerialApp\CC2530DB\..\. /
//                          .\..\..\..\Components\stack\zdo\ -I               /
//                          F:\π‚≈Ã◊ ¡œ\ETC-WSNŒÔ¡™Õ¯π‚≈Ã◊ ¡œ210\ZigBeeÕ¯¬Á\W /
//                          SN-CS‘¥¬Î\ZStack-CC2530-2.5.1a\Projects\zstack\Ut /
//                          ilities\SerialApp\CC2530DB\..\..\..\..\..\Compone /
//                          nts\zmac\ -I F:\π‚≈Ã◊ ¡œ\ETC-WSNŒÔ¡™Õ¯π‚≈Ã◊ ¡œ210 /
//                          \ZigBeeÕ¯¬Á\WSN-CS‘¥¬Î\ZStack-CC2530-2.5.1a\Proje /
//                          cts\zstack\Utilities\SerialApp\CC2530DB\..\..\..\ /
//                          ..\..\Components\zmac\f8w\ -Ohz                   /
//                          --require_prototypes                              /
//    List file          =  F:\π‚≈Ã◊ ¡œ\ETC-WSNŒÔ¡™Õ¯π‚≈Ã◊ ¡œ210\ZigBeeÕ¯¬Á\W /
//                          SN-CS‘¥¬Î\ZStack-CC2530-2.5.1a\Projects\zstack\Ut /
//                          ilities\SerialApp\CC2530DB\CoordinatorEB\List\Coo /
//                          rdinator.s51                                      /
//                                                                            /
//                                                                            /
///////////////////////////////////////////////////////////////////////////////

        NAME Coordinator

        RTMODEL "__SystemLibrary", "CLib"
        RTMODEL "__calling_convention", "xdata_reentrant"
        RTMODEL "__code_model", "banked"
        RTMODEL "__core", "plain"
        RTMODEL "__data_model", "large"
        RTMODEL "__dptr_size", "16"
        RTMODEL "__extended_stack", "disabled"
        RTMODEL "__location_for_constants", "data"
        RTMODEL "__number_of_dptrs", "1"
        RTMODEL "__rt_version", "1"

        RSEG DOVERLAY:DATA:NOROOT(0)
        RSEG IOVERLAY:IDATA:NOROOT(0)
        RSEG ISTACK:IDATA:NOROOT(0)
        RSEG PSTACK:XDATA:NOROOT(0)
        RSEG XSTACK:XDATA:NOROOT(0)

        EXTERN ?ALLOC_XSTACK8
        EXTERN ?BANKED_ENTER_XDATA
        EXTERN ?BANKED_LEAVE_XDATA
        EXTERN ?BDISPATCH
        EXTERN ?DEALLOC_XSTACK8
        EXTERN ?MOVE_LONG8_XDATA_XDATA
        EXTERN ?PUSH_XSTACK_I_FOUR
        EXTERN ?PUSH_XSTACK_I_ONE
        EXTERN ?PUSH_XSTACK_I_TWO
        EXTERN ?V0
        EXTERN ?XLOAD_R2345
        EXTERN ?XSP
        EXTERN ?XSTACK_DISP0_8
        EXTERN __INIT_XDATA_I
        EXTERN __INIT_XDATA_Z

        FUNCTION ??SerialApp_CallBack?relay,0203H
        PUBLIC ??SerialApp_HandleKeys?relay
        FUNCTION ??SerialApp_HandleKeys?relay,0203H
        PUBLIC ??SerialApp_Init?relay
        FUNCTION ??SerialApp_Init?relay,0203H
        PUBLIC ??SerialApp_OTAData?relay
        FUNCTION ??SerialApp_OTAData?relay,0203H
        PUBLIC ??SerialApp_ProcessEvent?relay
        FUNCTION ??SerialApp_ProcessEvent?relay,0203H
        FUNCTION ??SerialApp_ProcessMSGCmd?relay,0203H
        PUBLIC SampleApp_NwkState
        FUNCTION SerialApp_CallBack,021603H
        ARGFRAME XSTACK, 0, STACK
        LOCFRAME XSTACK, 9, STACK
        PUBLIC SerialApp_ClusterList
        PUBLIC SerialApp_HandleKeys
        FUNCTION SerialApp_HandleKeys,021203H
        ARGFRAME XSTACK, 12, STACK
        ARGFRAME IOVERLAY, 0, STATIC
        ARGFRAME DOVERLAY, 0, STATIC
        LOCFRAME XSTACK, 10, STACK
        PUBLIC SerialApp_Init
        FUNCTION SerialApp_Init,021203H
        ARGFRAME XSTACK, 0, STACK
        LOCFRAME XSTACK, 38, STACK
        PUBLIC SerialApp_OTAData
        FUNCTION SerialApp_OTAData,021203H
        ARGFRAME XSTACK, 13, STACK
        ARGFRAME IOVERLAY, 0, STATIC
        ARGFRAME DOVERLAY, 0, STATIC
        LOCFRAME XSTACK, 19, STACK
        PUBLIC SerialApp_ProcessEvent
        FUNCTION SerialApp_ProcessEvent,021203H
        ARGFRAME XSTACK, 0, STACK
        LOCFRAME XSTACK, 16, STACK
        FUNCTION SerialApp_ProcessMSGCmd,021203H
        ARGFRAME XSTACK, 12, STACK
        ARGFRAME IOVERLAY, 0, STATIC
        ARGFRAME DOVERLAY, 0, STATIC
        LOCFRAME ISTACK, 2, STACK
        LOCFRAME XSTACK, 31, STACK
        PUBLIC SerialApp_SimpleDesc
        PUBLIC SerialApp_TaskID
        PUBLIC SerialApp_epDesc
        PUBWEAK __Constant_0
        PUBWEAK __Constant_1001
        PUBWEAK __Constant_800
        PUBWEAK __Constant_ff
        PUBWEAK __Constant_ff00
        
        CFI Names cfiNames0
        CFI StackFrame CFA_SP SP IDATA
        CFI StackFrame CFA_PSP16 PSP16 XDATA
        CFI StackFrame CFA_XSP16 XSP16 XDATA
        CFI StaticOverlayFrame CFA_IOVERLAY IOVERLAY
        CFI StaticOverlayFrame CFA_DOVERLAY DOVERLAY
        CFI Resource `PSW.CY`:1, `B.BR0`:1, `B.BR1`:1, `B.BR2`:1, `B.BR3`:1
        CFI Resource `B.BR4`:1, `B.BR5`:1, `B.BR6`:1, `B.BR7`:1, `VB.BR8`:1
        CFI Resource `VB.BR9`:1, `VB.BR10`:1, `VB.BR11`:1, `VB.BR12`:1
        CFI Resource `VB.BR13`:1, `VB.BR14`:1, `VB.BR15`:1, VB:8, B:8, A:8
        CFI Resource PSW:8, DPL0:8, DPH0:8, R0:8, R1:8, R2:8, R3:8, R4:8, R5:8
        CFI Resource R6:8, R7:8, V0:8, V1:8, V2:8, V3:8, V4:8, V5:8, V6:8, V7:8
        CFI Resource V8:8, V9:8, V10:8, V11:8, V12:8, V13:8, V14:8, V15:8, SP:8
        CFI Resource PSPH:8, PSPL:8, PSP16:16, XSPH:8, XSPL:8, XSP16:16
        CFI VirtualResource ?RET:24
        CFI Resource ?BRET_EXT:8
        CFI VirtualResource ?RET_HIGH:8, ?RET_LOW:8
        CFI ResourceParts PSP16 PSPH, PSPL
        CFI ResourceParts XSP16 XSPH, XSPL
        CFI ResourceParts ?RET ?BRET_EXT, ?RET_HIGH, ?RET_LOW
        CFI EndNames cfiNames0
        
        CFI Common cfiCommon0 Using cfiNames0
        CFI CodeAlign 1
        CFI DataAlign -1
        CFI ReturnAddress ?RET CODE
        CFI CFA_DOVERLAY Used
        CFI CFA_IOVERLAY Used
        CFI CFA_SP SP+-3
        CFI CFA_PSP16 PSP16+0
        CFI CFA_XSP16 XSP16+0
        CFI `PSW.CY` SameValue
        CFI `B.BR0` SameValue
        CFI `B.BR1` SameValue
        CFI `B.BR2` SameValue
        CFI `B.BR3` SameValue
        CFI `B.BR4` SameValue
        CFI `B.BR5` SameValue
        CFI `B.BR6` SameValue
        CFI `B.BR7` SameValue
        CFI `VB.BR8` SameValue
        CFI `VB.BR9` SameValue
        CFI `VB.BR10` SameValue
        CFI `VB.BR11` SameValue
        CFI `VB.BR12` SameValue
        CFI `VB.BR13` SameValue
        CFI `VB.BR14` SameValue
        CFI `VB.BR15` SameValue
        CFI VB SameValue
        CFI B Undefined
        CFI A Undefined
        CFI PSW SameValue
        CFI DPL0 SameValue
        CFI DPH0 SameValue
        CFI R0 Undefined
        CFI R1 Undefined
        CFI R2 Undefined
        CFI R3 Undefined
        CFI R4 Undefined
        CFI R5 Undefined
        CFI R6 SameValue
        CFI R7 SameValue
        CFI V0 SameValue
        CFI V1 SameValue
        CFI V2 SameValue
        CFI V3 SameValue
        CFI V4 SameValue
        CFI V5 SameValue
        CFI V6 SameValue
        CFI V7 SameValue
        CFI V8 SameValue
        CFI V9 SameValue
        CFI V10 SameValue
        CFI V11 SameValue
        CFI V12 SameValue
        CFI V13 SameValue
        CFI V14 SameValue
        CFI V15 SameValue
        CFI PSPH Undefined
        CFI PSPL Undefined
        CFI XSPH Undefined
        CFI XSPL Undefined
        CFI ?RET Concat
        CFI ?BRET_EXT Frame(CFA_SP, 3)
        CFI ?RET_HIGH Frame(CFA_SP, 2)
        CFI ?RET_LOW Frame(CFA_SP, 1)
        CFI EndCommon cfiCommon0
        
        
        CFI Common cfiCommon1 Using cfiNames0
        CFI CodeAlign 1
        CFI DataAlign -1
        CFI ReturnAddress ?RET CODE
        CFI CFA_DOVERLAY Used
        CFI CFA_IOVERLAY Used
        CFI CFA_SP SP+-2
        CFI CFA_PSP16 PSP16+0
        CFI CFA_XSP16 XSP16+0
        CFI `PSW.CY` SameValue
        CFI `B.BR0` SameValue
        CFI `B.BR1` SameValue
        CFI `B.BR2` SameValue
        CFI `B.BR3` SameValue
        CFI `B.BR4` SameValue
        CFI `B.BR5` SameValue
        CFI `B.BR6` SameValue
        CFI `B.BR7` SameValue
        CFI `VB.BR8` SameValue
        CFI `VB.BR9` SameValue
        CFI `VB.BR10` SameValue
        CFI `VB.BR11` SameValue
        CFI `VB.BR12` SameValue
        CFI `VB.BR13` SameValue
        CFI `VB.BR14` SameValue
        CFI `VB.BR15` SameValue
        CFI VB SameValue
        CFI B SameValue
        CFI A SameValue
        CFI PSW SameValue
        CFI DPL0 SameValue
        CFI DPH0 SameValue
        CFI R0 SameValue
        CFI R1 SameValue
        CFI R2 SameValue
        CFI R3 SameValue
        CFI R4 SameValue
        CFI R5 SameValue
        CFI R6 SameValue
        CFI R7 SameValue
        CFI V0 SameValue
        CFI V1 SameValue
        CFI V2 SameValue
        CFI V3 SameValue
        CFI V4 SameValue
        CFI V5 SameValue
        CFI V6 SameValue
        CFI V7 SameValue
        CFI V8 SameValue
        CFI V9 SameValue
        CFI V10 SameValue
        CFI V11 SameValue
        CFI V12 SameValue
        CFI V13 SameValue
        CFI V14 SameValue
        CFI V15 SameValue
        CFI PSPH Undefined
        CFI PSPL Undefined
        CFI XSPH Undefined
        CFI XSPL Undefined
        CFI ?RET Concat
        CFI ?BRET_EXT SameValue
        CFI ?RET_HIGH Frame(CFA_SP, 2)
        CFI ?RET_LOW Frame(CFA_SP, 1)
        CFI EndCommon cfiCommon1
        
afRegister          SYMBOL "afRegister"
RegisterForKeys     SYMBOL "RegisterForKeys"
HalUARTOpen         SYMBOL "HalUARTOpen"
LCD_Clear           SYMBOL "LCD_Clear"
GUI_SetColor        SYMBOL "GUI_SetColor"
GUI_SetFont         SYMBOL "GUI_SetFont"
GUI_DispStringAt    SYMBOL "GUI_DispStringAt"
GUI_DispHexAt       SYMBOL "GUI_DispHexAt"
HalLedSet           SYMBOL "HalLedSet"
HalLedBlink         SYMBOL "HalLedBlink"
osal_start_timerEx  SYMBOL "osal_start_timerEx"
osal_msg_deallocate SYMBOL "osal_msg_deallocate"
osal_msg_receive    SYMBOL "osal_msg_receive"
HalUARTWrite        SYMBOL "HalUARTWrite"
GUI_DispDecAt       SYMBOL "GUI_DispDecAt"
LCD_ShowNum         SYMBOL "LCD_ShowNum"
LCD_ShowString      SYMBOL "LCD_ShowString"
AF_DataRequest      SYMBOL "AF_DataRequest"
HalUARTRead         SYMBOL "HalUARTRead"
osal_set_event      SYMBOL "osal_set_event"
??AF_DataRequest?relay SYMBOL "?relay", AF_DataRequest
??GUI_DispDecAt?relay SYMBOL "?relay", GUI_DispDecAt
??GUI_DispHexAt?relay SYMBOL "?relay", GUI_DispHexAt
??GUI_DispStringAt?relay SYMBOL "?relay", GUI_DispStringAt
??GUI_SetColor?relay SYMBOL "?relay", GUI_SetColor
??GUI_SetFont?relay SYMBOL "?relay", GUI_SetFont
??HalLedBlink?relay SYMBOL "?relay", HalLedBlink
??HalLedSet?relay   SYMBOL "?relay", HalLedSet
??HalUARTOpen?relay SYMBOL "?relay", HalUARTOpen
??HalUARTRead?relay SYMBOL "?relay", HalUARTRead
??HalUARTWrite?relay SYMBOL "?relay", HalUARTWrite
??LCD_Clear?relay   SYMBOL "?relay", LCD_Clear
??LCD_ShowNum?relay SYMBOL "?relay", LCD_ShowNum
??LCD_ShowString?relay SYMBOL "?relay", LCD_ShowString
??RegisterForKeys?relay SYMBOL "?relay", RegisterForKeys
??afRegister?relay  SYMBOL "?relay", afRegister
??osal_msg_deallocate?relay SYMBOL "?relay", osal_msg_deallocate
??osal_msg_receive?relay SYMBOL "?relay", osal_msg_receive
??osal_set_event?relay SYMBOL "?relay", osal_set_event
??osal_start_timerEx?relay SYMBOL "?relay", osal_start_timerEx
SerialApp_HandleKeys SYMBOL "SerialApp_HandleKeys"
??SerialApp_HandleKeys?relay SYMBOL "?relay", SerialApp_HandleKeys
SerialApp_Init      SYMBOL "SerialApp_Init"
??SerialApp_Init?relay SYMBOL "?relay", SerialApp_Init
SerialApp_OTAData   SYMBOL "SerialApp_OTAData"
??SerialApp_OTAData?relay SYMBOL "?relay", SerialApp_OTAData
SerialApp_ProcessEvent SYMBOL "SerialApp_ProcessEvent"
??SerialApp_ProcessEvent?relay SYMBOL "?relay", SerialApp_ProcessEvent

        EXTERN afRegister
        FUNCTION afRegister,0202H
        ARGFRAME ISTACK, 0, STACK
        ARGFRAME PSTACK, 0, STACK
        ARGFRAME XSTACK, 38, STACK
        ARGFRAME IOVERLAY, 0, STATIC
        ARGFRAME DOVERLAY, 0, STATIC
        EXTERN RegisterForKeys
        FUNCTION RegisterForKeys,0202H
        ARGFRAME ISTACK, 0, STACK
        ARGFRAME PSTACK, 0, STACK
        ARGFRAME XSTACK, 38, STACK
        ARGFRAME IOVERLAY, 0, STATIC
        ARGFRAME DOVERLAY, 0, STATIC
        EXTERN HalUARTOpen
        FUNCTION HalUARTOpen,0202H
        ARGFRAME ISTACK, 0, STACK
        ARGFRAME PSTACK, 0, STACK
        ARGFRAME XSTACK, 38, STACK
        ARGFRAME IOVERLAY, 0, STATIC
        ARGFRAME DOVERLAY, 0, STATIC
        EXTERN LCD_Clear
        FUNCTION LCD_Clear,0202H
        ARGFRAME ISTACK, 0, STACK
        ARGFRAME PSTACK, 0, STACK
        ARGFRAME XSTACK, 12, STACK
        ARGFRAME IOVERLAY, 0, STATIC
        ARGFRAME DOVERLAY, 0, STATIC
        EXTERN GUI_SetColor
        FUNCTION GUI_SetColor,0202H
        ARGFRAME ISTACK, 0, STACK
        ARGFRAME PSTACK, 0, STACK
        ARGFRAME XSTACK, 12, STACK
        ARGFRAME IOVERLAY, 0, STATIC
        ARGFRAME DOVERLAY, 0, STATIC
        EXTERN GUI_SetFont
        FUNCTION GUI_SetFont,0202H
        ARGFRAME ISTACK, 0, STACK
        ARGFRAME PSTACK, 0, STACK
        ARGFRAME XSTACK, 12, STACK
        ARGFRAME IOVERLAY, 0, STATIC
        ARGFRAME DOVERLAY, 0, STATIC
        EXTERN GUI_DispStringAt
        FUNCTION GUI_DispStringAt,0202H
        ARGFRAME ISTACK, 0, STACK
        ARGFRAME PSTACK, 0, STACK
        ARGFRAME XSTACK, 14, STACK
        ARGFRAME IOVERLAY, 0, STATIC
        ARGFRAME DOVERLAY, 0, STATIC
        EXTERN GUI_DispHexAt
        FUNCTION GUI_DispHexAt,0202H
        ARGFRAME ISTACK, 0, STACK
        ARGFRAME PSTACK, 0, STACK
        ARGFRAME XSTACK, 16, STACK
        ARGFRAME IOVERLAY, 0, STATIC
        ARGFRAME DOVERLAY, 0, STATIC
        EXTERN HalLedSet
        FUNCTION HalLedSet,0202H
        ARGFRAME ISTACK, 0, STACK
        ARGFRAME PSTACK, 0, STACK
        ARGFRAME XSTACK, 12, STACK
        ARGFRAME IOVERLAY, 0, STATIC
        ARGFRAME DOVERLAY, 0, STATIC
        EXTERN HalLedBlink
        FUNCTION HalLedBlink,0202H
        ARGFRAME ISTACK, 0, STACK
        ARGFRAME PSTACK, 0, STACK
        ARGFRAME XSTACK, 27, STACK
        ARGFRAME IOVERLAY, 0, STATIC
        ARGFRAME DOVERLAY, 0, STATIC
        EXTERN osal_start_timerEx
        FUNCTION osal_start_timerEx,0202H
        ARGFRAME ISTACK, 0, STACK
        ARGFRAME PSTACK, 0, STACK
        ARGFRAME XSTACK, 12, STACK
        ARGFRAME IOVERLAY, 0, STATIC
        ARGFRAME DOVERLAY, 0, STATIC
        EXTERN osal_msg_deallocate
        FUNCTION osal_msg_deallocate,0202H
        ARGFRAME ISTACK, 0, STACK
        ARGFRAME PSTACK, 0, STACK
        ARGFRAME XSTACK, 12, STACK
        ARGFRAME IOVERLAY, 0, STATIC
        ARGFRAME DOVERLAY, 0, STATIC
        EXTERN osal_msg_receive
        FUNCTION osal_msg_receive,0202H
        ARGFRAME ISTACK, 0, STACK
        ARGFRAME PSTACK, 0, STACK
        ARGFRAME XSTACK, 12, STACK
        ARGFRAME IOVERLAY, 0, STATIC
        ARGFRAME DOVERLAY, 0, STATIC
        EXTERN HalUARTWrite
        FUNCTION HalUARTWrite,0202H
        ARGFRAME ISTACK, 0, STACK
        ARGFRAME PSTACK, 0, STACK
        ARGFRAME XSTACK, 27, STACK
        ARGFRAME IOVERLAY, 0, STATIC
        ARGFRAME DOVERLAY, 0, STATIC
        EXTERN GUI_DispDecAt
        FUNCTION GUI_DispDecAt,0202H
        ARGFRAME ISTACK, 0, STACK
        ARGFRAME PSTACK, 0, STACK
        ARGFRAME XSTACK, 31, STACK
        ARGFRAME IOVERLAY, 0, STATIC
        ARGFRAME DOVERLAY, 0, STATIC
        EXTERN LCD_ShowNum
        FUNCTION LCD_ShowNum,0202H
        ARGFRAME ISTACK, 0, STACK
        ARGFRAME PSTACK, 0, STACK
        ARGFRAME XSTACK, 31, STACK
        ARGFRAME IOVERLAY, 0, STATIC
        ARGFRAME DOVERLAY, 0, STATIC
        EXTERN LCD_ShowString
        FUNCTION LCD_ShowString,0202H
        ARGFRAME ISTACK, 0, STACK
        ARGFRAME PSTACK, 0, STACK
        ARGFRAME XSTACK, 29, STACK
        ARGFRAME IOVERLAY, 0, STATIC
        ARGFRAME DOVERLAY, 0, STATIC
        EXTERN AF_DataRequest
        FUNCTION AF_DataRequest,0202H
        ARGFRAME ISTACK, 0, STACK
        ARGFRAME PSTACK, 0, STACK
        ARGFRAME XSTACK, 19, STACK
        ARGFRAME IOVERLAY, 0, STATIC
        ARGFRAME DOVERLAY, 0, STATIC
        EXTERN HalUARTRead
        FUNCTION HalUARTRead,0202H
        ARGFRAME ISTACK, 0, STACK
        ARGFRAME PSTACK, 0, STACK
        ARGFRAME XSTACK, 9, STACK
        ARGFRAME IOVERLAY, 0, STATIC
        ARGFRAME DOVERLAY, 0, STATIC
        EXTERN osal_set_event
        FUNCTION osal_set_event,0202H
        ARGFRAME ISTACK, 0, STACK
        ARGFRAME PSTACK, 0, STACK
        ARGFRAME XSTACK, 9, STACK
        ARGFRAME IOVERLAY, 0, STATIC
        ARGFRAME DOVERLAY, 0, STATIC
        EXTERN ??AF_DataRequest?relay
        FUNCTION ??AF_DataRequest?relay,00H
        EXTERN ??GUI_DispDecAt?relay
        FUNCTION ??GUI_DispDecAt?relay,00H
        EXTERN ??GUI_DispHexAt?relay
        FUNCTION ??GUI_DispHexAt?relay,00H
        EXTERN ??GUI_DispStringAt?relay
        FUNCTION ??GUI_DispStringAt?relay,00H
        EXTERN ??GUI_SetColor?relay
        FUNCTION ??GUI_SetColor?relay,00H
        EXTERN ??GUI_SetFont?relay
        FUNCTION ??GUI_SetFont?relay,00H
        EXTERN ??HalLedBlink?relay
        FUNCTION ??HalLedBlink?relay,00H
        EXTERN ??HalLedSet?relay
        FUNCTION ??HalLedSet?relay,00H
        EXTERN ??HalUARTOpen?relay
        FUNCTION ??HalUARTOpen?relay,00H
        EXTERN ??HalUARTRead?relay
        FUNCTION ??HalUARTRead?relay,00H
        EXTERN ??HalUARTWrite?relay
        FUNCTION ??HalUARTWrite?relay,00H
        EXTERN ??LCD_Clear?relay
        FUNCTION ??LCD_Clear?relay,00H
        EXTERN ??LCD_ShowNum?relay
        FUNCTION ??LCD_ShowNum?relay,00H
        EXTERN ??LCD_ShowString?relay
        FUNCTION ??LCD_ShowString?relay,00H
        EXTERN ??RegisterForKeys?relay
        FUNCTION ??RegisterForKeys?relay,00H
        EXTERN ??afRegister?relay
        FUNCTION ??afRegister?relay,00H
        EXTERN ??osal_msg_deallocate?relay
        FUNCTION ??osal_msg_deallocate?relay,00H
        EXTERN ??osal_msg_receive?relay
        FUNCTION ??osal_msg_receive?relay,00H
        EXTERN ??osal_set_event?relay
        FUNCTION ??osal_set_event?relay,00H
        EXTERN ??osal_start_timerEx?relay
        FUNCTION ??osal_start_timerEx?relay,00H
        EXTERN GUI_Font32B_ASCII
        EXTERN GUI_Font8x16

// F:\π‚≈Ã◊ ¡œ\ETC-WSNŒÔ¡™Õ¯π‚≈Ã◊ ¡œ210\ZigBeeÕ¯¬Á\WSN-CS‘¥¬Î\ZStack-CC2530-2.5.1a\Projects\zstack\Utilities\SerialApp\Coordinator\Coordinator.c
//    1 /**************************************************************************************************
//    2   Filename:       SerialApp.c
//    3   Revised:        $Date: 2009-03-29 10:51:47 -0700 (Sun, 29 Mar 2009) $
//    4   Revision:       $Revision: 19585 $
//    5 
//    6   Description -   Serial Transfer Application (no Profile).
//    7 
//    8 
//    9   Copyright 2004-2009 Texas Instruments Incorporated. All rights reserved.
//   10 
//   11   IMPORTANT: Your use of this Software is limited to those specific rights
//   12   granted under the terms of a software license agreement between the user
//   13   who downloaded the software, his/her employer (which must be your employer)
//   14   and Texas Instruments Incorporated (the "License").  You may not use this
//   15   Software unless you agree to abide by the  v  terms of the License. The License
//   16   limits your use, and you acknowledge, that the Software may not be modified,
//   17   copied or distributed unless embedded on a Texas Instruments microcontroller
//   18   or used solely and exclusively in conjunction with a Texas Instruments radio
//   19   frequency transceiver, which is integrated into your product.  Other than for
//   20   the foregoing purpose, you may not use, reproduce, copy, prepare derivative
//   21   works of, modify, distribute, perform, display or sell this Software and/or
//   22   its documentation for any purpose.
//   23 
//   24   YOU FURTHER ACKNOWLEDGE AND AGREE THAT THE SOFTWARE AND DOCUMENTATION ARE
//   25   PROVIDED ìAS IS?WITHOUT WARRANTY OF ANY KIND, EITHER EXPRESS OR IMPLIED, 
//   26   INCLUDING WITHOUT LIMITATION, ANY WARRANTY OF MERCHANTABILITY, TITLE, 
//   27   NON-INFRINGEMENT AND FITNESS FOR A PARTICULAR PURPOSE. IN NO EVENT SHALL
//   28   TEXAS INSTRUMENTS OR ITS LICENSORS BE LIABLE OR OBLIGATED UNDER CONTRACT,
//   29   NEGLIGENCE, STRICT LIABILITY, CONTRIBUTION, BREACH OF WARRANTY, OR OTHER
//   30   LEGAL EQUITABLE THEORY ANY DIRECT OR INDIRECT DAMAGES OR EXPENSES
//   31   INCLUDING BUT NOT LIMITED TO ANY INCIDENTAL, SPECIAL, INDIRECT, PUNITIVE
//   32   OR CONSEQUENTIAL DAMAGES, LOST PROFITS OR LOST DATA, COST OF PROCUREMENT
//   33   OF SUBSTITUTE GOODS, TECHNOLOGY, SERVICES, OR ANY CLAIMS BY THIRD PARTIES
//   34   (INCLUDING BUT NOT LIMITED TO ANY DEFENSE THEREOF), OR OTHER SIMILAR COSTS.
//   35 
//   36   Should you have any questions regarding your right to use this Software,
//   37   contact Texas Instruments Incorporated at www.TI.com. 
//   38 **************************************************************************************************/
//   39 
//   40 #include "AF.h"
//   41 #include "OnBoard.h"
//   42 #include "OSAL_Tasks.h"
//   43 #include "ZDApp.h"
//   44 #include "ZDObject.h"
//   45 #include "ZDProfile.h"
//   46 
//   47 #include "hal_drivers.h"
//   48 #include "hal_key.h"
//   49 #if defined ( LCD_SUPPORTED )
//   50   #include "hal_lcd.h"
//   51 #endif
//   52 #include "hal_led.h"
//   53 #include "hal_uart.h"
//   54 #include "Public.h"
//   55 #include "Coordinator.h"
//   56 #include "osal_clock.h"
//   57 #include "mac_mcu.h"
//   58 #include "gprs.h"
//   59 #include "GUI.h"
//   60 /*********************************************************************
//   61 wifi…Ë÷√£∫Õ¯¬Á√˚≥∆£∫lipengjun  Œﬁ√‹¬Î
//   62           IPµÿ÷∑£∫192.168.1.122
//   63          ◊”Õ¯—⁄¬Î£∫255.155.255.0
//   64          Õ¯πÿµÿ÷∑£∫192.168.1.1
//   65               DNS: 192.168.1.1
//   66          –≠“È¿‡–Õ£∫TCP
//   67          C/Sƒ£ Ω£∫∑˛ŒÒ∆˜
//   68          ∂Àø⁄∫≈£∫9999
//   69 
//   70 *******************************************************************/
//   71 
//   72 #if !defined( SERIAL_APP_PORT )
//   73 #define SERIAL_APP_PORT  0
//   74 #endif
//   75 
//   76 #if !defined( SERIAL_APP_BAUD )
//   77 #define SERIAL_APP_BAUD  HAL_UART_BR_115200
//   78 #endif
//   79 
//   80 // When the Rx buf space is less than this threshold, invoke the Rx callback.
//   81 #if !defined( SERIAL_APP_THRESH )
//   82 #define SERIAL_APP_THRESH  64
//   83 #endif
//   84 
//   85 #if !defined( SERIAL_APP_RX_SZ )
//   86 #define SERIAL_APP_RX_SZ  128
//   87 #endif
//   88 
//   89 #if !defined( SERIAL_APP_TX_SZ )
//   90 #define SERIAL_APP_TX_SZ  128
//   91 #endif
//   92 
//   93 // Millisecs of idle time after a byte is received before invoking Rx callback.
//   94 #if !defined( SERIAL_APP_IDLE )
//   95 #define SERIAL_APP_IDLE  6
//   96 #endif
//   97 
//   98 // Loopback Rx bytes to Tx for throughput testing.
//   99 #if !defined( SERIAL_APP_LOOPBACK )
//  100 #define SERIAL_APP_LOOPBACK  FALSE
//  101 #endif
//  102 
//  103 // This is the max byte count per OTA message.
//  104 #if !defined( SERIAL_APP_TX_MAX )
//  105 #define SERIAL_APP_TX_MAX  20
//  106 #endif
//  107 
//  108 
//  109 // This list should be filled with Application specific Cluster IDs.

        RSEG XDATA_ROM_C:CONST:REORDER:NOROOT(0)
        DATA32
//  110 const cId_t SerialApp_ClusterList[SERIALAPP_MAX_CLUSTERS] =
SerialApp_ClusterList:
        DATA16
        DW 1
        DW 2
//  111 {
//  112   SERIALAPP_CLUSTERID1,
//  113   SERIALAPP_CLUSTERID2
//  114 };
//  115 

        RSEG XDATA_ROM_C:CONST:REORDER:NOROOT(0)
        DATA8
//  116 const SimpleDescriptionFormat_t SerialApp_SimpleDesc =
SerialApp_SimpleDesc:
        DB 11
        DATA16
        DW 3845
        DW 1
        DATA8
        DB 0
        DB 2
        DATA16
        DW SerialApp_ClusterList
        DATA8
        DB 2
        DATA16
        DW SerialApp_ClusterList
//  117 {
//  118   SERIALAPP_ENDPOINT,              //  int   Endpoint;
//  119   SERIALAPP_PROFID,                //  uint16 AppProfId[2];
//  120   SERIALAPP_DEVICEID,              //  uint16 AppDeviceId[2];
//  121   SERIALAPP_DEVICE_VERSION,        //  int   AppDevVer:4;
//  122   SERIALAPP_FLAGS,                 //  int   AppFlags:4;
//  123   SERIALAPP_MAX_CLUSTERS,          //  byte  AppNumInClusters;
//  124   (cId_t *)SerialApp_ClusterList,  //  byte *pAppInClusterList;
//  125   SERIALAPP_MAX_CLUSTERS,          //  byte  AppNumOutClusters;
//  126   (cId_t *)SerialApp_ClusterList   //  byte *pAppOutClusterList;
//  127 };
//  128 

        RSEG XDATA_ROM_C:CONST:REORDER:NOROOT(0)
        DATA8
//  129 const endPointDesc_t SerialApp_epDesc =
SerialApp_epDesc:
        DB 11
        DATA16
        DW SerialApp_TaskID
        DW SerialApp_SimpleDesc
        DATA8
        DB 0
//  130 {
//  131   SERIALAPP_ENDPOINT,
//  132  &SerialApp_TaskID,
//  133   (SimpleDescriptionFormat_t *)&SerialApp_SimpleDesc,
//  134   noLatencyReqs
//  135 };
//  136 
//  137 /*********************************************************************
//  138  * TYPEDEFS
//  139  */
//  140 
//  141 /*********************************************************************
//  142  * GLOBAL VARIABLES
//  143  */
//  144 

        RSEG XDATA_Z:XDATA:NOROOT(0)
        DATA8
//  145 uint8 SerialApp_TaskID;    // Task ID for internal task/event processing.
SerialApp_TaskID:
        DS 1
        REQUIRE __INIT_XDATA_Z

        RSEG XDATA_Z:XDATA:NOROOT(0)
        DATA8
//  146 devStates_t  SampleApp_NwkState;
SampleApp_NwkState:
        DS 1
        REQUIRE __INIT_XDATA_Z
//  147 

        RSEG XDATA_Z:XDATA:NOROOT(0)
        DATA8
//  148 static UART_Format UART0_Format;
UART0_Format:
        DS 16
        REQUIRE __INIT_XDATA_Z

        RSEG XDATA_Z:XDATA:NOROOT(0)
        DATA8
//  149 static uint8         SerialApp_MsgID;
SerialApp_MsgID:
        DS 1
        REQUIRE __INIT_XDATA_Z

        RSEG XDATA_Z:XDATA:NOROOT(0)
        DATA8
//  150 static afAddrType_t  SerialApp_TxAddr;
SerialApp_TxAddr:
        DS 12
        REQUIRE __INIT_XDATA_Z

        RSEG XDATA_Z:XDATA:NOROOT(0)
        DATA8
//  151 static uint8         SerialApp_TxBuf[SERIAL_APP_TX_MAX];
SerialApp_TxBuf:
        DS 20
        REQUIRE __INIT_XDATA_Z

        RSEG XDATA_Z:XDATA:NOROOT(0)
        DATA8
//  152 static uint8         SerialApp_TxLen;
SerialApp_TxLen:
        DS 1
        REQUIRE __INIT_XDATA_Z
//  153 
//  154 /*********************************************************************
//  155  * LOCAL FUNCTIONS
//  156  */
//  157 
//  158 static void SerialApp_ProcessMSGCmd( afIncomingMSGPacket_t *pkt );
//  159 void SerialApp_OTAData(afAddrType_t *txaddr,uint8 ID,void *p,uint8 len);
//  160 static void SerialApp_CallBack(uint8 port, uint8 event);
//  161 void SerialApp_HandleKeys( uint8 shift, uint8 keys );
//  162 
//  163 /*********************************************************************
//  164  * @fn      SerialApp_Init
//  165  *
//  166  * @brief   This is called during OSAL tasks' initialization.
//  167  *
//  168  * @param   task_id - the Task ID assigned by OSAL.
//  169  *
//  170  * @return  none
//  171  */

        RSEG BANKED_CODE:CODE:NOROOT(0)
//  172 void SerialApp_Init( uint8 task_id )
SerialApp_Init:
        CFI Block cfiBlock0 Using cfiCommon0
        CFI Function SerialApp_Init
        CODE
//  173 {
        FUNCALL SerialApp_Init, afRegister
        LOCFRAME ISTACK, 0, STACK
        LOCFRAME PSTACK, 0, STACK
        LOCFRAME XSTACK, 38, STACK
        LOCFRAME IOVERLAY, 0, STATIC
        LOCFRAME DOVERLAY, 0, STATIC
        ARGFRAME ISTACK, 0, STACK
        ARGFRAME PSTACK, 0, STACK
        ARGFRAME XSTACK, 38, STACK
        ARGFRAME IOVERLAY, 0, STATIC
        ARGFRAME DOVERLAY, 0, STATIC
        FUNCALL SerialApp_Init, RegisterForKeys
        LOCFRAME ISTACK, 0, STACK
        LOCFRAME PSTACK, 0, STACK
        LOCFRAME XSTACK, 38, STACK
        LOCFRAME IOVERLAY, 0, STATIC
        LOCFRAME DOVERLAY, 0, STATIC
        ARGFRAME ISTACK, 0, STACK
        ARGFRAME PSTACK, 0, STACK
        ARGFRAME XSTACK, 38, STACK
        ARGFRAME IOVERLAY, 0, STATIC
        ARGFRAME DOVERLAY, 0, STATIC
        FUNCALL SerialApp_Init, HalUARTOpen
        LOCFRAME ISTACK, 0, STACK
        LOCFRAME PSTACK, 0, STACK
        LOCFRAME XSTACK, 38, STACK
        LOCFRAME IOVERLAY, 0, STATIC
        LOCFRAME DOVERLAY, 0, STATIC
        ARGFRAME ISTACK, 0, STACK
        ARGFRAME PSTACK, 0, STACK
        ARGFRAME XSTACK, 38, STACK
        ARGFRAME IOVERLAY, 0, STATIC
        ARGFRAME DOVERLAY, 0, STATIC
        MOV     A,#-0x9
        LCALL   ?BANKED_ENTER_XDATA
        CFI DPH0 load(1, XDATA, add(CFA_XSP16, literal(-1)))
        CFI DPL0 load(1, XDATA, add(CFA_XSP16, literal(-2)))
        CFI ?BRET_EXT load(1, XDATA, add(CFA_XSP16, literal(-3)))
        CFI ?RET_HIGH load(1, XDATA, add(CFA_XSP16, literal(-4)))
        CFI ?RET_LOW load(1, XDATA, add(CFA_XSP16, literal(-5)))
        CFI R7 load(1, XDATA, add(CFA_XSP16, literal(-6)))
        CFI V0 load(1, XDATA, add(CFA_XSP16, literal(-7)))
        CFI VB load(1, XDATA, add(CFA_XSP16, literal(-8)))
        CFI R6 load(1, XDATA, add(CFA_XSP16, literal(-9)))
        CFI CFA_SP SP+0
        CFI CFA_XSP16 add(XSP16, 9)
        ; Saved register size: 9
        ; Auto size: 29
        MOV     A,#-0x1d
        LCALL   ?ALLOC_XSTACK8
        CFI CFA_XSP16 add(XSP16, 38)
        MOV     A,R1
        MOV     R6,A
//  174   halUARTCfg_t uartConfig;
//  175   SerialApp_TaskID = task_id;
        MOV     DPTR,#SerialApp_TaskID
        MOVX    @DPTR,A
//  176 
//  177   afRegister( (endPointDesc_t *)&SerialApp_epDesc );
        ; Setup parameters for call to function afRegister
        MOV     R2,#SerialApp_epDesc & 0xff
        MOV     R3,#(SerialApp_epDesc >> 8) & 0xff
        LCALL   ??afRegister?relay
//  178   //GPRS_Initial();
//  179   RegisterForKeys( task_id );
        ; Setup parameters for call to function RegisterForKeys
        MOV     A,R6
        MOV     R1,A
        LCALL   ??RegisterForKeys?relay
//  180 
//  181   uartConfig.configured           = TRUE;              // 2x30 don't care - see uart driver.
        MOV     DPL,?XSP + 0
        MOV     DPH,?XSP + 1
        MOV     A,#0x1
        MOVX    @DPTR,A
//  182   uartConfig.baudRate             = SERIAL_APP_BAUD;
        LCALL   ?XSTACK_DISP0_8
        MOV     A,#0x4
        MOVX    @DPTR,A
//  183   uartConfig.flowControl          = FALSE;
        MOV     A,#0x2
        LCALL   ?XSTACK_DISP0_8
        CLR     A
        MOVX    @DPTR,A
//  184   uartConfig.flowControlThreshold = SERIAL_APP_THRESH; // 2x30 don't care - see uart driver.
        MOV     A,#0x3
        LCALL   ?XSTACK_DISP0_8
        MOV     A,#0x40
        MOVX    @DPTR,A
        INC     DPTR
        CLR     A
        MOVX    @DPTR,A
//  185   uartConfig.rx.maxBufSize        = SERIAL_APP_RX_SZ;  // 2x30 don't care - see uart driver.
        MOV     A,#0xa
        LCALL   ?XSTACK_DISP0_8
        MOV     A,#-0x80
        MOVX    @DPTR,A
        INC     DPTR
        CLR     A
        MOVX    @DPTR,A
//  186   uartConfig.tx.maxBufSize        = SERIAL_APP_TX_SZ;  // 2x30 don't care - see uart driver.
        MOV     A,#0x12
        LCALL   ?XSTACK_DISP0_8
        MOV     A,#-0x80
        MOVX    @DPTR,A
        INC     DPTR
        CLR     A
        MOVX    @DPTR,A
//  187   uartConfig.idleTimeout          = SERIAL_APP_IDLE;   // 2x30 don't care - see uart driver.
        MOV     A,#0x5
        LCALL   ?XSTACK_DISP0_8
        MOV     A,#0x6
        MOVX    @DPTR,A
//  188   uartConfig.intEnable            = TRUE;              // 2x30 don't care - see uart driver.
        MOV     A,#0x16
        LCALL   ?XSTACK_DISP0_8
        MOV     A,#0x1
        MOVX    @DPTR,A
//  189   uartConfig.callBackFunc         = SerialApp_CallBack;
        MOV     A,#0x1b
        LCALL   ?XSTACK_DISP0_8
        MOV     A,#??SerialApp_CallBack?relay & 0xff
        MOVX    @DPTR,A
        INC     DPTR
        MOV     A,#(??SerialApp_CallBack?relay >> 8) & 0xff
        MOVX    @DPTR,A
//  190   HalUARTOpen (SERIAL_APP_PORT, &uartConfig);
        ; Setup parameters for call to function HalUARTOpen
        MOV     DPL,?XSP + 0
        MOV     DPH,?XSP + 1
        MOV     R2,DPL
        MOV     R3,DPH
        MOV     R1,#0x0
        LCALL   ??HalUARTOpen?relay
//  191   
//  192   UART0_Format.Header_1 = 0xee;
        MOV     DPTR,#UART0_Format
        MOV     A,#-0x12
        MOVX    @DPTR,A
//  193   UART0_Format.Header_2 = 0xcc;
        INC     DPTR
        MOV     A,#-0x34
        MOVX    @DPTR,A
//  194   UART0_Format.NodeSeq  = 0x01;
        INC     DPTR
        MOV     A,#0x1
        MOVX    @DPTR,A
//  195   UART0_Format.NodeID   = Coor;
        INC     DPTR
        CLR     A
        MOVX    @DPTR,A
//  196   UART0_Format.Tailer   = 0xff;
        MOV     DPTR,#UART0_Format + 15
        MOV     A,#-0x1
        MOVX    @DPTR,A
//  197   
//  198   SerialApp_TxAddr.addrMode =(afAddrMode_t) AddrBroadcast; //∑¢ÀÕµÿ÷∑≥ı ºªØ
        MOV     DPTR,#SerialApp_TxAddr + 8
        MOV     A,#0xf
        MOVX    @DPTR,A
//  199   SerialApp_TxAddr.endPoint = SERIALAPP_ENDPOINT;
        INC     DPTR
        MOV     A,#0xb
        MOVX    @DPTR,A
//  200   SerialApp_TxAddr.addr.shortAddr = 0xffff;
        MOV     DPTR,#SerialApp_TxAddr
        MOV     A,#-0x1
        MOVX    @DPTR,A
        INC     DPTR
        MOVX    @DPTR,A
//  201   TXPOWER = 0xf5;
        MOV     DPTR,#0x6190
        MOV     A,#-0xb
        MOVX    @DPTR,A
//  202 }
        MOV     A,#0x1d
        LCALL   ?DEALLOC_XSTACK8
        CFI EndBlock cfiBlock0
        REQUIRE ?Subroutine0
        ; // Fall through to label ?Subroutine0

        RSEG BANKED_CODE:CODE:NOROOT(0)
?Subroutine0:
        CFI Block cfiBlock1 Using cfiCommon0
        CFI NoFunction
        CFI CFA_SP SP+0
        CFI CFA_XSP16 add(XSP16, 9)
        CFI VB load(1, XDATA, add(CFA_XSP16, literal(-8)))
        CFI DPL0 load(1, XDATA, add(CFA_XSP16, literal(-2)))
        CFI DPH0 load(1, XDATA, add(CFA_XSP16, literal(-1)))
        CFI R6 load(1, XDATA, add(CFA_XSP16, literal(-9)))
        CFI R7 load(1, XDATA, add(CFA_XSP16, literal(-6)))
        CFI V0 load(1, XDATA, add(CFA_XSP16, literal(-7)))
        CFI ?BRET_EXT load(1, XDATA, add(CFA_XSP16, literal(-3)))
        CFI ?RET_HIGH load(1, XDATA, add(CFA_XSP16, literal(-4)))
        CFI ?RET_LOW load(1, XDATA, add(CFA_XSP16, literal(-5)))
        MOV     R7,#0x1
        LJMP    ?BANKED_LEAVE_XDATA
        CFI EndBlock cfiBlock1
//  203 
//  204 /*********************************************************************
//  205  * @fn      SerialApp_ProcessEvent
//  206  *
//  207  * @brief   Generic Application Task event processor.
//  208  *
//  209  * @param   task_id  - The OSAL assigned task ID.
//  210  * @param   events   - Bit map of events to process.
//  211  *
//  212  * @return  Event flags of all unprocessed events.
//  213  */

        RSEG BANKED_CODE:CODE:NOROOT(0)
//  214 UINT16 SerialApp_ProcessEvent( uint8 task_id, UINT16 events )
SerialApp_ProcessEvent:
        CFI Block cfiBlock2 Using cfiCommon0
        CFI Function SerialApp_ProcessEvent
        CODE
//  215 {
        FUNCALL SerialApp_ProcessEvent, SerialApp_OTAData
        LOCFRAME ISTACK, 0, STACK
        LOCFRAME PSTACK, 0, STACK
        LOCFRAME XSTACK, 13, STACK
        LOCFRAME IOVERLAY, 0, STATIC
        LOCFRAME DOVERLAY, 0, STATIC
        ARGFRAME ISTACK, 0, STACK
        ARGFRAME PSTACK, 0, STACK
        ARGFRAME XSTACK, 13, STACK
        ARGFRAME IOVERLAY, 0, STATIC
        ARGFRAME DOVERLAY, 0, STATIC
        FUNCALL SerialApp_ProcessEvent, LCD_Clear
        LOCFRAME ISTACK, 0, STACK
        LOCFRAME PSTACK, 0, STACK
        LOCFRAME XSTACK, 12, STACK
        LOCFRAME IOVERLAY, 0, STATIC
        LOCFRAME DOVERLAY, 0, STATIC
        ARGFRAME ISTACK, 0, STACK
        ARGFRAME PSTACK, 0, STACK
        ARGFRAME XSTACK, 12, STACK
        ARGFRAME IOVERLAY, 0, STATIC
        ARGFRAME DOVERLAY, 0, STATIC
        FUNCALL SerialApp_ProcessEvent, GUI_SetColor
        LOCFRAME ISTACK, 0, STACK
        LOCFRAME PSTACK, 0, STACK
        LOCFRAME XSTACK, 12, STACK
        LOCFRAME IOVERLAY, 0, STATIC
        LOCFRAME DOVERLAY, 0, STATIC
        ARGFRAME ISTACK, 0, STACK
        ARGFRAME PSTACK, 0, STACK
        ARGFRAME XSTACK, 12, STACK
        ARGFRAME IOVERLAY, 0, STATIC
        ARGFRAME DOVERLAY, 0, STATIC
        FUNCALL SerialApp_ProcessEvent, GUI_SetFont
        LOCFRAME ISTACK, 0, STACK
        LOCFRAME PSTACK, 0, STACK
        LOCFRAME XSTACK, 12, STACK
        LOCFRAME IOVERLAY, 0, STATIC
        LOCFRAME DOVERLAY, 0, STATIC
        ARGFRAME ISTACK, 0, STACK
        ARGFRAME PSTACK, 0, STACK
        ARGFRAME XSTACK, 12, STACK
        ARGFRAME IOVERLAY, 0, STATIC
        ARGFRAME DOVERLAY, 0, STATIC
        FUNCALL SerialApp_ProcessEvent, GUI_DispStringAt
        LOCFRAME ISTACK, 0, STACK
        LOCFRAME PSTACK, 0, STACK
        LOCFRAME XSTACK, 14, STACK
        LOCFRAME IOVERLAY, 0, STATIC
        LOCFRAME DOVERLAY, 0, STATIC
        ARGFRAME ISTACK, 0, STACK
        ARGFRAME PSTACK, 0, STACK
        ARGFRAME XSTACK, 14, STACK
        ARGFRAME IOVERLAY, 0, STATIC
        ARGFRAME DOVERLAY, 0, STATIC
        FUNCALL SerialApp_ProcessEvent, GUI_SetFont
        LOCFRAME ISTACK, 0, STACK
        LOCFRAME PSTACK, 0, STACK
        LOCFRAME XSTACK, 12, STACK
        LOCFRAME IOVERLAY, 0, STATIC
        LOCFRAME DOVERLAY, 0, STATIC
        ARGFRAME ISTACK, 0, STACK
        ARGFRAME PSTACK, 0, STACK
        ARGFRAME XSTACK, 12, STACK
        ARGFRAME IOVERLAY, 0, STATIC
        ARGFRAME DOVERLAY, 0, STATIC
        FUNCALL SerialApp_ProcessEvent, GUI_DispStringAt
        LOCFRAME ISTACK, 0, STACK
        LOCFRAME PSTACK, 0, STACK
        LOCFRAME XSTACK, 14, STACK
        LOCFRAME IOVERLAY, 0, STATIC
        LOCFRAME DOVERLAY, 0, STATIC
        ARGFRAME ISTACK, 0, STACK
        ARGFRAME PSTACK, 0, STACK
        ARGFRAME XSTACK, 14, STACK
        ARGFRAME IOVERLAY, 0, STATIC
        ARGFRAME DOVERLAY, 0, STATIC
        FUNCALL SerialApp_ProcessEvent, GUI_DispHexAt
        LOCFRAME ISTACK, 0, STACK
        LOCFRAME PSTACK, 0, STACK
        LOCFRAME XSTACK, 16, STACK
        LOCFRAME IOVERLAY, 0, STATIC
        LOCFRAME DOVERLAY, 0, STATIC
        ARGFRAME ISTACK, 0, STACK
        ARGFRAME PSTACK, 0, STACK
        ARGFRAME XSTACK, 16, STACK
        ARGFRAME IOVERLAY, 0, STATIC
        ARGFRAME DOVERLAY, 0, STATIC
        FUNCALL SerialApp_ProcessEvent, GUI_DispHexAt
        LOCFRAME ISTACK, 0, STACK
        LOCFRAME PSTACK, 0, STACK
        LOCFRAME XSTACK, 16, STACK
        LOCFRAME IOVERLAY, 0, STATIC
        LOCFRAME DOVERLAY, 0, STATIC
        ARGFRAME ISTACK, 0, STACK
        ARGFRAME PSTACK, 0, STACK
        ARGFRAME XSTACK, 16, STACK
        ARGFRAME IOVERLAY, 0, STATIC
        ARGFRAME DOVERLAY, 0, STATIC
        FUNCALL SerialApp_ProcessEvent, GUI_SetColor
        LOCFRAME ISTACK, 0, STACK
        LOCFRAME PSTACK, 0, STACK
        LOCFRAME XSTACK, 12, STACK
        LOCFRAME IOVERLAY, 0, STATIC
        LOCFRAME DOVERLAY, 0, STATIC
        ARGFRAME ISTACK, 0, STACK
        ARGFRAME PSTACK, 0, STACK
        ARGFRAME XSTACK, 12, STACK
        ARGFRAME IOVERLAY, 0, STATIC
        ARGFRAME DOVERLAY, 0, STATIC
        FUNCALL SerialApp_ProcessEvent, GUI_DispStringAt
        LOCFRAME ISTACK, 0, STACK
        LOCFRAME PSTACK, 0, STACK
        LOCFRAME XSTACK, 14, STACK
        LOCFRAME IOVERLAY, 0, STATIC
        LOCFRAME DOVERLAY, 0, STATIC
        ARGFRAME ISTACK, 0, STACK
        ARGFRAME PSTACK, 0, STACK
        ARGFRAME XSTACK, 14, STACK
        ARGFRAME IOVERLAY, 0, STATIC
        ARGFRAME DOVERLAY, 0, STATIC
        FUNCALL SerialApp_ProcessEvent, GUI_DispStringAt
        LOCFRAME ISTACK, 0, STACK
        LOCFRAME PSTACK, 0, STACK
        LOCFRAME XSTACK, 14, STACK
        LOCFRAME IOVERLAY, 0, STATIC
        LOCFRAME DOVERLAY, 0, STATIC
        ARGFRAME ISTACK, 0, STACK
        ARGFRAME PSTACK, 0, STACK
        ARGFRAME XSTACK, 14, STACK
        ARGFRAME IOVERLAY, 0, STATIC
        ARGFRAME DOVERLAY, 0, STATIC
        FUNCALL SerialApp_ProcessEvent, GUI_DispStringAt
        LOCFRAME ISTACK, 0, STACK
        LOCFRAME PSTACK, 0, STACK
        LOCFRAME XSTACK, 14, STACK
        LOCFRAME IOVERLAY, 0, STATIC
        LOCFRAME DOVERLAY, 0, STATIC
        ARGFRAME ISTACK, 0, STACK
        ARGFRAME PSTACK, 0, STACK
        ARGFRAME XSTACK, 14, STACK
        ARGFRAME IOVERLAY, 0, STATIC
        ARGFRAME DOVERLAY, 0, STATIC
        FUNCALL SerialApp_ProcessEvent, GUI_DispStringAt
        LOCFRAME ISTACK, 0, STACK
        LOCFRAME PSTACK, 0, STACK
        LOCFRAME XSTACK, 14, STACK
        LOCFRAME IOVERLAY, 0, STATIC
        LOCFRAME DOVERLAY, 0, STATIC
        ARGFRAME ISTACK, 0, STACK
        ARGFRAME PSTACK, 0, STACK
        ARGFRAME XSTACK, 14, STACK
        ARGFRAME IOVERLAY, 0, STATIC
        ARGFRAME DOVERLAY, 0, STATIC
        FUNCALL SerialApp_ProcessEvent, GUI_DispStringAt
        LOCFRAME ISTACK, 0, STACK
        LOCFRAME PSTACK, 0, STACK
        LOCFRAME XSTACK, 14, STACK
        LOCFRAME IOVERLAY, 0, STATIC
        LOCFRAME DOVERLAY, 0, STATIC
        ARGFRAME ISTACK, 0, STACK
        ARGFRAME PSTACK, 0, STACK
        ARGFRAME XSTACK, 14, STACK
        ARGFRAME IOVERLAY, 0, STATIC
        ARGFRAME DOVERLAY, 0, STATIC
        FUNCALL SerialApp_ProcessEvent, GUI_DispStringAt
        LOCFRAME ISTACK, 0, STACK
        LOCFRAME PSTACK, 0, STACK
        LOCFRAME XSTACK, 14, STACK
        LOCFRAME IOVERLAY, 0, STATIC
        LOCFRAME DOVERLAY, 0, STATIC
        ARGFRAME ISTACK, 0, STACK
        ARGFRAME PSTACK, 0, STACK
        ARGFRAME XSTACK, 14, STACK
        ARGFRAME IOVERLAY, 0, STATIC
        ARGFRAME DOVERLAY, 0, STATIC
        FUNCALL SerialApp_ProcessEvent, GUI_DispStringAt
        LOCFRAME ISTACK, 0, STACK
        LOCFRAME PSTACK, 0, STACK
        LOCFRAME XSTACK, 14, STACK
        LOCFRAME IOVERLAY, 0, STATIC
        LOCFRAME DOVERLAY, 0, STATIC
        ARGFRAME ISTACK, 0, STACK
        ARGFRAME PSTACK, 0, STACK
        ARGFRAME XSTACK, 14, STACK
        ARGFRAME IOVERLAY, 0, STATIC
        ARGFRAME DOVERLAY, 0, STATIC
        FUNCALL SerialApp_ProcessEvent, GUI_DispStringAt
        LOCFRAME ISTACK, 0, STACK
        LOCFRAME PSTACK, 0, STACK
        LOCFRAME XSTACK, 14, STACK
        LOCFRAME IOVERLAY, 0, STATIC
        LOCFRAME DOVERLAY, 0, STATIC
        ARGFRAME ISTACK, 0, STACK
        ARGFRAME PSTACK, 0, STACK
        ARGFRAME XSTACK, 14, STACK
        ARGFRAME IOVERLAY, 0, STATIC
        ARGFRAME DOVERLAY, 0, STATIC
        FUNCALL SerialApp_ProcessEvent, GUI_DispStringAt
        LOCFRAME ISTACK, 0, STACK
        LOCFRAME PSTACK, 0, STACK
        LOCFRAME XSTACK, 14, STACK
        LOCFRAME IOVERLAY, 0, STATIC
        LOCFRAME DOVERLAY, 0, STATIC
        ARGFRAME ISTACK, 0, STACK
        ARGFRAME PSTACK, 0, STACK
        ARGFRAME XSTACK, 14, STACK
        ARGFRAME IOVERLAY, 0, STATIC
        ARGFRAME DOVERLAY, 0, STATIC
        FUNCALL SerialApp_ProcessEvent, HalLedSet
        LOCFRAME ISTACK, 0, STACK
        LOCFRAME PSTACK, 0, STACK
        LOCFRAME XSTACK, 12, STACK
        LOCFRAME IOVERLAY, 0, STATIC
        LOCFRAME DOVERLAY, 0, STATIC
        ARGFRAME ISTACK, 0, STACK
        ARGFRAME PSTACK, 0, STACK
        ARGFRAME XSTACK, 12, STACK
        ARGFRAME IOVERLAY, 0, STATIC
        ARGFRAME DOVERLAY, 0, STATIC
        FUNCALL SerialApp_ProcessEvent, HalLedBlink
        LOCFRAME ISTACK, 0, STACK
        LOCFRAME PSTACK, 0, STACK
        LOCFRAME XSTACK, 12, STACK
        LOCFRAME IOVERLAY, 0, STATIC
        LOCFRAME DOVERLAY, 0, STATIC
        ARGFRAME ISTACK, 0, STACK
        ARGFRAME PSTACK, 0, STACK
        ARGFRAME XSTACK, 12, STACK
        ARGFRAME IOVERLAY, 0, STATIC
        ARGFRAME DOVERLAY, 0, STATIC
        FUNCALL SerialApp_ProcessEvent, osal_start_timerEx
        LOCFRAME ISTACK, 0, STACK
        LOCFRAME PSTACK, 0, STACK
        LOCFRAME XSTACK, 12, STACK
        LOCFRAME IOVERLAY, 0, STATIC
        LOCFRAME DOVERLAY, 0, STATIC
        ARGFRAME ISTACK, 0, STACK
        ARGFRAME PSTACK, 0, STACK
        ARGFRAME XSTACK, 12, STACK
        ARGFRAME IOVERLAY, 0, STATIC
        ARGFRAME DOVERLAY, 0, STATIC
        FUNCALL SerialApp_ProcessEvent, osal_msg_deallocate
        LOCFRAME ISTACK, 0, STACK
        LOCFRAME PSTACK, 0, STACK
        LOCFRAME XSTACK, 12, STACK
        LOCFRAME IOVERLAY, 0, STATIC
        LOCFRAME DOVERLAY, 0, STATIC
        ARGFRAME ISTACK, 0, STACK
        ARGFRAME PSTACK, 0, STACK
        ARGFRAME XSTACK, 12, STACK
        ARGFRAME IOVERLAY, 0, STATIC
        ARGFRAME DOVERLAY, 0, STATIC
        FUNCALL SerialApp_ProcessEvent, osal_msg_receive
        LOCFRAME ISTACK, 0, STACK
        LOCFRAME PSTACK, 0, STACK
        LOCFRAME XSTACK, 12, STACK
        LOCFRAME IOVERLAY, 0, STATIC
        LOCFRAME DOVERLAY, 0, STATIC
        ARGFRAME ISTACK, 0, STACK
        ARGFRAME PSTACK, 0, STACK
        ARGFRAME XSTACK, 12, STACK
        ARGFRAME IOVERLAY, 0, STATIC
        ARGFRAME DOVERLAY, 0, STATIC
        FUNCALL SerialApp_ProcessEvent, SerialApp_HandleKeys
        LOCFRAME ISTACK, 0, STACK
        LOCFRAME PSTACK, 0, STACK
        LOCFRAME XSTACK, 12, STACK
        LOCFRAME IOVERLAY, 0, STATIC
        LOCFRAME DOVERLAY, 0, STATIC
        ARGFRAME ISTACK, 0, STACK
        ARGFRAME PSTACK, 0, STACK
        ARGFRAME XSTACK, 12, STACK
        ARGFRAME IOVERLAY, 0, STATIC
        ARGFRAME DOVERLAY, 0, STATIC
        FUNCALL SerialApp_ProcessEvent, SerialApp_ProcessMSGCmd
        LOCFRAME ISTACK, 0, STACK
        LOCFRAME PSTACK, 0, STACK
        LOCFRAME XSTACK, 12, STACK
        LOCFRAME IOVERLAY, 0, STATIC
        LOCFRAME DOVERLAY, 0, STATIC
        ARGFRAME ISTACK, 0, STACK
        ARGFRAME PSTACK, 0, STACK
        ARGFRAME XSTACK, 12, STACK
        ARGFRAME IOVERLAY, 0, STATIC
        ARGFRAME DOVERLAY, 0, STATIC
        FUNCALL SerialApp_ProcessEvent, HalUARTWrite
        LOCFRAME ISTACK, 0, STACK
        LOCFRAME PSTACK, 0, STACK
        LOCFRAME XSTACK, 12, STACK
        LOCFRAME IOVERLAY, 0, STATIC
        LOCFRAME DOVERLAY, 0, STATIC
        ARGFRAME ISTACK, 0, STACK
        ARGFRAME PSTACK, 0, STACK
        ARGFRAME XSTACK, 12, STACK
        ARGFRAME IOVERLAY, 0, STATIC
        ARGFRAME DOVERLAY, 0, STATIC
        FUNCALL SerialApp_ProcessEvent, osal_start_timerEx
        LOCFRAME ISTACK, 0, STACK
        LOCFRAME PSTACK, 0, STACK
        LOCFRAME XSTACK, 12, STACK
        LOCFRAME IOVERLAY, 0, STATIC
        LOCFRAME DOVERLAY, 0, STATIC
        ARGFRAME ISTACK, 0, STACK
        ARGFRAME PSTACK, 0, STACK
        ARGFRAME XSTACK, 12, STACK
        ARGFRAME IOVERLAY, 0, STATIC
        ARGFRAME DOVERLAY, 0, STATIC
        MOV     A,#-0xc
        LCALL   ?BANKED_ENTER_XDATA
        CFI DPH0 load(1, XDATA, add(CFA_XSP16, literal(-1)))
        CFI DPL0 load(1, XDATA, add(CFA_XSP16, literal(-2)))
        CFI ?BRET_EXT load(1, XDATA, add(CFA_XSP16, literal(-3)))
        CFI ?RET_HIGH load(1, XDATA, add(CFA_XSP16, literal(-4)))
        CFI ?RET_LOW load(1, XDATA, add(CFA_XSP16, literal(-5)))
        CFI R7 load(1, XDATA, add(CFA_XSP16, literal(-6)))
        CFI V3 load(1, XDATA, add(CFA_XSP16, literal(-7)))
        CFI V2 load(1, XDATA, add(CFA_XSP16, literal(-8)))
        CFI V1 load(1, XDATA, add(CFA_XSP16, literal(-9)))
        CFI V0 load(1, XDATA, add(CFA_XSP16, literal(-10)))
        CFI VB load(1, XDATA, add(CFA_XSP16, literal(-11)))
        CFI R6 load(1, XDATA, add(CFA_XSP16, literal(-12)))
        CFI CFA_SP SP+0
        CFI CFA_XSP16 add(XSP16, 12)
        ; Saved register size: 12
        ; Auto size: 0
        MOV     A,R2
        MOV     R6,A
        MOV     A,R3
        MOV     R7,A
//  216   (void)task_id;  // Intentionally unreferenced parameter
//  217   if ( events & SYS_EVENT_MSG )
        ANL     A,#0x80
        JZ      $+5
        LJMP    ??SerialApp_ProcessEvent_0 & 0xFFFF
//  218   {
//  219     afIncomingMSGPacket_t *MSGpkt;
//  220 
//  221     while ( (MSGpkt = (afIncomingMSGPacket_t *)osal_msg_receive( SerialApp_TaskID )) )
//  222     {
//  223       switch ( MSGpkt->hdr.event )
//  224       {         
//  225       case KEY_CHANGE:
//  226         SerialApp_HandleKeys( ((keyChange_t *)MSGpkt)->state, ((keyChange_t *)MSGpkt)->keys );
//  227         break;
//  228 
//  229       case AF_INCOMING_MSG_CMD:
//  230         SerialApp_ProcessMSGCmd( MSGpkt );
//  231         break;
//  232 
//  233       case ZDO_STATE_CHANGE:
//  234           SampleApp_NwkState = (devStates_t)(MSGpkt->hdr.status);
//  235           if(SampleApp_NwkState == DEV_ZB_COORD) //≈–∂®µ±«∞…Ë±∏¿‡–Õ
//  236           {
//  237 #if LCD_SUPPORTED
//  238             LCD_Clear(GUI_BLACK);
//  239             GUI_SetColor(GUI_RED);
//  240             
//  241             GUI_SetFont(&GUI_Font32B_ASCII);
//  242             GUI_DispStringAt("ChinaSofti", 50, 0);
//  243             GUI_SetFont(&GUI_Font8x16);
//  244             
//  245             //GUI_DispStringAt("www.ChinaSofti.com",40,0);
//  246             GUI_DispStringAt("Coord,PANID =     ,CH =  ", 5, 40);
//  247             GUI_DispHexAt(ZDAPP_CONFIG_PAN_ID, 110, 40, 4);
//  248             GUI_DispHexAt(DEFAULT_CHANLIST, 190, 40, 6);
//  249             GUI_SetColor(GUI_GREEN);
//  250             
//  251             GUI_DispStringAt("GYROS",0,60);   
//  252             GUI_DispStringAt("TE&HU",0,80);        
//  253             GUI_DispStringAt("ALCOH",0,100);
//  254             GUI_DispStringAt("ACCEL",0,120);
//  255             GUI_DispStringAt("FLAME",0,140);
//  256             GUI_DispStringAt("PYROE",0,160);
//  257             GUI_DispStringAt("RELAY",0,180);
//  258             GUI_DispStringAt("TOUCH",0,200);
//  259             GUI_DispStringAt("ULTRA            mm",0,200);
//  260 #endif
//  261             HalLedSet(HAL_LED_1,HAL_LED_MODE_OFF);
//  262             HalLedBlink(HAL_LED_2,5,50,200);
//  263             osal_start_timerEx(SerialApp_TaskID, PERIOD_EVT, 5000);
//  264           }
//  265         break;
//  266       default:
//  267         break;
//  268       }
//  269 
//  270       osal_msg_deallocate( (uint8 *)MSGpkt );
//  271     }
//  272 
//  273     return ( events ^ SYS_EVENT_MSG );
//  274   }
//  275   
//  276   if ( events & SERIALAPP_SEND_EVT )  //Ω´¥Æø⁄ ˝æ›Õ®π˝RFœ˚œ¢∑¢ÀÕ
        MOV     A,R6
        MOV     C,0xE0 /* A   */.0
        JC      $+5
        LJMP    ??SerialApp_ProcessEvent_1 & 0xFFFF
//  277   {
//  278     SerialApp_OTAData(&SerialApp_TxAddr,SERIALAPP_CLUSTERID1,SerialApp_TxBuf, sizeof(UART_Format));
        ; Setup parameters for call to function SerialApp_OTAData
        MOV     ?V0 + 0,#0x10
        MOV     R0,#?V0 + 0
        LCALL   ?PUSH_XSTACK_I_ONE
        CFI CFA_XSP16 add(XSP16, 13)
        MOV     R4,#SerialApp_TxBuf & 0xff
        MOV     R5,#(SerialApp_TxBuf >> 8) & 0xff
        MOV     R1,#0x1
        MOV     R2,#SerialApp_TxAddr & 0xff
        MOV     R3,#(SerialApp_TxAddr >> 8) & 0xff
        LCALL   ??SerialApp_OTAData?relay
        MOV     A,#0x1
        LCALL   ?DEALLOC_XSTACK8
        CFI CFA_XSP16 add(XSP16, 12)
//  279     return ( events ^ SERIALAPP_SEND_EVT );
        MOV     A,R6
        XRL     A,#0x1
        MOV     R2,A
        MOV     A,R7
??SerialApp_ProcessEvent_2:
        MOV     R3,A
        LJMP    ??SerialApp_ProcessEvent_3 & 0xFFFF
//  280   }  
??SerialApp_ProcessEvent_4:
        INC     DPTR
        MOVX    A,@DPTR
        MOV     DPTR,#SampleApp_NwkState
        MOVX    @DPTR,A
        XRL     A,#0x9
        JZ      $+5
        LJMP    ??SerialApp_ProcessEvent_5 & 0xFFFF
        ; Setup parameters for call to function LCD_Clear
        MOV     DPTR,#__Constant_0
        LCALL   ?XLOAD_R2345
        LCALL   ??LCD_Clear?relay
        ; Setup parameters for call to function GUI_SetColor
        MOV     DPTR,#__Constant_ff
        LCALL   ?XLOAD_R2345
        LCALL   ??GUI_SetColor?relay
        ; Setup parameters for call to function GUI_SetFont
        MOV     R2,#GUI_Font32B_ASCII & 0xff
        MOV     R3,#(GUI_Font32B_ASCII >> 8) & 0xff
        LCALL   ??GUI_SetFont?relay
        ; Setup parameters for call to function GUI_DispStringAt
        CLR     A
        MOV     ?V0 + 2,A
        MOV     ?V0 + 3,A
        MOV     R0,#?V0 + 2
        LCALL   ?PUSH_XSTACK_I_TWO
        CFI CFA_XSP16 add(XSP16, 14)
        MOV     R4,#0x32
        MOV     R5,#0x0
        MOV     R2,#`?<Constant "ChinaSofti">` & 0xff
        MOV     R3,#(`?<Constant "ChinaSofti">` >> 8) & 0xff
        LCALL   ?Subroutine2 & 0xFFFF
??CrossCallReturnLabel_0:
        LCALL   ?DEALLOC_XSTACK8
        CFI CFA_XSP16 add(XSP16, 12)
        ; Setup parameters for call to function GUI_SetFont
        MOV     R2,#GUI_Font8x16 & 0xff
        MOV     R3,#(GUI_Font8x16 >> 8) & 0xff
        LCALL   ??GUI_SetFont?relay
        ; Setup parameters for call to function GUI_DispStringAt
        MOV     ?V0 + 2,#0x28
        MOV     R0,#?V0 + 2
        LCALL   ?PUSH_XSTACK_I_TWO
        CFI CFA_XSP16 add(XSP16, 14)
        MOV     R4,#0x5
        MOV     R5,#0x0
        MOV     R2,#`?<Constant "Coord,PANID =     ,CH...">` & 0xff
        MOV     R3,#(`?<Constant "Coord,PANID =     ,CH...">` >> 8) & 0xff
        LCALL   ?Subroutine2 & 0xFFFF
??CrossCallReturnLabel_1:
        LCALL   ?DEALLOC_XSTACK8
        CFI CFA_XSP16 add(XSP16, 12)
        ; Setup parameters for call to function GUI_DispHexAt
        MOV     R0,#?V0 + 2
        LCALL   ?PUSH_XSTACK_I_TWO
        CFI CFA_XSP16 add(XSP16, 14)
        MOV     ?V0 + 2,#0x6e
        MOV     R0,#?V0 + 2
        LCALL   ?PUSH_XSTACK_I_TWO
        CFI CFA_XSP16 add(XSP16, 16)
        MOV     R1,#0x4
        MOV     DPTR,#__Constant_1001
        LCALL   ?XLOAD_R2345
        LCALL   ??GUI_DispHexAt?relay
        MOV     A,#0x4
        LCALL   ?DEALLOC_XSTACK8
        CFI CFA_XSP16 add(XSP16, 12)
        ; Setup parameters for call to function GUI_DispHexAt
        MOV     ?V0 + 2,#0x28
        MOV     R0,#?V0 + 2
        LCALL   ?PUSH_XSTACK_I_TWO
        CFI CFA_XSP16 add(XSP16, 14)
        MOV     ?V0 + 2,#-0x42
        MOV     R0,#?V0 + 2
        LCALL   ?PUSH_XSTACK_I_TWO
        CFI CFA_XSP16 add(XSP16, 16)
        MOV     R1,#0x6
        MOV     DPTR,#__Constant_800
        LCALL   ?XLOAD_R2345
        LCALL   ??GUI_DispHexAt?relay
        MOV     A,#0x4
        LCALL   ?DEALLOC_XSTACK8
        CFI CFA_XSP16 add(XSP16, 12)
        ; Setup parameters for call to function GUI_SetColor
        MOV     DPTR,#__Constant_ff00
        LCALL   ?XLOAD_R2345
        LCALL   ??GUI_SetColor?relay
        ; Setup parameters for call to function GUI_DispStringAt
        MOV     ?V0 + 2,#0x3c
        MOV     R0,#?V0 + 2
        LCALL   ?PUSH_XSTACK_I_TWO
        CFI CFA_XSP16 add(XSP16, 14)
        MOV     R4,#0x0
        MOV     R5,#0x0
        MOV     R2,#`?<Constant "GYROS">` & 0xff
        MOV     R3,#(`?<Constant "GYROS">` >> 8) & 0xff
        LCALL   ?Subroutine2 & 0xFFFF
??CrossCallReturnLabel_2:
        LCALL   ?DEALLOC_XSTACK8
        CFI CFA_XSP16 add(XSP16, 12)
        ; Setup parameters for call to function GUI_DispStringAt
        MOV     ?V0 + 2,#0x50
        MOV     R0,#?V0 + 2
        LCALL   ?PUSH_XSTACK_I_TWO
        CFI CFA_XSP16 add(XSP16, 14)
        MOV     R4,#0x0
        MOV     R5,#0x0
        MOV     R2,#`?<Constant "TE&HU">` & 0xff
        MOV     R3,#(`?<Constant "TE&HU">` >> 8) & 0xff
        LCALL   ?Subroutine2 & 0xFFFF
??CrossCallReturnLabel_3:
        LCALL   ?DEALLOC_XSTACK8
        CFI CFA_XSP16 add(XSP16, 12)
        ; Setup parameters for call to function GUI_DispStringAt
        MOV     ?V0 + 2,#0x64
        MOV     R0,#?V0 + 2
        LCALL   ?PUSH_XSTACK_I_TWO
        CFI CFA_XSP16 add(XSP16, 14)
        MOV     R4,#0x0
        MOV     R5,#0x0
        MOV     R2,#`?<Constant "ALCOH">` & 0xff
        MOV     R3,#(`?<Constant "ALCOH">` >> 8) & 0xff
        LCALL   ?Subroutine2 & 0xFFFF
??CrossCallReturnLabel_4:
        LCALL   ?DEALLOC_XSTACK8
        CFI CFA_XSP16 add(XSP16, 12)
        ; Setup parameters for call to function GUI_DispStringAt
        MOV     ?V0 + 2,#0x78
        MOV     R0,#?V0 + 2
        LCALL   ?PUSH_XSTACK_I_TWO
        CFI CFA_XSP16 add(XSP16, 14)
        MOV     R4,#0x0
        MOV     R5,#0x0
        MOV     R2,#`?<Constant "ACCEL">` & 0xff
        MOV     R3,#(`?<Constant "ACCEL">` >> 8) & 0xff
        LCALL   ?Subroutine2 & 0xFFFF
??CrossCallReturnLabel_5:
        LCALL   ?DEALLOC_XSTACK8
        CFI CFA_XSP16 add(XSP16, 12)
        ; Setup parameters for call to function GUI_DispStringAt
        MOV     ?V0 + 2,#-0x74
        MOV     R0,#?V0 + 2
        LCALL   ?PUSH_XSTACK_I_TWO
        CFI CFA_XSP16 add(XSP16, 14)
        MOV     R4,#0x0
        MOV     R5,#0x0
        MOV     R2,#`?<Constant "FLAME">` & 0xff
        MOV     R3,#(`?<Constant "FLAME">` >> 8) & 0xff
        LCALL   ?Subroutine2 & 0xFFFF
??CrossCallReturnLabel_6:
        LCALL   ?DEALLOC_XSTACK8
        CFI CFA_XSP16 add(XSP16, 12)
        ; Setup parameters for call to function GUI_DispStringAt
        MOV     ?V0 + 2,#-0x60
        MOV     R0,#?V0 + 2
        LCALL   ?PUSH_XSTACK_I_TWO
        CFI CFA_XSP16 add(XSP16, 14)
        MOV     R4,#0x0
        MOV     R5,#0x0
        MOV     R2,#`?<Constant "PYROE">` & 0xff
        MOV     R3,#(`?<Constant "PYROE">` >> 8) & 0xff
        LCALL   ?Subroutine2 & 0xFFFF
??CrossCallReturnLabel_7:
        LCALL   ?DEALLOC_XSTACK8
        CFI CFA_XSP16 add(XSP16, 12)
        ; Setup parameters for call to function GUI_DispStringAt
        MOV     ?V0 + 2,#-0x4c
        MOV     R0,#?V0 + 2
        LCALL   ?PUSH_XSTACK_I_TWO
        CFI CFA_XSP16 add(XSP16, 14)
        MOV     R4,#0x0
        MOV     R5,#0x0
        MOV     R2,#`?<Constant "RELAY">` & 0xff
        MOV     R3,#(`?<Constant "RELAY">` >> 8) & 0xff
        LCALL   ?Subroutine2 & 0xFFFF
??CrossCallReturnLabel_8:
        LCALL   ?DEALLOC_XSTACK8
        CFI CFA_XSP16 add(XSP16, 12)
        ; Setup parameters for call to function GUI_DispStringAt
        MOV     ?V0 + 2,#-0x38
        MOV     R0,#?V0 + 2
        LCALL   ?PUSH_XSTACK_I_TWO
        CFI CFA_XSP16 add(XSP16, 14)
        MOV     R4,#0x0
        MOV     R5,#0x0
        MOV     R2,#`?<Constant "TOUCH">` & 0xff
        MOV     R3,#(`?<Constant "TOUCH">` >> 8) & 0xff
        LCALL   ?Subroutine2 & 0xFFFF
??CrossCallReturnLabel_9:
        LCALL   ?DEALLOC_XSTACK8
        CFI CFA_XSP16 add(XSP16, 12)
        ; Setup parameters for call to function GUI_DispStringAt
        MOV     R0,#?V0 + 2
        LCALL   ?PUSH_XSTACK_I_TWO
        CFI CFA_XSP16 add(XSP16, 14)
        MOV     R4,#0x0
        MOV     R5,#0x0
        MOV     R2,#`?<Constant "ULTRA            mm">` & 0xff
        MOV     R3,#(`?<Constant "ULTRA            mm">` >> 8) & 0xff
        LCALL   ?Subroutine2 & 0xFFFF
??CrossCallReturnLabel_10:
        LCALL   ?DEALLOC_XSTACK8
        CFI CFA_XSP16 add(XSP16, 12)
        ; Setup parameters for call to function HalLedSet
        MOV     R2,#0x0
        MOV     R1,#0x1
        LCALL   ??HalLedSet?relay
        ; Setup parameters for call to function HalLedBlink
        MOV     R4,#-0x38
        MOV     R5,#0x0
        MOV     R3,#0x32
        MOV     R2,#0x5
        MOV     R1,#0x2
        LCALL   ??HalLedBlink?relay
        ; Setup parameters for call to function osal_start_timerEx
        MOV     R4,#-0x78
        MOV     R5,#0x13
        MOV     R2,#0x2
        MOV     R3,#0x0
        MOV     DPTR,#SerialApp_TaskID
        MOVX    A,@DPTR
        MOV     R1,A
        LCALL   ??osal_start_timerEx?relay
??SerialApp_ProcessEvent_5:
        ; Setup parameters for call to function osal_msg_deallocate
        MOV     R2,?V0 + 0
        MOV     R3,?V0 + 1
        LCALL   ??osal_msg_deallocate?relay
??SerialApp_ProcessEvent_0:
        ; Setup parameters for call to function osal_msg_receive
        MOV     DPTR,#SerialApp_TaskID
        MOVX    A,@DPTR
        MOV     R1,A
        LCALL   ??osal_msg_receive?relay
        MOV     ?V0 + 0,R2
        MOV     ?V0 + 1,R3
        MOV     A,R2
        ORL     A,?V0 + 1
        JZ      ??SerialApp_ProcessEvent_6
        MOV     DPL,R2
        MOV     DPH,R3
        MOVX    A,@DPTR
        ADD     A,#-0x1a
        JZ      ??SerialApp_ProcessEvent_7
        ADD     A,#0x5a
        JZ      ??SerialApp_ProcessEvent_8
        ADD     A,#-0x11
        JNZ     $+5
        LJMP    ??SerialApp_ProcessEvent_4 & 0xFFFF
        SJMP    ??SerialApp_ProcessEvent_5
??SerialApp_ProcessEvent_8:
        ; Setup parameters for call to function SerialApp_HandleKeys
        INC     DPTR
        INC     DPTR
        INC     DPTR
        MOVX    A,@DPTR
        MOV     R2,A
        MOV     DPL,?V0 + 0
        MOV     DPH,R3
        INC     DPTR
        INC     DPTR
        MOVX    A,@DPTR
        MOV     R1,A
        LCALL   ??SerialApp_HandleKeys?relay
        SJMP    ??SerialApp_ProcessEvent_5
??SerialApp_ProcessEvent_7:
        ; Setup parameters for call to function SerialApp_ProcessMSGCmd
        LCALL   ??SerialApp_ProcessMSGCmd?relay
        SJMP    ??SerialApp_ProcessEvent_5
??SerialApp_ProcessEvent_6:
        MOV     A,R6
        MOV     R2,A
        MOV     A,R7
        XRL     A,#0x80
        LJMP    ??SerialApp_ProcessEvent_2 & 0xFFFF
//  281   
//  282   if ( events & PERIOD_EVT ) //÷‹∆⁄œ˚œ¢¥¶¿Ì
??SerialApp_ProcessEvent_1:
        ANL     A,#0x2
        JZ      ??SerialApp_ProcessEvent_9
//  283   {
//  284     UART0_Format.Command = MSG_PERIOD;
        MOV     DPTR,#UART0_Format + 4
        MOV     A,#-0x56
        MOVX    @DPTR,A
//  285     HalUARTWrite(SERIAL_APP_PORT, (uint8*)(&UART0_Format), sizeof(UART_Format)); 
        ; Setup parameters for call to function HalUARTWrite
        MOV     R4,#0x10
        MOV     R5,#0x0
        MOV     R2,#UART0_Format & 0xff
        MOV     R3,#(UART0_Format >> 8) & 0xff
        MOV     R1,#0x0
        LCALL   ??HalUARTWrite?relay
//  286     osal_start_timerEx(SerialApp_TaskID, PERIOD_EVT, 5000);
        ; Setup parameters for call to function osal_start_timerEx
        MOV     R4,#-0x78
        MOV     R5,#0x13
        MOV     R2,#0x2
        MOV     R3,#0x0
        MOV     DPTR,#SerialApp_TaskID
        MOVX    A,@DPTR
        MOV     R1,A
        LCALL   ??osal_start_timerEx?relay
//  287     return ( events ^ PERIOD_EVT );
        MOV     A,R6
        XRL     A,#0x2
        MOV     R2,A
        MOV     A,R7
        MOV     R3,A
        SJMP    ??SerialApp_ProcessEvent_3
//  288   }
//  289 
//  290   return ( 0 );  // Discard unknown events.
??SerialApp_ProcessEvent_9:
        MOV     R2,#0x0
        MOV     R3,#0x0
??SerialApp_ProcessEvent_3:
        MOV     R7,#0x4
        LJMP    ?BANKED_LEAVE_XDATA
        CFI EndBlock cfiBlock2
//  291 }

        RSEG BANKED_CODE:CODE:NOROOT(0)
?Subroutine2:
        CFI Block cfiCond3 Using cfiCommon0
        CFI NoFunction
        CFI Conditional ??CrossCallReturnLabel_0
        CFI R6 load(1, XDATA, add(CFA_XSP16, literal(-12)))
        CFI VB load(1, XDATA, add(CFA_XSP16, literal(-11)))
        CFI V0 load(1, XDATA, add(CFA_XSP16, literal(-10)))
        CFI V1 load(1, XDATA, add(CFA_XSP16, literal(-9)))
        CFI V2 load(1, XDATA, add(CFA_XSP16, literal(-8)))
        CFI V3 load(1, XDATA, add(CFA_XSP16, literal(-7)))
        CFI R7 load(1, XDATA, add(CFA_XSP16, literal(-6)))
        CFI ?RET_LOW load(1, XDATA, add(CFA_XSP16, literal(-5)))
        CFI ?RET_HIGH load(1, XDATA, add(CFA_XSP16, literal(-4)))
        CFI ?BRET_EXT load(1, XDATA, add(CFA_XSP16, literal(-3)))
        CFI DPL0 load(1, XDATA, add(CFA_XSP16, literal(-2)))
        CFI DPH0 load(1, XDATA, add(CFA_XSP16, literal(-1)))
        CFI CFA_SP SP+0
        CFI CFA_XSP16 add(XSP16, 14)
        CFI Block cfiCond4 Using cfiCommon0
        CFI (cfiCond4) NoFunction
        CFI (cfiCond4) Conditional ??CrossCallReturnLabel_1
        CFI (cfiCond4) R6 load(1, XDATA, add(CFA_XSP16, literal(-12)))
        CFI (cfiCond4) VB load(1, XDATA, add(CFA_XSP16, literal(-11)))
        CFI (cfiCond4) V0 load(1, XDATA, add(CFA_XSP16, literal(-10)))
        CFI (cfiCond4) V1 load(1, XDATA, add(CFA_XSP16, literal(-9)))
        CFI (cfiCond4) V2 load(1, XDATA, add(CFA_XSP16, literal(-8)))
        CFI (cfiCond4) V3 load(1, XDATA, add(CFA_XSP16, literal(-7)))
        CFI (cfiCond4) R7 load(1, XDATA, add(CFA_XSP16, literal(-6)))
        CFI (cfiCond4) ?RET_LOW load(1, XDATA, add(CFA_XSP16, literal(-5)))
        CFI (cfiCond4) ?RET_HIGH load(1, XDATA, add(CFA_XSP16, literal(-4)))
        CFI (cfiCond4) ?BRET_EXT load(1, XDATA, add(CFA_XSP16, literal(-3)))
        CFI (cfiCond4) DPL0 load(1, XDATA, add(CFA_XSP16, literal(-2)))
        CFI (cfiCond4) DPH0 load(1, XDATA, add(CFA_XSP16, literal(-1)))
        CFI (cfiCond4) CFA_SP SP+0
        CFI (cfiCond4) CFA_XSP16 add(XSP16, 14)
        CFI Block cfiCond5 Using cfiCommon0
        CFI (cfiCond5) NoFunction
        CFI (cfiCond5) Conditional ??CrossCallReturnLabel_2
        CFI (cfiCond5) R6 load(1, XDATA, add(CFA_XSP16, literal(-12)))
        CFI (cfiCond5) VB load(1, XDATA, add(CFA_XSP16, literal(-11)))
        CFI (cfiCond5) V0 load(1, XDATA, add(CFA_XSP16, literal(-10)))
        CFI (cfiCond5) V1 load(1, XDATA, add(CFA_XSP16, literal(-9)))
        CFI (cfiCond5) V2 load(1, XDATA, add(CFA_XSP16, literal(-8)))
        CFI (cfiCond5) V3 load(1, XDATA, add(CFA_XSP16, literal(-7)))
        CFI (cfiCond5) R7 load(1, XDATA, add(CFA_XSP16, literal(-6)))
        CFI (cfiCond5) ?RET_LOW load(1, XDATA, add(CFA_XSP16, literal(-5)))
        CFI (cfiCond5) ?RET_HIGH load(1, XDATA, add(CFA_XSP16, literal(-4)))
        CFI (cfiCond5) ?BRET_EXT load(1, XDATA, add(CFA_XSP16, literal(-3)))
        CFI (cfiCond5) DPL0 load(1, XDATA, add(CFA_XSP16, literal(-2)))
        CFI (cfiCond5) DPH0 load(1, XDATA, add(CFA_XSP16, literal(-1)))
        CFI (cfiCond5) CFA_SP SP+0
        CFI (cfiCond5) CFA_XSP16 add(XSP16, 14)
        CFI Block cfiCond6 Using cfiCommon0
        CFI (cfiCond6) NoFunction
        CFI (cfiCond6) Conditional ??CrossCallReturnLabel_3
        CFI (cfiCond6) R6 load(1, XDATA, add(CFA_XSP16, literal(-12)))
        CFI (cfiCond6) VB load(1, XDATA, add(CFA_XSP16, literal(-11)))
        CFI (cfiCond6) V0 load(1, XDATA, add(CFA_XSP16, literal(-10)))
        CFI (cfiCond6) V1 load(1, XDATA, add(CFA_XSP16, literal(-9)))
        CFI (cfiCond6) V2 load(1, XDATA, add(CFA_XSP16, literal(-8)))
        CFI (cfiCond6) V3 load(1, XDATA, add(CFA_XSP16, literal(-7)))
        CFI (cfiCond6) R7 load(1, XDATA, add(CFA_XSP16, literal(-6)))
        CFI (cfiCond6) ?RET_LOW load(1, XDATA, add(CFA_XSP16, literal(-5)))
        CFI (cfiCond6) ?RET_HIGH load(1, XDATA, add(CFA_XSP16, literal(-4)))
        CFI (cfiCond6) ?BRET_EXT load(1, XDATA, add(CFA_XSP16, literal(-3)))
        CFI (cfiCond6) DPL0 load(1, XDATA, add(CFA_XSP16, literal(-2)))
        CFI (cfiCond6) DPH0 load(1, XDATA, add(CFA_XSP16, literal(-1)))
        CFI (cfiCond6) CFA_SP SP+0
        CFI (cfiCond6) CFA_XSP16 add(XSP16, 14)
        CFI Block cfiCond7 Using cfiCommon0
        CFI (cfiCond7) NoFunction
        CFI (cfiCond7) Conditional ??CrossCallReturnLabel_4
        CFI (cfiCond7) R6 load(1, XDATA, add(CFA_XSP16, literal(-12)))
        CFI (cfiCond7) VB load(1, XDATA, add(CFA_XSP16, literal(-11)))
        CFI (cfiCond7) V0 load(1, XDATA, add(CFA_XSP16, literal(-10)))
        CFI (cfiCond7) V1 load(1, XDATA, add(CFA_XSP16, literal(-9)))
        CFI (cfiCond7) V2 load(1, XDATA, add(CFA_XSP16, literal(-8)))
        CFI (cfiCond7) V3 load(1, XDATA, add(CFA_XSP16, literal(-7)))
        CFI (cfiCond7) R7 load(1, XDATA, add(CFA_XSP16, literal(-6)))
        CFI (cfiCond7) ?RET_LOW load(1, XDATA, add(CFA_XSP16, literal(-5)))
        CFI (cfiCond7) ?RET_HIGH load(1, XDATA, add(CFA_XSP16, literal(-4)))
        CFI (cfiCond7) ?BRET_EXT load(1, XDATA, add(CFA_XSP16, literal(-3)))
        CFI (cfiCond7) DPL0 load(1, XDATA, add(CFA_XSP16, literal(-2)))
        CFI (cfiCond7) DPH0 load(1, XDATA, add(CFA_XSP16, literal(-1)))
        CFI (cfiCond7) CFA_SP SP+0
        CFI (cfiCond7) CFA_XSP16 add(XSP16, 14)
        CFI Block cfiCond8 Using cfiCommon0
        CFI (cfiCond8) NoFunction
        CFI (cfiCond8) Conditional ??CrossCallReturnLabel_5
        CFI (cfiCond8) R6 load(1, XDATA, add(CFA_XSP16, literal(-12)))
        CFI (cfiCond8) VB load(1, XDATA, add(CFA_XSP16, literal(-11)))
        CFI (cfiCond8) V0 load(1, XDATA, add(CFA_XSP16, literal(-10)))
        CFI (cfiCond8) V1 load(1, XDATA, add(CFA_XSP16, literal(-9)))
        CFI (cfiCond8) V2 load(1, XDATA, add(CFA_XSP16, literal(-8)))
        CFI (cfiCond8) V3 load(1, XDATA, add(CFA_XSP16, literal(-7)))
        CFI (cfiCond8) R7 load(1, XDATA, add(CFA_XSP16, literal(-6)))
        CFI (cfiCond8) ?RET_LOW load(1, XDATA, add(CFA_XSP16, literal(-5)))
        CFI (cfiCond8) ?RET_HIGH load(1, XDATA, add(CFA_XSP16, literal(-4)))
        CFI (cfiCond8) ?BRET_EXT load(1, XDATA, add(CFA_XSP16, literal(-3)))
        CFI (cfiCond8) DPL0 load(1, XDATA, add(CFA_XSP16, literal(-2)))
        CFI (cfiCond8) DPH0 load(1, XDATA, add(CFA_XSP16, literal(-1)))
        CFI (cfiCond8) CFA_SP SP+0
        CFI (cfiCond8) CFA_XSP16 add(XSP16, 14)
        CFI Block cfiCond9 Using cfiCommon0
        CFI (cfiCond9) NoFunction
        CFI (cfiCond9) Conditional ??CrossCallReturnLabel_6
        CFI (cfiCond9) R6 load(1, XDATA, add(CFA_XSP16, literal(-12)))
        CFI (cfiCond9) VB load(1, XDATA, add(CFA_XSP16, literal(-11)))
        CFI (cfiCond9) V0 load(1, XDATA, add(CFA_XSP16, literal(-10)))
        CFI (cfiCond9) V1 load(1, XDATA, add(CFA_XSP16, literal(-9)))
        CFI (cfiCond9) V2 load(1, XDATA, add(CFA_XSP16, literal(-8)))
        CFI (cfiCond9) V3 load(1, XDATA, add(CFA_XSP16, literal(-7)))
        CFI (cfiCond9) R7 load(1, XDATA, add(CFA_XSP16, literal(-6)))
        CFI (cfiCond9) ?RET_LOW load(1, XDATA, add(CFA_XSP16, literal(-5)))
        CFI (cfiCond9) ?RET_HIGH load(1, XDATA, add(CFA_XSP16, literal(-4)))
        CFI (cfiCond9) ?BRET_EXT load(1, XDATA, add(CFA_XSP16, literal(-3)))
        CFI (cfiCond9) DPL0 load(1, XDATA, add(CFA_XSP16, literal(-2)))
        CFI (cfiCond9) DPH0 load(1, XDATA, add(CFA_XSP16, literal(-1)))
        CFI (cfiCond9) CFA_SP SP+0
        CFI (cfiCond9) CFA_XSP16 add(XSP16, 14)
        CFI Block cfiCond10 Using cfiCommon0
        CFI (cfiCond10) NoFunction
        CFI (cfiCond10) Conditional ??CrossCallReturnLabel_7
        CFI (cfiCond10) R6 load(1, XDATA, add(CFA_XSP16, literal(-12)))
        CFI (cfiCond10) VB load(1, XDATA, add(CFA_XSP16, literal(-11)))
        CFI (cfiCond10) V0 load(1, XDATA, add(CFA_XSP16, literal(-10)))
        CFI (cfiCond10) V1 load(1, XDATA, add(CFA_XSP16, literal(-9)))
        CFI (cfiCond10) V2 load(1, XDATA, add(CFA_XSP16, literal(-8)))
        CFI (cfiCond10) V3 load(1, XDATA, add(CFA_XSP16, literal(-7)))
        CFI (cfiCond10) R7 load(1, XDATA, add(CFA_XSP16, literal(-6)))
        CFI (cfiCond10) ?RET_LOW load(1, XDATA, add(CFA_XSP16, literal(-5)))
        CFI (cfiCond10) ?RET_HIGH load(1, XDATA, add(CFA_XSP16, literal(-4)))
        CFI (cfiCond10) ?BRET_EXT load(1, XDATA, add(CFA_XSP16, literal(-3)))
        CFI (cfiCond10) DPL0 load(1, XDATA, add(CFA_XSP16, literal(-2)))
        CFI (cfiCond10) DPH0 load(1, XDATA, add(CFA_XSP16, literal(-1)))
        CFI (cfiCond10) CFA_SP SP+0
        CFI (cfiCond10) CFA_XSP16 add(XSP16, 14)
        CFI Block cfiCond11 Using cfiCommon0
        CFI (cfiCond11) NoFunction
        CFI (cfiCond11) Conditional ??CrossCallReturnLabel_8
        CFI (cfiCond11) R6 load(1, XDATA, add(CFA_XSP16, literal(-12)))
        CFI (cfiCond11) VB load(1, XDATA, add(CFA_XSP16, literal(-11)))
        CFI (cfiCond11) V0 load(1, XDATA, add(CFA_XSP16, literal(-10)))
        CFI (cfiCond11) V1 load(1, XDATA, add(CFA_XSP16, literal(-9)))
        CFI (cfiCond11) V2 load(1, XDATA, add(CFA_XSP16, literal(-8)))
        CFI (cfiCond11) V3 load(1, XDATA, add(CFA_XSP16, literal(-7)))
        CFI (cfiCond11) R7 load(1, XDATA, add(CFA_XSP16, literal(-6)))
        CFI (cfiCond11) ?RET_LOW load(1, XDATA, add(CFA_XSP16, literal(-5)))
        CFI (cfiCond11) ?RET_HIGH load(1, XDATA, add(CFA_XSP16, literal(-4)))
        CFI (cfiCond11) ?BRET_EXT load(1, XDATA, add(CFA_XSP16, literal(-3)))
        CFI (cfiCond11) DPL0 load(1, XDATA, add(CFA_XSP16, literal(-2)))
        CFI (cfiCond11) DPH0 load(1, XDATA, add(CFA_XSP16, literal(-1)))
        CFI (cfiCond11) CFA_SP SP+0
        CFI (cfiCond11) CFA_XSP16 add(XSP16, 14)
        CFI Block cfiCond12 Using cfiCommon0
        CFI (cfiCond12) NoFunction
        CFI (cfiCond12) Conditional ??CrossCallReturnLabel_9
        CFI (cfiCond12) R6 load(1, XDATA, add(CFA_XSP16, literal(-12)))
        CFI (cfiCond12) VB load(1, XDATA, add(CFA_XSP16, literal(-11)))
        CFI (cfiCond12) V0 load(1, XDATA, add(CFA_XSP16, literal(-10)))
        CFI (cfiCond12) V1 load(1, XDATA, add(CFA_XSP16, literal(-9)))
        CFI (cfiCond12) V2 load(1, XDATA, add(CFA_XSP16, literal(-8)))
        CFI (cfiCond12) V3 load(1, XDATA, add(CFA_XSP16, literal(-7)))
        CFI (cfiCond12) R7 load(1, XDATA, add(CFA_XSP16, literal(-6)))
        CFI (cfiCond12) ?RET_LOW load(1, XDATA, add(CFA_XSP16, literal(-5)))
        CFI (cfiCond12) ?RET_HIGH load(1, XDATA, add(CFA_XSP16, literal(-4)))
        CFI (cfiCond12) ?BRET_EXT load(1, XDATA, add(CFA_XSP16, literal(-3)))
        CFI (cfiCond12) DPL0 load(1, XDATA, add(CFA_XSP16, literal(-2)))
        CFI (cfiCond12) DPH0 load(1, XDATA, add(CFA_XSP16, literal(-1)))
        CFI (cfiCond12) CFA_SP SP+0
        CFI (cfiCond12) CFA_XSP16 add(XSP16, 14)
        CFI Block cfiCond13 Using cfiCommon0
        CFI (cfiCond13) NoFunction
        CFI (cfiCond13) Conditional ??CrossCallReturnLabel_10
        CFI (cfiCond13) R6 load(1, XDATA, add(CFA_XSP16, literal(-12)))
        CFI (cfiCond13) VB load(1, XDATA, add(CFA_XSP16, literal(-11)))
        CFI (cfiCond13) V0 load(1, XDATA, add(CFA_XSP16, literal(-10)))
        CFI (cfiCond13) V1 load(1, XDATA, add(CFA_XSP16, literal(-9)))
        CFI (cfiCond13) V2 load(1, XDATA, add(CFA_XSP16, literal(-8)))
        CFI (cfiCond13) V3 load(1, XDATA, add(CFA_XSP16, literal(-7)))
        CFI (cfiCond13) R7 load(1, XDATA, add(CFA_XSP16, literal(-6)))
        CFI (cfiCond13) ?RET_LOW load(1, XDATA, add(CFA_XSP16, literal(-5)))
        CFI (cfiCond13) ?RET_HIGH load(1, XDATA, add(CFA_XSP16, literal(-4)))
        CFI (cfiCond13) ?BRET_EXT load(1, XDATA, add(CFA_XSP16, literal(-3)))
        CFI (cfiCond13) DPL0 load(1, XDATA, add(CFA_XSP16, literal(-2)))
        CFI (cfiCond13) DPH0 load(1, XDATA, add(CFA_XSP16, literal(-1)))
        CFI (cfiCond13) CFA_SP SP+0
        CFI (cfiCond13) CFA_XSP16 add(XSP16, 14)
        CFI Block cfiPicker14 Using cfiCommon1
        CFI (cfiPicker14) NoFunction
        CFI (cfiPicker14) Picker
        LCALL   ??GUI_DispStringAt?relay
        MOV     A,#0x2
        RET
        CFI EndBlock cfiCond3
        CFI EndBlock cfiCond4
        CFI EndBlock cfiCond5
        CFI EndBlock cfiCond6
        CFI EndBlock cfiCond7
        CFI EndBlock cfiCond8
        CFI EndBlock cfiCond9
        CFI EndBlock cfiCond10
        CFI EndBlock cfiCond11
        CFI EndBlock cfiCond12
        CFI EndBlock cfiCond13
        CFI EndBlock cfiPicker14
//  292 

        RSEG BANKED_CODE:CODE:NOROOT(0)
//  293 void SerialApp_HandleKeys( uint8 shift, uint8 keys )
SerialApp_HandleKeys:
        CFI Block cfiBlock15 Using cfiCommon0
        CFI Function SerialApp_HandleKeys
        CODE
//  294 {
        FUNCALL SerialApp_HandleKeys, SerialApp_OTAData
        LOCFRAME ISTACK, 0, STACK
        LOCFRAME PSTACK, 0, STACK
        LOCFRAME XSTACK, 10, STACK
        LOCFRAME IOVERLAY, 0, STATIC
        LOCFRAME DOVERLAY, 0, STATIC
        ARGFRAME ISTACK, 0, STACK
        ARGFRAME PSTACK, 0, STACK
        ARGFRAME XSTACK, 10, STACK
        ARGFRAME IOVERLAY, 0, STATIC
        ARGFRAME DOVERLAY, 0, STATIC
        FUNCALL SerialApp_HandleKeys, SerialApp_OTAData
        LOCFRAME ISTACK, 0, STACK
        LOCFRAME PSTACK, 0, STACK
        LOCFRAME XSTACK, 10, STACK
        LOCFRAME IOVERLAY, 0, STATIC
        LOCFRAME DOVERLAY, 0, STATIC
        ARGFRAME ISTACK, 0, STACK
        ARGFRAME PSTACK, 0, STACK
        ARGFRAME XSTACK, 10, STACK
        ARGFRAME IOVERLAY, 0, STATIC
        ARGFRAME DOVERLAY, 0, STATIC
        MOV     A,#-0x9
        LCALL   ?BANKED_ENTER_XDATA
        CFI DPH0 load(1, XDATA, add(CFA_XSP16, literal(-1)))
        CFI DPL0 load(1, XDATA, add(CFA_XSP16, literal(-2)))
        CFI ?BRET_EXT load(1, XDATA, add(CFA_XSP16, literal(-3)))
        CFI ?RET_HIGH load(1, XDATA, add(CFA_XSP16, literal(-4)))
        CFI ?RET_LOW load(1, XDATA, add(CFA_XSP16, literal(-5)))
        CFI R7 load(1, XDATA, add(CFA_XSP16, literal(-6)))
        CFI V0 load(1, XDATA, add(CFA_XSP16, literal(-7)))
        CFI VB load(1, XDATA, add(CFA_XSP16, literal(-8)))
        CFI R6 load(1, XDATA, add(CFA_XSP16, literal(-9)))
        CFI CFA_SP SP+0
        CFI CFA_XSP16 add(XSP16, 9)
        ; Saved register size: 9
        ; Auto size: 0
        MOV     A,R2
        MOV     R6,A
//  295     /*uint8 getup[]  = "ATA\r";
//  296     uint8 setMsgModeTxt[]  = "AT+CMGF=1\r"; //∑¢∂Ã–≈√¸¡ÓTXT
//  297     uint8 setDstNum[]      = "AT+CMGS=\"+8618301009405\"\r";  //÷∏∂®∫≈¬Î  ◊¢“‚°∞°±µƒ◊™“Â◊÷∑˚
//  298     uint8 msg[] = "Hello";
//  299     uint8 msgEnd[] = {0x1A};*/
//  300     static UART_Format command;
//  301     command.Header_1 = 0xcc;
        MOV     DPTR,#??command
        MOV     A,#-0x34
        MOVX    @DPTR,A
//  302     command.Header_2 = 0xee;
        INC     DPTR
        MOV     A,#-0x12
        MOVX    @DPTR,A
//  303     command.NodeSeq = 0x01;
        INC     DPTR
        MOV     A,#0x1
        MOVX    @DPTR,A
//  304     command.NodeID = Relay;
        INC     DPTR
        MOV     A,#0x18
        MOVX    @DPTR,A
//  305     command.Tailer = 0xff;
        MOV     DPTR,#??command + 15
        MOV     A,#-0x1
        MOVX    @DPTR,A
//  306     static uint8 relay_1_state = 0x02;  //2   off   1   on
//  307     static uint8 relay_2_state = 0x02;
//  308     if ( keys & HAL_KEY_LEFT )
        MOV     A,R6
        MOV     C,0xE0 /* A   */.3
        JNC     ??SerialApp_HandleKeys_0
//  309     {
//  310       if(relay_1_state == 0x01)
        MOV     DPTR,#??relay_1_state
        MOVX    A,@DPTR
        XRL     A,#0x1
        JNZ     ??SerialApp_HandleKeys_1
//  311       {
//  312         relay_1_state = 0x02;
        MOV     A,#0x2
        SJMP    ??SerialApp_HandleKeys_2
//  313         //LCD_ShowString(60,160,"Relay1_OFF");
//  314       }
//  315       else if(relay_1_state == 0x02)
??SerialApp_HandleKeys_1:
        MOVX    A,@DPTR
        XRL     A,#0x2
        JNZ     ??SerialApp_HandleKeys_3
//  316       {
//  317         relay_1_state = 0x01;
        MOV     A,#0x1
??SerialApp_HandleKeys_2:
        MOVX    @DPTR,A
//  318         //LCD_ShowString(60,160,"Relay1_ON ");
//  319       }
//  320       command.Command = relay_1_state;
??SerialApp_HandleKeys_3:
        MOVX    A,@DPTR
        MOV     DPTR,#??command + 4
        MOVX    @DPTR,A
//  321       command.Data[0] = 0x01;  
        INC     DPTR
        MOV     A,#0x1
        MOVX    @DPTR,A
//  322       SerialApp_OTAData(&SerialApp_TxAddr, SERIALAPP_CLUSTERID1, (uint8 *)&command, sizeof(UART_Format));
        ; Setup parameters for call to function SerialApp_OTAData
        MOV     ?V0 + 0,#0x10
        MOV     R0,#?V0 + 0
        LCALL   ?PUSH_XSTACK_I_ONE
        CFI CFA_XSP16 add(XSP16, 10)
        MOV     R4,#??command & 0xff
        MOV     R5,#(??command >> 8) & 0xff
        MOV     R1,#0x1
        MOV     R2,#SerialApp_TxAddr & 0xff
        MOV     R3,#(SerialApp_TxAddr >> 8) & 0xff
        LCALL   ??SerialApp_OTAData?relay
        MOV     A,#0x1
        LCALL   ?DEALLOC_XSTACK8
        CFI CFA_XSP16 add(XSP16, 9)
//  323     }
//  324     if ( keys & HAL_KEY_RIGHT )
??SerialApp_HandleKeys_0:
        MOV     A,R6
        MOV     C,0xE0 /* A   */.1
        JNC     ??SerialApp_HandleKeys_4
//  325     {
//  326       if(relay_2_state == 0x01)
        MOV     DPTR,#??relay_2_state
        MOVX    A,@DPTR
        XRL     A,#0x1
        JNZ     ??SerialApp_HandleKeys_5
//  327       {
//  328         relay_2_state = 0x02;
        MOV     A,#0x2
        SJMP    ??SerialApp_HandleKeys_6
//  329         //LCD_ShowString(150,160,"Relay2_OFF");
//  330       }
//  331       else if(relay_2_state == 0x02)
??SerialApp_HandleKeys_5:
        MOVX    A,@DPTR
        XRL     A,#0x2
        JNZ     ??SerialApp_HandleKeys_7
//  332       {
//  333         relay_2_state = 0x01;
        MOV     A,#0x1
??SerialApp_HandleKeys_6:
        MOVX    @DPTR,A
//  334         //LCD_ShowString(150,160,"Relay2_ON ");
//  335       }
//  336       command.Command = relay_2_state;
??SerialApp_HandleKeys_7:
        MOVX    A,@DPTR
        MOV     DPTR,#??command + 4
        MOVX    @DPTR,A
//  337       command.Data[0] = 0x02;  
        INC     DPTR
        MOV     A,#0x2
        MOVX    @DPTR,A
//  338       SerialApp_OTAData(&SerialApp_TxAddr, SERIALAPP_CLUSTERID1, (uint8 *)&command, sizeof(UART_Format));
        ; Setup parameters for call to function SerialApp_OTAData
        MOV     ?V0 + 0,#0x10
        MOV     R0,#?V0 + 0
        LCALL   ?PUSH_XSTACK_I_ONE
        CFI CFA_XSP16 add(XSP16, 10)
        MOV     R4,#??command & 0xff
        MOV     R5,#(??command >> 8) & 0xff
        MOV     R1,#0x1
        MOV     R2,#SerialApp_TxAddr & 0xff
        MOV     R3,#(SerialApp_TxAddr >> 8) & 0xff
        LCALL   ??SerialApp_OTAData?relay
        MOV     A,#0x1
        LCALL   ?DEALLOC_XSTACK8
        CFI CFA_XSP16 add(XSP16, 9)
//  339     }
//  340     if(keys & HAL_KEY_CENTER)
//  341     {
//  342       
//  343     }
//  344     if(keys & HAL_NO_KEY)
//  345     {
//  346 
//  347     }
//  348 }
??SerialApp_HandleKeys_4:
        LJMP    ?Subroutine0 & 0xFFFF
        CFI EndBlock cfiBlock15

        RSEG XDATA_Z:XDATA:NOROOT(0)
        DATA8
??command:
        DS 16
        REQUIRE __INIT_XDATA_Z

        RSEG XDATA_I:XDATA:NOROOT(0)
??relay_1_state:
        DATA8
        DS 1
        REQUIRE `?<Initializer for relay_1_state>`
        REQUIRE __INIT_XDATA_I

        RSEG XDATA_I:XDATA:NOROOT(0)
??relay_2_state:
        DATA8
        DS 1
        REQUIRE `?<Initializer for relay_2_state>`
        REQUIRE __INIT_XDATA_I
//  349 /*********************************************************************
//  350  * @fn      SerialApp_ProcessMSGCmd
//  351  *
//  352  * @brief   Data message processor callback. This function processes
//  353  *          any incoming data - probably from other devices. Based
//  354  *          on the cluster ID, perform the intended action.
//  355  *
//  356  * @param   pkt - pointer to the incoming message packet
//  357  *
//  358  * @return  TRUE if the 'pkt' parameter is being used and will be freed later,
//  359  *          FALSE otherwise.
//  360  */

        RSEG BANKED_CODE:CODE:NOROOT(0)
//  361 void SerialApp_ProcessMSGCmd( afIncomingMSGPacket_t *pkt )  //¥¶¿ÌΩ” ’µΩµƒRFœ˚œ¢
SerialApp_ProcessMSGCmd:
        CFI Block cfiBlock16 Using cfiCommon0
        CFI Function SerialApp_ProcessMSGCmd
        CODE
//  362 {
        FUNCALL SerialApp_ProcessMSGCmd, HalUARTWrite
        LOCFRAME ISTACK, 0, STACK
        LOCFRAME PSTACK, 0, STACK
        LOCFRAME XSTACK, 27, STACK
        LOCFRAME IOVERLAY, 0, STATIC
        LOCFRAME DOVERLAY, 0, STATIC
        ARGFRAME ISTACK, 0, STACK
        ARGFRAME PSTACK, 0, STACK
        ARGFRAME XSTACK, 27, STACK
        ARGFRAME IOVERLAY, 0, STATIC
        ARGFRAME DOVERLAY, 0, STATIC
        FUNCALL SerialApp_ProcessMSGCmd, GUI_DispDecAt
        LOCFRAME ISTACK, 0, STACK
        LOCFRAME PSTACK, 0, STACK
        LOCFRAME XSTACK, 31, STACK
        LOCFRAME IOVERLAY, 0, STATIC
        LOCFRAME DOVERLAY, 0, STATIC
        ARGFRAME ISTACK, 0, STACK
        ARGFRAME PSTACK, 0, STACK
        ARGFRAME XSTACK, 31, STACK
        ARGFRAME IOVERLAY, 0, STATIC
        ARGFRAME DOVERLAY, 0, STATIC
        FUNCALL SerialApp_ProcessMSGCmd, GUI_DispDecAt
        LOCFRAME ISTACK, 0, STACK
        LOCFRAME PSTACK, 0, STACK
        LOCFRAME XSTACK, 31, STACK
        LOCFRAME IOVERLAY, 0, STATIC
        LOCFRAME DOVERLAY, 0, STATIC
        ARGFRAME ISTACK, 0, STACK
        ARGFRAME PSTACK, 0, STACK
        ARGFRAME XSTACK, 31, STACK
        ARGFRAME IOVERLAY, 0, STATIC
        ARGFRAME DOVERLAY, 0, STATIC
        FUNCALL SerialApp_ProcessMSGCmd, GUI_DispDecAt
        LOCFRAME ISTACK, 0, STACK
        LOCFRAME PSTACK, 0, STACK
        LOCFRAME XSTACK, 31, STACK
        LOCFRAME IOVERLAY, 0, STATIC
        LOCFRAME DOVERLAY, 0, STATIC
        ARGFRAME ISTACK, 0, STACK
        ARGFRAME PSTACK, 0, STACK
        ARGFRAME XSTACK, 31, STACK
        ARGFRAME IOVERLAY, 0, STATIC
        ARGFRAME DOVERLAY, 0, STATIC
        FUNCALL SerialApp_ProcessMSGCmd, LCD_ShowNum
        LOCFRAME ISTACK, 0, STACK
        LOCFRAME PSTACK, 0, STACK
        LOCFRAME XSTACK, 31, STACK
        LOCFRAME IOVERLAY, 0, STATIC
        LOCFRAME DOVERLAY, 0, STATIC
        ARGFRAME ISTACK, 0, STACK
        ARGFRAME PSTACK, 0, STACK
        ARGFRAME XSTACK, 31, STACK
        ARGFRAME IOVERLAY, 0, STATIC
        ARGFRAME DOVERLAY, 0, STATIC
        FUNCALL SerialApp_ProcessMSGCmd, LCD_ShowNum
        LOCFRAME ISTACK, 0, STACK
        LOCFRAME PSTACK, 0, STACK
        LOCFRAME XSTACK, 31, STACK
        LOCFRAME IOVERLAY, 0, STATIC
        LOCFRAME DOVERLAY, 0, STATIC
        ARGFRAME ISTACK, 0, STACK
        ARGFRAME PSTACK, 0, STACK
        ARGFRAME XSTACK, 31, STACK
        ARGFRAME IOVERLAY, 0, STATIC
        ARGFRAME DOVERLAY, 0, STATIC
        FUNCALL SerialApp_ProcessMSGCmd, LCD_ShowNum
        LOCFRAME ISTACK, 0, STACK
        LOCFRAME PSTACK, 0, STACK
        LOCFRAME XSTACK, 31, STACK
        LOCFRAME IOVERLAY, 0, STATIC
        LOCFRAME DOVERLAY, 0, STATIC
        ARGFRAME ISTACK, 0, STACK
        ARGFRAME PSTACK, 0, STACK
        ARGFRAME XSTACK, 31, STACK
        ARGFRAME IOVERLAY, 0, STATIC
        ARGFRAME DOVERLAY, 0, STATIC
        FUNCALL SerialApp_ProcessMSGCmd, LCD_ShowString
        LOCFRAME ISTACK, 0, STACK
        LOCFRAME PSTACK, 0, STACK
        LOCFRAME XSTACK, 29, STACK
        LOCFRAME IOVERLAY, 0, STATIC
        LOCFRAME DOVERLAY, 0, STATIC
        ARGFRAME ISTACK, 0, STACK
        ARGFRAME PSTACK, 0, STACK
        ARGFRAME XSTACK, 29, STACK
        ARGFRAME IOVERLAY, 0, STATIC
        ARGFRAME DOVERLAY, 0, STATIC
        FUNCALL SerialApp_ProcessMSGCmd, HalLedBlink
        LOCFRAME ISTACK, 0, STACK
        LOCFRAME PSTACK, 0, STACK
        LOCFRAME XSTACK, 27, STACK
        LOCFRAME IOVERLAY, 0, STATIC
        LOCFRAME DOVERLAY, 0, STATIC
        ARGFRAME ISTACK, 0, STACK
        ARGFRAME PSTACK, 0, STACK
        ARGFRAME XSTACK, 27, STACK
        ARGFRAME IOVERLAY, 0, STATIC
        ARGFRAME DOVERLAY, 0, STATIC
        FUNCALL SerialApp_ProcessMSGCmd, LCD_ShowString
        LOCFRAME ISTACK, 0, STACK
        LOCFRAME PSTACK, 0, STACK
        LOCFRAME XSTACK, 29, STACK
        LOCFRAME IOVERLAY, 0, STATIC
        LOCFRAME DOVERLAY, 0, STATIC
        ARGFRAME ISTACK, 0, STACK
        ARGFRAME PSTACK, 0, STACK
        ARGFRAME XSTACK, 29, STACK
        ARGFRAME IOVERLAY, 0, STATIC
        ARGFRAME DOVERLAY, 0, STATIC
        FUNCALL SerialApp_ProcessMSGCmd, LCD_ShowNum
        LOCFRAME ISTACK, 0, STACK
        LOCFRAME PSTACK, 0, STACK
        LOCFRAME XSTACK, 31, STACK
        LOCFRAME IOVERLAY, 0, STATIC
        LOCFRAME DOVERLAY, 0, STATIC
        ARGFRAME ISTACK, 0, STACK
        ARGFRAME PSTACK, 0, STACK
        ARGFRAME XSTACK, 31, STACK
        ARGFRAME IOVERLAY, 0, STATIC
        ARGFRAME DOVERLAY, 0, STATIC
        FUNCALL SerialApp_ProcessMSGCmd, LCD_ShowNum
        LOCFRAME ISTACK, 0, STACK
        LOCFRAME PSTACK, 0, STACK
        LOCFRAME XSTACK, 31, STACK
        LOCFRAME IOVERLAY, 0, STATIC
        LOCFRAME DOVERLAY, 0, STATIC
        ARGFRAME ISTACK, 0, STACK
        ARGFRAME PSTACK, 0, STACK
        ARGFRAME XSTACK, 31, STACK
        ARGFRAME IOVERLAY, 0, STATIC
        ARGFRAME DOVERLAY, 0, STATIC
        FUNCALL SerialApp_ProcessMSGCmd, HalUARTWrite
        LOCFRAME ISTACK, 0, STACK
        LOCFRAME PSTACK, 0, STACK
        LOCFRAME XSTACK, 27, STACK
        LOCFRAME IOVERLAY, 0, STATIC
        LOCFRAME DOVERLAY, 0, STATIC
        ARGFRAME ISTACK, 0, STACK
        ARGFRAME PSTACK, 0, STACK
        ARGFRAME XSTACK, 27, STACK
        ARGFRAME IOVERLAY, 0, STATIC
        ARGFRAME DOVERLAY, 0, STATIC
        FUNCALL SerialApp_ProcessMSGCmd, LCD_ShowString
        LOCFRAME ISTACK, 0, STACK
        LOCFRAME PSTACK, 0, STACK
        LOCFRAME XSTACK, 29, STACK
        LOCFRAME IOVERLAY, 0, STATIC
        LOCFRAME DOVERLAY, 0, STATIC
        ARGFRAME ISTACK, 0, STACK
        ARGFRAME PSTACK, 0, STACK
        ARGFRAME XSTACK, 29, STACK
        ARGFRAME IOVERLAY, 0, STATIC
        ARGFRAME DOVERLAY, 0, STATIC
        FUNCALL SerialApp_ProcessMSGCmd, LCD_ShowString
        LOCFRAME ISTACK, 0, STACK
        LOCFRAME PSTACK, 0, STACK
        LOCFRAME XSTACK, 29, STACK
        LOCFRAME IOVERLAY, 0, STATIC
        LOCFRAME DOVERLAY, 0, STATIC
        ARGFRAME ISTACK, 0, STACK
        ARGFRAME PSTACK, 0, STACK
        ARGFRAME XSTACK, 29, STACK
        ARGFRAME IOVERLAY, 0, STATIC
        ARGFRAME DOVERLAY, 0, STATIC
        FUNCALL SerialApp_ProcessMSGCmd, LCD_ShowNum
        LOCFRAME ISTACK, 0, STACK
        LOCFRAME PSTACK, 0, STACK
        LOCFRAME XSTACK, 31, STACK
        LOCFRAME IOVERLAY, 0, STATIC
        LOCFRAME DOVERLAY, 0, STATIC
        ARGFRAME ISTACK, 0, STACK
        ARGFRAME PSTACK, 0, STACK
        ARGFRAME XSTACK, 31, STACK
        ARGFRAME IOVERLAY, 0, STATIC
        ARGFRAME DOVERLAY, 0, STATIC
        FUNCALL SerialApp_ProcessMSGCmd, LCD_ShowNum
        LOCFRAME ISTACK, 0, STACK
        LOCFRAME PSTACK, 0, STACK
        LOCFRAME XSTACK, 31, STACK
        LOCFRAME IOVERLAY, 0, STATIC
        LOCFRAME DOVERLAY, 0, STATIC
        ARGFRAME ISTACK, 0, STACK
        ARGFRAME PSTACK, 0, STACK
        ARGFRAME XSTACK, 31, STACK
        ARGFRAME IOVERLAY, 0, STATIC
        ARGFRAME DOVERLAY, 0, STATIC
        FUNCALL SerialApp_ProcessMSGCmd, LCD_ShowNum
        LOCFRAME ISTACK, 0, STACK
        LOCFRAME PSTACK, 0, STACK
        LOCFRAME XSTACK, 31, STACK
        LOCFRAME IOVERLAY, 0, STATIC
        LOCFRAME DOVERLAY, 0, STATIC
        ARGFRAME ISTACK, 0, STACK
        ARGFRAME PSTACK, 0, STACK
        ARGFRAME XSTACK, 31, STACK
        ARGFRAME IOVERLAY, 0, STATIC
        ARGFRAME DOVERLAY, 0, STATIC
        FUNCALL SerialApp_ProcessMSGCmd, LCD_ShowNum
        LOCFRAME ISTACK, 0, STACK
        LOCFRAME PSTACK, 0, STACK
        LOCFRAME XSTACK, 31, STACK
        LOCFRAME IOVERLAY, 0, STATIC
        LOCFRAME DOVERLAY, 0, STATIC
        ARGFRAME ISTACK, 0, STACK
        ARGFRAME PSTACK, 0, STACK
        ARGFRAME XSTACK, 31, STACK
        ARGFRAME IOVERLAY, 0, STATIC
        ARGFRAME DOVERLAY, 0, STATIC
        MOV     A,#-0x10
        LCALL   ?BANKED_ENTER_XDATA
        CFI DPH0 load(1, XDATA, add(CFA_XSP16, literal(-1)))
        CFI DPL0 load(1, XDATA, add(CFA_XSP16, literal(-2)))
        CFI ?BRET_EXT load(1, XDATA, add(CFA_XSP16, literal(-3)))
        CFI ?RET_HIGH load(1, XDATA, add(CFA_XSP16, literal(-4)))
        CFI ?RET_LOW load(1, XDATA, add(CFA_XSP16, literal(-5)))
        CFI R7 load(1, XDATA, add(CFA_XSP16, literal(-6)))
        CFI V7 load(1, XDATA, add(CFA_XSP16, literal(-7)))
        CFI V6 load(1, XDATA, add(CFA_XSP16, literal(-8)))
        CFI V5 load(1, XDATA, add(CFA_XSP16, literal(-9)))
        CFI V4 load(1, XDATA, add(CFA_XSP16, literal(-10)))
        CFI V3 load(1, XDATA, add(CFA_XSP16, literal(-11)))
        CFI V2 load(1, XDATA, add(CFA_XSP16, literal(-12)))
        CFI V1 load(1, XDATA, add(CFA_XSP16, literal(-13)))
        CFI V0 load(1, XDATA, add(CFA_XSP16, literal(-14)))
        CFI VB load(1, XDATA, add(CFA_XSP16, literal(-15)))
        CFI R6 load(1, XDATA, add(CFA_XSP16, literal(-16)))
        CFI CFA_SP SP+0
        CFI CFA_XSP16 add(XSP16, 16)
        ; Saved register size: 16
        ; Auto size: 11
        MOV     A,#-0xb
        LCALL   ?ALLOC_XSTACK8
        CFI CFA_XSP16 add(XSP16, 27)
//  363   UART_Format *receiveData;
//  364   receiveData = (UART_Format *)(pkt->cmd.Data);
        MOV     A,R2
        ADD     A,#0x22
        MOV     DPL,A
        MOV     A,R3
        ADDC    A,#0x0
        MOV     DPH,A
        MOVX    A,@DPTR
        MOV     R6,A
        INC     DPTR
        MOVX    A,@DPTR
        MOV     R7,A
//  365   int8 receive_rssi;
//  366   receive_rssi = pkt->rssi;
        MOV     A,R2
        ADD     A,#0x18
        MOV     DPL,A
        MOV     A,R3
        ADDC    A,#0x0
        MOV     DPH,A
        MOVX    A,@DPTR
        MOV     R0,A
//  367   switch ( pkt->clusterId )
        MOV     DPL,R2
        MOV     DPH,R3
        INC     DPTR
        INC     DPTR
        INC     DPTR
        INC     DPTR
        MOVX    A,@DPTR
        XRL     A,#0x1
        JNZ     ??SerialApp_ProcessMSGCmd_0
        INC     DPTR
        MOVX    A,@DPTR
??SerialApp_ProcessMSGCmd_0:
        JZ      $+5
        LJMP    ??SerialApp_ProcessMSGCmd_1 & 0xFFFF
//  368   {
//  369   case SERIALAPP_CLUSTERID1:  //¥¶¿Ì∏˜∏ˆ¥´∏–∆˜Ω⁄ ˝æ›
//  370     if((receiveData->Header_1==0xee)&&(receiveData->Header_2==0xcc)&&(receiveData->Tailer==0xff)) //–£—È∞¸Õ∑∞¸Œ≤
        MOV     DPL,R6
        MOV     DPH,R7
        MOVX    A,@DPTR
        XRL     A,#0xee
        JZ      $+5
        LJMP    ??SerialApp_ProcessMSGCmd_1 & 0xFFFF
        INC     DPTR
        MOVX    A,@DPTR
        XRL     A,#0xcc
        JZ      $+5
        LJMP    ??SerialApp_ProcessMSGCmd_1 & 0xFFFF
        MOV     A,R6
        ADD     A,#0xf
        MOV     DPL,A
        MOV     A,R7
        ADDC    A,#0x0
        MOV     DPH,A
        MOVX    A,@DPTR
        CPL     A
        JZ      $+5
        LJMP    ??SerialApp_ProcessMSGCmd_1 & 0xFFFF
//  371     {
//  372       if(receiveData->Command == MSG_PERIOD) //»Áπ˚ «÷‹∆⁄œ˚œ¢
        MOV     DPL,R6
        MOV     DPH,R7
        INC     DPTR
        INC     DPTR
        INC     DPTR
        INC     DPTR
        MOVX    A,@DPTR
        XRL     A,#0xaa
        JNZ     ??SerialApp_ProcessMSGCmd_2
//  373       {
//  374         receiveData->Data[0] = receive_rssi;
        MOV     A,R0
        MOV     DPL,R6
        MOV     DPH,R7
        INC     DPTR
        INC     DPTR
        INC     DPTR
        INC     DPTR
        INC     DPTR
        MOVX    @DPTR,A
//  375       }
//  376       HalUARTWrite(SERIAL_APP_PORT, (uint8*)receiveData, sizeof(UART_Format)); //Õ®π˝¥Æø⁄∑¢ÀÕ∏¯Õ¯πÿ
??SerialApp_ProcessMSGCmd_2:
        ; Setup parameters for call to function HalUARTWrite
        MOV     R4,#0x10
        MOV     R5,#0x0
        MOV     A,R6
        MOV     R2,A
        MOV     A,R7
        MOV     R3,A
        MOV     R1,#0x0
        LCALL   ??HalUARTWrite?relay
//  377 #ifdef LCD_SUPPORTED
//  378       int16 temp1,temp2;
//  379       if(receiveData->NodeID == Gyroscope) //»Áπ˚ «π‚√Ù¥´∏–∆˜∑¢¿¥µƒœ˚œ¢
        MOV     DPL,R6
        MOV     DPH,R7
        INC     DPTR
        INC     DPTR
        INC     DPTR
        MOVX    A,@DPTR
        XRL     A,#0x15
        MOV     DPL,R6
        MOV     DPH,R7
        INC     DPTR
        INC     DPTR
        INC     DPTR
        JNZ     ??SerialApp_ProcessMSGCmd_3
//  380       {
//  381         if(receiveData->Command == 0x01) //π‚√Ù≤…—˘÷µ
        INC     DPTR
        MOVX    A,@DPTR
        XRL     A,#0x1
        JZ      $+5
        LJMP    ??SerialApp_ProcessMSGCmd_1 & 0xFFFF
//  382         {
//  383           temp1 = (receiveData->Data[0]<<8)|receiveData->Data[1]; //x
//  384           GUI_DispDecAt(temp1, 60,  60, 5);
        ; Setup parameters for call to function GUI_DispDecAt
        MOV     ?V0 + 0,#0x3c
        MOV     ?V0 + 1,#0x0
        MOV     R0,#?V0 + 0
        LCALL   ?PUSH_XSTACK_I_TWO
        CFI CFA_XSP16 add(XSP16, 29)
        MOV     R0,#?V0 + 0
        LCALL   ?PUSH_XSTACK_I_TWO
        CFI CFA_XSP16 add(XSP16, 31)
        MOV     R1,#0x5
        MOV     DPL,R6
        MOV     DPH,R7
        LCALL   ?Subroutine10 & 0xFFFF
??CrossCallReturnLabel_23:
        LCALL   ?Subroutine5 & 0xFFFF
??CrossCallReturnLabel_15:
        LCALL   ?DEALLOC_XSTACK8
        CFI CFA_XSP16 add(XSP16, 27)
//  385           temp1 = (receiveData->Data[2]<<8)|receiveData->Data[3]; //y
//  386           GUI_DispDecAt(temp1, 120, 60, 5);
        ; Setup parameters for call to function GUI_DispDecAt
        MOV     R0,#?V0 + 0
        LCALL   ?PUSH_XSTACK_I_TWO
        CFI CFA_XSP16 add(XSP16, 29)
        MOV     ?V0 + 0,#0x78
        MOV     R0,#?V0 + 0
        LCALL   ?PUSH_XSTACK_I_TWO
        CFI CFA_XSP16 add(XSP16, 31)
        MOV     R1,#0x5
        MOV     DPL,R6
        MOV     DPH,R7
        LCALL   ?Subroutine3 & 0xFFFF
??CrossCallReturnLabel_11:
        LCALL   ?Subroutine5 & 0xFFFF
??CrossCallReturnLabel_16:
        LCALL   ?DEALLOC_XSTACK8
        CFI CFA_XSP16 add(XSP16, 27)
//  387           temp1 = (receiveData->Data[4]<<8)|receiveData->Data[5]; //z
//  388           GUI_DispDecAt(temp1, 180, 60, 5);
        ; Setup parameters for call to function GUI_DispDecAt
        MOV     ?V0 + 0,#0x3c
        MOV     R0,#?V0 + 0
        LCALL   ?PUSH_XSTACK_I_TWO
        CFI CFA_XSP16 add(XSP16, 29)
        MOV     ?V0 + 0,#-0x4c
        MOV     R0,#?V0 + 0
        LCALL   ?PUSH_XSTACK_I_TWO
        CFI CFA_XSP16 add(XSP16, 31)
        MOV     R1,#0x5
        MOV     DPL,R6
        MOV     DPH,R7
        INC     DPTR
        INC     DPTR
        LCALL   ?Subroutine3 & 0xFFFF
//  389         }
//  390       }
??CrossCallReturnLabel_12:
        INC     DPTR
        INC     DPTR
        LCALL   ?Subroutine9 & 0xFFFF
??CrossCallReturnLabel_21:
        LJMP    ??SerialApp_ProcessMSGCmd_4 & 0xFFFF
        CFI CFA_XSP16 add(XSP16, 27)
//  391       else if(receiveData->NodeID == TempAndHum)
??SerialApp_ProcessMSGCmd_3:
        MOVX    A,@DPTR
        XRL     A,#0x3
        MOV     DPL,R6
        MOV     DPH,R7
        INC     DPTR
        INC     DPTR
        INC     DPTR
        JNZ     ??SerialApp_ProcessMSGCmd_5
//  392       {
//  393         if(receiveData->Command == 0x01) //π‚√Ù≤…—˘÷µ
        INC     DPTR
        MOVX    A,@DPTR
        XRL     A,#0x1
        JZ      $+5
        LJMP    ??SerialApp_ProcessMSGCmd_1 & 0xFFFF
//  394         {
//  395           temp1 = (receiveData->Data[0]<<8)|receiveData->Data[1];
//  396           LCD_ShowNum(80,60,temp1,4);
        ; Setup parameters for call to function LCD_ShowNum
        LCALL   ?Subroutine1 & 0xFFFF
??CrossCallReturnLabel_37:
        LCALL   ?PUSH_XSTACK_I_FOUR
        CFI CFA_XSP16 add(XSP16, 31)
        MOV     R4,#0x4
        MOV     R2,#0x3c
        LCALL   ?Subroutine8 & 0xFFFF
??CrossCallReturnLabel_29:
        LCALL   ?DEALLOC_XSTACK8
        CFI CFA_XSP16 add(XSP16, 27)
//  397           temp2 = (receiveData->Data[2]<<8)|receiveData->Data[3];
//  398           LCD_ShowNum(170,60,temp2,4);
        ; Setup parameters for call to function LCD_ShowNum
        LCALL   ?Subroutine7 & 0xFFFF
//  399         }       
//  400       }
??CrossCallReturnLabel_19:
        LCALL   ??Subroutine14_0 & 0xFFFF
??CrossCallReturnLabel_34:
        LCALL   ?PUSH_XSTACK_I_FOUR
        CFI CFA_XSP16 add(XSP16, 31)
        MOV     R4,#0x4
        MOV     R2,#0x3c
        MOV     R3,#0x0
        MOV     R1,#-0x56
        LJMP    ??SerialApp_ProcessMSGCmd_6 & 0xFFFF
        CFI CFA_XSP16 add(XSP16, 27)
//  401       else if(receiveData->NodeID == Alcohol)
??SerialApp_ProcessMSGCmd_5:
        MOVX    A,@DPTR
        XRL     A,#0x17
        MOV     DPL,R6
        MOV     DPH,R7
        INC     DPTR
        INC     DPTR
        INC     DPTR
        JNZ     ??SerialApp_ProcessMSGCmd_7
//  402       {
//  403         uint16 temp3;
//  404         if(receiveData->Command == 0x01) //π‚√Ù≤…—˘÷µ
        INC     DPTR
        MOVX    A,@DPTR
        XRL     A,#0x1
        JZ      $+5
        LJMP    ??SerialApp_ProcessMSGCmd_1 & 0xFFFF
//  405         {
//  406           temp3  = receiveData->Data[0]<<8|receiveData->Data[1];
//  407           LCD_ShowNum(80, 80, temp3, 5);
        ; Setup parameters for call to function LCD_ShowNum
        LCALL   ?Subroutine4 & 0xFFFF
//  408         }       
//  409       }
??CrossCallReturnLabel_13:
        MOV     ?V0 + 0,A
        MOV     A,R1
        MOV     ?V0 + 1,A
        CLR     A
        MOV     ?V0 + 2,A
        MOV     ?V0 + 3,A
        MOV     R0,#?V0 + 0
        LCALL   ?PUSH_XSTACK_I_FOUR
        CFI CFA_XSP16 add(XSP16, 31)
        MOV     R4,#0x5
        MOV     R2,#0x50
        MOV     R3,#0x0
        MOV     R1,#0x50
        LJMP    ??SerialApp_ProcessMSGCmd_6 & 0xFFFF
        CFI CFA_XSP16 add(XSP16, 27)
//  410       else if(receiveData->NodeID == Touch)
??SerialApp_ProcessMSGCmd_7:
        MOVX    A,@DPTR
        XRL     A,#0xe
        MOV     DPL,R6
        MOV     DPH,R7
        INC     DPTR
        INC     DPTR
        INC     DPTR
        JNZ     ??SerialApp_ProcessMSGCmd_8
//  411       {
//  412         if(receiveData->Command == 0x01) //π‚√Ù≤…—˘÷µ
        INC     DPTR
        MOVX    A,@DPTR
        XRL     A,#0x1
        JZ      $+5
        LJMP    ??SerialApp_ProcessMSGCmd_1 & 0xFFFF
//  413         {
//  414           if(receiveData->Data[0] == 0x01)  //ºÏ≤‚µΩ’∂Ø
        MOV     DPL,R6
        MOV     DPH,R7
        INC     DPTR
        INC     DPTR
        INC     DPTR
        INC     DPTR
        INC     DPTR
        MOVX    A,@DPTR
        XRL     A,#0x1
        JNZ     ??SerialApp_ProcessMSGCmd_9
//  415           {
//  416             LCD_ShowString(100,180,"---$---");
        ; Setup parameters for call to function LCD_ShowString
        MOV     ?V0 + 0,#`?<Constant "---$---">` & 0xff
        MOV     ?V0 + 1,#(`?<Constant "---$---">` >> 8) & 0xff
        MOV     R0,#?V0 + 0
        LCALL   ?PUSH_XSTACK_I_TWO
        CFI CFA_XSP16 add(XSP16, 29)
        MOV     R4,#-0x4c
        MOV     R5,#0x0
        MOV     R2,#0x64
        MOV     R3,#0x0
        LCALL   ??LCD_ShowString?relay
        MOV     A,#0x2
        LCALL   ?DEALLOC_XSTACK8
        CFI CFA_XSP16 add(XSP16, 27)
//  417             HalLedBlink(HAL_LED_3,1,50,500);
        ; Setup parameters for call to function HalLedBlink
        MOV     R4,#-0xc
        MOV     R5,#0x1
        MOV     R3,#0x32
        MOV     R2,#0x1
        MOV     R1,#0x4
        LCALL   ??HalLedBlink?relay
        LJMP    ??SerialApp_ProcessMSGCmd_1 & 0xFFFF
//  418           }
//  419           else if(receiveData->Data[0] == 0x00)  //’∂Øœ˚ ß
??SerialApp_ProcessMSGCmd_9:
        MOV     DPL,R6
        MOV     DPH,R7
        INC     DPTR
        INC     DPTR
        INC     DPTR
        INC     DPTR
        INC     DPTR
        MOVX    A,@DPTR
        JZ      $+5
        LJMP    ??SerialApp_ProcessMSGCmd_1 & 0xFFFF
//  420           {
//  421             LCD_ShowString(100,180,"Nothing");
        ; Setup parameters for call to function LCD_ShowString
        MOV     ?V0 + 0,#`?<Constant "Nothing">` & 0xff
        MOV     ?V0 + 1,#(`?<Constant "Nothing">` >> 8) & 0xff
        MOV     R0,#?V0 + 0
        LCALL   ?PUSH_XSTACK_I_TWO
        CFI CFA_XSP16 add(XSP16, 29)
        MOV     R4,#-0x4c
??SerialApp_ProcessMSGCmd_10:
        MOV     R5,#0x0
        MOV     R2,#0x64
        MOV     R3,#0x0
        LCALL   ??LCD_ShowString?relay
        MOV     A,#0x2
        LCALL   ?DEALLOC_XSTACK8
        CFI CFA_XSP16 add(XSP16, 27)
        LJMP    ??SerialApp_ProcessMSGCmd_1 & 0xFFFF
//  422           }
//  423         }       
//  424       }
//  425       else if(receiveData->NodeID == Flame)
??SerialApp_ProcessMSGCmd_8:
        MOVX    A,@DPTR
        XRL     A,#0x12
        JZ      $+5
        LJMP    ??SerialApp_ProcessMSGCmd_11 & 0xFFFF
//  426       {
//  427         uint8 call[]   = "ATD10086;\r";
        MOV     DPL,?XSP + 0
        MOV     DPH,?XSP + 1
        MOV     R4,DPL
        MOV     R5,DPH
        MOV     DPH,#(`?<Constant "ATD10086;\\r">` >> 8) & 0xff
        MOV     DPL,#`?<Constant "ATD10086;\\r">` & 0xff
        MOV     A,#0xb
        LCALL   ?MOVE_LONG8_XDATA_XDATA
//  428         //uint8 hangup[] = "ATH\r";
//  429         uint16 left,right;
//  430         if(receiveData->Command == 0x01) 
        MOV     DPL,R6
        MOV     DPH,R7
        INC     DPTR
        INC     DPTR
        INC     DPTR
        INC     DPTR
        MOVX    A,@DPTR
        XRL     A,#0x1
        JZ      $+5
        LJMP    ??SerialApp_ProcessMSGCmd_1 & 0xFFFF
//  431         {
//  432           left  = receiveData->Data[0]<<8|receiveData->Data[1];
//  433           right = receiveData->Data[2]<<8|receiveData->Data[3];
        MOV     DPL,R6
        MOV     DPH,R7
        LCALL   ?Subroutine6 & 0xFFFF
??CrossCallReturnLabel_17:
        INC     DPTR
        INC     DPTR
        INC     DPTR
        INC     DPTR
        MOVX    A,@DPTR
        MOV     ?V0 + 0,A
        MOV     A,R1
        MOV     ?V0 + 1,A
//  434           LCD_ShowNum(80, 120, left, 5);
        ; Setup parameters for call to function LCD_ShowNum
        LCALL   ?Subroutine4 & 0xFFFF
??CrossCallReturnLabel_14:
        MOV     ?V0 + 4,A
        MOV     A,R1
        MOV     ?V0 + 5,A
        CLR     A
        MOV     ?V0 + 6,A
        MOV     ?V0 + 7,A
        MOV     R0,#?V0 + 4
        LCALL   ?PUSH_XSTACK_I_FOUR
        CFI CFA_XSP16 add(XSP16, 31)
        MOV     R4,#0x5
        MOV     R2,#0x78
        LCALL   ?Subroutine8 & 0xFFFF
??CrossCallReturnLabel_30:
        LCALL   ?DEALLOC_XSTACK8
        CFI CFA_XSP16 add(XSP16, 27)
//  435           LCD_ShowNum(160, 120, right, 5);
        ; Setup parameters for call to function LCD_ShowNum
        CLR     A
        MOV     ?V0 + 2,A
        MOV     ?V0 + 3,A
        MOV     R0,#?V0 + 0
        LCALL   ?PUSH_XSTACK_I_FOUR
        CFI CFA_XSP16 add(XSP16, 31)
        MOV     R4,#0x5
        MOV     R2,#0x78
        MOV     R3,#0x0
        MOV     R1,#-0x60
        LCALL   ??Subroutine13_0 & 0xFFFF
??CrossCallReturnLabel_31:
        LCALL   ?DEALLOC_XSTACK8
        CFI CFA_XSP16 add(XSP16, 27)
//  436           HalUARTWrite(SERIAL_APP_PORT, call, sizeof(call));
        ; Setup parameters for call to function HalUARTWrite
        MOV     R4,#0xb
        MOV     R5,#0x0
        MOV     DPL,?XSP + 0
        MOV     DPH,?XSP + 1
        MOV     R2,DPL
        MOV     R3,DPH
        MOV     R1,#0x0
        LCALL   ??HalUARTWrite?relay
        LJMP    ??SerialApp_ProcessMSGCmd_1 & 0xFFFF
//  437         }       
//  438       }
//  439       else if(receiveData->NodeID == Doppler)
??SerialApp_ProcessMSGCmd_11:
        MOV     DPL,R6
        MOV     DPH,R7
        INC     DPTR
        INC     DPTR
        INC     DPTR
        MOVX    A,@DPTR
        XRL     A,#0x8
        MOV     DPL,R6
        MOV     DPH,R7
        INC     DPTR
        INC     DPTR
        INC     DPTR
        JNZ     ??SerialApp_ProcessMSGCmd_12
//  440       {
//  441         if(receiveData->Command == 0x01) //π‚√Ù≤…—˘÷µ
        INC     DPTR
        MOVX    A,@DPTR
        XRL     A,#0x1
        JZ      $+5
        LJMP    ??SerialApp_ProcessMSGCmd_1 & 0xFFFF
//  442         {
//  443           if(receiveData->Data[0] == 0x01)  //ºÏ≤‚µΩ’∂Ø
        MOV     DPL,R6
        MOV     DPH,R7
        INC     DPTR
        INC     DPTR
        INC     DPTR
        INC     DPTR
        INC     DPTR
        MOVX    A,@DPTR
        XRL     A,#0x1
        JNZ     ??SerialApp_ProcessMSGCmd_13
//  444           {
//  445             LCD_ShowString(100,140,"Bodymoving");
        ; Setup parameters for call to function LCD_ShowString
        MOV     ?V0 + 0,#`?<Constant "Bodymoving">` & 0xff
        MOV     ?V0 + 1,#(`?<Constant "Bodymoving">` >> 8) & 0xff
??SerialApp_ProcessMSGCmd_14:
        MOV     R0,#?V0 + 0
        LCALL   ?PUSH_XSTACK_I_TWO
        CFI CFA_XSP16 add(XSP16, 29)
        MOV     R4,#-0x74
        LJMP    ??SerialApp_ProcessMSGCmd_10 & 0xFFFF
        CFI CFA_XSP16 add(XSP16, 27)
//  446           }
//  447           else if(receiveData->Data[0] == 0x00)  //’∂Øœ˚ ß
??SerialApp_ProcessMSGCmd_13:
        MOV     DPL,R6
        MOV     DPH,R7
        INC     DPTR
        INC     DPTR
        INC     DPTR
        INC     DPTR
        INC     DPTR
        MOVX    A,@DPTR
        JZ      $+5
        LJMP    ??SerialApp_ProcessMSGCmd_1 & 0xFFFF
//  448           {
//  449             LCD_ShowString(100,140,"Bodystatic");
        ; Setup parameters for call to function LCD_ShowString
        MOV     ?V0 + 0,#`?<Constant "Bodystatic">` & 0xff
        MOV     ?V0 + 1,#(`?<Constant "Bodystatic">` >> 8) & 0xff
        SJMP    ??SerialApp_ProcessMSGCmd_14
//  450           }
//  451         }       
//  452       }
//  453       else if(receiveData->NodeID == Ultrasound)
??SerialApp_ProcessMSGCmd_12:
        MOVX    A,@DPTR
        XRL     A,#0xf
        MOV     DPL,R6
        MOV     DPH,R7
        INC     DPTR
        INC     DPTR
        INC     DPTR
        JNZ     ??SerialApp_ProcessMSGCmd_15
//  454       {
//  455         if(receiveData->Command == 0x01) //π‚√Ù≤…—˘÷µ
        INC     DPTR
        MOVX    A,@DPTR
        XRL     A,#0x1
        JNZ     ??SerialApp_ProcessMSGCmd_1
//  456         {
//  457           temp1 = (receiveData->Data[0]<<8)|receiveData->Data[1];
//  458           LCD_ShowNum(100,200,temp1,4);
        ; Setup parameters for call to function LCD_ShowNum
        LCALL   ?Subroutine1 & 0xFFFF
//  459         }       
//  460       }
??CrossCallReturnLabel_38:
        LCALL   ?PUSH_XSTACK_I_FOUR
        CFI CFA_XSP16 add(XSP16, 31)
        MOV     R4,#0x4
        MOV     R2,#-0x38
        MOV     R3,#0x0
        MOV     R1,#0x64
        SJMP    ??SerialApp_ProcessMSGCmd_6
        CFI CFA_XSP16 add(XSP16, 27)
//  461       else if(receiveData->NodeID == Accele)  //º”ÀŸ∂»
??SerialApp_ProcessMSGCmd_15:
        MOVX    A,@DPTR
        XRL     A,#0x6
        JNZ     ??SerialApp_ProcessMSGCmd_1
//  462       {
//  463         if(receiveData->Command == 0x01) //
        MOV     DPL,R6
        MOV     DPH,R7
        INC     DPTR
        INC     DPTR
        INC     DPTR
        INC     DPTR
        MOVX    A,@DPTR
        XRL     A,#0x1
        JNZ     ??SerialApp_ProcessMSGCmd_1
//  464         {
//  465           temp1 = (receiveData->Data[0]<<8)|receiveData->Data[1]; //x
//  466           LCD_ShowNum(60,100,temp1,4);
        ; Setup parameters for call to function LCD_ShowNum
        LCALL   ?Subroutine1 & 0xFFFF
??CrossCallReturnLabel_39:
        LCALL   ?PUSH_XSTACK_I_FOUR
        CFI CFA_XSP16 add(XSP16, 31)
        MOV     R4,#0x4
        MOV     R2,#0x64
        MOV     R3,#0x0
        MOV     R1,#0x3c
        LCALL   ??Subroutine13_0 & 0xFFFF
??CrossCallReturnLabel_32:
        LCALL   ?DEALLOC_XSTACK8
        CFI CFA_XSP16 add(XSP16, 27)
//  467           temp1 = (receiveData->Data[2]<<8)|receiveData->Data[3]; //y
//  468           LCD_ShowNum(120,100,temp1,4);
        ; Setup parameters for call to function LCD_ShowNum
        LCALL   ?Subroutine7 & 0xFFFF
??CrossCallReturnLabel_20:
        LCALL   ??Subroutine14_0 & 0xFFFF
??CrossCallReturnLabel_35:
        LCALL   ?PUSH_XSTACK_I_FOUR
        CFI CFA_XSP16 add(XSP16, 31)
        MOV     R4,#0x4
        MOV     R2,#0x64
        MOV     R3,#0x0
        MOV     R1,#0x78
        LCALL   ??Subroutine13_0 & 0xFFFF
??CrossCallReturnLabel_33:
        LCALL   ?DEALLOC_XSTACK8
        CFI CFA_XSP16 add(XSP16, 27)
//  469           temp1 = (receiveData->Data[4]<<8)|receiveData->Data[5]; //z
//  470           LCD_ShowNum(180,100,temp1,4);
        ; Setup parameters for call to function LCD_ShowNum
        MOV     DPL,R6
        MOV     DPH,R7
        INC     DPTR
        INC     DPTR
        LCALL   ?Subroutine6 & 0xFFFF
//  471         }       
//  472       }
//  473 #endif
//  474     }
//  475     break;
//  476 
//  477   case SERIALAPP_CLUSTERID2:
//  478     break;
//  479 
//  480     default:
//  481       break;
//  482   }
??CrossCallReturnLabel_18:
        LCALL   ??Subroutine14_0 & 0xFFFF
??CrossCallReturnLabel_36:
        LCALL   ?PUSH_XSTACK_I_FOUR
        CFI CFA_XSP16 add(XSP16, 31)
        MOV     R4,#0x4
        MOV     R2,#0x64
        MOV     R3,#0x0
        MOV     R1,#-0x4c
??SerialApp_ProcessMSGCmd_6:
        LCALL   ??LCD_ShowNum?relay
??SerialApp_ProcessMSGCmd_4:
        MOV     A,#0x4
        LCALL   ?DEALLOC_XSTACK8
        CFI CFA_XSP16 add(XSP16, 27)
//  483 }
??SerialApp_ProcessMSGCmd_1:
        MOV     A,#0xb
        LCALL   ?DEALLOC_XSTACK8
        CFI CFA_XSP16 add(XSP16, 16)
        MOV     R7,#0x8
        LJMP    ?BANKED_LEAVE_XDATA
        CFI EndBlock cfiBlock16

        RSEG BANKED_CODE:CODE:NOROOT(0)
?Subroutine8:
        CFI Block cfiCond17 Using cfiCommon0
        CFI NoFunction
        CFI Conditional ??CrossCallReturnLabel_29
        CFI R6 load(1, XDATA, add(CFA_XSP16, literal(-16)))
        CFI VB load(1, XDATA, add(CFA_XSP16, literal(-15)))
        CFI V0 load(1, XDATA, add(CFA_XSP16, literal(-14)))
        CFI V1 load(1, XDATA, add(CFA_XSP16, literal(-13)))
        CFI V2 load(1, XDATA, add(CFA_XSP16, literal(-12)))
        CFI V3 load(1, XDATA, add(CFA_XSP16, literal(-11)))
        CFI V4 load(1, XDATA, add(CFA_XSP16, literal(-10)))
        CFI V5 load(1, XDATA, add(CFA_XSP16, literal(-9)))
        CFI V6 load(1, XDATA, add(CFA_XSP16, literal(-8)))
        CFI V7 load(1, XDATA, add(CFA_XSP16, literal(-7)))
        CFI R7 load(1, XDATA, add(CFA_XSP16, literal(-6)))
        CFI ?RET_LOW load(1, XDATA, add(CFA_XSP16, literal(-5)))
        CFI ?RET_HIGH load(1, XDATA, add(CFA_XSP16, literal(-4)))
        CFI ?BRET_EXT load(1, XDATA, add(CFA_XSP16, literal(-3)))
        CFI DPL0 load(1, XDATA, add(CFA_XSP16, literal(-2)))
        CFI DPH0 load(1, XDATA, add(CFA_XSP16, literal(-1)))
        CFI CFA_SP SP+0
        CFI CFA_XSP16 add(XSP16, 31)
        CFI Block cfiCond18 Using cfiCommon0
        CFI (cfiCond18) NoFunction
        CFI (cfiCond18) Conditional ??CrossCallReturnLabel_30
        CFI (cfiCond18) R6 load(1, XDATA, add(CFA_XSP16, literal(-16)))
        CFI (cfiCond18) VB load(1, XDATA, add(CFA_XSP16, literal(-15)))
        CFI (cfiCond18) V0 load(1, XDATA, add(CFA_XSP16, literal(-14)))
        CFI (cfiCond18) V1 load(1, XDATA, add(CFA_XSP16, literal(-13)))
        CFI (cfiCond18) V2 load(1, XDATA, add(CFA_XSP16, literal(-12)))
        CFI (cfiCond18) V3 load(1, XDATA, add(CFA_XSP16, literal(-11)))
        CFI (cfiCond18) V4 load(1, XDATA, add(CFA_XSP16, literal(-10)))
        CFI (cfiCond18) V5 load(1, XDATA, add(CFA_XSP16, literal(-9)))
        CFI (cfiCond18) V6 load(1, XDATA, add(CFA_XSP16, literal(-8)))
        CFI (cfiCond18) V7 load(1, XDATA, add(CFA_XSP16, literal(-7)))
        CFI (cfiCond18) R7 load(1, XDATA, add(CFA_XSP16, literal(-6)))
        CFI (cfiCond18) ?RET_LOW load(1, XDATA, add(CFA_XSP16, literal(-5)))
        CFI (cfiCond18) ?RET_HIGH load(1, XDATA, add(CFA_XSP16, literal(-4)))
        CFI (cfiCond18) ?BRET_EXT load(1, XDATA, add(CFA_XSP16, literal(-3)))
        CFI (cfiCond18) DPL0 load(1, XDATA, add(CFA_XSP16, literal(-2)))
        CFI (cfiCond18) DPH0 load(1, XDATA, add(CFA_XSP16, literal(-1)))
        CFI (cfiCond18) CFA_SP SP+0
        CFI (cfiCond18) CFA_XSP16 add(XSP16, 31)
        CFI Block cfiPicker19 Using cfiCommon1
        CFI (cfiPicker19) NoFunction
        CFI (cfiPicker19) Picker
        MOV     R3,#0x0
        MOV     R1,#0x50
        CFI EndBlock cfiCond17
        CFI EndBlock cfiCond18
        CFI EndBlock cfiPicker19
        REQUIRE ??Subroutine13_0
        ; // Fall through to label ??Subroutine13_0

        RSEG BANKED_CODE:CODE:NOROOT(0)
??Subroutine13_0:
        CFI Block cfiCond20 Using cfiCommon0
        CFI NoFunction
        CFI Conditional ??CrossCallReturnLabel_31
        CFI R6 load(1, XDATA, add(CFA_XSP16, literal(-16)))
        CFI VB load(1, XDATA, add(CFA_XSP16, literal(-15)))
        CFI V0 load(1, XDATA, add(CFA_XSP16, literal(-14)))
        CFI V1 load(1, XDATA, add(CFA_XSP16, literal(-13)))
        CFI V2 load(1, XDATA, add(CFA_XSP16, literal(-12)))
        CFI V3 load(1, XDATA, add(CFA_XSP16, literal(-11)))
        CFI V4 load(1, XDATA, add(CFA_XSP16, literal(-10)))
        CFI V5 load(1, XDATA, add(CFA_XSP16, literal(-9)))
        CFI V6 load(1, XDATA, add(CFA_XSP16, literal(-8)))
        CFI V7 load(1, XDATA, add(CFA_XSP16, literal(-7)))
        CFI R7 load(1, XDATA, add(CFA_XSP16, literal(-6)))
        CFI ?RET_LOW load(1, XDATA, add(CFA_XSP16, literal(-5)))
        CFI ?RET_HIGH load(1, XDATA, add(CFA_XSP16, literal(-4)))
        CFI ?BRET_EXT load(1, XDATA, add(CFA_XSP16, literal(-3)))
        CFI DPL0 load(1, XDATA, add(CFA_XSP16, literal(-2)))
        CFI DPH0 load(1, XDATA, add(CFA_XSP16, literal(-1)))
        CFI CFA_SP SP+0
        CFI CFA_XSP16 add(XSP16, 31)
        CFI Block cfiCond21 Using cfiCommon0
        CFI (cfiCond21) NoFunction
        CFI (cfiCond21) Conditional ??CrossCallReturnLabel_32
        CFI (cfiCond21) R6 load(1, XDATA, add(CFA_XSP16, literal(-16)))
        CFI (cfiCond21) VB load(1, XDATA, add(CFA_XSP16, literal(-15)))
        CFI (cfiCond21) V0 load(1, XDATA, add(CFA_XSP16, literal(-14)))
        CFI (cfiCond21) V1 load(1, XDATA, add(CFA_XSP16, literal(-13)))
        CFI (cfiCond21) V2 load(1, XDATA, add(CFA_XSP16, literal(-12)))
        CFI (cfiCond21) V3 load(1, XDATA, add(CFA_XSP16, literal(-11)))
        CFI (cfiCond21) V4 load(1, XDATA, add(CFA_XSP16, literal(-10)))
        CFI (cfiCond21) V5 load(1, XDATA, add(CFA_XSP16, literal(-9)))
        CFI (cfiCond21) V6 load(1, XDATA, add(CFA_XSP16, literal(-8)))
        CFI (cfiCond21) V7 load(1, XDATA, add(CFA_XSP16, literal(-7)))
        CFI (cfiCond21) R7 load(1, XDATA, add(CFA_XSP16, literal(-6)))
        CFI (cfiCond21) ?RET_LOW load(1, XDATA, add(CFA_XSP16, literal(-5)))
        CFI (cfiCond21) ?RET_HIGH load(1, XDATA, add(CFA_XSP16, literal(-4)))
        CFI (cfiCond21) ?BRET_EXT load(1, XDATA, add(CFA_XSP16, literal(-3)))
        CFI (cfiCond21) DPL0 load(1, XDATA, add(CFA_XSP16, literal(-2)))
        CFI (cfiCond21) DPH0 load(1, XDATA, add(CFA_XSP16, literal(-1)))
        CFI (cfiCond21) CFA_SP SP+0
        CFI (cfiCond21) CFA_XSP16 add(XSP16, 31)
        CFI Block cfiCond22 Using cfiCommon0
        CFI (cfiCond22) NoFunction
        CFI (cfiCond22) Conditional ??CrossCallReturnLabel_33
        CFI (cfiCond22) R6 load(1, XDATA, add(CFA_XSP16, literal(-16)))
        CFI (cfiCond22) VB load(1, XDATA, add(CFA_XSP16, literal(-15)))
        CFI (cfiCond22) V0 load(1, XDATA, add(CFA_XSP16, literal(-14)))
        CFI (cfiCond22) V1 load(1, XDATA, add(CFA_XSP16, literal(-13)))
        CFI (cfiCond22) V2 load(1, XDATA, add(CFA_XSP16, literal(-12)))
        CFI (cfiCond22) V3 load(1, XDATA, add(CFA_XSP16, literal(-11)))
        CFI (cfiCond22) V4 load(1, XDATA, add(CFA_XSP16, literal(-10)))
        CFI (cfiCond22) V5 load(1, XDATA, add(CFA_XSP16, literal(-9)))
        CFI (cfiCond22) V6 load(1, XDATA, add(CFA_XSP16, literal(-8)))
        CFI (cfiCond22) V7 load(1, XDATA, add(CFA_XSP16, literal(-7)))
        CFI (cfiCond22) R7 load(1, XDATA, add(CFA_XSP16, literal(-6)))
        CFI (cfiCond22) ?RET_LOW load(1, XDATA, add(CFA_XSP16, literal(-5)))
        CFI (cfiCond22) ?RET_HIGH load(1, XDATA, add(CFA_XSP16, literal(-4)))
        CFI (cfiCond22) ?BRET_EXT load(1, XDATA, add(CFA_XSP16, literal(-3)))
        CFI (cfiCond22) DPL0 load(1, XDATA, add(CFA_XSP16, literal(-2)))
        CFI (cfiCond22) DPH0 load(1, XDATA, add(CFA_XSP16, literal(-1)))
        CFI (cfiCond22) CFA_SP SP+0
        CFI (cfiCond22) CFA_XSP16 add(XSP16, 31)
        CFI Block cfiCond23 Using cfiCommon0
        CFI (cfiCond23) NoFunction
        CFI (cfiCond23) Conditional ??CrossCallReturnLabel_29
        CFI (cfiCond23) R6 load(1, XDATA, add(CFA_XSP16, literal(-16)))
        CFI (cfiCond23) VB load(1, XDATA, add(CFA_XSP16, literal(-15)))
        CFI (cfiCond23) V0 load(1, XDATA, add(CFA_XSP16, literal(-14)))
        CFI (cfiCond23) V1 load(1, XDATA, add(CFA_XSP16, literal(-13)))
        CFI (cfiCond23) V2 load(1, XDATA, add(CFA_XSP16, literal(-12)))
        CFI (cfiCond23) V3 load(1, XDATA, add(CFA_XSP16, literal(-11)))
        CFI (cfiCond23) V4 load(1, XDATA, add(CFA_XSP16, literal(-10)))
        CFI (cfiCond23) V5 load(1, XDATA, add(CFA_XSP16, literal(-9)))
        CFI (cfiCond23) V6 load(1, XDATA, add(CFA_XSP16, literal(-8)))
        CFI (cfiCond23) V7 load(1, XDATA, add(CFA_XSP16, literal(-7)))
        CFI (cfiCond23) R7 load(1, XDATA, add(CFA_XSP16, literal(-6)))
        CFI (cfiCond23) ?RET_LOW load(1, XDATA, add(CFA_XSP16, literal(-5)))
        CFI (cfiCond23) ?RET_HIGH load(1, XDATA, add(CFA_XSP16, literal(-4)))
        CFI (cfiCond23) ?BRET_EXT load(1, XDATA, add(CFA_XSP16, literal(-3)))
        CFI (cfiCond23) DPL0 load(1, XDATA, add(CFA_XSP16, literal(-2)))
        CFI (cfiCond23) DPH0 load(1, XDATA, add(CFA_XSP16, literal(-1)))
        CFI (cfiCond23) CFA_SP SP+0
        CFI (cfiCond23) CFA_XSP16 add(XSP16, 31)
        CFI Block cfiCond24 Using cfiCommon0
        CFI (cfiCond24) NoFunction
        CFI (cfiCond24) Conditional ??CrossCallReturnLabel_30
        CFI (cfiCond24) R6 load(1, XDATA, add(CFA_XSP16, literal(-16)))
        CFI (cfiCond24) VB load(1, XDATA, add(CFA_XSP16, literal(-15)))
        CFI (cfiCond24) V0 load(1, XDATA, add(CFA_XSP16, literal(-14)))
        CFI (cfiCond24) V1 load(1, XDATA, add(CFA_XSP16, literal(-13)))
        CFI (cfiCond24) V2 load(1, XDATA, add(CFA_XSP16, literal(-12)))
        CFI (cfiCond24) V3 load(1, XDATA, add(CFA_XSP16, literal(-11)))
        CFI (cfiCond24) V4 load(1, XDATA, add(CFA_XSP16, literal(-10)))
        CFI (cfiCond24) V5 load(1, XDATA, add(CFA_XSP16, literal(-9)))
        CFI (cfiCond24) V6 load(1, XDATA, add(CFA_XSP16, literal(-8)))
        CFI (cfiCond24) V7 load(1, XDATA, add(CFA_XSP16, literal(-7)))
        CFI (cfiCond24) R7 load(1, XDATA, add(CFA_XSP16, literal(-6)))
        CFI (cfiCond24) ?RET_LOW load(1, XDATA, add(CFA_XSP16, literal(-5)))
        CFI (cfiCond24) ?RET_HIGH load(1, XDATA, add(CFA_XSP16, literal(-4)))
        CFI (cfiCond24) ?BRET_EXT load(1, XDATA, add(CFA_XSP16, literal(-3)))
        CFI (cfiCond24) DPL0 load(1, XDATA, add(CFA_XSP16, literal(-2)))
        CFI (cfiCond24) DPH0 load(1, XDATA, add(CFA_XSP16, literal(-1)))
        CFI (cfiCond24) CFA_SP SP+0
        CFI (cfiCond24) CFA_XSP16 add(XSP16, 31)
        CFI Block cfiPicker25 Using cfiCommon1
        CFI (cfiPicker25) NoFunction
        CFI (cfiPicker25) Picker
        LCALL   ??LCD_ShowNum?relay
        MOV     A,#0x4
        RET
        CFI EndBlock cfiCond20
        CFI EndBlock cfiCond21
        CFI EndBlock cfiCond22
        CFI EndBlock cfiCond23
        CFI EndBlock cfiCond24
        CFI EndBlock cfiPicker25

        RSEG BANKED_CODE:CODE:NOROOT(0)
?Subroutine7:
        CFI Block cfiCond26 Using cfiCommon0
        CFI NoFunction
        CFI Conditional ??CrossCallReturnLabel_19
        CFI R6 load(1, XDATA, add(CFA_XSP16, literal(-16)))
        CFI VB load(1, XDATA, add(CFA_XSP16, literal(-15)))
        CFI V0 load(1, XDATA, add(CFA_XSP16, literal(-14)))
        CFI V1 load(1, XDATA, add(CFA_XSP16, literal(-13)))
        CFI V2 load(1, XDATA, add(CFA_XSP16, literal(-12)))
        CFI V3 load(1, XDATA, add(CFA_XSP16, literal(-11)))
        CFI V4 load(1, XDATA, add(CFA_XSP16, literal(-10)))
        CFI V5 load(1, XDATA, add(CFA_XSP16, literal(-9)))
        CFI V6 load(1, XDATA, add(CFA_XSP16, literal(-8)))
        CFI V7 load(1, XDATA, add(CFA_XSP16, literal(-7)))
        CFI R7 load(1, XDATA, add(CFA_XSP16, literal(-6)))
        CFI ?RET_LOW load(1, XDATA, add(CFA_XSP16, literal(-5)))
        CFI ?RET_HIGH load(1, XDATA, add(CFA_XSP16, literal(-4)))
        CFI ?BRET_EXT load(1, XDATA, add(CFA_XSP16, literal(-3)))
        CFI DPL0 load(1, XDATA, add(CFA_XSP16, literal(-2)))
        CFI DPH0 load(1, XDATA, add(CFA_XSP16, literal(-1)))
        CFI CFA_SP SP+0
        CFI CFA_XSP16 add(XSP16, 27)
        CFI Block cfiCond27 Using cfiCommon0
        CFI (cfiCond27) NoFunction
        CFI (cfiCond27) Conditional ??CrossCallReturnLabel_20
        CFI (cfiCond27) R6 load(1, XDATA, add(CFA_XSP16, literal(-16)))
        CFI (cfiCond27) VB load(1, XDATA, add(CFA_XSP16, literal(-15)))
        CFI (cfiCond27) V0 load(1, XDATA, add(CFA_XSP16, literal(-14)))
        CFI (cfiCond27) V1 load(1, XDATA, add(CFA_XSP16, literal(-13)))
        CFI (cfiCond27) V2 load(1, XDATA, add(CFA_XSP16, literal(-12)))
        CFI (cfiCond27) V3 load(1, XDATA, add(CFA_XSP16, literal(-11)))
        CFI (cfiCond27) V4 load(1, XDATA, add(CFA_XSP16, literal(-10)))
        CFI (cfiCond27) V5 load(1, XDATA, add(CFA_XSP16, literal(-9)))
        CFI (cfiCond27) V6 load(1, XDATA, add(CFA_XSP16, literal(-8)))
        CFI (cfiCond27) V7 load(1, XDATA, add(CFA_XSP16, literal(-7)))
        CFI (cfiCond27) R7 load(1, XDATA, add(CFA_XSP16, literal(-6)))
        CFI (cfiCond27) ?RET_LOW load(1, XDATA, add(CFA_XSP16, literal(-5)))
        CFI (cfiCond27) ?RET_HIGH load(1, XDATA, add(CFA_XSP16, literal(-4)))
        CFI (cfiCond27) ?BRET_EXT load(1, XDATA, add(CFA_XSP16, literal(-3)))
        CFI (cfiCond27) DPL0 load(1, XDATA, add(CFA_XSP16, literal(-2)))
        CFI (cfiCond27) DPH0 load(1, XDATA, add(CFA_XSP16, literal(-1)))
        CFI (cfiCond27) CFA_SP SP+0
        CFI (cfiCond27) CFA_XSP16 add(XSP16, 27)
        CFI Block cfiPicker28 Using cfiCommon1
        CFI (cfiPicker28) NoFunction
        CFI (cfiPicker28) Picker
        MOV     DPL,R6
        MOV     DPH,R7
        INC     DPTR
        INC     DPTR
        LCALL   ?Subroutine12 & 0xFFFF
??CrossCallReturnLabel_27:
        RET
        CFI EndBlock cfiCond26
        CFI EndBlock cfiCond27
        CFI EndBlock cfiPicker28

        RSEG BANKED_CODE:CODE:NOROOT(0)
?Subroutine12:
        CFI Block cfiCond29 Using cfiCommon0
        CFI NoFunction
        CFI Conditional ??CrossCallReturnLabel_27, ??CrossCallReturnLabel_19
        CFI R6 load(1, XDATA, add(CFA_XSP16, literal(-16)))
        CFI VB load(1, XDATA, add(CFA_XSP16, literal(-15)))
        CFI V0 load(1, XDATA, add(CFA_XSP16, literal(-14)))
        CFI V1 load(1, XDATA, add(CFA_XSP16, literal(-13)))
        CFI V2 load(1, XDATA, add(CFA_XSP16, literal(-12)))
        CFI V3 load(1, XDATA, add(CFA_XSP16, literal(-11)))
        CFI V4 load(1, XDATA, add(CFA_XSP16, literal(-10)))
        CFI V5 load(1, XDATA, add(CFA_XSP16, literal(-9)))
        CFI V6 load(1, XDATA, add(CFA_XSP16, literal(-8)))
        CFI V7 load(1, XDATA, add(CFA_XSP16, literal(-7)))
        CFI R7 load(1, XDATA, add(CFA_XSP16, literal(-6)))
        CFI ?RET_LOW load(1, XDATA, add(CFA_XSP16, literal(-5)))
        CFI ?RET_HIGH load(1, XDATA, add(CFA_XSP16, literal(-4)))
        CFI ?BRET_EXT load(1, XDATA, add(CFA_XSP16, literal(-3)))
        CFI DPL0 load(1, XDATA, add(CFA_XSP16, literal(-2)))
        CFI DPH0 load(1, XDATA, add(CFA_XSP16, literal(-1)))
        CFI CFA_SP SP+0
        CFI CFA_XSP16 add(XSP16, 27)
        CFI Block cfiCond30 Using cfiCommon0
        CFI (cfiCond30) NoFunction
        CFI (cfiCond30) Conditional ??CrossCallReturnLabel_27, ??CrossCallReturnLabel_20
        CFI (cfiCond30) R6 load(1, XDATA, add(CFA_XSP16, literal(-16)))
        CFI (cfiCond30) VB load(1, XDATA, add(CFA_XSP16, literal(-15)))
        CFI (cfiCond30) V0 load(1, XDATA, add(CFA_XSP16, literal(-14)))
        CFI (cfiCond30) V1 load(1, XDATA, add(CFA_XSP16, literal(-13)))
        CFI (cfiCond30) V2 load(1, XDATA, add(CFA_XSP16, literal(-12)))
        CFI (cfiCond30) V3 load(1, XDATA, add(CFA_XSP16, literal(-11)))
        CFI (cfiCond30) V4 load(1, XDATA, add(CFA_XSP16, literal(-10)))
        CFI (cfiCond30) V5 load(1, XDATA, add(CFA_XSP16, literal(-9)))
        CFI (cfiCond30) V6 load(1, XDATA, add(CFA_XSP16, literal(-8)))
        CFI (cfiCond30) V7 load(1, XDATA, add(CFA_XSP16, literal(-7)))
        CFI (cfiCond30) R7 load(1, XDATA, add(CFA_XSP16, literal(-6)))
        CFI (cfiCond30) ?RET_LOW load(1, XDATA, add(CFA_XSP16, literal(-5)))
        CFI (cfiCond30) ?RET_HIGH load(1, XDATA, add(CFA_XSP16, literal(-4)))
        CFI (cfiCond30) ?BRET_EXT load(1, XDATA, add(CFA_XSP16, literal(-3)))
        CFI (cfiCond30) DPL0 load(1, XDATA, add(CFA_XSP16, literal(-2)))
        CFI (cfiCond30) DPH0 load(1, XDATA, add(CFA_XSP16, literal(-1)))
        CFI (cfiCond30) CFA_SP SP+0
        CFI (cfiCond30) CFA_XSP16 add(XSP16, 27)
        CFI Block cfiCond31 Using cfiCommon0
        CFI (cfiCond31) NoFunction
        CFI (cfiCond31) Conditional ??CrossCallReturnLabel_28, ??CrossCallReturnLabel_26, ??CrossCallReturnLabel_17
        CFI (cfiCond31) R6 load(1, XDATA, add(CFA_XSP16, literal(-16)))
        CFI (cfiCond31) VB load(1, XDATA, add(CFA_XSP16, literal(-15)))
        CFI (cfiCond31) V0 load(1, XDATA, add(CFA_XSP16, literal(-14)))
        CFI (cfiCond31) V1 load(1, XDATA, add(CFA_XSP16, literal(-13)))
        CFI (cfiCond31) V2 load(1, XDATA, add(CFA_XSP16, literal(-12)))
        CFI (cfiCond31) V3 load(1, XDATA, add(CFA_XSP16, literal(-11)))
        CFI (cfiCond31) V4 load(1, XDATA, add(CFA_XSP16, literal(-10)))
        CFI (cfiCond31) V5 load(1, XDATA, add(CFA_XSP16, literal(-9)))
        CFI (cfiCond31) V6 load(1, XDATA, add(CFA_XSP16, literal(-8)))
        CFI (cfiCond31) V7 load(1, XDATA, add(CFA_XSP16, literal(-7)))
        CFI (cfiCond31) R7 load(1, XDATA, add(CFA_XSP16, literal(-6)))
        CFI (cfiCond31) ?RET_LOW load(1, XDATA, add(CFA_XSP16, literal(-5)))
        CFI (cfiCond31) ?RET_HIGH load(1, XDATA, add(CFA_XSP16, literal(-4)))
        CFI (cfiCond31) ?BRET_EXT load(1, XDATA, add(CFA_XSP16, literal(-3)))
        CFI (cfiCond31) DPL0 load(1, XDATA, add(CFA_XSP16, literal(-2)))
        CFI (cfiCond31) DPH0 load(1, XDATA, add(CFA_XSP16, literal(-1)))
        CFI (cfiCond31) CFA_SP SP+0
        CFI (cfiCond31) CFA_XSP16 add(XSP16, 27)
        CFI Block cfiCond32 Using cfiCommon0
        CFI (cfiCond32) NoFunction
        CFI (cfiCond32) Conditional ??CrossCallReturnLabel_28, ??CrossCallReturnLabel_26, ??CrossCallReturnLabel_18
        CFI (cfiCond32) R6 load(1, XDATA, add(CFA_XSP16, literal(-16)))
        CFI (cfiCond32) VB load(1, XDATA, add(CFA_XSP16, literal(-15)))
        CFI (cfiCond32) V0 load(1, XDATA, add(CFA_XSP16, literal(-14)))
        CFI (cfiCond32) V1 load(1, XDATA, add(CFA_XSP16, literal(-13)))
        CFI (cfiCond32) V2 load(1, XDATA, add(CFA_XSP16, literal(-12)))
        CFI (cfiCond32) V3 load(1, XDATA, add(CFA_XSP16, literal(-11)))
        CFI (cfiCond32) V4 load(1, XDATA, add(CFA_XSP16, literal(-10)))
        CFI (cfiCond32) V5 load(1, XDATA, add(CFA_XSP16, literal(-9)))
        CFI (cfiCond32) V6 load(1, XDATA, add(CFA_XSP16, literal(-8)))
        CFI (cfiCond32) V7 load(1, XDATA, add(CFA_XSP16, literal(-7)))
        CFI (cfiCond32) R7 load(1, XDATA, add(CFA_XSP16, literal(-6)))
        CFI (cfiCond32) ?RET_LOW load(1, XDATA, add(CFA_XSP16, literal(-5)))
        CFI (cfiCond32) ?RET_HIGH load(1, XDATA, add(CFA_XSP16, literal(-4)))
        CFI (cfiCond32) ?BRET_EXT load(1, XDATA, add(CFA_XSP16, literal(-3)))
        CFI (cfiCond32) DPL0 load(1, XDATA, add(CFA_XSP16, literal(-2)))
        CFI (cfiCond32) DPH0 load(1, XDATA, add(CFA_XSP16, literal(-1)))
        CFI (cfiCond32) CFA_SP SP+0
        CFI (cfiCond32) CFA_XSP16 add(XSP16, 27)
        CFI Block cfiCond33 Using cfiCommon0
        CFI (cfiCond33) NoFunction
        CFI (cfiCond33) Conditional ??CrossCallReturnLabel_28, ??CrossCallReturnLabel_25, ??CrossCallReturnLabel_13
        CFI (cfiCond33) R6 load(1, XDATA, add(CFA_XSP16, literal(-16)))
        CFI (cfiCond33) VB load(1, XDATA, add(CFA_XSP16, literal(-15)))
        CFI (cfiCond33) V0 load(1, XDATA, add(CFA_XSP16, literal(-14)))
        CFI (cfiCond33) V1 load(1, XDATA, add(CFA_XSP16, literal(-13)))
        CFI (cfiCond33) V2 load(1, XDATA, add(CFA_XSP16, literal(-12)))
        CFI (cfiCond33) V3 load(1, XDATA, add(CFA_XSP16, literal(-11)))
        CFI (cfiCond33) V4 load(1, XDATA, add(CFA_XSP16, literal(-10)))
        CFI (cfiCond33) V5 load(1, XDATA, add(CFA_XSP16, literal(-9)))
        CFI (cfiCond33) V6 load(1, XDATA, add(CFA_XSP16, literal(-8)))
        CFI (cfiCond33) V7 load(1, XDATA, add(CFA_XSP16, literal(-7)))
        CFI (cfiCond33) R7 load(1, XDATA, add(CFA_XSP16, literal(-6)))
        CFI (cfiCond33) ?RET_LOW load(1, XDATA, add(CFA_XSP16, literal(-5)))
        CFI (cfiCond33) ?RET_HIGH load(1, XDATA, add(CFA_XSP16, literal(-4)))
        CFI (cfiCond33) ?BRET_EXT load(1, XDATA, add(CFA_XSP16, literal(-3)))
        CFI (cfiCond33) DPL0 load(1, XDATA, add(CFA_XSP16, literal(-2)))
        CFI (cfiCond33) DPH0 load(1, XDATA, add(CFA_XSP16, literal(-1)))
        CFI (cfiCond33) CFA_SP SP+0
        CFI (cfiCond33) CFA_XSP16 add(XSP16, 27)
        CFI Block cfiCond34 Using cfiCommon0
        CFI (cfiCond34) NoFunction
        CFI (cfiCond34) Conditional ??CrossCallReturnLabel_28, ??CrossCallReturnLabel_25, ??CrossCallReturnLabel_14
        CFI (cfiCond34) R6 load(1, XDATA, add(CFA_XSP16, literal(-16)))
        CFI (cfiCond34) VB load(1, XDATA, add(CFA_XSP16, literal(-15)))
        CFI (cfiCond34) V0 load(1, XDATA, add(CFA_XSP16, literal(-14)))
        CFI (cfiCond34) V1 load(1, XDATA, add(CFA_XSP16, literal(-13)))
        CFI (cfiCond34) V2 load(1, XDATA, add(CFA_XSP16, literal(-12)))
        CFI (cfiCond34) V3 load(1, XDATA, add(CFA_XSP16, literal(-11)))
        CFI (cfiCond34) V4 load(1, XDATA, add(CFA_XSP16, literal(-10)))
        CFI (cfiCond34) V5 load(1, XDATA, add(CFA_XSP16, literal(-9)))
        CFI (cfiCond34) V6 load(1, XDATA, add(CFA_XSP16, literal(-8)))
        CFI (cfiCond34) V7 load(1, XDATA, add(CFA_XSP16, literal(-7)))
        CFI (cfiCond34) R7 load(1, XDATA, add(CFA_XSP16, literal(-6)))
        CFI (cfiCond34) ?RET_LOW load(1, XDATA, add(CFA_XSP16, literal(-5)))
        CFI (cfiCond34) ?RET_HIGH load(1, XDATA, add(CFA_XSP16, literal(-4)))
        CFI (cfiCond34) ?BRET_EXT load(1, XDATA, add(CFA_XSP16, literal(-3)))
        CFI (cfiCond34) DPL0 load(1, XDATA, add(CFA_XSP16, literal(-2)))
        CFI (cfiCond34) DPH0 load(1, XDATA, add(CFA_XSP16, literal(-1)))
        CFI (cfiCond34) CFA_SP SP+0
        CFI (cfiCond34) CFA_XSP16 add(XSP16, 27)
        CFI Block cfiPicker35 Using cfiCommon1
        CFI (cfiPicker35) NoFunction
        CFI (cfiPicker35) Picker
        INC     DPTR
        INC     DPTR
        INC     DPTR
        INC     DPTR
        INC     DPTR
        MOVX    A,@DPTR
        MOV     R1,A
        MOV     DPL,R6
        MOV     DPH,R7
        INC     DPTR
        INC     DPTR
        RET
        CFI EndBlock cfiCond29
        CFI EndBlock cfiCond30
        CFI EndBlock cfiCond31
        CFI EndBlock cfiCond32
        CFI EndBlock cfiCond33
        CFI EndBlock cfiCond34
        CFI EndBlock cfiPicker35

        RSEG BANKED_CODE:CODE:NOROOT(0)
?Subroutine6:
        CFI Block cfiCond36 Using cfiCommon0
        CFI NoFunction
        CFI Conditional ??CrossCallReturnLabel_17
        CFI R6 load(1, XDATA, add(CFA_XSP16, literal(-16)))
        CFI VB load(1, XDATA, add(CFA_XSP16, literal(-15)))
        CFI V0 load(1, XDATA, add(CFA_XSP16, literal(-14)))
        CFI V1 load(1, XDATA, add(CFA_XSP16, literal(-13)))
        CFI V2 load(1, XDATA, add(CFA_XSP16, literal(-12)))
        CFI V3 load(1, XDATA, add(CFA_XSP16, literal(-11)))
        CFI V4 load(1, XDATA, add(CFA_XSP16, literal(-10)))
        CFI V5 load(1, XDATA, add(CFA_XSP16, literal(-9)))
        CFI V6 load(1, XDATA, add(CFA_XSP16, literal(-8)))
        CFI V7 load(1, XDATA, add(CFA_XSP16, literal(-7)))
        CFI R7 load(1, XDATA, add(CFA_XSP16, literal(-6)))
        CFI ?RET_LOW load(1, XDATA, add(CFA_XSP16, literal(-5)))
        CFI ?RET_HIGH load(1, XDATA, add(CFA_XSP16, literal(-4)))
        CFI ?BRET_EXT load(1, XDATA, add(CFA_XSP16, literal(-3)))
        CFI DPL0 load(1, XDATA, add(CFA_XSP16, literal(-2)))
        CFI DPH0 load(1, XDATA, add(CFA_XSP16, literal(-1)))
        CFI CFA_SP SP+0
        CFI CFA_XSP16 add(XSP16, 27)
        CFI Block cfiCond37 Using cfiCommon0
        CFI (cfiCond37) NoFunction
        CFI (cfiCond37) Conditional ??CrossCallReturnLabel_18
        CFI (cfiCond37) R6 load(1, XDATA, add(CFA_XSP16, literal(-16)))
        CFI (cfiCond37) VB load(1, XDATA, add(CFA_XSP16, literal(-15)))
        CFI (cfiCond37) V0 load(1, XDATA, add(CFA_XSP16, literal(-14)))
        CFI (cfiCond37) V1 load(1, XDATA, add(CFA_XSP16, literal(-13)))
        CFI (cfiCond37) V2 load(1, XDATA, add(CFA_XSP16, literal(-12)))
        CFI (cfiCond37) V3 load(1, XDATA, add(CFA_XSP16, literal(-11)))
        CFI (cfiCond37) V4 load(1, XDATA, add(CFA_XSP16, literal(-10)))
        CFI (cfiCond37) V5 load(1, XDATA, add(CFA_XSP16, literal(-9)))
        CFI (cfiCond37) V6 load(1, XDATA, add(CFA_XSP16, literal(-8)))
        CFI (cfiCond37) V7 load(1, XDATA, add(CFA_XSP16, literal(-7)))
        CFI (cfiCond37) R7 load(1, XDATA, add(CFA_XSP16, literal(-6)))
        CFI (cfiCond37) ?RET_LOW load(1, XDATA, add(CFA_XSP16, literal(-5)))
        CFI (cfiCond37) ?RET_HIGH load(1, XDATA, add(CFA_XSP16, literal(-4)))
        CFI (cfiCond37) ?BRET_EXT load(1, XDATA, add(CFA_XSP16, literal(-3)))
        CFI (cfiCond37) DPL0 load(1, XDATA, add(CFA_XSP16, literal(-2)))
        CFI (cfiCond37) DPH0 load(1, XDATA, add(CFA_XSP16, literal(-1)))
        CFI (cfiCond37) CFA_SP SP+0
        CFI (cfiCond37) CFA_XSP16 add(XSP16, 27)
        CFI Block cfiPicker38 Using cfiCommon1
        CFI (cfiPicker38) NoFunction
        CFI (cfiPicker38) Picker
        INC     DPTR
        INC     DPTR
        LCALL   ?Subroutine11 & 0xFFFF
??CrossCallReturnLabel_26:
        RET
        CFI EndBlock cfiCond36
        CFI EndBlock cfiCond37
        CFI EndBlock cfiPicker38

        RSEG BANKED_CODE:CODE:NOROOT(0)
?Subroutine11:
        CFI Block cfiCond39 Using cfiCommon0
        CFI NoFunction
        CFI Conditional ??CrossCallReturnLabel_26, ??CrossCallReturnLabel_17
        CFI R6 load(1, XDATA, add(CFA_XSP16, literal(-16)))
        CFI VB load(1, XDATA, add(CFA_XSP16, literal(-15)))
        CFI V0 load(1, XDATA, add(CFA_XSP16, literal(-14)))
        CFI V1 load(1, XDATA, add(CFA_XSP16, literal(-13)))
        CFI V2 load(1, XDATA, add(CFA_XSP16, literal(-12)))
        CFI V3 load(1, XDATA, add(CFA_XSP16, literal(-11)))
        CFI V4 load(1, XDATA, add(CFA_XSP16, literal(-10)))
        CFI V5 load(1, XDATA, add(CFA_XSP16, literal(-9)))
        CFI V6 load(1, XDATA, add(CFA_XSP16, literal(-8)))
        CFI V7 load(1, XDATA, add(CFA_XSP16, literal(-7)))
        CFI R7 load(1, XDATA, add(CFA_XSP16, literal(-6)))
        CFI ?RET_LOW load(1, XDATA, add(CFA_XSP16, literal(-5)))
        CFI ?RET_HIGH load(1, XDATA, add(CFA_XSP16, literal(-4)))
        CFI ?BRET_EXT load(1, XDATA, add(CFA_XSP16, literal(-3)))
        CFI DPL0 load(1, XDATA, add(CFA_XSP16, literal(-2)))
        CFI DPH0 load(1, XDATA, add(CFA_XSP16, literal(-1)))
        CFI CFA_SP SP+0
        CFI CFA_XSP16 add(XSP16, 27)
        CFI Block cfiCond40 Using cfiCommon0
        CFI (cfiCond40) NoFunction
        CFI (cfiCond40) Conditional ??CrossCallReturnLabel_26, ??CrossCallReturnLabel_18
        CFI (cfiCond40) R6 load(1, XDATA, add(CFA_XSP16, literal(-16)))
        CFI (cfiCond40) VB load(1, XDATA, add(CFA_XSP16, literal(-15)))
        CFI (cfiCond40) V0 load(1, XDATA, add(CFA_XSP16, literal(-14)))
        CFI (cfiCond40) V1 load(1, XDATA, add(CFA_XSP16, literal(-13)))
        CFI (cfiCond40) V2 load(1, XDATA, add(CFA_XSP16, literal(-12)))
        CFI (cfiCond40) V3 load(1, XDATA, add(CFA_XSP16, literal(-11)))
        CFI (cfiCond40) V4 load(1, XDATA, add(CFA_XSP16, literal(-10)))
        CFI (cfiCond40) V5 load(1, XDATA, add(CFA_XSP16, literal(-9)))
        CFI (cfiCond40) V6 load(1, XDATA, add(CFA_XSP16, literal(-8)))
        CFI (cfiCond40) V7 load(1, XDATA, add(CFA_XSP16, literal(-7)))
        CFI (cfiCond40) R7 load(1, XDATA, add(CFA_XSP16, literal(-6)))
        CFI (cfiCond40) ?RET_LOW load(1, XDATA, add(CFA_XSP16, literal(-5)))
        CFI (cfiCond40) ?RET_HIGH load(1, XDATA, add(CFA_XSP16, literal(-4)))
        CFI (cfiCond40) ?BRET_EXT load(1, XDATA, add(CFA_XSP16, literal(-3)))
        CFI (cfiCond40) DPL0 load(1, XDATA, add(CFA_XSP16, literal(-2)))
        CFI (cfiCond40) DPH0 load(1, XDATA, add(CFA_XSP16, literal(-1)))
        CFI (cfiCond40) CFA_SP SP+0
        CFI (cfiCond40) CFA_XSP16 add(XSP16, 27)
        CFI Block cfiCond41 Using cfiCommon0
        CFI (cfiCond41) NoFunction
        CFI (cfiCond41) Conditional ??CrossCallReturnLabel_25, ??CrossCallReturnLabel_13
        CFI (cfiCond41) R6 load(1, XDATA, add(CFA_XSP16, literal(-16)))
        CFI (cfiCond41) VB load(1, XDATA, add(CFA_XSP16, literal(-15)))
        CFI (cfiCond41) V0 load(1, XDATA, add(CFA_XSP16, literal(-14)))
        CFI (cfiCond41) V1 load(1, XDATA, add(CFA_XSP16, literal(-13)))
        CFI (cfiCond41) V2 load(1, XDATA, add(CFA_XSP16, literal(-12)))
        CFI (cfiCond41) V3 load(1, XDATA, add(CFA_XSP16, literal(-11)))
        CFI (cfiCond41) V4 load(1, XDATA, add(CFA_XSP16, literal(-10)))
        CFI (cfiCond41) V5 load(1, XDATA, add(CFA_XSP16, literal(-9)))
        CFI (cfiCond41) V6 load(1, XDATA, add(CFA_XSP16, literal(-8)))
        CFI (cfiCond41) V7 load(1, XDATA, add(CFA_XSP16, literal(-7)))
        CFI (cfiCond41) R7 load(1, XDATA, add(CFA_XSP16, literal(-6)))
        CFI (cfiCond41) ?RET_LOW load(1, XDATA, add(CFA_XSP16, literal(-5)))
        CFI (cfiCond41) ?RET_HIGH load(1, XDATA, add(CFA_XSP16, literal(-4)))
        CFI (cfiCond41) ?BRET_EXT load(1, XDATA, add(CFA_XSP16, literal(-3)))
        CFI (cfiCond41) DPL0 load(1, XDATA, add(CFA_XSP16, literal(-2)))
        CFI (cfiCond41) DPH0 load(1, XDATA, add(CFA_XSP16, literal(-1)))
        CFI (cfiCond41) CFA_SP SP+0
        CFI (cfiCond41) CFA_XSP16 add(XSP16, 27)
        CFI Block cfiCond42 Using cfiCommon0
        CFI (cfiCond42) NoFunction
        CFI (cfiCond42) Conditional ??CrossCallReturnLabel_25, ??CrossCallReturnLabel_14
        CFI (cfiCond42) R6 load(1, XDATA, add(CFA_XSP16, literal(-16)))
        CFI (cfiCond42) VB load(1, XDATA, add(CFA_XSP16, literal(-15)))
        CFI (cfiCond42) V0 load(1, XDATA, add(CFA_XSP16, literal(-14)))
        CFI (cfiCond42) V1 load(1, XDATA, add(CFA_XSP16, literal(-13)))
        CFI (cfiCond42) V2 load(1, XDATA, add(CFA_XSP16, literal(-12)))
        CFI (cfiCond42) V3 load(1, XDATA, add(CFA_XSP16, literal(-11)))
        CFI (cfiCond42) V4 load(1, XDATA, add(CFA_XSP16, literal(-10)))
        CFI (cfiCond42) V5 load(1, XDATA, add(CFA_XSP16, literal(-9)))
        CFI (cfiCond42) V6 load(1, XDATA, add(CFA_XSP16, literal(-8)))
        CFI (cfiCond42) V7 load(1, XDATA, add(CFA_XSP16, literal(-7)))
        CFI (cfiCond42) R7 load(1, XDATA, add(CFA_XSP16, literal(-6)))
        CFI (cfiCond42) ?RET_LOW load(1, XDATA, add(CFA_XSP16, literal(-5)))
        CFI (cfiCond42) ?RET_HIGH load(1, XDATA, add(CFA_XSP16, literal(-4)))
        CFI (cfiCond42) ?BRET_EXT load(1, XDATA, add(CFA_XSP16, literal(-3)))
        CFI (cfiCond42) DPL0 load(1, XDATA, add(CFA_XSP16, literal(-2)))
        CFI (cfiCond42) DPH0 load(1, XDATA, add(CFA_XSP16, literal(-1)))
        CFI (cfiCond42) CFA_SP SP+0
        CFI (cfiCond42) CFA_XSP16 add(XSP16, 27)
        CFI Block cfiPicker43 Using cfiCommon1
        CFI (cfiPicker43) NoFunction
        CFI (cfiPicker43) Picker
        LCALL   ?Subroutine12 & 0xFFFF
??CrossCallReturnLabel_28:
        INC     DPTR
        INC     DPTR
        RET
        CFI EndBlock cfiCond39
        CFI EndBlock cfiCond40
        CFI EndBlock cfiCond41
        CFI EndBlock cfiCond42
        CFI EndBlock cfiPicker43

        RSEG BANKED_CODE:CODE:NOROOT(0)
?Subroutine5:
        CFI Block cfiCond44 Using cfiCommon0
        CFI NoFunction
        CFI Conditional ??CrossCallReturnLabel_15
        CFI R6 load(1, XDATA, add(CFA_XSP16, literal(-16)))
        CFI VB load(1, XDATA, add(CFA_XSP16, literal(-15)))
        CFI V0 load(1, XDATA, add(CFA_XSP16, literal(-14)))
        CFI V1 load(1, XDATA, add(CFA_XSP16, literal(-13)))
        CFI V2 load(1, XDATA, add(CFA_XSP16, literal(-12)))
        CFI V3 load(1, XDATA, add(CFA_XSP16, literal(-11)))
        CFI V4 load(1, XDATA, add(CFA_XSP16, literal(-10)))
        CFI V5 load(1, XDATA, add(CFA_XSP16, literal(-9)))
        CFI V6 load(1, XDATA, add(CFA_XSP16, literal(-8)))
        CFI V7 load(1, XDATA, add(CFA_XSP16, literal(-7)))
        CFI R7 load(1, XDATA, add(CFA_XSP16, literal(-6)))
        CFI ?RET_LOW load(1, XDATA, add(CFA_XSP16, literal(-5)))
        CFI ?RET_HIGH load(1, XDATA, add(CFA_XSP16, literal(-4)))
        CFI ?BRET_EXT load(1, XDATA, add(CFA_XSP16, literal(-3)))
        CFI DPL0 load(1, XDATA, add(CFA_XSP16, literal(-2)))
        CFI DPH0 load(1, XDATA, add(CFA_XSP16, literal(-1)))
        CFI CFA_SP SP+0
        CFI CFA_XSP16 add(XSP16, 31)
        CFI Block cfiCond45 Using cfiCommon0
        CFI (cfiCond45) NoFunction
        CFI (cfiCond45) Conditional ??CrossCallReturnLabel_16
        CFI (cfiCond45) R6 load(1, XDATA, add(CFA_XSP16, literal(-16)))
        CFI (cfiCond45) VB load(1, XDATA, add(CFA_XSP16, literal(-15)))
        CFI (cfiCond45) V0 load(1, XDATA, add(CFA_XSP16, literal(-14)))
        CFI (cfiCond45) V1 load(1, XDATA, add(CFA_XSP16, literal(-13)))
        CFI (cfiCond45) V2 load(1, XDATA, add(CFA_XSP16, literal(-12)))
        CFI (cfiCond45) V3 load(1, XDATA, add(CFA_XSP16, literal(-11)))
        CFI (cfiCond45) V4 load(1, XDATA, add(CFA_XSP16, literal(-10)))
        CFI (cfiCond45) V5 load(1, XDATA, add(CFA_XSP16, literal(-9)))
        CFI (cfiCond45) V6 load(1, XDATA, add(CFA_XSP16, literal(-8)))
        CFI (cfiCond45) V7 load(1, XDATA, add(CFA_XSP16, literal(-7)))
        CFI (cfiCond45) R7 load(1, XDATA, add(CFA_XSP16, literal(-6)))
        CFI (cfiCond45) ?RET_LOW load(1, XDATA, add(CFA_XSP16, literal(-5)))
        CFI (cfiCond45) ?RET_HIGH load(1, XDATA, add(CFA_XSP16, literal(-4)))
        CFI (cfiCond45) ?BRET_EXT load(1, XDATA, add(CFA_XSP16, literal(-3)))
        CFI (cfiCond45) DPL0 load(1, XDATA, add(CFA_XSP16, literal(-2)))
        CFI (cfiCond45) DPH0 load(1, XDATA, add(CFA_XSP16, literal(-1)))
        CFI (cfiCond45) CFA_SP SP+0
        CFI (cfiCond45) CFA_XSP16 add(XSP16, 31)
        CFI Block cfiPicker46 Using cfiCommon1
        CFI (cfiPicker46) NoFunction
        CFI (cfiPicker46) Picker
        LCALL   ?Subroutine9 & 0xFFFF
??CrossCallReturnLabel_22:
        MOV     A,#0x4
        RET
        CFI EndBlock cfiCond44
        CFI EndBlock cfiCond45
        CFI EndBlock cfiPicker46

        RSEG BANKED_CODE:CODE:NOROOT(0)
?Subroutine9:
        CFI Block cfiCond47 Using cfiCommon0
        CFI NoFunction
        CFI Conditional ??CrossCallReturnLabel_21
        CFI R6 load(1, XDATA, add(CFA_XSP16, literal(-16)))
        CFI VB load(1, XDATA, add(CFA_XSP16, literal(-15)))
        CFI V0 load(1, XDATA, add(CFA_XSP16, literal(-14)))
        CFI V1 load(1, XDATA, add(CFA_XSP16, literal(-13)))
        CFI V2 load(1, XDATA, add(CFA_XSP16, literal(-12)))
        CFI V3 load(1, XDATA, add(CFA_XSP16, literal(-11)))
        CFI V4 load(1, XDATA, add(CFA_XSP16, literal(-10)))
        CFI V5 load(1, XDATA, add(CFA_XSP16, literal(-9)))
        CFI V6 load(1, XDATA, add(CFA_XSP16, literal(-8)))
        CFI V7 load(1, XDATA, add(CFA_XSP16, literal(-7)))
        CFI R7 load(1, XDATA, add(CFA_XSP16, literal(-6)))
        CFI ?RET_LOW load(1, XDATA, add(CFA_XSP16, literal(-5)))
        CFI ?RET_HIGH load(1, XDATA, add(CFA_XSP16, literal(-4)))
        CFI ?BRET_EXT load(1, XDATA, add(CFA_XSP16, literal(-3)))
        CFI DPL0 load(1, XDATA, add(CFA_XSP16, literal(-2)))
        CFI DPH0 load(1, XDATA, add(CFA_XSP16, literal(-1)))
        CFI CFA_SP SP+0
        CFI CFA_XSP16 add(XSP16, 31)
        CFI Block cfiCond48 Using cfiCommon0
        CFI (cfiCond48) NoFunction
        CFI (cfiCond48) Conditional ??CrossCallReturnLabel_22, ??CrossCallReturnLabel_15
        CFI (cfiCond48) R6 load(1, XDATA, add(CFA_XSP16, literal(-16)))
        CFI (cfiCond48) VB load(1, XDATA, add(CFA_XSP16, literal(-15)))
        CFI (cfiCond48) V0 load(1, XDATA, add(CFA_XSP16, literal(-14)))
        CFI (cfiCond48) V1 load(1, XDATA, add(CFA_XSP16, literal(-13)))
        CFI (cfiCond48) V2 load(1, XDATA, add(CFA_XSP16, literal(-12)))
        CFI (cfiCond48) V3 load(1, XDATA, add(CFA_XSP16, literal(-11)))
        CFI (cfiCond48) V4 load(1, XDATA, add(CFA_XSP16, literal(-10)))
        CFI (cfiCond48) V5 load(1, XDATA, add(CFA_XSP16, literal(-9)))
        CFI (cfiCond48) V6 load(1, XDATA, add(CFA_XSP16, literal(-8)))
        CFI (cfiCond48) V7 load(1, XDATA, add(CFA_XSP16, literal(-7)))
        CFI (cfiCond48) R7 load(1, XDATA, add(CFA_XSP16, literal(-6)))
        CFI (cfiCond48) ?RET_LOW load(1, XDATA, add(CFA_XSP16, literal(-5)))
        CFI (cfiCond48) ?RET_HIGH load(1, XDATA, add(CFA_XSP16, literal(-4)))
        CFI (cfiCond48) ?BRET_EXT load(1, XDATA, add(CFA_XSP16, literal(-3)))
        CFI (cfiCond48) DPL0 load(1, XDATA, add(CFA_XSP16, literal(-2)))
        CFI (cfiCond48) DPH0 load(1, XDATA, add(CFA_XSP16, literal(-1)))
        CFI (cfiCond48) CFA_SP SP+0
        CFI (cfiCond48) CFA_XSP16 add(XSP16, 31)
        CFI Block cfiCond49 Using cfiCommon0
        CFI (cfiCond49) NoFunction
        CFI (cfiCond49) Conditional ??CrossCallReturnLabel_22, ??CrossCallReturnLabel_16
        CFI (cfiCond49) R6 load(1, XDATA, add(CFA_XSP16, literal(-16)))
        CFI (cfiCond49) VB load(1, XDATA, add(CFA_XSP16, literal(-15)))
        CFI (cfiCond49) V0 load(1, XDATA, add(CFA_XSP16, literal(-14)))
        CFI (cfiCond49) V1 load(1, XDATA, add(CFA_XSP16, literal(-13)))
        CFI (cfiCond49) V2 load(1, XDATA, add(CFA_XSP16, literal(-12)))
        CFI (cfiCond49) V3 load(1, XDATA, add(CFA_XSP16, literal(-11)))
        CFI (cfiCond49) V4 load(1, XDATA, add(CFA_XSP16, literal(-10)))
        CFI (cfiCond49) V5 load(1, XDATA, add(CFA_XSP16, literal(-9)))
        CFI (cfiCond49) V6 load(1, XDATA, add(CFA_XSP16, literal(-8)))
        CFI (cfiCond49) V7 load(1, XDATA, add(CFA_XSP16, literal(-7)))
        CFI (cfiCond49) R7 load(1, XDATA, add(CFA_XSP16, literal(-6)))
        CFI (cfiCond49) ?RET_LOW load(1, XDATA, add(CFA_XSP16, literal(-5)))
        CFI (cfiCond49) ?RET_HIGH load(1, XDATA, add(CFA_XSP16, literal(-4)))
        CFI (cfiCond49) ?BRET_EXT load(1, XDATA, add(CFA_XSP16, literal(-3)))
        CFI (cfiCond49) DPL0 load(1, XDATA, add(CFA_XSP16, literal(-2)))
        CFI (cfiCond49) DPH0 load(1, XDATA, add(CFA_XSP16, literal(-1)))
        CFI (cfiCond49) CFA_SP SP+0
        CFI (cfiCond49) CFA_XSP16 add(XSP16, 31)
        CFI Block cfiPicker50 Using cfiCommon1
        CFI (cfiPicker50) NoFunction
        CFI (cfiPicker50) Picker
        MOVX    A,@DPTR
        MOV     R2,A
        MOV     A,R3
        RLC     A
        SUBB    A,0xE0 /* A   */
        MOV     R4,A
        MOV     R5,A
        LCALL   ??GUI_DispDecAt?relay
        RET
        CFI EndBlock cfiCond47
        CFI EndBlock cfiCond48
        CFI EndBlock cfiCond49
        CFI EndBlock cfiPicker50

        RSEG BANKED_CODE:CODE:NOROOT(0)
?Subroutine4:
        CFI Block cfiCond51 Using cfiCommon0
        CFI NoFunction
        CFI Conditional ??CrossCallReturnLabel_13
        CFI R6 load(1, XDATA, add(CFA_XSP16, literal(-16)))
        CFI VB load(1, XDATA, add(CFA_XSP16, literal(-15)))
        CFI V0 load(1, XDATA, add(CFA_XSP16, literal(-14)))
        CFI V1 load(1, XDATA, add(CFA_XSP16, literal(-13)))
        CFI V2 load(1, XDATA, add(CFA_XSP16, literal(-12)))
        CFI V3 load(1, XDATA, add(CFA_XSP16, literal(-11)))
        CFI V4 load(1, XDATA, add(CFA_XSP16, literal(-10)))
        CFI V5 load(1, XDATA, add(CFA_XSP16, literal(-9)))
        CFI V6 load(1, XDATA, add(CFA_XSP16, literal(-8)))
        CFI V7 load(1, XDATA, add(CFA_XSP16, literal(-7)))
        CFI R7 load(1, XDATA, add(CFA_XSP16, literal(-6)))
        CFI ?RET_LOW load(1, XDATA, add(CFA_XSP16, literal(-5)))
        CFI ?RET_HIGH load(1, XDATA, add(CFA_XSP16, literal(-4)))
        CFI ?BRET_EXT load(1, XDATA, add(CFA_XSP16, literal(-3)))
        CFI DPL0 load(1, XDATA, add(CFA_XSP16, literal(-2)))
        CFI DPH0 load(1, XDATA, add(CFA_XSP16, literal(-1)))
        CFI CFA_SP SP+0
        CFI CFA_XSP16 add(XSP16, 27)
        CFI Block cfiCond52 Using cfiCommon0
        CFI (cfiCond52) NoFunction
        CFI (cfiCond52) Conditional ??CrossCallReturnLabel_14
        CFI (cfiCond52) R6 load(1, XDATA, add(CFA_XSP16, literal(-16)))
        CFI (cfiCond52) VB load(1, XDATA, add(CFA_XSP16, literal(-15)))
        CFI (cfiCond52) V0 load(1, XDATA, add(CFA_XSP16, literal(-14)))
        CFI (cfiCond52) V1 load(1, XDATA, add(CFA_XSP16, literal(-13)))
        CFI (cfiCond52) V2 load(1, XDATA, add(CFA_XSP16, literal(-12)))
        CFI (cfiCond52) V3 load(1, XDATA, add(CFA_XSP16, literal(-11)))
        CFI (cfiCond52) V4 load(1, XDATA, add(CFA_XSP16, literal(-10)))
        CFI (cfiCond52) V5 load(1, XDATA, add(CFA_XSP16, literal(-9)))
        CFI (cfiCond52) V6 load(1, XDATA, add(CFA_XSP16, literal(-8)))
        CFI (cfiCond52) V7 load(1, XDATA, add(CFA_XSP16, literal(-7)))
        CFI (cfiCond52) R7 load(1, XDATA, add(CFA_XSP16, literal(-6)))
        CFI (cfiCond52) ?RET_LOW load(1, XDATA, add(CFA_XSP16, literal(-5)))
        CFI (cfiCond52) ?RET_HIGH load(1, XDATA, add(CFA_XSP16, literal(-4)))
        CFI (cfiCond52) ?BRET_EXT load(1, XDATA, add(CFA_XSP16, literal(-3)))
        CFI (cfiCond52) DPL0 load(1, XDATA, add(CFA_XSP16, literal(-2)))
        CFI (cfiCond52) DPH0 load(1, XDATA, add(CFA_XSP16, literal(-1)))
        CFI (cfiCond52) CFA_SP SP+0
        CFI (cfiCond52) CFA_XSP16 add(XSP16, 27)
        CFI Block cfiPicker53 Using cfiCommon1
        CFI (cfiPicker53) NoFunction
        CFI (cfiPicker53) Picker
        MOV     DPL,R6
        MOV     DPH,R7
        LCALL   ?Subroutine11 & 0xFFFF
??CrossCallReturnLabel_25:
        INC     DPTR
        INC     DPTR
        MOVX    A,@DPTR
        RET
        CFI EndBlock cfiCond51
        CFI EndBlock cfiCond52
        CFI EndBlock cfiPicker53

        RSEG BANKED_CODE:CODE:NOROOT(0)
?Subroutine3:
        CFI Block cfiCond54 Using cfiCommon0
        CFI NoFunction
        CFI Conditional ??CrossCallReturnLabel_11
        CFI R6 load(1, XDATA, add(CFA_XSP16, literal(-16)))
        CFI VB load(1, XDATA, add(CFA_XSP16, literal(-15)))
        CFI V0 load(1, XDATA, add(CFA_XSP16, literal(-14)))
        CFI V1 load(1, XDATA, add(CFA_XSP16, literal(-13)))
        CFI V2 load(1, XDATA, add(CFA_XSP16, literal(-12)))
        CFI V3 load(1, XDATA, add(CFA_XSP16, literal(-11)))
        CFI V4 load(1, XDATA, add(CFA_XSP16, literal(-10)))
        CFI V5 load(1, XDATA, add(CFA_XSP16, literal(-9)))
        CFI V6 load(1, XDATA, add(CFA_XSP16, literal(-8)))
        CFI V7 load(1, XDATA, add(CFA_XSP16, literal(-7)))
        CFI R7 load(1, XDATA, add(CFA_XSP16, literal(-6)))
        CFI ?RET_LOW load(1, XDATA, add(CFA_XSP16, literal(-5)))
        CFI ?RET_HIGH load(1, XDATA, add(CFA_XSP16, literal(-4)))
        CFI ?BRET_EXT load(1, XDATA, add(CFA_XSP16, literal(-3)))
        CFI DPL0 load(1, XDATA, add(CFA_XSP16, literal(-2)))
        CFI DPH0 load(1, XDATA, add(CFA_XSP16, literal(-1)))
        CFI CFA_SP SP+0
        CFI CFA_XSP16 add(XSP16, 31)
        CFI Block cfiCond55 Using cfiCommon0
        CFI (cfiCond55) NoFunction
        CFI (cfiCond55) Conditional ??CrossCallReturnLabel_12
        CFI (cfiCond55) R6 load(1, XDATA, add(CFA_XSP16, literal(-16)))
        CFI (cfiCond55) VB load(1, XDATA, add(CFA_XSP16, literal(-15)))
        CFI (cfiCond55) V0 load(1, XDATA, add(CFA_XSP16, literal(-14)))
        CFI (cfiCond55) V1 load(1, XDATA, add(CFA_XSP16, literal(-13)))
        CFI (cfiCond55) V2 load(1, XDATA, add(CFA_XSP16, literal(-12)))
        CFI (cfiCond55) V3 load(1, XDATA, add(CFA_XSP16, literal(-11)))
        CFI (cfiCond55) V4 load(1, XDATA, add(CFA_XSP16, literal(-10)))
        CFI (cfiCond55) V5 load(1, XDATA, add(CFA_XSP16, literal(-9)))
        CFI (cfiCond55) V6 load(1, XDATA, add(CFA_XSP16, literal(-8)))
        CFI (cfiCond55) V7 load(1, XDATA, add(CFA_XSP16, literal(-7)))
        CFI (cfiCond55) R7 load(1, XDATA, add(CFA_XSP16, literal(-6)))
        CFI (cfiCond55) ?RET_LOW load(1, XDATA, add(CFA_XSP16, literal(-5)))
        CFI (cfiCond55) ?RET_HIGH load(1, XDATA, add(CFA_XSP16, literal(-4)))
        CFI (cfiCond55) ?BRET_EXT load(1, XDATA, add(CFA_XSP16, literal(-3)))
        CFI (cfiCond55) DPL0 load(1, XDATA, add(CFA_XSP16, literal(-2)))
        CFI (cfiCond55) DPH0 load(1, XDATA, add(CFA_XSP16, literal(-1)))
        CFI (cfiCond55) CFA_SP SP+0
        CFI (cfiCond55) CFA_XSP16 add(XSP16, 31)
        CFI Block cfiPicker56 Using cfiCommon1
        CFI (cfiPicker56) NoFunction
        CFI (cfiPicker56) Picker
        INC     DPTR
        INC     DPTR
        LCALL   ?Subroutine10 & 0xFFFF
??CrossCallReturnLabel_24:
        INC     DPTR
        INC     DPTR
        RET
        CFI EndBlock cfiCond54
        CFI EndBlock cfiCond55
        CFI EndBlock cfiPicker56

        RSEG BANKED_CODE:CODE:NOROOT(0)
?Subroutine10:
        CFI Block cfiCond57 Using cfiCommon0
        CFI NoFunction
        CFI Conditional ??CrossCallReturnLabel_23
        CFI R6 load(1, XDATA, add(CFA_XSP16, literal(-16)))
        CFI VB load(1, XDATA, add(CFA_XSP16, literal(-15)))
        CFI V0 load(1, XDATA, add(CFA_XSP16, literal(-14)))
        CFI V1 load(1, XDATA, add(CFA_XSP16, literal(-13)))
        CFI V2 load(1, XDATA, add(CFA_XSP16, literal(-12)))
        CFI V3 load(1, XDATA, add(CFA_XSP16, literal(-11)))
        CFI V4 load(1, XDATA, add(CFA_XSP16, literal(-10)))
        CFI V5 load(1, XDATA, add(CFA_XSP16, literal(-9)))
        CFI V6 load(1, XDATA, add(CFA_XSP16, literal(-8)))
        CFI V7 load(1, XDATA, add(CFA_XSP16, literal(-7)))
        CFI R7 load(1, XDATA, add(CFA_XSP16, literal(-6)))
        CFI ?RET_LOW load(1, XDATA, add(CFA_XSP16, literal(-5)))
        CFI ?RET_HIGH load(1, XDATA, add(CFA_XSP16, literal(-4)))
        CFI ?BRET_EXT load(1, XDATA, add(CFA_XSP16, literal(-3)))
        CFI DPL0 load(1, XDATA, add(CFA_XSP16, literal(-2)))
        CFI DPH0 load(1, XDATA, add(CFA_XSP16, literal(-1)))
        CFI CFA_SP SP+0
        CFI CFA_XSP16 add(XSP16, 31)
        CFI Block cfiCond58 Using cfiCommon0
        CFI (cfiCond58) NoFunction
        CFI (cfiCond58) Conditional ??CrossCallReturnLabel_24, ??CrossCallReturnLabel_11
        CFI (cfiCond58) R6 load(1, XDATA, add(CFA_XSP16, literal(-16)))
        CFI (cfiCond58) VB load(1, XDATA, add(CFA_XSP16, literal(-15)))
        CFI (cfiCond58) V0 load(1, XDATA, add(CFA_XSP16, literal(-14)))
        CFI (cfiCond58) V1 load(1, XDATA, add(CFA_XSP16, literal(-13)))
        CFI (cfiCond58) V2 load(1, XDATA, add(CFA_XSP16, literal(-12)))
        CFI (cfiCond58) V3 load(1, XDATA, add(CFA_XSP16, literal(-11)))
        CFI (cfiCond58) V4 load(1, XDATA, add(CFA_XSP16, literal(-10)))
        CFI (cfiCond58) V5 load(1, XDATA, add(CFA_XSP16, literal(-9)))
        CFI (cfiCond58) V6 load(1, XDATA, add(CFA_XSP16, literal(-8)))
        CFI (cfiCond58) V7 load(1, XDATA, add(CFA_XSP16, literal(-7)))
        CFI (cfiCond58) R7 load(1, XDATA, add(CFA_XSP16, literal(-6)))
        CFI (cfiCond58) ?RET_LOW load(1, XDATA, add(CFA_XSP16, literal(-5)))
        CFI (cfiCond58) ?RET_HIGH load(1, XDATA, add(CFA_XSP16, literal(-4)))
        CFI (cfiCond58) ?BRET_EXT load(1, XDATA, add(CFA_XSP16, literal(-3)))
        CFI (cfiCond58) DPL0 load(1, XDATA, add(CFA_XSP16, literal(-2)))
        CFI (cfiCond58) DPH0 load(1, XDATA, add(CFA_XSP16, literal(-1)))
        CFI (cfiCond58) CFA_SP SP+0
        CFI (cfiCond58) CFA_XSP16 add(XSP16, 31)
        CFI Block cfiCond59 Using cfiCommon0
        CFI (cfiCond59) NoFunction
        CFI (cfiCond59) Conditional ??CrossCallReturnLabel_24, ??CrossCallReturnLabel_12
        CFI (cfiCond59) R6 load(1, XDATA, add(CFA_XSP16, literal(-16)))
        CFI (cfiCond59) VB load(1, XDATA, add(CFA_XSP16, literal(-15)))
        CFI (cfiCond59) V0 load(1, XDATA, add(CFA_XSP16, literal(-14)))
        CFI (cfiCond59) V1 load(1, XDATA, add(CFA_XSP16, literal(-13)))
        CFI (cfiCond59) V2 load(1, XDATA, add(CFA_XSP16, literal(-12)))
        CFI (cfiCond59) V3 load(1, XDATA, add(CFA_XSP16, literal(-11)))
        CFI (cfiCond59) V4 load(1, XDATA, add(CFA_XSP16, literal(-10)))
        CFI (cfiCond59) V5 load(1, XDATA, add(CFA_XSP16, literal(-9)))
        CFI (cfiCond59) V6 load(1, XDATA, add(CFA_XSP16, literal(-8)))
        CFI (cfiCond59) V7 load(1, XDATA, add(CFA_XSP16, literal(-7)))
        CFI (cfiCond59) R7 load(1, XDATA, add(CFA_XSP16, literal(-6)))
        CFI (cfiCond59) ?RET_LOW load(1, XDATA, add(CFA_XSP16, literal(-5)))
        CFI (cfiCond59) ?RET_HIGH load(1, XDATA, add(CFA_XSP16, literal(-4)))
        CFI (cfiCond59) ?BRET_EXT load(1, XDATA, add(CFA_XSP16, literal(-3)))
        CFI (cfiCond59) DPL0 load(1, XDATA, add(CFA_XSP16, literal(-2)))
        CFI (cfiCond59) DPH0 load(1, XDATA, add(CFA_XSP16, literal(-1)))
        CFI (cfiCond59) CFA_SP SP+0
        CFI (cfiCond59) CFA_XSP16 add(XSP16, 31)
        CFI Block cfiPicker60 Using cfiCommon1
        CFI (cfiPicker60) NoFunction
        CFI (cfiPicker60) Picker
        INC     DPTR
        INC     DPTR
        INC     DPTR
        INC     DPTR
        INC     DPTR
        MOVX    A,@DPTR
        MOV     R3,A
        MOV     DPL,R6
        MOV     DPH,R7
        INC     DPTR
        INC     DPTR
        INC     DPTR
        INC     DPTR
        INC     DPTR
        INC     DPTR
        RET
        CFI EndBlock cfiCond57
        CFI EndBlock cfiCond58
        CFI EndBlock cfiCond59
        CFI EndBlock cfiPicker60

        RSEG BANKED_CODE:CODE:NOROOT(0)
?Subroutine1:
        CFI Block cfiCond61 Using cfiCommon0
        CFI NoFunction
        CFI Conditional ??CrossCallReturnLabel_37
        CFI R6 load(1, XDATA, add(CFA_XSP16, literal(-16)))
        CFI VB load(1, XDATA, add(CFA_XSP16, literal(-15)))
        CFI V0 load(1, XDATA, add(CFA_XSP16, literal(-14)))
        CFI V1 load(1, XDATA, add(CFA_XSP16, literal(-13)))
        CFI V2 load(1, XDATA, add(CFA_XSP16, literal(-12)))
        CFI V3 load(1, XDATA, add(CFA_XSP16, literal(-11)))
        CFI V4 load(1, XDATA, add(CFA_XSP16, literal(-10)))
        CFI V5 load(1, XDATA, add(CFA_XSP16, literal(-9)))
        CFI V6 load(1, XDATA, add(CFA_XSP16, literal(-8)))
        CFI V7 load(1, XDATA, add(CFA_XSP16, literal(-7)))
        CFI R7 load(1, XDATA, add(CFA_XSP16, literal(-6)))
        CFI ?RET_LOW load(1, XDATA, add(CFA_XSP16, literal(-5)))
        CFI ?RET_HIGH load(1, XDATA, add(CFA_XSP16, literal(-4)))
        CFI ?BRET_EXT load(1, XDATA, add(CFA_XSP16, literal(-3)))
        CFI DPL0 load(1, XDATA, add(CFA_XSP16, literal(-2)))
        CFI DPH0 load(1, XDATA, add(CFA_XSP16, literal(-1)))
        CFI CFA_SP SP+0
        CFI CFA_XSP16 add(XSP16, 27)
        CFI Block cfiCond62 Using cfiCommon0
        CFI (cfiCond62) NoFunction
        CFI (cfiCond62) Conditional ??CrossCallReturnLabel_38
        CFI (cfiCond62) R6 load(1, XDATA, add(CFA_XSP16, literal(-16)))
        CFI (cfiCond62) VB load(1, XDATA, add(CFA_XSP16, literal(-15)))
        CFI (cfiCond62) V0 load(1, XDATA, add(CFA_XSP16, literal(-14)))
        CFI (cfiCond62) V1 load(1, XDATA, add(CFA_XSP16, literal(-13)))
        CFI (cfiCond62) V2 load(1, XDATA, add(CFA_XSP16, literal(-12)))
        CFI (cfiCond62) V3 load(1, XDATA, add(CFA_XSP16, literal(-11)))
        CFI (cfiCond62) V4 load(1, XDATA, add(CFA_XSP16, literal(-10)))
        CFI (cfiCond62) V5 load(1, XDATA, add(CFA_XSP16, literal(-9)))
        CFI (cfiCond62) V6 load(1, XDATA, add(CFA_XSP16, literal(-8)))
        CFI (cfiCond62) V7 load(1, XDATA, add(CFA_XSP16, literal(-7)))
        CFI (cfiCond62) R7 load(1, XDATA, add(CFA_XSP16, literal(-6)))
        CFI (cfiCond62) ?RET_LOW load(1, XDATA, add(CFA_XSP16, literal(-5)))
        CFI (cfiCond62) ?RET_HIGH load(1, XDATA, add(CFA_XSP16, literal(-4)))
        CFI (cfiCond62) ?BRET_EXT load(1, XDATA, add(CFA_XSP16, literal(-3)))
        CFI (cfiCond62) DPL0 load(1, XDATA, add(CFA_XSP16, literal(-2)))
        CFI (cfiCond62) DPH0 load(1, XDATA, add(CFA_XSP16, literal(-1)))
        CFI (cfiCond62) CFA_SP SP+0
        CFI (cfiCond62) CFA_XSP16 add(XSP16, 27)
        CFI Block cfiCond63 Using cfiCommon0
        CFI (cfiCond63) NoFunction
        CFI (cfiCond63) Conditional ??CrossCallReturnLabel_39
        CFI (cfiCond63) R6 load(1, XDATA, add(CFA_XSP16, literal(-16)))
        CFI (cfiCond63) VB load(1, XDATA, add(CFA_XSP16, literal(-15)))
        CFI (cfiCond63) V0 load(1, XDATA, add(CFA_XSP16, literal(-14)))
        CFI (cfiCond63) V1 load(1, XDATA, add(CFA_XSP16, literal(-13)))
        CFI (cfiCond63) V2 load(1, XDATA, add(CFA_XSP16, literal(-12)))
        CFI (cfiCond63) V3 load(1, XDATA, add(CFA_XSP16, literal(-11)))
        CFI (cfiCond63) V4 load(1, XDATA, add(CFA_XSP16, literal(-10)))
        CFI (cfiCond63) V5 load(1, XDATA, add(CFA_XSP16, literal(-9)))
        CFI (cfiCond63) V6 load(1, XDATA, add(CFA_XSP16, literal(-8)))
        CFI (cfiCond63) V7 load(1, XDATA, add(CFA_XSP16, literal(-7)))
        CFI (cfiCond63) R7 load(1, XDATA, add(CFA_XSP16, literal(-6)))
        CFI (cfiCond63) ?RET_LOW load(1, XDATA, add(CFA_XSP16, literal(-5)))
        CFI (cfiCond63) ?RET_HIGH load(1, XDATA, add(CFA_XSP16, literal(-4)))
        CFI (cfiCond63) ?BRET_EXT load(1, XDATA, add(CFA_XSP16, literal(-3)))
        CFI (cfiCond63) DPL0 load(1, XDATA, add(CFA_XSP16, literal(-2)))
        CFI (cfiCond63) DPH0 load(1, XDATA, add(CFA_XSP16, literal(-1)))
        CFI (cfiCond63) CFA_SP SP+0
        CFI (cfiCond63) CFA_XSP16 add(XSP16, 27)
        CFI Block cfiPicker64 Using cfiCommon1
        CFI (cfiPicker64) NoFunction
        CFI (cfiPicker64) Picker
        MOV     DPL,R6
        MOV     DPH,R7
        INC     DPTR
        INC     DPTR
        INC     DPTR
        INC     DPTR
        INC     DPTR
        MOVX    A,@DPTR
        MOV     R1,A
        MOV     DPL,R6
        MOV     DPH,R7
        CFI EndBlock cfiCond61
        CFI EndBlock cfiCond62
        CFI EndBlock cfiCond63
        CFI EndBlock cfiPicker64
        REQUIRE ??Subroutine14_0
        ; // Fall through to label ??Subroutine14_0

        RSEG BANKED_CODE:CODE:NOROOT(0)
??Subroutine14_0:
        CFI Block cfiCond65 Using cfiCommon0
        CFI NoFunction
        CFI Conditional ??CrossCallReturnLabel_34
        CFI R6 load(1, XDATA, add(CFA_XSP16, literal(-16)))
        CFI VB load(1, XDATA, add(CFA_XSP16, literal(-15)))
        CFI V0 load(1, XDATA, add(CFA_XSP16, literal(-14)))
        CFI V1 load(1, XDATA, add(CFA_XSP16, literal(-13)))
        CFI V2 load(1, XDATA, add(CFA_XSP16, literal(-12)))
        CFI V3 load(1, XDATA, add(CFA_XSP16, literal(-11)))
        CFI V4 load(1, XDATA, add(CFA_XSP16, literal(-10)))
        CFI V5 load(1, XDATA, add(CFA_XSP16, literal(-9)))
        CFI V6 load(1, XDATA, add(CFA_XSP16, literal(-8)))
        CFI V7 load(1, XDATA, add(CFA_XSP16, literal(-7)))
        CFI R7 load(1, XDATA, add(CFA_XSP16, literal(-6)))
        CFI ?RET_LOW load(1, XDATA, add(CFA_XSP16, literal(-5)))
        CFI ?RET_HIGH load(1, XDATA, add(CFA_XSP16, literal(-4)))
        CFI ?BRET_EXT load(1, XDATA, add(CFA_XSP16, literal(-3)))
        CFI DPL0 load(1, XDATA, add(CFA_XSP16, literal(-2)))
        CFI DPH0 load(1, XDATA, add(CFA_XSP16, literal(-1)))
        CFI CFA_SP SP+0
        CFI CFA_XSP16 add(XSP16, 27)
        CFI Block cfiCond66 Using cfiCommon0
        CFI (cfiCond66) NoFunction
        CFI (cfiCond66) Conditional ??CrossCallReturnLabel_35
        CFI (cfiCond66) R6 load(1, XDATA, add(CFA_XSP16, literal(-16)))
        CFI (cfiCond66) VB load(1, XDATA, add(CFA_XSP16, literal(-15)))
        CFI (cfiCond66) V0 load(1, XDATA, add(CFA_XSP16, literal(-14)))
        CFI (cfiCond66) V1 load(1, XDATA, add(CFA_XSP16, literal(-13)))
        CFI (cfiCond66) V2 load(1, XDATA, add(CFA_XSP16, literal(-12)))
        CFI (cfiCond66) V3 load(1, XDATA, add(CFA_XSP16, literal(-11)))
        CFI (cfiCond66) V4 load(1, XDATA, add(CFA_XSP16, literal(-10)))
        CFI (cfiCond66) V5 load(1, XDATA, add(CFA_XSP16, literal(-9)))
        CFI (cfiCond66) V6 load(1, XDATA, add(CFA_XSP16, literal(-8)))
        CFI (cfiCond66) V7 load(1, XDATA, add(CFA_XSP16, literal(-7)))
        CFI (cfiCond66) R7 load(1, XDATA, add(CFA_XSP16, literal(-6)))
        CFI (cfiCond66) ?RET_LOW load(1, XDATA, add(CFA_XSP16, literal(-5)))
        CFI (cfiCond66) ?RET_HIGH load(1, XDATA, add(CFA_XSP16, literal(-4)))
        CFI (cfiCond66) ?BRET_EXT load(1, XDATA, add(CFA_XSP16, literal(-3)))
        CFI (cfiCond66) DPL0 load(1, XDATA, add(CFA_XSP16, literal(-2)))
        CFI (cfiCond66) DPH0 load(1, XDATA, add(CFA_XSP16, literal(-1)))
        CFI (cfiCond66) CFA_SP SP+0
        CFI (cfiCond66) CFA_XSP16 add(XSP16, 27)
        CFI Block cfiCond67 Using cfiCommon0
        CFI (cfiCond67) NoFunction
        CFI (cfiCond67) Conditional ??CrossCallReturnLabel_36
        CFI (cfiCond67) R6 load(1, XDATA, add(CFA_XSP16, literal(-16)))
        CFI (cfiCond67) VB load(1, XDATA, add(CFA_XSP16, literal(-15)))
        CFI (cfiCond67) V0 load(1, XDATA, add(CFA_XSP16, literal(-14)))
        CFI (cfiCond67) V1 load(1, XDATA, add(CFA_XSP16, literal(-13)))
        CFI (cfiCond67) V2 load(1, XDATA, add(CFA_XSP16, literal(-12)))
        CFI (cfiCond67) V3 load(1, XDATA, add(CFA_XSP16, literal(-11)))
        CFI (cfiCond67) V4 load(1, XDATA, add(CFA_XSP16, literal(-10)))
        CFI (cfiCond67) V5 load(1, XDATA, add(CFA_XSP16, literal(-9)))
        CFI (cfiCond67) V6 load(1, XDATA, add(CFA_XSP16, literal(-8)))
        CFI (cfiCond67) V7 load(1, XDATA, add(CFA_XSP16, literal(-7)))
        CFI (cfiCond67) R7 load(1, XDATA, add(CFA_XSP16, literal(-6)))
        CFI (cfiCond67) ?RET_LOW load(1, XDATA, add(CFA_XSP16, literal(-5)))
        CFI (cfiCond67) ?RET_HIGH load(1, XDATA, add(CFA_XSP16, literal(-4)))
        CFI (cfiCond67) ?BRET_EXT load(1, XDATA, add(CFA_XSP16, literal(-3)))
        CFI (cfiCond67) DPL0 load(1, XDATA, add(CFA_XSP16, literal(-2)))
        CFI (cfiCond67) DPH0 load(1, XDATA, add(CFA_XSP16, literal(-1)))
        CFI (cfiCond67) CFA_SP SP+0
        CFI (cfiCond67) CFA_XSP16 add(XSP16, 27)
        CFI Block cfiCond68 Using cfiCommon0
        CFI (cfiCond68) NoFunction
        CFI (cfiCond68) Conditional ??CrossCallReturnLabel_37
        CFI (cfiCond68) R6 load(1, XDATA, add(CFA_XSP16, literal(-16)))
        CFI (cfiCond68) VB load(1, XDATA, add(CFA_XSP16, literal(-15)))
        CFI (cfiCond68) V0 load(1, XDATA, add(CFA_XSP16, literal(-14)))
        CFI (cfiCond68) V1 load(1, XDATA, add(CFA_XSP16, literal(-13)))
        CFI (cfiCond68) V2 load(1, XDATA, add(CFA_XSP16, literal(-12)))
        CFI (cfiCond68) V3 load(1, XDATA, add(CFA_XSP16, literal(-11)))
        CFI (cfiCond68) V4 load(1, XDATA, add(CFA_XSP16, literal(-10)))
        CFI (cfiCond68) V5 load(1, XDATA, add(CFA_XSP16, literal(-9)))
        CFI (cfiCond68) V6 load(1, XDATA, add(CFA_XSP16, literal(-8)))
        CFI (cfiCond68) V7 load(1, XDATA, add(CFA_XSP16, literal(-7)))
        CFI (cfiCond68) R7 load(1, XDATA, add(CFA_XSP16, literal(-6)))
        CFI (cfiCond68) ?RET_LOW load(1, XDATA, add(CFA_XSP16, literal(-5)))
        CFI (cfiCond68) ?RET_HIGH load(1, XDATA, add(CFA_XSP16, literal(-4)))
        CFI (cfiCond68) ?BRET_EXT load(1, XDATA, add(CFA_XSP16, literal(-3)))
        CFI (cfiCond68) DPL0 load(1, XDATA, add(CFA_XSP16, literal(-2)))
        CFI (cfiCond68) DPH0 load(1, XDATA, add(CFA_XSP16, literal(-1)))
        CFI (cfiCond68) CFA_SP SP+0
        CFI (cfiCond68) CFA_XSP16 add(XSP16, 27)
        CFI Block cfiCond69 Using cfiCommon0
        CFI (cfiCond69) NoFunction
        CFI (cfiCond69) Conditional ??CrossCallReturnLabel_38
        CFI (cfiCond69) R6 load(1, XDATA, add(CFA_XSP16, literal(-16)))
        CFI (cfiCond69) VB load(1, XDATA, add(CFA_XSP16, literal(-15)))
        CFI (cfiCond69) V0 load(1, XDATA, add(CFA_XSP16, literal(-14)))
        CFI (cfiCond69) V1 load(1, XDATA, add(CFA_XSP16, literal(-13)))
        CFI (cfiCond69) V2 load(1, XDATA, add(CFA_XSP16, literal(-12)))
        CFI (cfiCond69) V3 load(1, XDATA, add(CFA_XSP16, literal(-11)))
        CFI (cfiCond69) V4 load(1, XDATA, add(CFA_XSP16, literal(-10)))
        CFI (cfiCond69) V5 load(1, XDATA, add(CFA_XSP16, literal(-9)))
        CFI (cfiCond69) V6 load(1, XDATA, add(CFA_XSP16, literal(-8)))
        CFI (cfiCond69) V7 load(1, XDATA, add(CFA_XSP16, literal(-7)))
        CFI (cfiCond69) R7 load(1, XDATA, add(CFA_XSP16, literal(-6)))
        CFI (cfiCond69) ?RET_LOW load(1, XDATA, add(CFA_XSP16, literal(-5)))
        CFI (cfiCond69) ?RET_HIGH load(1, XDATA, add(CFA_XSP16, literal(-4)))
        CFI (cfiCond69) ?BRET_EXT load(1, XDATA, add(CFA_XSP16, literal(-3)))
        CFI (cfiCond69) DPL0 load(1, XDATA, add(CFA_XSP16, literal(-2)))
        CFI (cfiCond69) DPH0 load(1, XDATA, add(CFA_XSP16, literal(-1)))
        CFI (cfiCond69) CFA_SP SP+0
        CFI (cfiCond69) CFA_XSP16 add(XSP16, 27)
        CFI Block cfiCond70 Using cfiCommon0
        CFI (cfiCond70) NoFunction
        CFI (cfiCond70) Conditional ??CrossCallReturnLabel_39
        CFI (cfiCond70) R6 load(1, XDATA, add(CFA_XSP16, literal(-16)))
        CFI (cfiCond70) VB load(1, XDATA, add(CFA_XSP16, literal(-15)))
        CFI (cfiCond70) V0 load(1, XDATA, add(CFA_XSP16, literal(-14)))
        CFI (cfiCond70) V1 load(1, XDATA, add(CFA_XSP16, literal(-13)))
        CFI (cfiCond70) V2 load(1, XDATA, add(CFA_XSP16, literal(-12)))
        CFI (cfiCond70) V3 load(1, XDATA, add(CFA_XSP16, literal(-11)))
        CFI (cfiCond70) V4 load(1, XDATA, add(CFA_XSP16, literal(-10)))
        CFI (cfiCond70) V5 load(1, XDATA, add(CFA_XSP16, literal(-9)))
        CFI (cfiCond70) V6 load(1, XDATA, add(CFA_XSP16, literal(-8)))
        CFI (cfiCond70) V7 load(1, XDATA, add(CFA_XSP16, literal(-7)))
        CFI (cfiCond70) R7 load(1, XDATA, add(CFA_XSP16, literal(-6)))
        CFI (cfiCond70) ?RET_LOW load(1, XDATA, add(CFA_XSP16, literal(-5)))
        CFI (cfiCond70) ?RET_HIGH load(1, XDATA, add(CFA_XSP16, literal(-4)))
        CFI (cfiCond70) ?BRET_EXT load(1, XDATA, add(CFA_XSP16, literal(-3)))
        CFI (cfiCond70) DPL0 load(1, XDATA, add(CFA_XSP16, literal(-2)))
        CFI (cfiCond70) DPH0 load(1, XDATA, add(CFA_XSP16, literal(-1)))
        CFI (cfiCond70) CFA_SP SP+0
        CFI (cfiCond70) CFA_XSP16 add(XSP16, 27)
        CFI Block cfiPicker71 Using cfiCommon1
        CFI (cfiPicker71) NoFunction
        CFI (cfiPicker71) Picker
        INC     DPTR
        INC     DPTR
        INC     DPTR
        INC     DPTR
        INC     DPTR
        INC     DPTR
        MOVX    A,@DPTR
        MOV     ?V0 + 0,A
        MOV     A,R1
        MOV     ?V0 + 1,A
        RLC     A
        SUBB    A,0xE0 /* A   */
        MOV     ?V0 + 2,A
        MOV     ?V0 + 3,A
        MOV     R0,#?V0 + 0
        RET
        CFI EndBlock cfiCond65
        CFI EndBlock cfiCond66
        CFI EndBlock cfiCond67
        CFI EndBlock cfiCond68
        CFI EndBlock cfiCond69
        CFI EndBlock cfiCond70
        CFI EndBlock cfiPicker71
//  484 
//  485 /*********************************************************************
//  486  */
//  487 

        RSEG BANKED_CODE:CODE:NOROOT(0)
//  488 void SerialApp_OTAData(afAddrType_t *txaddr, uint8 cID, void *p, uint8 len) //∑¢ÀÕ∫Ø ˝
SerialApp_OTAData:
        CFI Block cfiBlock72 Using cfiCommon0
        CFI Function SerialApp_OTAData
        CODE
//  489 {
        FUNCALL SerialApp_OTAData, AF_DataRequest
        LOCFRAME ISTACK, 0, STACK
        LOCFRAME PSTACK, 0, STACK
        LOCFRAME XSTACK, 19, STACK
        LOCFRAME IOVERLAY, 0, STATIC
        LOCFRAME DOVERLAY, 0, STATIC
        ARGFRAME ISTACK, 0, STACK
        ARGFRAME PSTACK, 0, STACK
        ARGFRAME XSTACK, 19, STACK
        ARGFRAME IOVERLAY, 0, STATIC
        ARGFRAME DOVERLAY, 0, STATIC
        FUNCALL SerialApp_OTAData, HalLedBlink
        LOCFRAME ISTACK, 0, STACK
        LOCFRAME PSTACK, 0, STACK
        LOCFRAME XSTACK, 10, STACK
        LOCFRAME IOVERLAY, 0, STATIC
        LOCFRAME DOVERLAY, 0, STATIC
        ARGFRAME ISTACK, 0, STACK
        ARGFRAME PSTACK, 0, STACK
        ARGFRAME XSTACK, 10, STACK
        ARGFRAME IOVERLAY, 0, STATIC
        ARGFRAME DOVERLAY, 0, STATIC
        MOV     A,#-0xa
        LCALL   ?BANKED_ENTER_XDATA
        CFI DPH0 load(1, XDATA, add(CFA_XSP16, literal(-1)))
        CFI DPL0 load(1, XDATA, add(CFA_XSP16, literal(-2)))
        CFI ?BRET_EXT load(1, XDATA, add(CFA_XSP16, literal(-3)))
        CFI ?RET_HIGH load(1, XDATA, add(CFA_XSP16, literal(-4)))
        CFI ?RET_LOW load(1, XDATA, add(CFA_XSP16, literal(-5)))
        CFI R7 load(1, XDATA, add(CFA_XSP16, literal(-6)))
        CFI V1 load(1, XDATA, add(CFA_XSP16, literal(-7)))
        CFI V0 load(1, XDATA, add(CFA_XSP16, literal(-8)))
        CFI VB load(1, XDATA, add(CFA_XSP16, literal(-9)))
        CFI R6 load(1, XDATA, add(CFA_XSP16, literal(-10)))
        CFI CFA_SP SP+0
        CFI CFA_XSP16 add(XSP16, 10)
        ; Saved register size: 10
        ; Auto size: 0
        MOV     A,R1
        MOV     R6,A
        MOV     A,#0xa
        LCALL   ?XSTACK_DISP0_8
        MOVX    A,@DPTR
        MOV     R1,A
//  490   if (afStatus_SUCCESS != AF_DataRequest(txaddr, //∑¢ÀÕµÿ÷∑
//  491                                            (endPointDesc_t *)&SerialApp_epDesc, //endpoint√Ë ˆ
//  492                                             cID, //clusterID
//  493                                             len, p, //∑¢ÀÕ ˝æ›∞¸µƒ≥§∂»∫Õµÿ÷∑
//  494                                             &SerialApp_MsgID, 0, AF_DEFAULT_RADIUS))
        ; Setup parameters for call to function AF_DataRequest
        MOV     ?V0 + 0,#0x1e
        MOV     R0,#?V0 + 0
        LCALL   ?PUSH_XSTACK_I_ONE
        CFI CFA_XSP16 add(XSP16, 11)
        MOV     ?V0 + 0,#SerialApp_MsgID & 0xff
        MOV     ?V0 + 1,#(SerialApp_MsgID >> 8) & 0xff
        MOV     R0,#?V0 + 0
        LCALL   ?PUSH_XSTACK_I_TWO
        CFI CFA_XSP16 add(XSP16, 13)
        MOV     ?V0 + 0,R4
        MOV     ?V0 + 1,R5
        MOV     R0,#?V0 + 0
        LCALL   ?PUSH_XSTACK_I_TWO
        CFI CFA_XSP16 add(XSP16, 15)
        MOV     ?V0 + 0,R1
        MOV     ?V0 + 1,#0x0
        MOV     R0,#?V0 + 0
        LCALL   ?PUSH_XSTACK_I_TWO
        CFI CFA_XSP16 add(XSP16, 17)
        MOV     ?V0 + 0,R6
        MOV     R0,#?V0 + 0
        LCALL   ?PUSH_XSTACK_I_TWO
        CFI CFA_XSP16 add(XSP16, 19)
        MOV     R1,#0x0
        MOV     R4,#SerialApp_epDesc & 0xff
        MOV     R5,#(SerialApp_epDesc >> 8) & 0xff
        LCALL   ??AF_DataRequest?relay
        MOV     A,#0x9
        LCALL   ?DEALLOC_XSTACK8
        CFI CFA_XSP16 add(XSP16, 10)
        MOV     A,R1
        JNZ     ??SerialApp_OTAData_0
//  495   {
//  496 
//  497   }
//  498   else
//  499   {
//  500     HalLedBlink(HAL_LED_1,1,50,200);
        ; Setup parameters for call to function HalLedBlink
        MOV     R4,#-0x38
        MOV     R5,#0x0
        MOV     R3,#0x32
        MOV     R2,#0x1
        MOV     R1,#0x1
        LCALL   ??HalLedBlink?relay
//  501   }
//  502 }
??SerialApp_OTAData_0:
        MOV     R7,#0x2
        LJMP    ?BANKED_LEAVE_XDATA
        CFI EndBlock cfiBlock72
//  503 
//  504 /*********************************************************************
//  505  * @fn      SerialApp_CallBack
//  506  *
//  507  * @brief   Send data OTA.
//  508  *
//  509  * @param   port - UART port.
//  510  * @param   event - the UART port event flag.
//  511  *
//  512  * @return  none
//  513  */

        RSEG BANKED_CODE:CODE:NOROOT(0)
//  514 static void SerialApp_CallBack(uint8 port, uint8 event)
SerialApp_CallBack:
        CFI Block cfiBlock73 Using cfiCommon0
        CFI Function SerialApp_CallBack
        CODE
//  515 {
        FUNCALL SerialApp_CallBack, HalUARTRead
        LOCFRAME ISTACK, 0, STACK
        LOCFRAME PSTACK, 0, STACK
        LOCFRAME XSTACK, 9, STACK
        LOCFRAME IOVERLAY, 0, STATIC
        LOCFRAME DOVERLAY, 0, STATIC
        ARGFRAME ISTACK, 0, STACK
        ARGFRAME PSTACK, 0, STACK
        ARGFRAME XSTACK, 9, STACK
        ARGFRAME IOVERLAY, 0, STATIC
        ARGFRAME DOVERLAY, 0, STATIC
        FUNCALL SerialApp_CallBack, osal_set_event
        LOCFRAME ISTACK, 0, STACK
        LOCFRAME PSTACK, 0, STACK
        LOCFRAME XSTACK, 9, STACK
        LOCFRAME IOVERLAY, 0, STATIC
        LOCFRAME DOVERLAY, 0, STATIC
        ARGFRAME ISTACK, 0, STACK
        ARGFRAME PSTACK, 0, STACK
        ARGFRAME XSTACK, 9, STACK
        ARGFRAME IOVERLAY, 0, STATIC
        ARGFRAME DOVERLAY, 0, STATIC
        MOV     A,#-0x9
        LCALL   ?BANKED_ENTER_XDATA
        CFI DPH0 load(1, XDATA, add(CFA_XSP16, literal(-1)))
        CFI DPL0 load(1, XDATA, add(CFA_XSP16, literal(-2)))
        CFI ?BRET_EXT load(1, XDATA, add(CFA_XSP16, literal(-3)))
        CFI ?RET_HIGH load(1, XDATA, add(CFA_XSP16, literal(-4)))
        CFI ?RET_LOW load(1, XDATA, add(CFA_XSP16, literal(-5)))
        CFI R7 load(1, XDATA, add(CFA_XSP16, literal(-6)))
        CFI V0 load(1, XDATA, add(CFA_XSP16, literal(-7)))
        CFI VB load(1, XDATA, add(CFA_XSP16, literal(-8)))
        CFI R6 load(1, XDATA, add(CFA_XSP16, literal(-9)))
        CFI CFA_SP SP+0
        CFI CFA_XSP16 add(XSP16, 9)
        ; Saved register size: 9
        ; Auto size: 0
        MOV     A,R2
        MOV     R6,A
//  516   (void)port;
//  517   UART_Format *p;
//  518   if ((event & (HAL_UART_RX_FULL | HAL_UART_RX_ABOUT_FULL | HAL_UART_RX_TIMEOUT)) &&
//  519 #if SERIAL_APP_LOOPBACK
//  520       (SerialApp_TxLen < SERIAL_APP_TX_MAX))
//  521 #else
//  522       !SerialApp_TxLen)
        MOV     A,#0x7
        ANL     A,R6
        JZ      ??SerialApp_CallBack_0
        MOV     DPTR,#SerialApp_TxLen
        MOVX    A,@DPTR
        JNZ     ??SerialApp_CallBack_0
//  523 #endif
//  524   {
//  525     SerialApp_TxLen = HalUARTRead(SERIAL_APP_PORT, SerialApp_TxBuf, SERIAL_APP_TX_MAX); //Ω´¥Æø⁄ ˝æ›∂¡»Îbuf
        ; Setup parameters for call to function HalUARTRead
        MOV     R4,#0x14
        MOV     R5,#0x0
        MOV     R2,#SerialApp_TxBuf & 0xff
        MOV     R3,#(SerialApp_TxBuf >> 8) & 0xff
        MOV     R1,#0x0
        LCALL   ??HalUARTRead?relay
        MOV     A,R2
        MOV     DPTR,#SerialApp_TxLen
        MOVX    @DPTR,A
//  526     if(SerialApp_TxLen > 0)
        JZ      ??SerialApp_CallBack_1
//  527     {
//  528       //GPRS_Status = GetGPRSStatus(SerialApp_TxBuf);
//  529       p = (UART_Format*)SerialApp_TxBuf;
//  530       if((p->Header_1==0xcc)&&(p->Header_2==0xee)&&(p->Tailer==0xff))//∞¸Õ∑∞¸Œ≤–£—È
        MOV     DPTR,#SerialApp_TxBuf
        MOVX    A,@DPTR
        XRL     A,#0xcc
        JNZ     ??SerialApp_CallBack_1
        INC     DPTR
        MOVX    A,@DPTR
        XRL     A,#0xee
        JNZ     ??SerialApp_CallBack_1
        MOV     DPTR,#SerialApp_TxBuf + 15
        MOVX    A,@DPTR
        CPL     A
        JNZ     ??SerialApp_CallBack_1
//  531       {
//  532         if(p->NodeID != Coor) //»∑∂®≤ª «∑¢ÀÕ∏¯Õ¯πÿµƒœ˚œ¢
        MOV     DPTR,#SerialApp_TxBuf + 3
        MOVX    A,@DPTR
        JZ      ??SerialApp_CallBack_1
//  533         {
//  534           osal_set_event(SerialApp_TaskID, SERIALAPP_SEND_EVT); //Ω´¥Æø⁄ ˝æ›Õ®π˝RF∑¢ÀÕ
        ; Setup parameters for call to function osal_set_event
        MOV     R2,#0x1
        MOV     R3,#0x0
        MOV     DPTR,#SerialApp_TaskID
        MOVX    A,@DPTR
        MOV     R1,A
        LCALL   ??osal_set_event?relay
//  535         }
//  536       } 
//  537     }
//  538     SerialApp_TxLen = 0; 
??SerialApp_CallBack_1:
        MOV     DPTR,#SerialApp_TxLen
        CLR     A
        MOVX    @DPTR,A
//  539   }
//  540 }
??SerialApp_CallBack_0:
        LJMP    ?Subroutine0 & 0xFFFF
        CFI EndBlock cfiBlock73

        RSEG XDATA_ID:CODE:NOROOT(0)
`?<Initializer for relay_1_state>`:
        DATA8
        DB 2

        RSEG XDATA_ID:CODE:NOROOT(0)
`?<Initializer for relay_2_state>`:
        DATA8
        DB 2

        RSEG BANK_RELAYS:CODE:REORDER:NOROOT(0)
??SerialApp_Init?relay:
        LCALL   ?BDISPATCH
        DATA
        DC24    SerialApp_Init

        RSEG BANK_RELAYS:CODE:REORDER:NOROOT(0)
??SerialApp_ProcessEvent?relay:
        LCALL   ?BDISPATCH
        DATA
        DC24    SerialApp_ProcessEvent

        RSEG BANK_RELAYS:CODE:REORDER:NOROOT(0)
??SerialApp_HandleKeys?relay:
        LCALL   ?BDISPATCH
        DATA
        DC24    SerialApp_HandleKeys

        RSEG BANK_RELAYS:CODE:REORDER:NOROOT(0)
??SerialApp_ProcessMSGCmd?relay:
        LCALL   ?BDISPATCH
        DATA
        DC24    SerialApp_ProcessMSGCmd

        RSEG BANK_RELAYS:CODE:REORDER:NOROOT(0)
??SerialApp_OTAData?relay:
        LCALL   ?BDISPATCH
        DATA
        DC24    SerialApp_OTAData

        RSEG BANK_RELAYS:CODE:REORDER:NOROOT(0)
??SerialApp_CallBack?relay:
        LCALL   ?BDISPATCH
        DATA
        DC24    SerialApp_CallBack

        RSEG XDATA_ROM_C:CONST:REORDER:NOROOT(0)
        DATA8
`?<Constant "ChinaSofti">`:
        DB "ChinaSofti"

        RSEG XDATA_ROM_C:CONST:REORDER:NOROOT(0)
        DATA8
`?<Constant "Coord,PANID =     ,CH...">`:
        DB "Coord,PANID =     ,CH =  "

        RSEG XDATA_ROM_C:CONST:REORDER:NOROOT(0)
        DATA8
`?<Constant "GYROS">`:
        DB "GYROS"

        RSEG XDATA_ROM_C:CONST:REORDER:NOROOT(0)
        DATA8
`?<Constant "TE&HU">`:
        DB "TE&HU"

        RSEG XDATA_ROM_C:CONST:REORDER:NOROOT(0)
        DATA8
`?<Constant "ALCOH">`:
        DB "ALCOH"

        RSEG XDATA_ROM_C:CONST:REORDER:NOROOT(0)
        DATA8
`?<Constant "ACCEL">`:
        DB "ACCEL"

        RSEG XDATA_ROM_C:CONST:REORDER:NOROOT(0)
        DATA8
`?<Constant "FLAME">`:
        DB "FLAME"

        RSEG XDATA_ROM_C:CONST:REORDER:NOROOT(0)
        DATA8
`?<Constant "PYROE">`:
        DB "PYROE"

        RSEG XDATA_ROM_C:CONST:REORDER:NOROOT(0)
        DATA8
`?<Constant "RELAY">`:
        DB "RELAY"

        RSEG XDATA_ROM_C:CONST:REORDER:NOROOT(0)
        DATA8
`?<Constant "TOUCH">`:
        DB "TOUCH"

        RSEG XDATA_ROM_C:CONST:REORDER:NOROOT(0)
        DATA8
`?<Constant "ULTRA            mm">`:
        DB "ULTRA            mm"

        RSEG XDATA_ROM_C:CONST:REORDER:NOROOT(0)
        DATA8
`?<Constant "---$---">`:
        DB "---$---"

        RSEG XDATA_ROM_C:CONST:REORDER:NOROOT(0)
        DATA8
`?<Constant "Nothing">`:
        DB "Nothing"

        RSEG XDATA_ROM_C:CONST:REORDER:NOROOT(0)
        DATA8
`?<Constant "ATD10086;\\r">`:
        DB "ATD10086;\015"

        RSEG XDATA_ROM_C:CONST:REORDER:NOROOT(0)
        DATA8
`?<Constant "Bodymoving">`:
        DB "Bodymoving"

        RSEG XDATA_ROM_C:CONST:REORDER:NOROOT(0)
        DATA8
`?<Constant "Bodystatic">`:
        DB "Bodystatic"

        RSEG XDATA_ROM_C:CONST:REORDER:NOROOT(0)
        DATA32
__Constant_0:
        DD 0

        RSEG XDATA_ROM_C:CONST:REORDER:NOROOT(0)
        DATA32
__Constant_ff:
        DD 255

        RSEG XDATA_ROM_C:CONST:REORDER:NOROOT(0)
        DATA32
__Constant_1001:
        DD 4097

        RSEG XDATA_ROM_C:CONST:REORDER:NOROOT(0)
        DATA32
__Constant_800:
        DD 2048

        RSEG XDATA_ROM_C:CONST:REORDER:NOROOT(0)
        DATA32
__Constant_ff00:
        DD 65280

        END
//  541 
//  542 /*********************************************************************
//  543 *********************************************************************/
// 
// 2 082 bytes in segment BANKED_CODE
//    36 bytes in segment BANK_RELAYS
//     2 bytes in segment XDATA_I
//     2 bytes in segment XDATA_ID
//   196 bytes in segment XDATA_ROM_C
//    68 bytes in segment XDATA_Z
// 
// 2 120 bytes of CODE  memory
//   176 bytes of CONST memory (+ 20 bytes shared)
//    70 bytes of XDATA memory
//
//Errors: none
//Warnings: none
