///////////////////////////////////////////////////////////////////////////////
//                                                                            /
// IAR C/C++ Compiler V8.10.1.10194/W32 for 8051        14/Jun/2016  16:18:45 /
// Copyright 2004-2011 IAR Systems AB.                                        /
//                                                                            /
//    Core               =  plain                                             /
//    Code model         =  banked                                            /
//    Data model         =  large                                             /
//    Calling convention =  xdata reentrant                                   /
//    Constant location  =  data_rom                                          /
//    Dptr setup         =  1,16                                              /
//    Source file        =  F:\¹âÅÌ×ÊÁÏ\ETC-WSNÎïÁªÍø¹âÅÌ×ÊÁÏ210\ZigBeeÍøÂç\W /
//                          SN-CSÔ´Âë\ZStack-CC2530-2.5.1a\Components\uCGUI\C /
//                          ore\GUI_SIF_Prop.c                                /
//    Command line       =  -f F:\¹âÅÌ×ÊÁÏ\ETC-WSNÎïÁªÍø¹âÅÌ×ÊÁÏ210\ZigBeeÍøÂ /
//                          ç\WSN-CSÔ´Âë\ZStack-CC2530-2.5.1a\Projects\zstack /
//                          \Utilities\SerialApp\CC2530DB\..\..\..\Tools\CC25 /
//                          30DB\f8wCoord.cfg (-DCPU32MHZ -DROOT=__near_func  /
//                          -DMAC_CFG_APP_PENDING_QUEUE=TRUE                  /
//                          -DMAC_CFG_TX_DATA_MAX=5 -DMAC_CFG_TX_MAX=8        /
//                          -DMAC_CFG_RX_MAX=5 -DZDO_COORDINATOR -DRTR_NWK)   /
//                          -f F:\¹âÅÌ×ÊÁÏ\ETC-WSNÎïÁªÍø¹âÅÌ×ÊÁÏ210\ZigBeeÍøÂ /
//                          ç\WSN-CSÔ´Âë\ZStack-CC2530-2.5.1a\Projects\zstack /
//                          \Utilities\SerialApp\CC2530DB\..\..\..\Tools\CC25 /
//                          30DB\f8wConfig.cfg (-DZIGBEEPRO -DSECURE=0        /
//                          -DZG_SECURE_DYNAMIC=0 -DREFLECTOR                 /
//                          -DDEFAULT_CHANLIST=0x00000800                     /
//                          -DZDAPP_CONFIG_PAN_ID=0x1001                      /
//                          -DNWK_START_DELAY=100 -DEXTENDED_JOINING_RANDOM_M /
//                          ASK=0x007F -DBEACON_REQUEST_DELAY=100             /
//                          -DBEACON_REQ_DELAY_MASK=0x00FF                    /
//                          -DLINK_STATUS_JITTER_MASK=0x007F                  /
//                          -DROUTE_EXPIRY_TIME=30 -DAPSC_ACK_WAIT_DURATION_P /
//                          OLLED=3000 -DNWK_INDIRECT_MSG_TIMEOUT=7           /
//                          -DMAX_RREQ_ENTRIES=8 -DAPSC_MAX_FRAME_RETRIES=3   /
//                          -DNWK_MAX_DATA_RETRIES=2                          /
//                          -DMAX_POLL_FAILURE_RETRIES=2 -DMAX_BCAST=9        /
//                          -DAPS_MAX_GROUPS=16 -DMAX_RTG_ENTRIES=40          /
//                          -DNWK_MAX_BINDING_ENTRIES=4                       /
//                          -DMAX_BINDING_CLUSTER_IDS=4                       /
//                          "-DDEFAULT_KEY={0x01, 0x03, 0x05, 0x07, 0x09,     /
//                          0x0B, 0x0D, 0x0F, 0x00, 0x02, 0x04, 0x06, 0x08,   /
//                          0x0A, 0x0C, 0x0D}" -DMAC_MAX_FRAME_SIZE=116       /
//                          -DZDNWKMGR_MIN_TRANSMISSIONS=20 "-DCONST=const    /
//                          __code" -DGENERIC=__generic                       /
//                          -DRFD_RCVC_ALWAYS_ON=FALSE -DPOLL_RATE=1000       /
//                          -DQUEUED_POLL_RATE=100 -DRESPONSE_POLL_RATE=100)  /
//                          -DREJOIN_POLL_RATE=440 F:\¹âÅÌ×ÊÁÏ\ETC-WSNÎïÁªÍø¹ /
//                          âÅÌ×ÊÁÏ210\ZigBeeÍøÂç\WSN-CSÔ´Âë\ZStack-CC2530-2. /
//                          5.1a\Components\uCGUI\Core\GUI_SIF_Prop.c -D      /
//                          HAL_UART=TRUE -D SERIAL_APP_PORT=0 -D COOR -D     /
//                          LCD_SUPPORTED -D NV_INIT -lC                      /
//                          F:\¹âÅÌ×ÊÁÏ\ETC-WSNÎïÁªÍø¹âÅÌ×ÊÁÏ210\ZigBeeÍøÂç\W /
//                          SN-CSÔ´Âë\ZStack-CC2530-2.5.1a\Projects\zstack\Ut /
//                          ilities\SerialApp\CC2530DB\CoordinatorEB\List\    /
//                          -lA F:\¹âÅÌ×ÊÁÏ\ETC-WSNÎïÁªÍø¹âÅÌ×ÊÁÏ210\ZigBeeÍø /
//                          Âç\WSN-CSÔ´Âë\ZStack-CC2530-2.5.1a\Projects\zstac /
//                          k\Utilities\SerialApp\CC2530DB\CoordinatorEB\List /
//                          \ --diag_suppress Pe001,Pa010 -o                  /
//                          F:\¹âÅÌ×ÊÁÏ\ETC-WSNÎïÁªÍø¹âÅÌ×ÊÁÏ210\ZigBeeÍøÂç\W /
//                          SN-CSÔ´Âë\ZStack-CC2530-2.5.1a\Projects\zstack\Ut /
//                          ilities\SerialApp\CC2530DB\CoordinatorEB\Obj\ -e  /
//                          --no_code_motion --debug --core=plain             /
//                          --dptr=16,1 --data_model=large                    /
//                          --code_model=banked --calling_convention=xdata_re /
//                          entrant --place_constants=data_rom                /
//                          --nr_virtual_regs 16 -I                           /
//                          F:\¹âÅÌ×ÊÁÏ\ETC-WSNÎïÁªÍø¹âÅÌ×ÊÁÏ210\ZigBeeÍøÂç\W /
//                          SN-CSÔ´Âë\ZStack-CC2530-2.5.1a\Projects\zstack\Ut /
//                          ilities\SerialApp\CC2530DB\ -I                    /
//                          F:\¹âÅÌ×ÊÁÏ\ETC-WSNÎïÁªÍø¹âÅÌ×ÊÁÏ210\ZigBeeÍøÂç\W /
//                          SN-CSÔ´Âë\ZStack-CC2530-2.5.1a\Projects\zstack\Ut /
//                          ilities\SerialApp\CC2530DB\..\Public\ -I          /
//                          F:\¹âÅÌ×ÊÁÏ\ETC-WSNÎïÁªÍø¹âÅÌ×ÊÁÏ210\ZigBeeÍøÂç\W /
//                          SN-CSÔ´Âë\ZStack-CC2530-2.5.1a\Projects\zstack\Ut /
//                          ilities\SerialApp\CC2530DB\..\..\..\..\..\Compone /
//                          nts\uCGUI\Core\ -I F:\¹âÅÌ×ÊÁÏ\ETC-WSNÎïÁªÍø¹âÅÌ× /
//                          ÊÁÏ210\ZigBeeÍøÂç\WSN-CSÔ´Âë\ZStack-CC2530-2.5.1a /
//                          \Projects\zstack\Utilities\SerialApp\CC2530DB\..\ /
//                          ..\..\..\..\Components\uCGUI\MultiLayer\ -I       /
//                          F:\¹âÅÌ×ÊÁÏ\ETC-WSNÎïÁªÍø¹âÅÌ×ÊÁÏ210\ZigBeeÍøÂç\W /
//                          SN-CSÔ´Âë\ZStack-CC2530-2.5.1a\Projects\zstack\Ut /
//                          ilities\SerialApp\CC2530DB\..\..\..\..\..\Compone /
//                          nts\uCGUI\Config\ -I F:\¹âÅÌ×ÊÁÏ\ETC-WSNÎïÁªÍø¹âÅ /
//                          Ì×ÊÁÏ210\ZigBeeÍøÂç\WSN-CSÔ´Âë\ZStack-CC2530-2.5. /
//                          1a\Projects\zstack\Utilities\SerialApp\CC2530DB\. /
//                          .\Coordinator\ -I F:\¹âÅÌ×ÊÁÏ\ETC-WSNÎïÁªÍø¹âÅÌ×Ê /
//                          ÁÏ210\ZigBeeÍøÂç\WSN-CSÔ´Âë\ZStack-CC2530-2.5.1a\ /
//                          Projects\zstack\Utilities\SerialApp\CC2530DB\..\. /
//                          .\..\ZMain\TI2530DB\ -I                           /
//                          F:\¹âÅÌ×ÊÁÏ\ETC-WSNÎïÁªÍø¹âÅÌ×ÊÁÏ210\ZigBeeÍøÂç\W /
//                          SN-CSÔ´Âë\ZStack-CC2530-2.5.1a\Projects\zstack\Ut /
//                          ilities\SerialApp\CC2530DB\..\..\..\..\..\Compone /
//                          nts\hal\include\ -I F:\¹âÅÌ×ÊÁÏ\ETC-WSNÎïÁªÍø¹âÅÌ /
//                          ×ÊÁÏ210\ZigBeeÍøÂç\WSN-CSÔ´Âë\ZStack-CC2530-2.5.1 /
//                          a\Projects\zstack\Utilities\SerialApp\CC2530DB\.. /
//                          \..\..\..\..\Components\hal\target\CC2530EB\ -I   /
//                          F:\¹âÅÌ×ÊÁÏ\ETC-WSNÎïÁªÍø¹âÅÌ×ÊÁÏ210\ZigBeeÍøÂç\W /
//                          SN-CSÔ´Âë\ZStack-CC2530-2.5.1a\Projects\zstack\Ut /
//                          ilities\SerialApp\CC2530DB\..\..\..\..\..\Compone /
//                          nts\mac\include\ -I F:\¹âÅÌ×ÊÁÏ\ETC-WSNÎïÁªÍø¹âÅÌ /
//                          ×ÊÁÏ210\ZigBeeÍøÂç\WSN-CSÔ´Âë\ZStack-CC2530-2.5.1 /
//                          a\Projects\zstack\Utilities\SerialApp\CC2530DB\.. /
//                          \..\..\..\..\Components\mac\high_level\ -I        /
//                          F:\¹âÅÌ×ÊÁÏ\ETC-WSNÎïÁªÍø¹âÅÌ×ÊÁÏ210\ZigBeeÍøÂç\W /
//                          SN-CSÔ´Âë\ZStack-CC2530-2.5.1a\Projects\zstack\Ut /
//                          ilities\SerialApp\CC2530DB\..\..\..\..\..\Compone /
//                          nts\mac\low_level\srf04\ -I                       /
//                          F:\¹âÅÌ×ÊÁÏ\ETC-WSNÎïÁªÍø¹âÅÌ×ÊÁÏ210\ZigBeeÍøÂç\W /
//                          SN-CSÔ´Âë\ZStack-CC2530-2.5.1a\Projects\zstack\Ut /
//                          ilities\SerialApp\CC2530DB\..\..\..\..\..\Compone /
//                          nts\mac\low_level\srf04\single_chip\ -I           /
//                          F:\¹âÅÌ×ÊÁÏ\ETC-WSNÎïÁªÍø¹âÅÌ×ÊÁÏ210\ZigBeeÍøÂç\W /
//                          SN-CSÔ´Âë\ZStack-CC2530-2.5.1a\Projects\zstack\Ut /
//                          ilities\SerialApp\CC2530DB\..\..\..\..\..\Compone /
//                          nts\mt\ -I F:\¹âÅÌ×ÊÁÏ\ETC-WSNÎïÁªÍø¹âÅÌ×ÊÁÏ210\Z /
//                          igBeeÍøÂç\WSN-CSÔ´Âë\ZStack-CC2530-2.5.1a\Project /
//                          s\zstack\Utilities\SerialApp\CC2530DB\..\..\..\.. /
//                          \..\Components\osal\include\ -I                   /
//                          F:\¹âÅÌ×ÊÁÏ\ETC-WSNÎïÁªÍø¹âÅÌ×ÊÁÏ210\ZigBeeÍøÂç\W /
//                          SN-CSÔ´Âë\ZStack-CC2530-2.5.1a\Projects\zstack\Ut /
//                          ilities\SerialApp\CC2530DB\..\..\..\..\..\Compone /
//                          nts\services\saddr\ -I F:\¹âÅÌ×ÊÁÏ\ETC-WSNÎïÁªÍø¹ /
//                          âÅÌ×ÊÁÏ210\ZigBeeÍøÂç\WSN-CSÔ´Âë\ZStack-CC2530-2. /
//                          5.1a\Projects\zstack\Utilities\SerialApp\CC2530DB /
//                          \..\..\..\..\..\Components\services\sdata\ -I     /
//                          F:\¹âÅÌ×ÊÁÏ\ETC-WSNÎïÁªÍø¹âÅÌ×ÊÁÏ210\ZigBeeÍøÂç\W /
//                          SN-CSÔ´Âë\ZStack-CC2530-2.5.1a\Projects\zstack\Ut /
//                          ilities\SerialApp\CC2530DB\..\..\..\..\..\Compone /
//                          nts\stack\af\ -I F:\¹âÅÌ×ÊÁÏ\ETC-WSNÎïÁªÍø¹âÅÌ×ÊÁ /
//                          Ï210\ZigBeeÍøÂç\WSN-CSÔ´Âë\ZStack-CC2530-2.5.1a\P /
//                          rojects\zstack\Utilities\SerialApp\CC2530DB\..\.. /
//                          \..\..\..\Components\stack\nwk\ -I                /
//                          F:\¹âÅÌ×ÊÁÏ\ETC-WSNÎïÁªÍø¹âÅÌ×ÊÁÏ210\ZigBeeÍøÂç\W /
//                          SN-CSÔ´Âë\ZStack-CC2530-2.5.1a\Projects\zstack\Ut /
//                          ilities\SerialApp\CC2530DB\..\..\..\..\..\Compone /
//                          nts\stack\sapi\ -I F:\¹âÅÌ×ÊÁÏ\ETC-WSNÎïÁªÍø¹âÅÌ× /
//                          ÊÁÏ210\ZigBeeÍøÂç\WSN-CSÔ´Âë\ZStack-CC2530-2.5.1a /
//                          \Projects\zstack\Utilities\SerialApp\CC2530DB\..\ /
//                          ..\..\..\..\Components\stack\sec\ -I              /
//                          F:\¹âÅÌ×ÊÁÏ\ETC-WSNÎïÁªÍø¹âÅÌ×ÊÁÏ210\ZigBeeÍøÂç\W /
//                          SN-CSÔ´Âë\ZStack-CC2530-2.5.1a\Projects\zstack\Ut /
//                          ilities\SerialApp\CC2530DB\..\..\..\..\..\Compone /
//                          nts\stack\sys\ -I F:\¹âÅÌ×ÊÁÏ\ETC-WSNÎïÁªÍø¹âÅÌ×Ê /
//                          ÁÏ210\ZigBeeÍøÂç\WSN-CSÔ´Âë\ZStack-CC2530-2.5.1a\ /
//                          Projects\zstack\Utilities\SerialApp\CC2530DB\..\. /
//                          .\..\..\..\Components\stack\zdo\ -I               /
//                          F:\¹âÅÌ×ÊÁÏ\ETC-WSNÎïÁªÍø¹âÅÌ×ÊÁÏ210\ZigBeeÍøÂç\W /
//                          SN-CSÔ´Âë\ZStack-CC2530-2.5.1a\Projects\zstack\Ut /
//                          ilities\SerialApp\CC2530DB\..\..\..\..\..\Compone /
//                          nts\zmac\ -I F:\¹âÅÌ×ÊÁÏ\ETC-WSNÎïÁªÍø¹âÅÌ×ÊÁÏ210 /
//                          \ZigBeeÍøÂç\WSN-CSÔ´Âë\ZStack-CC2530-2.5.1a\Proje /
//                          cts\zstack\Utilities\SerialApp\CC2530DB\..\..\..\ /
//                          ..\..\Components\zmac\f8w\ -Ohz                   /
//                          --require_prototypes                              /
//    List file          =  F:\¹âÅÌ×ÊÁÏ\ETC-WSNÎïÁªÍø¹âÅÌ×ÊÁÏ210\ZigBeeÍøÂç\W /
//                          SN-CSÔ´Âë\ZStack-CC2530-2.5.1a\Projects\zstack\Ut /
//                          ilities\SerialApp\CC2530DB\CoordinatorEB\List\GUI /
//                          _SIF_Prop.s51                                     /
//                                                                            /
//                                                                            /
///////////////////////////////////////////////////////////////////////////////

        NAME GUI_SIF_Prop

        RTMODEL "__SystemLibrary", "CLib"
        RTMODEL "__calling_convention", "xdata_reentrant"
        RTMODEL "__code_model", "banked"
        RTMODEL "__core", "plain"
        RTMODEL "__data_model", "large"
        RTMODEL "__dptr_size", "16"
        RTMODEL "__extended_stack", "disabled"
        RTMODEL "__location_for_constants", "data"
        RTMODEL "__number_of_dptrs", "1"
        RTMODEL "__rt_version", "1"

        RSEG DOVERLAY:DATA:NOROOT(0)
        RSEG IOVERLAY:IDATA:NOROOT(0)
        RSEG ISTACK:IDATA:NOROOT(0)
        RSEG PSTACK:XDATA:NOROOT(0)
        RSEG XSTACK:XDATA:NOROOT(0)

        EXTERN ?ALLOC_XSTACK8
        EXTERN ?BANKED_ENTER_XDATA
        EXTERN ?BANKED_LEAVE_XDATA
        EXTERN ?BDISPATCH
        EXTERN ?DEALLOC_XSTACK8
        EXTERN ?PUSH_XSTACK_I_TWO
        EXTERN ?S_SHL
        EXTERN ?V0
        EXTERN ?XSP
        EXTERN ?XSTACK_DISP0_8

        FUNCTION ??_GUI_SIF_DispChar?relay,0203H
        FUNCTION ??_GUI_SIF_GetCharDistX?relay,0203H
        FUNCTION ??_GUI_SIF_GetFontInfo?relay,0203H
        FUNCTION ??_GUI_SIF_IsInFont?relay,0203H
        FUNCTION ??_GetpCharInfo?relay,0203H
        PUBLIC GUI_SIF_APIList_Prop
        FUNCTION _GUI_SIF_DispChar,021603H
        ARGFRAME XSTACK, 0, STACK
        LOCFRAME XSTACK, 38, STACK
        FUNCTION _GUI_SIF_GetCharDistX,021603H
        ARGFRAME XSTACK, 0, STACK
        LOCFRAME XSTACK, 12, STACK
        FUNCTION _GUI_SIF_GetFontInfo,021603H
        ARGFRAME XSTACK, 0, STACK
        LOCFRAME ISTACK, 1, STACK
        LOCFRAME XSTACK, 11, STACK
        FUNCTION _GUI_SIF_IsInFont,021603H
        ARGFRAME XSTACK, 0, STACK
        LOCFRAME XSTACK, 10, STACK
        FUNCTION _GetpCharInfo,021203H
        ARGFRAME XSTACK, 22, STACK
        ARGFRAME IOVERLAY, 0, STATIC
        ARGFRAME DOVERLAY, 0, STATIC
        LOCFRAME XSTACK, 20, STACK
        
        CFI Names cfiNames0
        CFI StackFrame CFA_SP SP IDATA
        CFI StackFrame CFA_PSP16 PSP16 XDATA
        CFI StackFrame CFA_XSP16 XSP16 XDATA
        CFI StaticOverlayFrame CFA_IOVERLAY IOVERLAY
        CFI StaticOverlayFrame CFA_DOVERLAY DOVERLAY
        CFI Resource `PSW.CY`:1, `B.BR0`:1, `B.BR1`:1, `B.BR2`:1, `B.BR3`:1
        CFI Resource `B.BR4`:1, `B.BR5`:1, `B.BR6`:1, `B.BR7`:1, `VB.BR8`:1
        CFI Resource `VB.BR9`:1, `VB.BR10`:1, `VB.BR11`:1, `VB.BR12`:1
        CFI Resource `VB.BR13`:1, `VB.BR14`:1, `VB.BR15`:1, VB:8, B:8, A:8
        CFI Resource PSW:8, DPL0:8, DPH0:8, R0:8, R1:8, R2:8, R3:8, R4:8, R5:8
        CFI Resource R6:8, R7:8, V0:8, V1:8, V2:8, V3:8, V4:8, V5:8, V6:8, V7:8
        CFI Resource V8:8, V9:8, V10:8, V11:8, V12:8, V13:8, V14:8, V15:8, SP:8
        CFI Resource PSPH:8, PSPL:8, PSP16:16, XSPH:8, XSPL:8, XSP16:16
        CFI VirtualResource ?RET:24
        CFI Resource ?BRET_EXT:8
        CFI VirtualResource ?RET_HIGH:8, ?RET_LOW:8
        CFI ResourceParts PSP16 PSPH, PSPL
        CFI ResourceParts XSP16 XSPH, XSPL
        CFI ResourceParts ?RET ?BRET_EXT, ?RET_HIGH, ?RET_LOW
        CFI EndNames cfiNames0
        
        CFI Common cfiCommon0 Using cfiNames0
        CFI CodeAlign 1
        CFI DataAlign -1
        CFI ReturnAddress ?RET CODE
        CFI CFA_DOVERLAY Used
        CFI CFA_IOVERLAY Used
        CFI CFA_SP SP+-3
        CFI CFA_PSP16 PSP16+0
        CFI CFA_XSP16 XSP16+0
        CFI `PSW.CY` SameValue
        CFI `B.BR0` SameValue
        CFI `B.BR1` SameValue
        CFI `B.BR2` SameValue
        CFI `B.BR3` SameValue
        CFI `B.BR4` SameValue
        CFI `B.BR5` SameValue
        CFI `B.BR6` SameValue
        CFI `B.BR7` SameValue
        CFI `VB.BR8` SameValue
        CFI `VB.BR9` SameValue
        CFI `VB.BR10` SameValue
        CFI `VB.BR11` SameValue
        CFI `VB.BR12` SameValue
        CFI `VB.BR13` SameValue
        CFI `VB.BR14` SameValue
        CFI `VB.BR15` SameValue
        CFI VB SameValue
        CFI B Undefined
        CFI A Undefined
        CFI PSW SameValue
        CFI DPL0 SameValue
        CFI DPH0 SameValue
        CFI R0 Undefined
        CFI R1 Undefined
        CFI R2 Undefined
        CFI R3 Undefined
        CFI R4 Undefined
        CFI R5 Undefined
        CFI R6 SameValue
        CFI R7 SameValue
        CFI V0 SameValue
        CFI V1 SameValue
        CFI V2 SameValue
        CFI V3 SameValue
        CFI V4 SameValue
        CFI V5 SameValue
        CFI V6 SameValue
        CFI V7 SameValue
        CFI V8 SameValue
        CFI V9 SameValue
        CFI V10 SameValue
        CFI V11 SameValue
        CFI V12 SameValue
        CFI V13 SameValue
        CFI V14 SameValue
        CFI V15 SameValue
        CFI PSPH Undefined
        CFI PSPL Undefined
        CFI XSPH Undefined
        CFI XSPL Undefined
        CFI ?RET Concat
        CFI ?BRET_EXT Frame(CFA_SP, 3)
        CFI ?RET_HIGH Frame(CFA_SP, 2)
        CFI ?RET_LOW Frame(CFA_SP, 1)
        CFI EndCommon cfiCommon0
        
        
        CFI Common cfiCommon1 Using cfiNames0
        CFI CodeAlign 1
        CFI DataAlign -1
        CFI ReturnAddress ?RET CODE
        CFI CFA_DOVERLAY Used
        CFI CFA_IOVERLAY Used
        CFI CFA_SP SP+-2
        CFI CFA_PSP16 PSP16+0
        CFI CFA_XSP16 XSP16+0
        CFI `PSW.CY` SameValue
        CFI `B.BR0` SameValue
        CFI `B.BR1` SameValue
        CFI `B.BR2` SameValue
        CFI `B.BR3` SameValue
        CFI `B.BR4` SameValue
        CFI `B.BR5` SameValue
        CFI `B.BR6` SameValue
        CFI `B.BR7` SameValue
        CFI `VB.BR8` SameValue
        CFI `VB.BR9` SameValue
        CFI `VB.BR10` SameValue
        CFI `VB.BR11` SameValue
        CFI `VB.BR12` SameValue
        CFI `VB.BR13` SameValue
        CFI `VB.BR14` SameValue
        CFI `VB.BR15` SameValue
        CFI VB SameValue
        CFI B SameValue
        CFI A SameValue
        CFI PSW SameValue
        CFI DPL0 SameValue
        CFI DPH0 SameValue
        CFI R0 SameValue
        CFI R1 SameValue
        CFI R2 SameValue
        CFI R3 SameValue
        CFI R4 SameValue
        CFI R5 SameValue
        CFI R6 SameValue
        CFI R7 SameValue
        CFI V0 SameValue
        CFI V1 SameValue
        CFI V2 SameValue
        CFI V3 SameValue
        CFI V4 SameValue
        CFI V5 SameValue
        CFI V6 SameValue
        CFI V7 SameValue
        CFI V8 SameValue
        CFI V9 SameValue
        CFI V10 SameValue
        CFI V11 SameValue
        CFI V12 SameValue
        CFI V13 SameValue
        CFI V14 SameValue
        CFI V15 SameValue
        CFI PSPH Undefined
        CFI PSPL Undefined
        CFI XSPH Undefined
        CFI XSPL Undefined
        CFI ?RET Concat
        CFI ?BRET_EXT SameValue
        CFI ?RET_HIGH Frame(CFA_SP, 2)
        CFI ?RET_LOW Frame(CFA_SP, 1)
        CFI EndCommon cfiCommon1
        
GUI__Read16         SYMBOL "GUI__Read16"
GUI__Read32         SYMBOL "GUI__Read32"
LCD_SetDrawMode     SYMBOL "LCD_SetDrawMode"
LCD_DrawBitmap      SYMBOL "LCD_DrawBitmap"
GUI_GetColor        SYMBOL "GUI_GetColor"
GUI_GetBkColor      SYMBOL "GUI_GetBkColor"
GUI_SetColor        SYMBOL "GUI_SetColor"
LCD_FillRect        SYMBOL "LCD_FillRect"
??GUI_GetBkColor?relay SYMBOL "?relay", GUI_GetBkColor
??GUI_GetColor?relay SYMBOL "?relay", GUI_GetColor
??GUI_SetColor?relay SYMBOL "?relay", GUI_SetColor
??GUI__Read16?relay SYMBOL "?relay", GUI__Read16
??GUI__Read32?relay SYMBOL "?relay", GUI__Read32
??LCD_DrawBitmap?relay SYMBOL "?relay", LCD_DrawBitmap
??LCD_FillRect?relay SYMBOL "?relay", LCD_FillRect
??LCD_SetDrawMode?relay SYMBOL "?relay", LCD_SetDrawMode

        EXTERN GUI__Read16
        FUNCTION GUI__Read16,0202H
        ARGFRAME ISTACK, 0, STACK
        ARGFRAME PSTACK, 0, STACK
        ARGFRAME XSTACK, 22, STACK
        ARGFRAME IOVERLAY, 0, STATIC
        ARGFRAME DOVERLAY, 0, STATIC
        EXTERN GUI__Read32
        FUNCTION GUI__Read32,0202H
        ARGFRAME ISTACK, 0, STACK
        ARGFRAME PSTACK, 0, STACK
        ARGFRAME XSTACK, 22, STACK
        ARGFRAME IOVERLAY, 0, STATIC
        ARGFRAME DOVERLAY, 0, STATIC
        EXTERN LCD_SetDrawMode
        FUNCTION LCD_SetDrawMode,0202H
        ARGFRAME ISTACK, 0, STACK
        ARGFRAME PSTACK, 0, STACK
        ARGFRAME XSTACK, 22, STACK
        ARGFRAME IOVERLAY, 0, STATIC
        ARGFRAME DOVERLAY, 0, STATIC
        EXTERN LCD_DrawBitmap
        FUNCTION LCD_DrawBitmap,0202H
        ARGFRAME ISTACK, 0, STACK
        ARGFRAME PSTACK, 0, STACK
        ARGFRAME XSTACK, 38, STACK
        ARGFRAME IOVERLAY, 0, STATIC
        ARGFRAME DOVERLAY, 0, STATIC
        EXTERN GUI_GetColor
        FUNCTION GUI_GetColor,0202H
        ARGFRAME ISTACK, 0, STACK
        ARGFRAME PSTACK, 0, STACK
        ARGFRAME XSTACK, 22, STACK
        ARGFRAME IOVERLAY, 0, STATIC
        ARGFRAME DOVERLAY, 0, STATIC
        EXTERN GUI_GetBkColor
        FUNCTION GUI_GetBkColor,0202H
        ARGFRAME ISTACK, 0, STACK
        ARGFRAME PSTACK, 0, STACK
        ARGFRAME XSTACK, 22, STACK
        ARGFRAME IOVERLAY, 0, STATIC
        ARGFRAME DOVERLAY, 0, STATIC
        EXTERN GUI_SetColor
        FUNCTION GUI_SetColor,0202H
        ARGFRAME ISTACK, 0, STACK
        ARGFRAME PSTACK, 0, STACK
        ARGFRAME XSTACK, 22, STACK
        ARGFRAME IOVERLAY, 0, STATIC
        ARGFRAME DOVERLAY, 0, STATIC
        EXTERN LCD_FillRect
        FUNCTION LCD_FillRect,0202H
        ARGFRAME ISTACK, 0, STACK
        ARGFRAME PSTACK, 0, STACK
        ARGFRAME XSTACK, 26, STACK
        ARGFRAME IOVERLAY, 0, STATIC
        ARGFRAME DOVERLAY, 0, STATIC
        EXTERN ??GUI_GetBkColor?relay
        FUNCTION ??GUI_GetBkColor?relay,00H
        EXTERN ??GUI_GetColor?relay
        FUNCTION ??GUI_GetColor?relay,00H
        EXTERN ??GUI_SetColor?relay
        FUNCTION ??GUI_SetColor?relay,00H
        EXTERN ??GUI__Read16?relay
        FUNCTION ??GUI__Read16?relay,00H
        EXTERN ??GUI__Read32?relay
        FUNCTION ??GUI__Read32?relay,00H
        EXTERN ??LCD_DrawBitmap?relay
        FUNCTION ??LCD_DrawBitmap?relay,00H
        EXTERN ??LCD_FillRect?relay
        FUNCTION ??LCD_FillRect?relay,00H
        EXTERN ??LCD_SetDrawMode?relay
        FUNCTION ??LCD_SetDrawMode?relay,00H
        EXTERN GUI_Context

// F:\¹âÅÌ×ÊÁÏ\ETC-WSNÎïÁªÍø¹âÅÌ×ÊÁÏ210\ZigBeeÍøÂç\WSN-CSÔ´Âë\ZStack-CC2530-2.5.1a\Components\uCGUI\Core\GUI_SIF_Prop.c
//    1 /*
//    2 *********************************************************************************************************
//    3 *                                                uC/GUI
//    4 *                        Universal graphic software for embedded applications
//    5 *
//    6 *                       (c) Copyright 2002, Micrium Inc., Weston, FL
//    7 *                       (c) Copyright 2002, SEGGER Microcontroller Systeme GmbH
//    8 *
//    9 *              µC/GUI is protected by international copyright laws. Knowledge of the
//   10 *              source code may not be used to write a similar product. This file may
//   11 *              only be used in accordance with a license and should not be redistributed
//   12 *              in any way. We appreciate your understanding and fairness.
//   13 *
//   14 ----------------------------------------------------------------------
//   15 File        : GUI_SIF_Prop.c
//   16 Purpose     : Implementation of system independend fonts
//   17 ---------------------------END-OF-HEADER------------------------------
//   18 */
//   19 
//   20 #include "GUI_Private.h"
//   21 
//   22 /*********************************************************************
//   23 *
//   24 *       Static code
//   25 *
//   26 **********************************************************************
//   27 */
//   28 
//   29 /*********************************************************************
//   30 *
//   31 *       _GetNumCharAreas
//   32 */
//   33 static int _GetNumCharAreas(const GUI_FONT GUI_UNI_PTR * pFont) {
//   34   U16 NumCharAreas;
//   35   const U8 * pData;
//   36   pData = (const U8 *)pFont->p.pFontData + 14 /* Skip ID, YSize, YDist, Baseline, LHeight and CHeight */;
//   37   NumCharAreas = GUI__Read16(&pData);
//   38   return NumCharAreas;
//   39 }
//   40 
//   41 /*********************************************************************
//   42 *
//   43 *       _GetpCharInfo
//   44 */

        RSEG BANKED_CODE:CODE:NOROOT(0)
//   45 static const U8 * _GetpCharInfo(const GUI_FONT GUI_UNI_PTR * pFont, U16P c) {
_GetpCharInfo:
        CFI Block cfiBlock0 Using cfiCommon0
        CFI Function _GetpCharInfo
        CODE
        FUNCALL _GetpCharInfo, GUI__Read16
        LOCFRAME ISTACK, 0, STACK
        LOCFRAME PSTACK, 0, STACK
        LOCFRAME XSTACK, 20, STACK
        LOCFRAME IOVERLAY, 0, STATIC
        LOCFRAME DOVERLAY, 0, STATIC
        ARGFRAME ISTACK, 0, STACK
        ARGFRAME PSTACK, 0, STACK
        ARGFRAME XSTACK, 20, STACK
        ARGFRAME IOVERLAY, 0, STATIC
        ARGFRAME DOVERLAY, 0, STATIC
        FUNCALL _GetpCharInfo, GUI__Read16
        LOCFRAME ISTACK, 0, STACK
        LOCFRAME PSTACK, 0, STACK
        LOCFRAME XSTACK, 20, STACK
        LOCFRAME IOVERLAY, 0, STATIC
        LOCFRAME DOVERLAY, 0, STATIC
        ARGFRAME ISTACK, 0, STACK
        ARGFRAME PSTACK, 0, STACK
        ARGFRAME XSTACK, 20, STACK
        ARGFRAME IOVERLAY, 0, STATIC
        ARGFRAME DOVERLAY, 0, STATIC
        FUNCALL _GetpCharInfo, GUI__Read16
        LOCFRAME ISTACK, 0, STACK
        LOCFRAME PSTACK, 0, STACK
        LOCFRAME XSTACK, 20, STACK
        LOCFRAME IOVERLAY, 0, STATIC
        LOCFRAME DOVERLAY, 0, STATIC
        ARGFRAME ISTACK, 0, STACK
        ARGFRAME PSTACK, 0, STACK
        ARGFRAME XSTACK, 20, STACK
        ARGFRAME IOVERLAY, 0, STATIC
        ARGFRAME DOVERLAY, 0, STATIC
        MOV     A,#-0x10
        LCALL   ?BANKED_ENTER_XDATA
        CFI DPH0 load(1, XDATA, add(CFA_XSP16, literal(-1)))
        CFI DPL0 load(1, XDATA, add(CFA_XSP16, literal(-2)))
        CFI ?BRET_EXT load(1, XDATA, add(CFA_XSP16, literal(-3)))
        CFI ?RET_HIGH load(1, XDATA, add(CFA_XSP16, literal(-4)))
        CFI ?RET_LOW load(1, XDATA, add(CFA_XSP16, literal(-5)))
        CFI R7 load(1, XDATA, add(CFA_XSP16, literal(-6)))
        CFI V7 load(1, XDATA, add(CFA_XSP16, literal(-7)))
        CFI V6 load(1, XDATA, add(CFA_XSP16, literal(-8)))
        CFI V5 load(1, XDATA, add(CFA_XSP16, literal(-9)))
        CFI V4 load(1, XDATA, add(CFA_XSP16, literal(-10)))
        CFI V3 load(1, XDATA, add(CFA_XSP16, literal(-11)))
        CFI V2 load(1, XDATA, add(CFA_XSP16, literal(-12)))
        CFI V1 load(1, XDATA, add(CFA_XSP16, literal(-13)))
        CFI V0 load(1, XDATA, add(CFA_XSP16, literal(-14)))
        CFI VB load(1, XDATA, add(CFA_XSP16, literal(-15)))
        CFI R6 load(1, XDATA, add(CFA_XSP16, literal(-16)))
        CFI CFA_SP SP+0
        CFI CFA_XSP16 add(XSP16, 16)
        ; Saved register size: 16
        ; Auto size: 4
        MOV     A,#-0x4
        LCALL   ?ALLOC_XSTACK8
        CFI CFA_XSP16 add(XSP16, 20)
        MOV     ?V0 + 2,R4
        MOV     ?V0 + 3,R5
//   46   const U8 * pCharArea, * pCharInfo;
//   47   int NumCharAreas;
//   48   NumCharAreas = _GetNumCharAreas(pFont);                 /* Get # of char areas */
        MOV     A,R2
        ADD     A,#0xe
        MOV     R0,A
        MOV     A,R3
        ADDC    A,#0x0
        MOV     R1,A
        MOV     ?V0 + 0,R0
        MOV     ?V0 + 1,R1
        MOV     DPL,R0
        MOV     DPH,A
        LCALL   ?Subroutine5 & 0xFFFF
??CrossCallReturnLabel_8:
        MOV     A,#0x2
        LCALL   ?XSTACK_DISP0_8
        MOV     A,R0
        MOVX    @DPTR,A
        INC     DPTR
        MOV     A,R1
        MOVX    @DPTR,A
        ; Setup parameters for call to function GUI__Read16
        MOV     A,#0x2
        LCALL   ?XSTACK_DISP0_8
        MOV     R2,DPL
        MOV     R3,DPH
        LCALL   ??GUI__Read16?relay
        MOV     ?V0 + 4,R2
        MOV     ?V0 + 5,R3
        MOV     R6,?V0 + 4
        MOV     R7,?V0 + 5
//   49   pCharArea = (const U8 *)pFont->p.pFontData 
//   50               + sizeof(GUI_SI_FONT);                      /* Set char area pointer to first char area */
        MOV     DPL,?V0 + 0
        MOV     DPH,?V0 + 1
        MOVX    A,@DPTR
        ADD     A,#0x10
        MOV     R0,A
        LCALL   ?Subroutine9 & 0xFFFF
??CrossCallReturnLabel_14:
        MOVX    @DPTR,A
//   51   pCharInfo = pCharArea
//   52               + sizeof(GUI_SIF_CHAR_AREA) * NumCharAreas; /* Set char info pointer to first character info */
        MOV     ?V0 + 0,R6
        MOV     ?V0 + 1,R7
        MOV     A,#0x2
        MOV     R0,#?V0 + 0
        LCALL   ?S_SHL
        MOV     DPL,?XSP + 0
        MOV     DPH,?XSP + 1
        MOVX    A,@DPTR
        ADD     A,?V0 + 0
        MOV     ?V0 + 0,A
        INC     DPTR
        MOVX    A,@DPTR
        ADDC    A,?V0 + 1
        MOV     ?V0 + 1,A
//   53   do {
//   54     GUI_SIF_CHAR_AREA CharArea;
//   55     CharArea.First    = GUI__Read16(&pCharArea);
??_GetpCharInfo_0:
        ; Setup parameters for call to function GUI__Read16
        MOV     DPL,?XSP + 0
        MOV     DPH,?XSP + 1
        MOV     R2,DPL
        MOV     R3,DPH
        LCALL   ??GUI__Read16?relay
        MOV     ?V0 + 4,R2
        MOV     ?V0 + 5,R3
//   56     CharArea.Last     = GUI__Read16(&pCharArea);
        ; Setup parameters for call to function GUI__Read16
        MOV     DPL,?XSP + 0
        MOV     DPH,?XSP + 1
        MOV     R2,DPL
        MOV     R3,DPH
        LCALL   ??GUI__Read16?relay
        MOV     ?V0 + 6,R2
        MOV     ?V0 + 7,R3
        MOV     R0,?V0 + 6
        MOV     R1,?V0 + 7
//   57     if ((c >= CharArea.First) && (c <= CharArea.Last)) {
        CLR     C
        MOV     A,?V0 + 2
        SUBB    A,?V0 + 4
        MOV     A,?V0 + 3
        SUBB    A,?V0 + 5
        JC      ??_GetpCharInfo_1
        CLR     C
        MOV     A,R0
        SUBB    A,?V0 + 2
        MOV     A,R1
        SUBB    A,?V0 + 3
        JC      ??_GetpCharInfo_1
//   58       pCharInfo += sizeof(GUI_SIF_CHARINFO) * (c - CharArea.First);
//   59       return pCharInfo;
        MOV     A,?V0 + 2
        CLR     C
        SUBB    A,?V0 + 4
        MOV     R0,A
        MOV     A,?V0 + 3
        LCALL   ?Subroutine7 & 0xFFFF
//   60     }
??CrossCallReturnLabel_10:
        MOV     R2,A
        MOV     A,?V0 + 1
        ADDC    A,R1
        MOV     R3,A
        SJMP    ??_GetpCharInfo_2
//   61     pCharInfo += sizeof(GUI_SIF_CHARINFO) * (CharArea.Last - CharArea.First + 1);
??_GetpCharInfo_1:
        MOV     A,R0
        CLR     C
        SUBB    A,?V0 + 4
        MOV     R0,A
        MOV     A,R1
        LCALL   ?Subroutine7 & 0xFFFF
//   62   } while(--NumCharAreas);
??CrossCallReturnLabel_11:
        MOV     R0,A
        MOV     A,?V0 + 1
        ADDC    A,R1
        MOV     R1,A
        MOV     A,R0
        ADD     A,#0xc
        MOV     ?V0 + 0,A
        MOV     A,R1
        ADDC    A,#0x0
        MOV     ?V0 + 1,A
        MOV     A,R6
        ADD     A,#-0x1
        DEC     R6
        MOV     A,R7
        ADDC    A,#-0x1
        MOV     R7,A
        MOV     A,R6
        ORL     A,R7
        JNZ     ??_GetpCharInfo_0
//   63   return 0;
        MOV     R2,#0x0
        MOV     R3,#0x0
??_GetpCharInfo_2:
        MOV     A,#0x4
        LCALL   ?DEALLOC_XSTACK8
        CFI CFA_XSP16 add(XSP16, 16)
        MOV     R7,#0x8
        LJMP    ?BANKED_LEAVE_XDATA
        CFI EndBlock cfiBlock0
//   64 }

        RSEG BANKED_CODE:CODE:NOROOT(0)
?Subroutine7:
        CFI Block cfiCond1 Using cfiCommon0
        CFI NoFunction
        CFI Conditional ??CrossCallReturnLabel_10
        CFI R6 load(1, XDATA, add(CFA_XSP16, literal(-16)))
        CFI VB load(1, XDATA, add(CFA_XSP16, literal(-15)))
        CFI V0 load(1, XDATA, add(CFA_XSP16, literal(-14)))
        CFI V1 load(1, XDATA, add(CFA_XSP16, literal(-13)))
        CFI V2 load(1, XDATA, add(CFA_XSP16, literal(-12)))
        CFI V3 load(1, XDATA, add(CFA_XSP16, literal(-11)))
        CFI V4 load(1, XDATA, add(CFA_XSP16, literal(-10)))
        CFI V5 load(1, XDATA, add(CFA_XSP16, literal(-9)))
        CFI V6 load(1, XDATA, add(CFA_XSP16, literal(-8)))
        CFI V7 load(1, XDATA, add(CFA_XSP16, literal(-7)))
        CFI R7 load(1, XDATA, add(CFA_XSP16, literal(-6)))
        CFI ?RET_LOW load(1, XDATA, add(CFA_XSP16, literal(-5)))
        CFI ?RET_HIGH load(1, XDATA, add(CFA_XSP16, literal(-4)))
        CFI ?BRET_EXT load(1, XDATA, add(CFA_XSP16, literal(-3)))
        CFI DPL0 load(1, XDATA, add(CFA_XSP16, literal(-2)))
        CFI DPH0 load(1, XDATA, add(CFA_XSP16, literal(-1)))
        CFI CFA_SP SP+0
        CFI CFA_XSP16 add(XSP16, 20)
        CFI Block cfiCond2 Using cfiCommon0
        CFI (cfiCond2) NoFunction
        CFI (cfiCond2) Conditional ??CrossCallReturnLabel_11
        CFI (cfiCond2) R6 load(1, XDATA, add(CFA_XSP16, literal(-16)))
        CFI (cfiCond2) VB load(1, XDATA, add(CFA_XSP16, literal(-15)))
        CFI (cfiCond2) V0 load(1, XDATA, add(CFA_XSP16, literal(-14)))
        CFI (cfiCond2) V1 load(1, XDATA, add(CFA_XSP16, literal(-13)))
        CFI (cfiCond2) V2 load(1, XDATA, add(CFA_XSP16, literal(-12)))
        CFI (cfiCond2) V3 load(1, XDATA, add(CFA_XSP16, literal(-11)))
        CFI (cfiCond2) V4 load(1, XDATA, add(CFA_XSP16, literal(-10)))
        CFI (cfiCond2) V5 load(1, XDATA, add(CFA_XSP16, literal(-9)))
        CFI (cfiCond2) V6 load(1, XDATA, add(CFA_XSP16, literal(-8)))
        CFI (cfiCond2) V7 load(1, XDATA, add(CFA_XSP16, literal(-7)))
        CFI (cfiCond2) R7 load(1, XDATA, add(CFA_XSP16, literal(-6)))
        CFI (cfiCond2) ?RET_LOW load(1, XDATA, add(CFA_XSP16, literal(-5)))
        CFI (cfiCond2) ?RET_HIGH load(1, XDATA, add(CFA_XSP16, literal(-4)))
        CFI (cfiCond2) ?BRET_EXT load(1, XDATA, add(CFA_XSP16, literal(-3)))
        CFI (cfiCond2) DPL0 load(1, XDATA, add(CFA_XSP16, literal(-2)))
        CFI (cfiCond2) DPH0 load(1, XDATA, add(CFA_XSP16, literal(-1)))
        CFI (cfiCond2) CFA_SP SP+0
        CFI (cfiCond2) CFA_XSP16 add(XSP16, 20)
        CFI Block cfiPicker3 Using cfiCommon1
        CFI (cfiPicker3) NoFunction
        CFI (cfiPicker3) Picker
        SUBB    A,?V0 + 5
        MOV     R1,A
        MOV     A,R0
        MOV     B,#0xc
        MUL     AB
        MOV     R0,A
        MOV     R2,B
        MOV     B,#0xc
        MOV     A,R1
        MUL     AB
        ADD     A,R2
        MOV     R1,A
        MOV     A,?V0 + 0
        ADD     A,R0
        RET
        CFI EndBlock cfiCond1
        CFI EndBlock cfiCond2
        CFI EndBlock cfiPicker3
//   65 
//   66 /*********************************************************************
//   67 *
//   68 *       Exported code
//   69 *
//   70 **********************************************************************
//   71 */
//   72 
//   73 /*********************************************************************
//   74 *
//   75 *       GUI_SIF_DispChar
//   76 */

        RSEG BANKED_CODE:CODE:NOROOT(0)
//   77 static void _GUI_SIF_DispChar(U16P c) {
_GUI_SIF_DispChar:
        CFI Block cfiBlock4 Using cfiCommon0
        CFI Function _GUI_SIF_DispChar
        CODE
        FUNCALL _GUI_SIF_DispChar, _GetpCharInfo
        LOCFRAME ISTACK, 0, STACK
        LOCFRAME PSTACK, 0, STACK
        LOCFRAME XSTACK, 22, STACK
        LOCFRAME IOVERLAY, 0, STATIC
        LOCFRAME DOVERLAY, 0, STATIC
        ARGFRAME ISTACK, 0, STACK
        ARGFRAME PSTACK, 0, STACK
        ARGFRAME XSTACK, 22, STACK
        ARGFRAME IOVERLAY, 0, STATIC
        ARGFRAME DOVERLAY, 0, STATIC
        FUNCALL _GUI_SIF_DispChar, GUI__Read16
        LOCFRAME ISTACK, 0, STACK
        LOCFRAME PSTACK, 0, STACK
        LOCFRAME XSTACK, 22, STACK
        LOCFRAME IOVERLAY, 0, STATIC
        LOCFRAME DOVERLAY, 0, STATIC
        ARGFRAME ISTACK, 0, STACK
        ARGFRAME PSTACK, 0, STACK
        ARGFRAME XSTACK, 22, STACK
        ARGFRAME IOVERLAY, 0, STATIC
        ARGFRAME DOVERLAY, 0, STATIC
        FUNCALL _GUI_SIF_DispChar, GUI__Read16
        LOCFRAME ISTACK, 0, STACK
        LOCFRAME PSTACK, 0, STACK
        LOCFRAME XSTACK, 22, STACK
        LOCFRAME IOVERLAY, 0, STATIC
        LOCFRAME DOVERLAY, 0, STATIC
        ARGFRAME ISTACK, 0, STACK
        ARGFRAME PSTACK, 0, STACK
        ARGFRAME XSTACK, 22, STACK
        ARGFRAME IOVERLAY, 0, STATIC
        ARGFRAME DOVERLAY, 0, STATIC
        FUNCALL _GUI_SIF_DispChar, GUI__Read16
        LOCFRAME ISTACK, 0, STACK
        LOCFRAME PSTACK, 0, STACK
        LOCFRAME XSTACK, 22, STACK
        LOCFRAME IOVERLAY, 0, STATIC
        LOCFRAME DOVERLAY, 0, STATIC
        ARGFRAME ISTACK, 0, STACK
        ARGFRAME PSTACK, 0, STACK
        ARGFRAME XSTACK, 22, STACK
        ARGFRAME IOVERLAY, 0, STATIC
        ARGFRAME DOVERLAY, 0, STATIC
        FUNCALL _GUI_SIF_DispChar, GUI__Read16
        LOCFRAME ISTACK, 0, STACK
        LOCFRAME PSTACK, 0, STACK
        LOCFRAME XSTACK, 22, STACK
        LOCFRAME IOVERLAY, 0, STATIC
        LOCFRAME DOVERLAY, 0, STATIC
        ARGFRAME ISTACK, 0, STACK
        ARGFRAME PSTACK, 0, STACK
        ARGFRAME XSTACK, 22, STACK
        ARGFRAME IOVERLAY, 0, STATIC
        ARGFRAME DOVERLAY, 0, STATIC
        FUNCALL _GUI_SIF_DispChar, GUI__Read32
        LOCFRAME ISTACK, 0, STACK
        LOCFRAME PSTACK, 0, STACK
        LOCFRAME XSTACK, 22, STACK
        LOCFRAME IOVERLAY, 0, STATIC
        LOCFRAME DOVERLAY, 0, STATIC
        ARGFRAME ISTACK, 0, STACK
        ARGFRAME PSTACK, 0, STACK
        ARGFRAME XSTACK, 22, STACK
        ARGFRAME IOVERLAY, 0, STATIC
        ARGFRAME DOVERLAY, 0, STATIC
        FUNCALL _GUI_SIF_DispChar, LCD_SetDrawMode
        LOCFRAME ISTACK, 0, STACK
        LOCFRAME PSTACK, 0, STACK
        LOCFRAME XSTACK, 22, STACK
        LOCFRAME IOVERLAY, 0, STATIC
        LOCFRAME DOVERLAY, 0, STATIC
        ARGFRAME ISTACK, 0, STACK
        ARGFRAME PSTACK, 0, STACK
        ARGFRAME XSTACK, 22, STACK
        ARGFRAME IOVERLAY, 0, STATIC
        ARGFRAME DOVERLAY, 0, STATIC
        FUNCALL _GUI_SIF_DispChar, LCD_DrawBitmap
        LOCFRAME ISTACK, 0, STACK
        LOCFRAME PSTACK, 0, STACK
        LOCFRAME XSTACK, 38, STACK
        LOCFRAME IOVERLAY, 0, STATIC
        LOCFRAME DOVERLAY, 0, STATIC
        ARGFRAME ISTACK, 0, STACK
        ARGFRAME PSTACK, 0, STACK
        ARGFRAME XSTACK, 38, STACK
        ARGFRAME IOVERLAY, 0, STATIC
        ARGFRAME DOVERLAY, 0, STATIC
        FUNCALL _GUI_SIF_DispChar, GUI_GetColor
        LOCFRAME ISTACK, 0, STACK
        LOCFRAME PSTACK, 0, STACK
        LOCFRAME XSTACK, 22, STACK
        LOCFRAME IOVERLAY, 0, STATIC
        LOCFRAME DOVERLAY, 0, STATIC
        ARGFRAME ISTACK, 0, STACK
        ARGFRAME PSTACK, 0, STACK
        ARGFRAME XSTACK, 22, STACK
        ARGFRAME IOVERLAY, 0, STATIC
        ARGFRAME DOVERLAY, 0, STATIC
        FUNCALL _GUI_SIF_DispChar, GUI_GetBkColor
        LOCFRAME ISTACK, 0, STACK
        LOCFRAME PSTACK, 0, STACK
        LOCFRAME XSTACK, 22, STACK
        LOCFRAME IOVERLAY, 0, STATIC
        LOCFRAME DOVERLAY, 0, STATIC
        ARGFRAME ISTACK, 0, STACK
        ARGFRAME PSTACK, 0, STACK
        ARGFRAME XSTACK, 22, STACK
        ARGFRAME IOVERLAY, 0, STATIC
        ARGFRAME DOVERLAY, 0, STATIC
        FUNCALL _GUI_SIF_DispChar, GUI_SetColor
        LOCFRAME ISTACK, 0, STACK
        LOCFRAME PSTACK, 0, STACK
        LOCFRAME XSTACK, 22, STACK
        LOCFRAME IOVERLAY, 0, STATIC
        LOCFRAME DOVERLAY, 0, STATIC
        ARGFRAME ISTACK, 0, STACK
        ARGFRAME PSTACK, 0, STACK
        ARGFRAME XSTACK, 22, STACK
        ARGFRAME IOVERLAY, 0, STATIC
        ARGFRAME DOVERLAY, 0, STATIC
        FUNCALL _GUI_SIF_DispChar, LCD_FillRect
        LOCFRAME ISTACK, 0, STACK
        LOCFRAME PSTACK, 0, STACK
        LOCFRAME XSTACK, 26, STACK
        LOCFRAME IOVERLAY, 0, STATIC
        LOCFRAME DOVERLAY, 0, STATIC
        ARGFRAME ISTACK, 0, STACK
        ARGFRAME PSTACK, 0, STACK
        ARGFRAME XSTACK, 26, STACK
        ARGFRAME IOVERLAY, 0, STATIC
        ARGFRAME DOVERLAY, 0, STATIC
        FUNCALL _GUI_SIF_DispChar, GUI_SetColor
        LOCFRAME ISTACK, 0, STACK
        LOCFRAME PSTACK, 0, STACK
        LOCFRAME XSTACK, 22, STACK
        LOCFRAME IOVERLAY, 0, STATIC
        LOCFRAME DOVERLAY, 0, STATIC
        ARGFRAME ISTACK, 0, STACK
        ARGFRAME PSTACK, 0, STACK
        ARGFRAME XSTACK, 22, STACK
        ARGFRAME IOVERLAY, 0, STATIC
        ARGFRAME DOVERLAY, 0, STATIC
        FUNCALL _GUI_SIF_DispChar, LCD_SetDrawMode
        LOCFRAME ISTACK, 0, STACK
        LOCFRAME PSTACK, 0, STACK
        LOCFRAME XSTACK, 22, STACK
        LOCFRAME IOVERLAY, 0, STATIC
        LOCFRAME DOVERLAY, 0, STATIC
        ARGFRAME ISTACK, 0, STACK
        ARGFRAME PSTACK, 0, STACK
        ARGFRAME XSTACK, 22, STACK
        ARGFRAME IOVERLAY, 0, STATIC
        ARGFRAME DOVERLAY, 0, STATIC
        MOV     A,#-0x14
        LCALL   ?BANKED_ENTER_XDATA
        CFI DPH0 load(1, XDATA, add(CFA_XSP16, literal(-1)))
        CFI DPL0 load(1, XDATA, add(CFA_XSP16, literal(-2)))
        CFI ?BRET_EXT load(1, XDATA, add(CFA_XSP16, literal(-3)))
        CFI ?RET_HIGH load(1, XDATA, add(CFA_XSP16, literal(-4)))
        CFI ?RET_LOW load(1, XDATA, add(CFA_XSP16, literal(-5)))
        CFI R7 load(1, XDATA, add(CFA_XSP16, literal(-6)))
        CFI V11 load(1, XDATA, add(CFA_XSP16, literal(-7)))
        CFI V10 load(1, XDATA, add(CFA_XSP16, literal(-8)))
        CFI V9 load(1, XDATA, add(CFA_XSP16, literal(-9)))
        CFI V8 load(1, XDATA, add(CFA_XSP16, literal(-10)))
        CFI V7 load(1, XDATA, add(CFA_XSP16, literal(-11)))
        CFI V6 load(1, XDATA, add(CFA_XSP16, literal(-12)))
        CFI V5 load(1, XDATA, add(CFA_XSP16, literal(-13)))
        CFI V4 load(1, XDATA, add(CFA_XSP16, literal(-14)))
        CFI V3 load(1, XDATA, add(CFA_XSP16, literal(-15)))
        CFI V2 load(1, XDATA, add(CFA_XSP16, literal(-16)))
        CFI V1 load(1, XDATA, add(CFA_XSP16, literal(-17)))
        CFI V0 load(1, XDATA, add(CFA_XSP16, literal(-18)))
        CFI VB load(1, XDATA, add(CFA_XSP16, literal(-19)))
        CFI R6 load(1, XDATA, add(CFA_XSP16, literal(-20)))
        CFI CFA_SP SP+0
        CFI CFA_XSP16 add(XSP16, 20)
        ; Saved register size: 20
        ; Auto size: 2
        MOV     A,#-0x2
        LCALL   ?ALLOC_XSTACK8
        CFI CFA_XSP16 add(XSP16, 22)
//   78   const U8 * pCharInfo, * pData;
//   79   pCharInfo = _GetpCharInfo(GUI_Context.pAFont, c);
        ; Setup parameters for call to function _GetpCharInfo
        LCALL   ?Subroutine1 & 0xFFFF
//   80   if (pCharInfo) {
??CrossCallReturnLabel_0:
        JNZ     $+5
        LJMP    ??_GUI_SIF_DispChar_0 & 0xFFFF
//   81     GUI_DRAWMODE DrawMode, OldDrawMode;
//   82     GUI_SIF_CHARINFO CharInfo;
//   83     CharInfo.XSize        = GUI__Read16(&pCharInfo);
        ; Setup parameters for call to function GUI__Read16
        MOV     DPL,?XSP + 0
        MOV     DPH,?XSP + 1
        MOV     R2,DPL
        MOV     R3,DPH
        LCALL   ??GUI__Read16?relay
        MOV     ?V0 + 0,R2
        MOV     ?V0 + 1,R3
        MOV     R6,?V0 + 0
        MOV     R7,?V0 + 1
//   84     CharInfo.XDist        = GUI__Read16(&pCharInfo);
        ; Setup parameters for call to function GUI__Read16
        MOV     DPL,?XSP + 0
        MOV     DPH,?XSP + 1
        MOV     R2,DPL
        MOV     R3,DPH
        LCALL   ??GUI__Read16?relay
        MOV     ?V0 + 10,R2
        MOV     ?V0 + 11,R3
//   85     CharInfo.BytesPerLine = GUI__Read16(&pCharInfo);
        ; Setup parameters for call to function GUI__Read16
        MOV     DPL,?XSP + 0
        MOV     DPH,?XSP + 1
        MOV     R2,DPL
        MOV     R3,DPH
        LCALL   ??GUI__Read16?relay
        MOV     ?V0 + 2,R2
        MOV     ?V0 + 3,R3
//   86                             GUI__Read16(&pCharInfo); /* Dummy */
        ; Setup parameters for call to function GUI__Read16
        MOV     DPL,?XSP + 0
        MOV     DPH,?XSP + 1
        MOV     R2,DPL
        MOV     R3,DPH
        LCALL   ??GUI__Read16?relay
//   87     CharInfo.OffData      = GUI__Read32(&pCharInfo);
        ; Setup parameters for call to function GUI__Read32
        MOV     DPL,?XSP + 0
        MOV     DPH,?XSP + 1
        MOV     R2,DPL
        MOV     R3,DPH
        LCALL   ??GUI__Read32?relay
//   88     pData = (const U8 *)GUI_Context.pAFont->p.pFontData + CharInfo.OffData;
        MOV     ?V0 + 0,R2
        MOV     ?V0 + 1,R3
        MOV     DPTR,#GUI_Context + 21
        LCALL   ?Subroutine5 & 0xFFFF
??CrossCallReturnLabel_9:
        MOV     DPL,R0
        MOV     DPH,R1
        MOVX    A,@DPTR
        ADD     A,?V0 + 0
        MOV     ?V0 + 4,A
        INC     DPTR
        MOVX    A,@DPTR
        ADDC    A,?V0 + 1
        MOV     ?V0 + 5,A
//   89     DrawMode = GUI_Context.TextMode;
        MOV     DPTR,#GUI_Context + 35
        MOVX    A,@DPTR
        MOV     ?V0 + 0,A
        INC     DPTR
        MOVX    A,@DPTR
        MOV     ?V0 + 1,A
//   90     OldDrawMode  = LCD_SetDrawMode(DrawMode);
        ; Setup parameters for call to function LCD_SetDrawMode
        MOV     R2,?V0 + 0
        MOV     R3,A
        LCALL   ??LCD_SetDrawMode?relay
        MOV     ?V0 + 8,R2
        MOV     ?V0 + 9,R3
//   91     LCD_DrawBitmap(GUI_Context.DispPosX, GUI_Context.DispPosY,
//   92                    CharInfo.XSize,
//   93 									 GUI_Context.pAFont->YSize,
//   94                    GUI_Context.pAFont->XMag,
//   95 									 GUI_Context.pAFont->YMag,
//   96                    1,
//   97                    CharInfo.BytesPerLine,
//   98                    pData,
//   99                    &LCD_BKCOLORINDEX);
        LCALL   ?Subroutine6 & 0xFFFF
??CrossCallReturnLabel_22:
        ; Setup parameters for call to function LCD_DrawBitmap
        MOV     ?V0 + 6,#GUI_Context & 0xff
        MOV     ?V0 + 7,#(GUI_Context >> 8) & 0xff
        MOV     R0,#?V0 + 6
        LCALL   ?PUSH_XSTACK_I_TWO
        CFI CFA_XSP16 add(XSP16, 24)
        MOV     R0,#?V0 + 4
        LCALL   ?PUSH_XSTACK_I_TWO
        CFI CFA_XSP16 add(XSP16, 26)
        MOV     R0,#?V0 + 2
        LCALL   ?PUSH_XSTACK_I_TWO
        CFI CFA_XSP16 add(XSP16, 28)
        MOV     ?V0 + 2,#0x1
        MOV     ?V0 + 3,#0x0
        MOV     R0,#?V0 + 2
        LCALL   ?PUSH_XSTACK_I_TWO
        CFI CFA_XSP16 add(XSP16, 30)
        MOV     A,R2
        ADD     A,#0xd
        LCALL   ?Subroutine4 & 0xFFFF
??CrossCallReturnLabel_6:
        LCALL   ?PUSH_XSTACK_I_TWO
        CFI CFA_XSP16 add(XSP16, 32)
        MOV     A,R2
        ADD     A,#0xc
        LCALL   ?Subroutine4 & 0xFFFF
??CrossCallReturnLabel_7:
        LCALL   ?PUSH_XSTACK_I_TWO
        CFI CFA_XSP16 add(XSP16, 34)
        MOV     DPL,R2
        MOV     DPH,R3
        INC     DPTR
        INC     DPTR
        INC     DPTR
        INC     DPTR
        INC     DPTR
        INC     DPTR
        INC     DPTR
        INC     DPTR
        INC     DPTR
        INC     DPTR
        MOVX    A,@DPTR
        MOV     ?V0 + 2,A
        MOV     R0,#?V0 + 2
        LCALL   ?PUSH_XSTACK_I_TWO
        CFI CFA_XSP16 add(XSP16, 36)
        MOV     ?V0 + 2,R6
        MOV     ?V0 + 3,R7
        MOV     R0,#?V0 + 2
        LCALL   ?PUSH_XSTACK_I_TWO
        CFI CFA_XSP16 add(XSP16, 38)
        MOV     DPTR,#GUI_Context + 29
        MOVX    A,@DPTR
        MOV     R4,A
        INC     DPTR
        MOVX    A,@DPTR
        MOV     R5,A
        MOV     DPTR,#GUI_Context + 27
        LCALL   ??Subroutine12_0 & 0xFFFF
??CrossCallReturnLabel_20:
        LCALL   ??LCD_DrawBitmap?relay
        MOV     A,#0x10
        LCALL   ?DEALLOC_XSTACK8
        CFI CFA_XSP16 add(XSP16, 22)
//  100     /* Fill empty pixel lines */
//  101     if (GUI_Context.pAFont->YDist > GUI_Context.pAFont->YSize) {
        MOV     DPTR,#GUI_Context + 21
        MOVX    A,@DPTR
        MOV     R0,A
        INC     DPTR
        MOVX    A,@DPTR
        MOV     R1,A
        MOV     A,R0
        ADD     A,#0xb
        LCALL   ?Subroutine10 & 0xFFFF
??CrossCallReturnLabel_18:
        MOV     R2,A
        MOV     DPL,R0
        MOV     DPH,R1
        INC     DPTR
        INC     DPTR
        INC     DPTR
        INC     DPTR
        INC     DPTR
        INC     DPTR
        INC     DPTR
        INC     DPTR
        INC     DPTR
        INC     DPTR
        MOVX    A,@DPTR
        CLR     C
        SUBB    A,R2
        JC      $+5
        LJMP    ??_GUI_SIF_DispChar_1 & 0xFFFF
//  102       int YMag = GUI_Context.pAFont->YMag;
        MOV     A,R0
        ADD     A,#0xd
        LCALL   ?Subroutine10 & 0xFFFF
??CrossCallReturnLabel_19:
        MOV     ?V0 + 4,A
//  103       int YDist = GUI_Context.pAFont->YDist * YMag;
        MOV     B,R2
        MUL     AB
        MOV     ?V0 + 6,A
        MOV     A,B
        MOV     ?V0 + 7,A
//  104       int YSize = GUI_Context.pAFont->YSize * YMag;
        MOV     DPL,R0
        MOV     DPH,R1
        INC     DPTR
        INC     DPTR
        INC     DPTR
        INC     DPTR
        INC     DPTR
        INC     DPTR
        INC     DPTR
        INC     DPTR
        INC     DPTR
        INC     DPTR
        MOVX    A,@DPTR
        MOV     ?V0 + 2,A
        MOV     A,?V0 + 4
        MOV     B,?V0 + 2
        MUL     AB
        MOV     ?V0 + 4,A
        MOV     A,B
        MOV     ?V0 + 5,A
//  105       if (DrawMode != LCD_DRAWMODE_TRANS) {
        MOV     A,#0x2
        XRL     A,?V0 + 0
        JNZ     ??_GUI_SIF_DispChar_2
        MOV     A,?V0 + 1
??_GUI_SIF_DispChar_2:
        JZ      ??_GUI_SIF_DispChar_1
//  106         LCD_COLOR OldColor = GUI_GetColor();
        ; Setup parameters for call to function GUI_GetColor
        LCALL   ??GUI_GetColor?relay
        MOV     ?V0 + 0,R2
        MOV     ?V0 + 1,R3
        MOV     ?V0 + 2,R4
        MOV     ?V0 + 3,R5
//  107         GUI_SetColor(GUI_GetBkColor());
        ; Setup parameters for call to function GUI_SetColor
        ; Setup parameters for call to function GUI_GetBkColor
        LCALL   ??GUI_GetBkColor?relay
        LCALL   ??GUI_SetColor?relay
//  108         LCD_FillRect(GUI_Context.DispPosX, 
//  109                      GUI_Context.DispPosY + YSize, 
//  110                      GUI_Context.DispPosX + CharInfo.XSize, 
//  111                      GUI_Context.DispPosY + YDist);
        MOV     DPTR,#GUI_Context + 27
        LCALL   ??Subroutine12_0 & 0xFFFF
??CrossCallReturnLabel_21:
        INC     DPTR
        MOVX    A,@DPTR
        MOV     R4,A
        INC     DPTR
        MOVX    A,@DPTR
        MOV     R5,A
        ; Setup parameters for call to function LCD_FillRect
        MOV     A,R4
        ADD     A,?V0 + 6
        MOV     ?V0 + 6,A
        MOV     A,R5
        ADDC    A,?V0 + 7
        MOV     ?V0 + 7,A
        MOV     R0,#?V0 + 6
        LCALL   ?PUSH_XSTACK_I_TWO
        CFI CFA_XSP16 add(XSP16, 24)
        MOV     A,R2
        ADD     A,R6
        MOV     ?V0 + 6,A
        MOV     A,R3
        ADDC    A,R7
        MOV     ?V0 + 7,A
        MOV     R0,#?V0 + 6
        LCALL   ?PUSH_XSTACK_I_TWO
        CFI CFA_XSP16 add(XSP16, 26)
        MOV     A,R4
        ADD     A,?V0 + 4
        MOV     R4,A
        MOV     A,R5
        ADDC    A,?V0 + 5
        MOV     R5,A
        LCALL   ??LCD_FillRect?relay
        MOV     A,#0x4
        LCALL   ?DEALLOC_XSTACK8
        CFI CFA_XSP16 add(XSP16, 22)
//  112         GUI_SetColor(OldColor);
        ; Setup parameters for call to function GUI_SetColor
        MOV     R2,?V0 + 0
        MOV     R3,?V0 + 1
        MOV     R4,?V0 + 2
        MOV     R5,?V0 + 3
        LCALL   ??GUI_SetColor?relay
//  113       }
//  114     }
//  115     LCD_SetDrawMode(OldDrawMode); /* Restore draw mode */
??_GUI_SIF_DispChar_1:
        ; Setup parameters for call to function LCD_SetDrawMode
        MOV     R2,?V0 + 8
        MOV     R3,?V0 + 9
        LCALL   ??LCD_SetDrawMode?relay
//  116     GUI_Context.DispPosX += CharInfo.XDist;
        MOV     DPTR,#GUI_Context + 27
        MOVX    A,@DPTR
        ADD     A,?V0 + 10
        MOVX    @DPTR,A
        INC     DPTR
        MOVX    A,@DPTR
        ADDC    A,?V0 + 11
        MOVX    @DPTR,A
//  117   }
//  118 }
??_GUI_SIF_DispChar_0:
        MOV     A,#0x2
        LCALL   ?DEALLOC_XSTACK8
        CFI CFA_XSP16 add(XSP16, 20)
        MOV     R7,#0xc
        LJMP    ?BANKED_LEAVE_XDATA
        CFI EndBlock cfiBlock4

        RSEG BANKED_CODE:CODE:NOROOT(0)
?Subroutine5:
        CFI Block cfiCond5 Using cfiCommon0
        CFI NoFunction
        CFI Conditional ??CrossCallReturnLabel_8
        CFI R6 load(1, XDATA, add(CFA_XSP16, literal(-16)))
        CFI VB load(1, XDATA, add(CFA_XSP16, literal(-15)))
        CFI V0 load(1, XDATA, add(CFA_XSP16, literal(-14)))
        CFI V1 load(1, XDATA, add(CFA_XSP16, literal(-13)))
        CFI V2 load(1, XDATA, add(CFA_XSP16, literal(-12)))
        CFI V3 load(1, XDATA, add(CFA_XSP16, literal(-11)))
        CFI V4 load(1, XDATA, add(CFA_XSP16, literal(-10)))
        CFI V5 load(1, XDATA, add(CFA_XSP16, literal(-9)))
        CFI V6 load(1, XDATA, add(CFA_XSP16, literal(-8)))
        CFI V7 load(1, XDATA, add(CFA_XSP16, literal(-7)))
        CFI R7 load(1, XDATA, add(CFA_XSP16, literal(-6)))
        CFI ?RET_LOW load(1, XDATA, add(CFA_XSP16, literal(-5)))
        CFI ?RET_HIGH load(1, XDATA, add(CFA_XSP16, literal(-4)))
        CFI ?BRET_EXT load(1, XDATA, add(CFA_XSP16, literal(-3)))
        CFI DPL0 load(1, XDATA, add(CFA_XSP16, literal(-2)))
        CFI DPH0 load(1, XDATA, add(CFA_XSP16, literal(-1)))
        CFI CFA_SP SP+0
        CFI CFA_XSP16 add(XSP16, 20)
        CFI Block cfiCond6 Using cfiCommon0
        CFI (cfiCond6) NoFunction
        CFI (cfiCond6) Conditional ??CrossCallReturnLabel_9
        CFI (cfiCond6) R6 load(1, XDATA, add(CFA_XSP16, literal(-20)))
        CFI (cfiCond6) VB load(1, XDATA, add(CFA_XSP16, literal(-19)))
        CFI (cfiCond6) V0 load(1, XDATA, add(CFA_XSP16, literal(-18)))
        CFI (cfiCond6) V1 load(1, XDATA, add(CFA_XSP16, literal(-17)))
        CFI (cfiCond6) V2 load(1, XDATA, add(CFA_XSP16, literal(-16)))
        CFI (cfiCond6) V3 load(1, XDATA, add(CFA_XSP16, literal(-15)))
        CFI (cfiCond6) V4 load(1, XDATA, add(CFA_XSP16, literal(-14)))
        CFI (cfiCond6) V5 load(1, XDATA, add(CFA_XSP16, literal(-13)))
        CFI (cfiCond6) V6 load(1, XDATA, add(CFA_XSP16, literal(-12)))
        CFI (cfiCond6) V7 load(1, XDATA, add(CFA_XSP16, literal(-11)))
        CFI (cfiCond6) V8 load(1, XDATA, add(CFA_XSP16, literal(-10)))
        CFI (cfiCond6) V9 load(1, XDATA, add(CFA_XSP16, literal(-9)))
        CFI (cfiCond6) V10 load(1, XDATA, add(CFA_XSP16, literal(-8)))
        CFI (cfiCond6) V11 load(1, XDATA, add(CFA_XSP16, literal(-7)))
        CFI (cfiCond6) R7 load(1, XDATA, add(CFA_XSP16, literal(-6)))
        CFI (cfiCond6) ?RET_LOW load(1, XDATA, add(CFA_XSP16, literal(-5)))
        CFI (cfiCond6) ?RET_HIGH load(1, XDATA, add(CFA_XSP16, literal(-4)))
        CFI (cfiCond6) ?BRET_EXT load(1, XDATA, add(CFA_XSP16, literal(-3)))
        CFI (cfiCond6) DPL0 load(1, XDATA, add(CFA_XSP16, literal(-2)))
        CFI (cfiCond6) DPH0 load(1, XDATA, add(CFA_XSP16, literal(-1)))
        CFI (cfiCond6) CFA_SP SP+0
        CFI (cfiCond6) CFA_XSP16 add(XSP16, 22)
        CFI Block cfiPicker7 Using cfiCommon1
        CFI (cfiPicker7) NoFunction
        CFI (cfiPicker7) Picker
        MOVX    A,@DPTR
        ADD     A,#0xe
        MOV     R0,A
        INC     DPTR
        MOVX    A,@DPTR
        ADDC    A,#0x0
        MOV     R1,A
        RET
        CFI EndBlock cfiCond5
        CFI EndBlock cfiCond6
        CFI EndBlock cfiPicker7

        RSEG BANKED_CODE:CODE:NOROOT(0)
?Subroutine4:
        CFI Block cfiCond8 Using cfiCommon0
        CFI NoFunction
        CFI Conditional ??CrossCallReturnLabel_6
        CFI R6 load(1, XDATA, add(CFA_XSP16, literal(-20)))
        CFI VB load(1, XDATA, add(CFA_XSP16, literal(-19)))
        CFI V0 load(1, XDATA, add(CFA_XSP16, literal(-18)))
        CFI V1 load(1, XDATA, add(CFA_XSP16, literal(-17)))
        CFI V2 load(1, XDATA, add(CFA_XSP16, literal(-16)))
        CFI V3 load(1, XDATA, add(CFA_XSP16, literal(-15)))
        CFI V4 load(1, XDATA, add(CFA_XSP16, literal(-14)))
        CFI V5 load(1, XDATA, add(CFA_XSP16, literal(-13)))
        CFI V6 load(1, XDATA, add(CFA_XSP16, literal(-12)))
        CFI V7 load(1, XDATA, add(CFA_XSP16, literal(-11)))
        CFI V8 load(1, XDATA, add(CFA_XSP16, literal(-10)))
        CFI V9 load(1, XDATA, add(CFA_XSP16, literal(-9)))
        CFI V10 load(1, XDATA, add(CFA_XSP16, literal(-8)))
        CFI V11 load(1, XDATA, add(CFA_XSP16, literal(-7)))
        CFI R7 load(1, XDATA, add(CFA_XSP16, literal(-6)))
        CFI ?RET_LOW load(1, XDATA, add(CFA_XSP16, literal(-5)))
        CFI ?RET_HIGH load(1, XDATA, add(CFA_XSP16, literal(-4)))
        CFI ?BRET_EXT load(1, XDATA, add(CFA_XSP16, literal(-3)))
        CFI DPL0 load(1, XDATA, add(CFA_XSP16, literal(-2)))
        CFI DPH0 load(1, XDATA, add(CFA_XSP16, literal(-1)))
        CFI CFA_SP SP+0
        CFI CFA_XSP16 add(XSP16, 30)
        CFI Block cfiCond9 Using cfiCommon0
        CFI (cfiCond9) NoFunction
        CFI (cfiCond9) Conditional ??CrossCallReturnLabel_7
        CFI (cfiCond9) R6 load(1, XDATA, add(CFA_XSP16, literal(-20)))
        CFI (cfiCond9) VB load(1, XDATA, add(CFA_XSP16, literal(-19)))
        CFI (cfiCond9) V0 load(1, XDATA, add(CFA_XSP16, literal(-18)))
        CFI (cfiCond9) V1 load(1, XDATA, add(CFA_XSP16, literal(-17)))
        CFI (cfiCond9) V2 load(1, XDATA, add(CFA_XSP16, literal(-16)))
        CFI (cfiCond9) V3 load(1, XDATA, add(CFA_XSP16, literal(-15)))
        CFI (cfiCond9) V4 load(1, XDATA, add(CFA_XSP16, literal(-14)))
        CFI (cfiCond9) V5 load(1, XDATA, add(CFA_XSP16, literal(-13)))
        CFI (cfiCond9) V6 load(1, XDATA, add(CFA_XSP16, literal(-12)))
        CFI (cfiCond9) V7 load(1, XDATA, add(CFA_XSP16, literal(-11)))
        CFI (cfiCond9) V8 load(1, XDATA, add(CFA_XSP16, literal(-10)))
        CFI (cfiCond9) V9 load(1, XDATA, add(CFA_XSP16, literal(-9)))
        CFI (cfiCond9) V10 load(1, XDATA, add(CFA_XSP16, literal(-8)))
        CFI (cfiCond9) V11 load(1, XDATA, add(CFA_XSP16, literal(-7)))
        CFI (cfiCond9) R7 load(1, XDATA, add(CFA_XSP16, literal(-6)))
        CFI (cfiCond9) ?RET_LOW load(1, XDATA, add(CFA_XSP16, literal(-5)))
        CFI (cfiCond9) ?RET_HIGH load(1, XDATA, add(CFA_XSP16, literal(-4)))
        CFI (cfiCond9) ?BRET_EXT load(1, XDATA, add(CFA_XSP16, literal(-3)))
        CFI (cfiCond9) DPL0 load(1, XDATA, add(CFA_XSP16, literal(-2)))
        CFI (cfiCond9) DPH0 load(1, XDATA, add(CFA_XSP16, literal(-1)))
        CFI (cfiCond9) CFA_SP SP+0
        CFI (cfiCond9) CFA_XSP16 add(XSP16, 32)
        CFI Block cfiPicker10 Using cfiCommon1
        CFI (cfiPicker10) NoFunction
        CFI (cfiPicker10) Picker
        MOV     DPL,A
        MOV     A,R3
        LCALL   ??Subroutine11_0 & 0xFFFF
??CrossCallReturnLabel_17:
        MOV     ?V0 + 2,A
        MOV     R0,#?V0 + 2
        RET
        CFI EndBlock cfiCond8
        CFI EndBlock cfiCond9
        CFI EndBlock cfiPicker10
//  119 
//  120 /*********************************************************************
//  121 *
//  122 *       GUI_SIF_GetCharDistX
//  123 */

        RSEG BANKED_CODE:CODE:NOROOT(0)
//  124 static int _GUI_SIF_GetCharDistX(U16P c) {
_GUI_SIF_GetCharDistX:
        CFI Block cfiBlock11 Using cfiCommon0
        CFI Function _GUI_SIF_GetCharDistX
        CODE
        FUNCALL _GUI_SIF_GetCharDistX, _GetpCharInfo
        LOCFRAME ISTACK, 0, STACK
        LOCFRAME PSTACK, 0, STACK
        LOCFRAME XSTACK, 12, STACK
        LOCFRAME IOVERLAY, 0, STATIC
        LOCFRAME DOVERLAY, 0, STATIC
        ARGFRAME ISTACK, 0, STACK
        ARGFRAME PSTACK, 0, STACK
        ARGFRAME XSTACK, 12, STACK
        ARGFRAME IOVERLAY, 0, STATIC
        ARGFRAME DOVERLAY, 0, STATIC
        FUNCALL _GUI_SIF_GetCharDistX, GUI__Read16
        LOCFRAME ISTACK, 0, STACK
        LOCFRAME PSTACK, 0, STACK
        LOCFRAME XSTACK, 12, STACK
        LOCFRAME IOVERLAY, 0, STATIC
        LOCFRAME DOVERLAY, 0, STATIC
        ARGFRAME ISTACK, 0, STACK
        ARGFRAME PSTACK, 0, STACK
        ARGFRAME XSTACK, 12, STACK
        ARGFRAME IOVERLAY, 0, STATIC
        ARGFRAME DOVERLAY, 0, STATIC
        MOV     A,#-0xa
        LCALL   ?BANKED_ENTER_XDATA
        CFI DPH0 load(1, XDATA, add(CFA_XSP16, literal(-1)))
        CFI DPL0 load(1, XDATA, add(CFA_XSP16, literal(-2)))
        CFI ?BRET_EXT load(1, XDATA, add(CFA_XSP16, literal(-3)))
        CFI ?RET_HIGH load(1, XDATA, add(CFA_XSP16, literal(-4)))
        CFI ?RET_LOW load(1, XDATA, add(CFA_XSP16, literal(-5)))
        CFI R7 load(1, XDATA, add(CFA_XSP16, literal(-6)))
        CFI V1 load(1, XDATA, add(CFA_XSP16, literal(-7)))
        CFI V0 load(1, XDATA, add(CFA_XSP16, literal(-8)))
        CFI VB load(1, XDATA, add(CFA_XSP16, literal(-9)))
        CFI R6 load(1, XDATA, add(CFA_XSP16, literal(-10)))
        CFI CFA_SP SP+0
        CFI CFA_XSP16 add(XSP16, 10)
        ; Saved register size: 10
        ; Auto size: 2
        MOV     A,#-0x2
        LCALL   ?ALLOC_XSTACK8
        CFI CFA_XSP16 add(XSP16, 12)
//  125   const U8 * pCharInfo;
//  126   U16 DistX = 0;
        MOV     R6,#0x0
        MOV     R7,#0x0
//  127   pCharInfo = _GetpCharInfo(GUI_Context.pAFont, c); /* Get pointer to char info data */
        ; Setup parameters for call to function _GetpCharInfo
        LCALL   ?Subroutine1 & 0xFFFF
//  128   if (pCharInfo) {
??CrossCallReturnLabel_1:
        JZ      ??_GUI_SIF_GetCharDistX_0
//  129     pCharInfo += 2 /* Skip XSize */;
        MOV     DPL,?XSP + 0
        MOV     DPH,?XSP + 1
        MOVX    A,@DPTR
        ADD     A,#0x2
        INC     R0
        INC     R0
        LCALL   ?Subroutine2 & 0xFFFF
//  130     DistX = GUI__Read16(&pCharInfo);
//  131   }
??CrossCallReturnLabel_2:
        MOV     ?V0 + 0,R2
        MOV     ?V0 + 1,R3
        MOV     R6,?V0 + 0
        MOV     R7,?V0 + 1
//  132   return DistX;
??_GUI_SIF_GetCharDistX_0:
        MOV     A,R6
        MOV     R2,A
        MOV     A,R7
        MOV     R3,A
        MOV     A,#0x2
        LCALL   ?DEALLOC_XSTACK8
        CFI EndBlock cfiBlock11
        REQUIRE ?Subroutine0
        ; // Fall through to label ?Subroutine0
//  133 }

        RSEG BANKED_CODE:CODE:NOROOT(0)
?Subroutine0:
        CFI Block cfiBlock12 Using cfiCommon0
        CFI NoFunction
        CFI CFA_SP SP+0
        CFI CFA_XSP16 add(XSP16, 10)
        CFI VB load(1, XDATA, add(CFA_XSP16, literal(-9)))
        CFI DPL0 load(1, XDATA, add(CFA_XSP16, literal(-2)))
        CFI DPH0 load(1, XDATA, add(CFA_XSP16, literal(-1)))
        CFI R6 load(1, XDATA, add(CFA_XSP16, literal(-10)))
        CFI R7 load(1, XDATA, add(CFA_XSP16, literal(-6)))
        CFI V0 load(1, XDATA, add(CFA_XSP16, literal(-8)))
        CFI V1 load(1, XDATA, add(CFA_XSP16, literal(-7)))
        CFI ?BRET_EXT load(1, XDATA, add(CFA_XSP16, literal(-3)))
        CFI ?RET_HIGH load(1, XDATA, add(CFA_XSP16, literal(-4)))
        CFI ?RET_LOW load(1, XDATA, add(CFA_XSP16, literal(-5)))
        MOV     R7,#0x2
        LJMP    ?BANKED_LEAVE_XDATA
        CFI EndBlock cfiBlock12

        RSEG BANKED_CODE:CODE:NOROOT(0)
?Subroutine1:
        CFI Block cfiCond13 Using cfiCommon0
        CFI NoFunction
        CFI Conditional ??CrossCallReturnLabel_0
        CFI R6 load(1, XDATA, add(CFA_XSP16, literal(-20)))
        CFI VB load(1, XDATA, add(CFA_XSP16, literal(-19)))
        CFI V0 load(1, XDATA, add(CFA_XSP16, literal(-18)))
        CFI V1 load(1, XDATA, add(CFA_XSP16, literal(-17)))
        CFI V2 load(1, XDATA, add(CFA_XSP16, literal(-16)))
        CFI V3 load(1, XDATA, add(CFA_XSP16, literal(-15)))
        CFI V4 load(1, XDATA, add(CFA_XSP16, literal(-14)))
        CFI V5 load(1, XDATA, add(CFA_XSP16, literal(-13)))
        CFI V6 load(1, XDATA, add(CFA_XSP16, literal(-12)))
        CFI V7 load(1, XDATA, add(CFA_XSP16, literal(-11)))
        CFI V8 load(1, XDATA, add(CFA_XSP16, literal(-10)))
        CFI V9 load(1, XDATA, add(CFA_XSP16, literal(-9)))
        CFI V10 load(1, XDATA, add(CFA_XSP16, literal(-8)))
        CFI V11 load(1, XDATA, add(CFA_XSP16, literal(-7)))
        CFI R7 load(1, XDATA, add(CFA_XSP16, literal(-6)))
        CFI ?RET_LOW load(1, XDATA, add(CFA_XSP16, literal(-5)))
        CFI ?RET_HIGH load(1, XDATA, add(CFA_XSP16, literal(-4)))
        CFI ?BRET_EXT load(1, XDATA, add(CFA_XSP16, literal(-3)))
        CFI DPL0 load(1, XDATA, add(CFA_XSP16, literal(-2)))
        CFI DPH0 load(1, XDATA, add(CFA_XSP16, literal(-1)))
        CFI CFA_SP SP+0
        CFI CFA_XSP16 add(XSP16, 22)
        CFI Block cfiCond14 Using cfiCommon0
        CFI (cfiCond14) NoFunction
        CFI (cfiCond14) Conditional ??CrossCallReturnLabel_1
        CFI (cfiCond14) R6 load(1, XDATA, add(CFA_XSP16, literal(-10)))
        CFI (cfiCond14) VB load(1, XDATA, add(CFA_XSP16, literal(-9)))
        CFI (cfiCond14) V0 load(1, XDATA, add(CFA_XSP16, literal(-8)))
        CFI (cfiCond14) V1 load(1, XDATA, add(CFA_XSP16, literal(-7)))
        CFI (cfiCond14) R7 load(1, XDATA, add(CFA_XSP16, literal(-6)))
        CFI (cfiCond14) ?RET_LOW load(1, XDATA, add(CFA_XSP16, literal(-5)))
        CFI (cfiCond14) ?RET_HIGH load(1, XDATA, add(CFA_XSP16, literal(-4)))
        CFI (cfiCond14) ?BRET_EXT load(1, XDATA, add(CFA_XSP16, literal(-3)))
        CFI (cfiCond14) DPL0 load(1, XDATA, add(CFA_XSP16, literal(-2)))
        CFI (cfiCond14) DPH0 load(1, XDATA, add(CFA_XSP16, literal(-1)))
        CFI (cfiCond14) CFA_SP SP+0
        CFI (cfiCond14) CFA_XSP16 add(XSP16, 12)
        CFI Block cfiPicker15 Using cfiCommon1
        CFI (cfiPicker15) NoFunction
        CFI (cfiPicker15) Picker
        MOV     A,R2
        MOV     R4,A
        MOV     A,R3
        MOV     R5,A
        MOV     DPTR,#GUI_Context + 21
        MOVX    A,@DPTR
        MOV     R2,A
        INC     DPTR
        MOVX    A,@DPTR
        MOV     R3,A
        LCALL   ??_GetpCharInfo?relay
        MOV     DPL,?XSP + 0
        MOV     DPH,?XSP + 1
        MOV     A,R2
        MOVX    @DPTR,A
        INC     DPTR
        MOV     A,R3
        MOVX    @DPTR,A
        MOV     DPL,?XSP + 0
        MOV     DPH,?XSP + 1
        MOVX    A,@DPTR
        MOV     R0,A
        INC     DPTR
        MOVX    A,@DPTR
        MOV     R1,A
        MOV     A,R0
        ORL     A,R1
        RET
        CFI EndBlock cfiCond13
        CFI EndBlock cfiCond14
        CFI EndBlock cfiPicker15
//  134 
//  135 /*********************************************************************
//  136 *
//  137 *       GUI_SIF_GetFontInfo
//  138 */

        RSEG BANKED_CODE:CODE:NOROOT(0)
//  139 static void _GUI_SIF_GetFontInfo(const GUI_FONT GUI_UNI_PTR * pFont, GUI_FONTINFO * pfi) {
_GUI_SIF_GetFontInfo:
        CFI Block cfiBlock16 Using cfiCommon0
        CFI Function _GUI_SIF_GetFontInfo
        CODE
        FUNCALL _GUI_SIF_GetFontInfo, GUI__Read16
        LOCFRAME ISTACK, 0, STACK
        LOCFRAME PSTACK, 0, STACK
        LOCFRAME XSTACK, 11, STACK
        LOCFRAME IOVERLAY, 0, STATIC
        LOCFRAME DOVERLAY, 0, STATIC
        ARGFRAME ISTACK, 0, STACK
        ARGFRAME PSTACK, 0, STACK
        ARGFRAME XSTACK, 11, STACK
        ARGFRAME IOVERLAY, 0, STATIC
        ARGFRAME DOVERLAY, 0, STATIC
        FUNCALL _GUI_SIF_GetFontInfo, GUI__Read16
        LOCFRAME ISTACK, 0, STACK
        LOCFRAME PSTACK, 0, STACK
        LOCFRAME XSTACK, 11, STACK
        LOCFRAME IOVERLAY, 0, STATIC
        LOCFRAME DOVERLAY, 0, STATIC
        ARGFRAME ISTACK, 0, STACK
        ARGFRAME PSTACK, 0, STACK
        ARGFRAME XSTACK, 11, STACK
        ARGFRAME IOVERLAY, 0, STATIC
        ARGFRAME DOVERLAY, 0, STATIC
        FUNCALL _GUI_SIF_GetFontInfo, GUI__Read16
        LOCFRAME ISTACK, 0, STACK
        LOCFRAME PSTACK, 0, STACK
        LOCFRAME XSTACK, 11, STACK
        LOCFRAME IOVERLAY, 0, STATIC
        LOCFRAME DOVERLAY, 0, STATIC
        ARGFRAME ISTACK, 0, STACK
        ARGFRAME PSTACK, 0, STACK
        ARGFRAME XSTACK, 11, STACK
        ARGFRAME IOVERLAY, 0, STATIC
        ARGFRAME DOVERLAY, 0, STATIC
        MOV     A,#-0x9
        LCALL   ?BANKED_ENTER_XDATA
        CFI DPH0 load(1, XDATA, add(CFA_XSP16, literal(-1)))
        CFI DPL0 load(1, XDATA, add(CFA_XSP16, literal(-2)))
        CFI ?BRET_EXT load(1, XDATA, add(CFA_XSP16, literal(-3)))
        CFI ?RET_HIGH load(1, XDATA, add(CFA_XSP16, literal(-4)))
        CFI ?RET_LOW load(1, XDATA, add(CFA_XSP16, literal(-5)))
        CFI R7 load(1, XDATA, add(CFA_XSP16, literal(-6)))
        CFI V0 load(1, XDATA, add(CFA_XSP16, literal(-7)))
        CFI VB load(1, XDATA, add(CFA_XSP16, literal(-8)))
        CFI R6 load(1, XDATA, add(CFA_XSP16, literal(-9)))
        CFI CFA_SP SP+0
        CFI CFA_XSP16 add(XSP16, 9)
        ; Saved register size: 9
        ; Auto size: 2
        MOV     A,#-0x2
        LCALL   ?ALLOC_XSTACK8
        CFI CFA_XSP16 add(XSP16, 11)
        MOV     A,R4
        MOV     R6,A
        MOV     A,R5
        MOV     R7,A
//  140   const U8 * pData;
//  141   pData = (const U8 *)pFont->p.pFontData + 4 /* Skip XSize and XDist */;
        MOV     A,R2
        ADD     A,#0xe
        MOV     DPL,A
        MOV     A,R3
        LCALL   ??Subroutine11_0 & 0xFFFF
??CrossCallReturnLabel_16:
        ADD     A,#0x4
        MOV     R0,A
        LCALL   ?Subroutine2 & 0xFFFF
//  142   pfi->Baseline = GUI__Read16(&pData);
??CrossCallReturnLabel_3:
        MOV     A,R2
        MOV     DPL,R6
        MOV     DPH,R7
        INC     DPTR
        INC     DPTR
        LCALL   ?Subroutine3 & 0xFFFF
//  143   pfi->LHeight  = GUI__Read16(&pData);
??CrossCallReturnLabel_4:
        LCALL   ?Subroutine3 & 0xFFFF
//  144   pfi->CHeight  = GUI__Read16(&pData);
??CrossCallReturnLabel_5:
        INC     DPTR
        MOVX    @DPTR,A
//  145   pfi->Flags    = GUI_FONTINFO_FLAG_PROP;
        MOV     DPL,R6
        MOV     DPH,R7
        MOV     A,#0x1
        MOVX    @DPTR,A
        INC     DPTR
        CLR     A
        MOVX    @DPTR,A
//  146 }
        MOV     A,#0x2
        LCALL   ?DEALLOC_XSTACK8
        CFI CFA_XSP16 add(XSP16, 9)
        MOV     R7,#0x1
        LJMP    ?BANKED_LEAVE_XDATA
        CFI EndBlock cfiBlock16

        RSEG BANKED_CODE:CODE:NOROOT(0)
?Subroutine10:
        CFI Block cfiCond17 Using cfiCommon0
        CFI NoFunction
        CFI Conditional ??CrossCallReturnLabel_18
        CFI R6 load(1, XDATA, add(CFA_XSP16, literal(-20)))
        CFI VB load(1, XDATA, add(CFA_XSP16, literal(-19)))
        CFI V0 load(1, XDATA, add(CFA_XSP16, literal(-18)))
        CFI V1 load(1, XDATA, add(CFA_XSP16, literal(-17)))
        CFI V2 load(1, XDATA, add(CFA_XSP16, literal(-16)))
        CFI V3 load(1, XDATA, add(CFA_XSP16, literal(-15)))
        CFI V4 load(1, XDATA, add(CFA_XSP16, literal(-14)))
        CFI V5 load(1, XDATA, add(CFA_XSP16, literal(-13)))
        CFI V6 load(1, XDATA, add(CFA_XSP16, literal(-12)))
        CFI V7 load(1, XDATA, add(CFA_XSP16, literal(-11)))
        CFI V8 load(1, XDATA, add(CFA_XSP16, literal(-10)))
        CFI V9 load(1, XDATA, add(CFA_XSP16, literal(-9)))
        CFI V10 load(1, XDATA, add(CFA_XSP16, literal(-8)))
        CFI V11 load(1, XDATA, add(CFA_XSP16, literal(-7)))
        CFI R7 load(1, XDATA, add(CFA_XSP16, literal(-6)))
        CFI ?RET_LOW load(1, XDATA, add(CFA_XSP16, literal(-5)))
        CFI ?RET_HIGH load(1, XDATA, add(CFA_XSP16, literal(-4)))
        CFI ?BRET_EXT load(1, XDATA, add(CFA_XSP16, literal(-3)))
        CFI DPL0 load(1, XDATA, add(CFA_XSP16, literal(-2)))
        CFI DPH0 load(1, XDATA, add(CFA_XSP16, literal(-1)))
        CFI CFA_SP SP+0
        CFI CFA_XSP16 add(XSP16, 22)
        CFI Block cfiCond18 Using cfiCommon0
        CFI (cfiCond18) NoFunction
        CFI (cfiCond18) Conditional ??CrossCallReturnLabel_19
        CFI (cfiCond18) R6 load(1, XDATA, add(CFA_XSP16, literal(-20)))
        CFI (cfiCond18) VB load(1, XDATA, add(CFA_XSP16, literal(-19)))
        CFI (cfiCond18) V0 load(1, XDATA, add(CFA_XSP16, literal(-18)))
        CFI (cfiCond18) V1 load(1, XDATA, add(CFA_XSP16, literal(-17)))
        CFI (cfiCond18) V2 load(1, XDATA, add(CFA_XSP16, literal(-16)))
        CFI (cfiCond18) V3 load(1, XDATA, add(CFA_XSP16, literal(-15)))
        CFI (cfiCond18) V4 load(1, XDATA, add(CFA_XSP16, literal(-14)))
        CFI (cfiCond18) V5 load(1, XDATA, add(CFA_XSP16, literal(-13)))
        CFI (cfiCond18) V6 load(1, XDATA, add(CFA_XSP16, literal(-12)))
        CFI (cfiCond18) V7 load(1, XDATA, add(CFA_XSP16, literal(-11)))
        CFI (cfiCond18) V8 load(1, XDATA, add(CFA_XSP16, literal(-10)))
        CFI (cfiCond18) V9 load(1, XDATA, add(CFA_XSP16, literal(-9)))
        CFI (cfiCond18) V10 load(1, XDATA, add(CFA_XSP16, literal(-8)))
        CFI (cfiCond18) V11 load(1, XDATA, add(CFA_XSP16, literal(-7)))
        CFI (cfiCond18) R7 load(1, XDATA, add(CFA_XSP16, literal(-6)))
        CFI (cfiCond18) ?RET_LOW load(1, XDATA, add(CFA_XSP16, literal(-5)))
        CFI (cfiCond18) ?RET_HIGH load(1, XDATA, add(CFA_XSP16, literal(-4)))
        CFI (cfiCond18) ?BRET_EXT load(1, XDATA, add(CFA_XSP16, literal(-3)))
        CFI (cfiCond18) DPL0 load(1, XDATA, add(CFA_XSP16, literal(-2)))
        CFI (cfiCond18) DPH0 load(1, XDATA, add(CFA_XSP16, literal(-1)))
        CFI (cfiCond18) CFA_SP SP+0
        CFI (cfiCond18) CFA_XSP16 add(XSP16, 22)
        CFI Block cfiPicker19 Using cfiCommon1
        CFI (cfiPicker19) NoFunction
        CFI (cfiPicker19) Picker
        MOV     DPL,A
        MOV     A,R1
        CFI EndBlock cfiCond17
        CFI EndBlock cfiCond18
        CFI EndBlock cfiPicker19
        REQUIRE ??Subroutine11_0
        ; // Fall through to label ??Subroutine11_0

        RSEG BANKED_CODE:CODE:NOROOT(0)
??Subroutine11_0:
        CFI Block cfiCond20 Using cfiCommon0
        CFI NoFunction
        CFI Conditional ??CrossCallReturnLabel_17, ??CrossCallReturnLabel_6
        CFI R6 load(1, XDATA, add(CFA_XSP16, literal(-20)))
        CFI VB load(1, XDATA, add(CFA_XSP16, literal(-19)))
        CFI V0 load(1, XDATA, add(CFA_XSP16, literal(-18)))
        CFI V1 load(1, XDATA, add(CFA_XSP16, literal(-17)))
        CFI V2 load(1, XDATA, add(CFA_XSP16, literal(-16)))
        CFI V3 load(1, XDATA, add(CFA_XSP16, literal(-15)))
        CFI V4 load(1, XDATA, add(CFA_XSP16, literal(-14)))
        CFI V5 load(1, XDATA, add(CFA_XSP16, literal(-13)))
        CFI V6 load(1, XDATA, add(CFA_XSP16, literal(-12)))
        CFI V7 load(1, XDATA, add(CFA_XSP16, literal(-11)))
        CFI V8 load(1, XDATA, add(CFA_XSP16, literal(-10)))
        CFI V9 load(1, XDATA, add(CFA_XSP16, literal(-9)))
        CFI V10 load(1, XDATA, add(CFA_XSP16, literal(-8)))
        CFI V11 load(1, XDATA, add(CFA_XSP16, literal(-7)))
        CFI R7 load(1, XDATA, add(CFA_XSP16, literal(-6)))
        CFI ?RET_LOW load(1, XDATA, add(CFA_XSP16, literal(-5)))
        CFI ?RET_HIGH load(1, XDATA, add(CFA_XSP16, literal(-4)))
        CFI ?BRET_EXT load(1, XDATA, add(CFA_XSP16, literal(-3)))
        CFI DPL0 load(1, XDATA, add(CFA_XSP16, literal(-2)))
        CFI DPH0 load(1, XDATA, add(CFA_XSP16, literal(-1)))
        CFI CFA_SP SP+0
        CFI CFA_XSP16 add(XSP16, 30)
        CFI Block cfiCond21 Using cfiCommon0
        CFI (cfiCond21) NoFunction
        CFI (cfiCond21) Conditional ??CrossCallReturnLabel_17, ??CrossCallReturnLabel_7
        CFI (cfiCond21) R6 load(1, XDATA, add(CFA_XSP16, literal(-20)))
        CFI (cfiCond21) VB load(1, XDATA, add(CFA_XSP16, literal(-19)))
        CFI (cfiCond21) V0 load(1, XDATA, add(CFA_XSP16, literal(-18)))
        CFI (cfiCond21) V1 load(1, XDATA, add(CFA_XSP16, literal(-17)))
        CFI (cfiCond21) V2 load(1, XDATA, add(CFA_XSP16, literal(-16)))
        CFI (cfiCond21) V3 load(1, XDATA, add(CFA_XSP16, literal(-15)))
        CFI (cfiCond21) V4 load(1, XDATA, add(CFA_XSP16, literal(-14)))
        CFI (cfiCond21) V5 load(1, XDATA, add(CFA_XSP16, literal(-13)))
        CFI (cfiCond21) V6 load(1, XDATA, add(CFA_XSP16, literal(-12)))
        CFI (cfiCond21) V7 load(1, XDATA, add(CFA_XSP16, literal(-11)))
        CFI (cfiCond21) V8 load(1, XDATA, add(CFA_XSP16, literal(-10)))
        CFI (cfiCond21) V9 load(1, XDATA, add(CFA_XSP16, literal(-9)))
        CFI (cfiCond21) V10 load(1, XDATA, add(CFA_XSP16, literal(-8)))
        CFI (cfiCond21) V11 load(1, XDATA, add(CFA_XSP16, literal(-7)))
        CFI (cfiCond21) R7 load(1, XDATA, add(CFA_XSP16, literal(-6)))
        CFI (cfiCond21) ?RET_LOW load(1, XDATA, add(CFA_XSP16, literal(-5)))
        CFI (cfiCond21) ?RET_HIGH load(1, XDATA, add(CFA_XSP16, literal(-4)))
        CFI (cfiCond21) ?BRET_EXT load(1, XDATA, add(CFA_XSP16, literal(-3)))
        CFI (cfiCond21) DPL0 load(1, XDATA, add(CFA_XSP16, literal(-2)))
        CFI (cfiCond21) DPH0 load(1, XDATA, add(CFA_XSP16, literal(-1)))
        CFI (cfiCond21) CFA_SP SP+0
        CFI (cfiCond21) CFA_XSP16 add(XSP16, 32)
        CFI Block cfiCond22 Using cfiCommon0
        CFI (cfiCond22) NoFunction
        CFI (cfiCond22) Conditional ??CrossCallReturnLabel_16
        CFI (cfiCond22) R6 load(1, XDATA, add(CFA_XSP16, literal(-9)))
        CFI (cfiCond22) VB load(1, XDATA, add(CFA_XSP16, literal(-8)))
        CFI (cfiCond22) V0 load(1, XDATA, add(CFA_XSP16, literal(-7)))
        CFI (cfiCond22) R7 load(1, XDATA, add(CFA_XSP16, literal(-6)))
        CFI (cfiCond22) ?RET_LOW load(1, XDATA, add(CFA_XSP16, literal(-5)))
        CFI (cfiCond22) ?RET_HIGH load(1, XDATA, add(CFA_XSP16, literal(-4)))
        CFI (cfiCond22) ?BRET_EXT load(1, XDATA, add(CFA_XSP16, literal(-3)))
        CFI (cfiCond22) DPL0 load(1, XDATA, add(CFA_XSP16, literal(-2)))
        CFI (cfiCond22) DPH0 load(1, XDATA, add(CFA_XSP16, literal(-1)))
        CFI (cfiCond22) CFA_SP SP+0
        CFI (cfiCond22) CFA_XSP16 add(XSP16, 11)
        CFI Block cfiCond23 Using cfiCommon0
        CFI (cfiCond23) NoFunction
        CFI (cfiCond23) Conditional ??CrossCallReturnLabel_18
        CFI (cfiCond23) R6 load(1, XDATA, add(CFA_XSP16, literal(-20)))
        CFI (cfiCond23) VB load(1, XDATA, add(CFA_XSP16, literal(-19)))
        CFI (cfiCond23) V0 load(1, XDATA, add(CFA_XSP16, literal(-18)))
        CFI (cfiCond23) V1 load(1, XDATA, add(CFA_XSP16, literal(-17)))
        CFI (cfiCond23) V2 load(1, XDATA, add(CFA_XSP16, literal(-16)))
        CFI (cfiCond23) V3 load(1, XDATA, add(CFA_XSP16, literal(-15)))
        CFI (cfiCond23) V4 load(1, XDATA, add(CFA_XSP16, literal(-14)))
        CFI (cfiCond23) V5 load(1, XDATA, add(CFA_XSP16, literal(-13)))
        CFI (cfiCond23) V6 load(1, XDATA, add(CFA_XSP16, literal(-12)))
        CFI (cfiCond23) V7 load(1, XDATA, add(CFA_XSP16, literal(-11)))
        CFI (cfiCond23) V8 load(1, XDATA, add(CFA_XSP16, literal(-10)))
        CFI (cfiCond23) V9 load(1, XDATA, add(CFA_XSP16, literal(-9)))
        CFI (cfiCond23) V10 load(1, XDATA, add(CFA_XSP16, literal(-8)))
        CFI (cfiCond23) V11 load(1, XDATA, add(CFA_XSP16, literal(-7)))
        CFI (cfiCond23) R7 load(1, XDATA, add(CFA_XSP16, literal(-6)))
        CFI (cfiCond23) ?RET_LOW load(1, XDATA, add(CFA_XSP16, literal(-5)))
        CFI (cfiCond23) ?RET_HIGH load(1, XDATA, add(CFA_XSP16, literal(-4)))
        CFI (cfiCond23) ?BRET_EXT load(1, XDATA, add(CFA_XSP16, literal(-3)))
        CFI (cfiCond23) DPL0 load(1, XDATA, add(CFA_XSP16, literal(-2)))
        CFI (cfiCond23) DPH0 load(1, XDATA, add(CFA_XSP16, literal(-1)))
        CFI (cfiCond23) CFA_SP SP+0
        CFI (cfiCond23) CFA_XSP16 add(XSP16, 22)
        CFI Block cfiCond24 Using cfiCommon0
        CFI (cfiCond24) NoFunction
        CFI (cfiCond24) Conditional ??CrossCallReturnLabel_19
        CFI (cfiCond24) R6 load(1, XDATA, add(CFA_XSP16, literal(-20)))
        CFI (cfiCond24) VB load(1, XDATA, add(CFA_XSP16, literal(-19)))
        CFI (cfiCond24) V0 load(1, XDATA, add(CFA_XSP16, literal(-18)))
        CFI (cfiCond24) V1 load(1, XDATA, add(CFA_XSP16, literal(-17)))
        CFI (cfiCond24) V2 load(1, XDATA, add(CFA_XSP16, literal(-16)))
        CFI (cfiCond24) V3 load(1, XDATA, add(CFA_XSP16, literal(-15)))
        CFI (cfiCond24) V4 load(1, XDATA, add(CFA_XSP16, literal(-14)))
        CFI (cfiCond24) V5 load(1, XDATA, add(CFA_XSP16, literal(-13)))
        CFI (cfiCond24) V6 load(1, XDATA, add(CFA_XSP16, literal(-12)))
        CFI (cfiCond24) V7 load(1, XDATA, add(CFA_XSP16, literal(-11)))
        CFI (cfiCond24) V8 load(1, XDATA, add(CFA_XSP16, literal(-10)))
        CFI (cfiCond24) V9 load(1, XDATA, add(CFA_XSP16, literal(-9)))
        CFI (cfiCond24) V10 load(1, XDATA, add(CFA_XSP16, literal(-8)))
        CFI (cfiCond24) V11 load(1, XDATA, add(CFA_XSP16, literal(-7)))
        CFI (cfiCond24) R7 load(1, XDATA, add(CFA_XSP16, literal(-6)))
        CFI (cfiCond24) ?RET_LOW load(1, XDATA, add(CFA_XSP16, literal(-5)))
        CFI (cfiCond24) ?RET_HIGH load(1, XDATA, add(CFA_XSP16, literal(-4)))
        CFI (cfiCond24) ?BRET_EXT load(1, XDATA, add(CFA_XSP16, literal(-3)))
        CFI (cfiCond24) DPL0 load(1, XDATA, add(CFA_XSP16, literal(-2)))
        CFI (cfiCond24) DPH0 load(1, XDATA, add(CFA_XSP16, literal(-1)))
        CFI (cfiCond24) CFA_SP SP+0
        CFI (cfiCond24) CFA_XSP16 add(XSP16, 22)
        CFI Block cfiPicker25 Using cfiCommon1
        CFI (cfiPicker25) NoFunction
        CFI (cfiPicker25) Picker
        ADDC    A,#0x0
        MOV     DPH,A
        MOVX    A,@DPTR
        RET
        CFI EndBlock cfiCond20
        CFI EndBlock cfiCond21
        CFI EndBlock cfiCond22
        CFI EndBlock cfiCond23
        CFI EndBlock cfiCond24
        CFI EndBlock cfiPicker25

        RSEG BANKED_CODE:CODE:NOROOT(0)
?Subroutine3:
        CFI Block cfiCond26 Using cfiCommon0
        CFI NoFunction
        CFI Conditional ??CrossCallReturnLabel_4
        CFI R6 load(1, XDATA, add(CFA_XSP16, literal(-9)))
        CFI VB load(1, XDATA, add(CFA_XSP16, literal(-8)))
        CFI V0 load(1, XDATA, add(CFA_XSP16, literal(-7)))
        CFI R7 load(1, XDATA, add(CFA_XSP16, literal(-6)))
        CFI ?RET_LOW load(1, XDATA, add(CFA_XSP16, literal(-5)))
        CFI ?RET_HIGH load(1, XDATA, add(CFA_XSP16, literal(-4)))
        CFI ?BRET_EXT load(1, XDATA, add(CFA_XSP16, literal(-3)))
        CFI DPL0 load(1, XDATA, add(CFA_XSP16, literal(-2)))
        CFI DPH0 load(1, XDATA, add(CFA_XSP16, literal(-1)))
        CFI CFA_SP SP+0
        CFI CFA_XSP16 add(XSP16, 11)
        CFI Block cfiCond27 Using cfiCommon0
        CFI (cfiCond27) NoFunction
        CFI (cfiCond27) Conditional ??CrossCallReturnLabel_5
        CFI (cfiCond27) R6 load(1, XDATA, add(CFA_XSP16, literal(-9)))
        CFI (cfiCond27) VB load(1, XDATA, add(CFA_XSP16, literal(-8)))
        CFI (cfiCond27) V0 load(1, XDATA, add(CFA_XSP16, literal(-7)))
        CFI (cfiCond27) R7 load(1, XDATA, add(CFA_XSP16, literal(-6)))
        CFI (cfiCond27) ?RET_LOW load(1, XDATA, add(CFA_XSP16, literal(-5)))
        CFI (cfiCond27) ?RET_HIGH load(1, XDATA, add(CFA_XSP16, literal(-4)))
        CFI (cfiCond27) ?BRET_EXT load(1, XDATA, add(CFA_XSP16, literal(-3)))
        CFI (cfiCond27) DPL0 load(1, XDATA, add(CFA_XSP16, literal(-2)))
        CFI (cfiCond27) DPH0 load(1, XDATA, add(CFA_XSP16, literal(-1)))
        CFI (cfiCond27) CFA_SP SP+0
        CFI (cfiCond27) CFA_XSP16 add(XSP16, 11)
        CFI Block cfiPicker28 Using cfiCommon1
        CFI (cfiPicker28) NoFunction
        CFI (cfiPicker28) Picker
        LCALL   ?Subroutine8 & 0xFFFF
??CrossCallReturnLabel_12:
        MOV     A,R2
        MOV     DPL,R6
        MOV     DPH,R7
        INC     DPTR
        INC     DPTR
        INC     DPTR
        RET
        CFI EndBlock cfiCond26
        CFI EndBlock cfiCond27
        CFI EndBlock cfiPicker28

        RSEG BANKED_CODE:CODE:NOROOT(0)
?Subroutine2:
        CFI Block cfiCond29 Using cfiCommon0
        CFI NoFunction
        CFI Conditional ??CrossCallReturnLabel_2
        CFI R6 load(1, XDATA, add(CFA_XSP16, literal(-10)))
        CFI VB load(1, XDATA, add(CFA_XSP16, literal(-9)))
        CFI V0 load(1, XDATA, add(CFA_XSP16, literal(-8)))
        CFI V1 load(1, XDATA, add(CFA_XSP16, literal(-7)))
        CFI R7 load(1, XDATA, add(CFA_XSP16, literal(-6)))
        CFI ?RET_LOW load(1, XDATA, add(CFA_XSP16, literal(-5)))
        CFI ?RET_HIGH load(1, XDATA, add(CFA_XSP16, literal(-4)))
        CFI ?BRET_EXT load(1, XDATA, add(CFA_XSP16, literal(-3)))
        CFI DPL0 load(1, XDATA, add(CFA_XSP16, literal(-2)))
        CFI DPH0 load(1, XDATA, add(CFA_XSP16, literal(-1)))
        CFI CFA_SP SP+0
        CFI CFA_XSP16 add(XSP16, 12)
        CFI Block cfiCond30 Using cfiCommon0
        CFI (cfiCond30) NoFunction
        CFI (cfiCond30) Conditional ??CrossCallReturnLabel_3
        CFI (cfiCond30) R6 load(1, XDATA, add(CFA_XSP16, literal(-9)))
        CFI (cfiCond30) VB load(1, XDATA, add(CFA_XSP16, literal(-8)))
        CFI (cfiCond30) V0 load(1, XDATA, add(CFA_XSP16, literal(-7)))
        CFI (cfiCond30) R7 load(1, XDATA, add(CFA_XSP16, literal(-6)))
        CFI (cfiCond30) ?RET_LOW load(1, XDATA, add(CFA_XSP16, literal(-5)))
        CFI (cfiCond30) ?RET_HIGH load(1, XDATA, add(CFA_XSP16, literal(-4)))
        CFI (cfiCond30) ?BRET_EXT load(1, XDATA, add(CFA_XSP16, literal(-3)))
        CFI (cfiCond30) DPL0 load(1, XDATA, add(CFA_XSP16, literal(-2)))
        CFI (cfiCond30) DPH0 load(1, XDATA, add(CFA_XSP16, literal(-1)))
        CFI (cfiCond30) CFA_SP SP+0
        CFI (cfiCond30) CFA_XSP16 add(XSP16, 11)
        CFI Block cfiPicker31 Using cfiCommon1
        CFI (cfiPicker31) NoFunction
        CFI (cfiPicker31) Picker
        LCALL   ?Subroutine9 & 0xFFFF
??CrossCallReturnLabel_15:
        LCALL   ?Subroutine8 & 0xFFFF
??CrossCallReturnLabel_13:
        RET
        CFI EndBlock cfiCond29
        CFI EndBlock cfiCond30
        CFI EndBlock cfiPicker31

        RSEG BANKED_CODE:CODE:NOROOT(0)
?Subroutine9:
        CFI Block cfiCond32 Using cfiCommon0
        CFI NoFunction
        CFI Conditional ??CrossCallReturnLabel_14
        CFI R6 load(1, XDATA, add(CFA_XSP16, literal(-16)))
        CFI VB load(1, XDATA, add(CFA_XSP16, literal(-15)))
        CFI V0 load(1, XDATA, add(CFA_XSP16, literal(-14)))
        CFI V1 load(1, XDATA, add(CFA_XSP16, literal(-13)))
        CFI V2 load(1, XDATA, add(CFA_XSP16, literal(-12)))
        CFI V3 load(1, XDATA, add(CFA_XSP16, literal(-11)))
        CFI V4 load(1, XDATA, add(CFA_XSP16, literal(-10)))
        CFI V5 load(1, XDATA, add(CFA_XSP16, literal(-9)))
        CFI V6 load(1, XDATA, add(CFA_XSP16, literal(-8)))
        CFI V7 load(1, XDATA, add(CFA_XSP16, literal(-7)))
        CFI R7 load(1, XDATA, add(CFA_XSP16, literal(-6)))
        CFI ?RET_LOW load(1, XDATA, add(CFA_XSP16, literal(-5)))
        CFI ?RET_HIGH load(1, XDATA, add(CFA_XSP16, literal(-4)))
        CFI ?BRET_EXT load(1, XDATA, add(CFA_XSP16, literal(-3)))
        CFI DPL0 load(1, XDATA, add(CFA_XSP16, literal(-2)))
        CFI DPH0 load(1, XDATA, add(CFA_XSP16, literal(-1)))
        CFI CFA_SP SP+0
        CFI CFA_XSP16 add(XSP16, 20)
        CFI Block cfiCond33 Using cfiCommon0
        CFI (cfiCond33) NoFunction
        CFI (cfiCond33) Conditional ??CrossCallReturnLabel_15, ??CrossCallReturnLabel_2
        CFI (cfiCond33) R6 load(1, XDATA, add(CFA_XSP16, literal(-10)))
        CFI (cfiCond33) VB load(1, XDATA, add(CFA_XSP16, literal(-9)))
        CFI (cfiCond33) V0 load(1, XDATA, add(CFA_XSP16, literal(-8)))
        CFI (cfiCond33) V1 load(1, XDATA, add(CFA_XSP16, literal(-7)))
        CFI (cfiCond33) R7 load(1, XDATA, add(CFA_XSP16, literal(-6)))
        CFI (cfiCond33) ?RET_LOW load(1, XDATA, add(CFA_XSP16, literal(-5)))
        CFI (cfiCond33) ?RET_HIGH load(1, XDATA, add(CFA_XSP16, literal(-4)))
        CFI (cfiCond33) ?BRET_EXT load(1, XDATA, add(CFA_XSP16, literal(-3)))
        CFI (cfiCond33) DPL0 load(1, XDATA, add(CFA_XSP16, literal(-2)))
        CFI (cfiCond33) DPH0 load(1, XDATA, add(CFA_XSP16, literal(-1)))
        CFI (cfiCond33) CFA_SP SP+0
        CFI (cfiCond33) CFA_XSP16 add(XSP16, 12)
        CFI Block cfiCond34 Using cfiCommon0
        CFI (cfiCond34) NoFunction
        CFI (cfiCond34) Conditional ??CrossCallReturnLabel_15, ??CrossCallReturnLabel_3
        CFI (cfiCond34) R6 load(1, XDATA, add(CFA_XSP16, literal(-9)))
        CFI (cfiCond34) VB load(1, XDATA, add(CFA_XSP16, literal(-8)))
        CFI (cfiCond34) V0 load(1, XDATA, add(CFA_XSP16, literal(-7)))
        CFI (cfiCond34) R7 load(1, XDATA, add(CFA_XSP16, literal(-6)))
        CFI (cfiCond34) ?RET_LOW load(1, XDATA, add(CFA_XSP16, literal(-5)))
        CFI (cfiCond34) ?RET_HIGH load(1, XDATA, add(CFA_XSP16, literal(-4)))
        CFI (cfiCond34) ?BRET_EXT load(1, XDATA, add(CFA_XSP16, literal(-3)))
        CFI (cfiCond34) DPL0 load(1, XDATA, add(CFA_XSP16, literal(-2)))
        CFI (cfiCond34) DPH0 load(1, XDATA, add(CFA_XSP16, literal(-1)))
        CFI (cfiCond34) CFA_SP SP+0
        CFI (cfiCond34) CFA_XSP16 add(XSP16, 11)
        CFI Block cfiPicker35 Using cfiCommon1
        CFI (cfiPicker35) NoFunction
        CFI (cfiPicker35) Picker
        INC     DPTR
        MOVX    A,@DPTR
        ADDC    A,#0x0
        MOV     R1,A
        MOV     DPL,?XSP + 0
        MOV     DPH,?XSP + 1
        MOV     A,R0
        MOVX    @DPTR,A
        INC     DPTR
        MOV     A,R1
        RET
        CFI EndBlock cfiCond32
        CFI EndBlock cfiCond33
        CFI EndBlock cfiCond34
        CFI EndBlock cfiPicker35

        RSEG BANKED_CODE:CODE:NOROOT(0)
?Subroutine8:
        CFI Block cfiCond36 Using cfiCommon0
        CFI NoFunction
        CFI Conditional ??CrossCallReturnLabel_12, ??CrossCallReturnLabel_4
        CFI R6 load(1, XDATA, add(CFA_XSP16, literal(-9)))
        CFI VB load(1, XDATA, add(CFA_XSP16, literal(-8)))
        CFI V0 load(1, XDATA, add(CFA_XSP16, literal(-7)))
        CFI R7 load(1, XDATA, add(CFA_XSP16, literal(-6)))
        CFI ?RET_LOW load(1, XDATA, add(CFA_XSP16, literal(-5)))
        CFI ?RET_HIGH load(1, XDATA, add(CFA_XSP16, literal(-4)))
        CFI ?BRET_EXT load(1, XDATA, add(CFA_XSP16, literal(-3)))
        CFI DPL0 load(1, XDATA, add(CFA_XSP16, literal(-2)))
        CFI DPH0 load(1, XDATA, add(CFA_XSP16, literal(-1)))
        CFI CFA_SP SP+0
        CFI CFA_XSP16 add(XSP16, 11)
        CFI Block cfiCond37 Using cfiCommon0
        CFI (cfiCond37) NoFunction
        CFI (cfiCond37) Conditional ??CrossCallReturnLabel_12, ??CrossCallReturnLabel_5
        CFI (cfiCond37) R6 load(1, XDATA, add(CFA_XSP16, literal(-9)))
        CFI (cfiCond37) VB load(1, XDATA, add(CFA_XSP16, literal(-8)))
        CFI (cfiCond37) V0 load(1, XDATA, add(CFA_XSP16, literal(-7)))
        CFI (cfiCond37) R7 load(1, XDATA, add(CFA_XSP16, literal(-6)))
        CFI (cfiCond37) ?RET_LOW load(1, XDATA, add(CFA_XSP16, literal(-5)))
        CFI (cfiCond37) ?RET_HIGH load(1, XDATA, add(CFA_XSP16, literal(-4)))
        CFI (cfiCond37) ?BRET_EXT load(1, XDATA, add(CFA_XSP16, literal(-3)))
        CFI (cfiCond37) DPL0 load(1, XDATA, add(CFA_XSP16, literal(-2)))
        CFI (cfiCond37) DPH0 load(1, XDATA, add(CFA_XSP16, literal(-1)))
        CFI (cfiCond37) CFA_SP SP+0
        CFI (cfiCond37) CFA_XSP16 add(XSP16, 11)
        CFI Block cfiCond38 Using cfiCommon0
        CFI (cfiCond38) NoFunction
        CFI (cfiCond38) Conditional ??CrossCallReturnLabel_13, ??CrossCallReturnLabel_2
        CFI (cfiCond38) R6 load(1, XDATA, add(CFA_XSP16, literal(-10)))
        CFI (cfiCond38) VB load(1, XDATA, add(CFA_XSP16, literal(-9)))
        CFI (cfiCond38) V0 load(1, XDATA, add(CFA_XSP16, literal(-8)))
        CFI (cfiCond38) V1 load(1, XDATA, add(CFA_XSP16, literal(-7)))
        CFI (cfiCond38) R7 load(1, XDATA, add(CFA_XSP16, literal(-6)))
        CFI (cfiCond38) ?RET_LOW load(1, XDATA, add(CFA_XSP16, literal(-5)))
        CFI (cfiCond38) ?RET_HIGH load(1, XDATA, add(CFA_XSP16, literal(-4)))
        CFI (cfiCond38) ?BRET_EXT load(1, XDATA, add(CFA_XSP16, literal(-3)))
        CFI (cfiCond38) DPL0 load(1, XDATA, add(CFA_XSP16, literal(-2)))
        CFI (cfiCond38) DPH0 load(1, XDATA, add(CFA_XSP16, literal(-1)))
        CFI (cfiCond38) CFA_SP SP+0
        CFI (cfiCond38) CFA_XSP16 add(XSP16, 12)
        CFI Block cfiCond39 Using cfiCommon0
        CFI (cfiCond39) NoFunction
        CFI (cfiCond39) Conditional ??CrossCallReturnLabel_13, ??CrossCallReturnLabel_3
        CFI (cfiCond39) R6 load(1, XDATA, add(CFA_XSP16, literal(-9)))
        CFI (cfiCond39) VB load(1, XDATA, add(CFA_XSP16, literal(-8)))
        CFI (cfiCond39) V0 load(1, XDATA, add(CFA_XSP16, literal(-7)))
        CFI (cfiCond39) R7 load(1, XDATA, add(CFA_XSP16, literal(-6)))
        CFI (cfiCond39) ?RET_LOW load(1, XDATA, add(CFA_XSP16, literal(-5)))
        CFI (cfiCond39) ?RET_HIGH load(1, XDATA, add(CFA_XSP16, literal(-4)))
        CFI (cfiCond39) ?BRET_EXT load(1, XDATA, add(CFA_XSP16, literal(-3)))
        CFI (cfiCond39) DPL0 load(1, XDATA, add(CFA_XSP16, literal(-2)))
        CFI (cfiCond39) DPH0 load(1, XDATA, add(CFA_XSP16, literal(-1)))
        CFI (cfiCond39) CFA_SP SP+0
        CFI (cfiCond39) CFA_XSP16 add(XSP16, 11)
        CFI Block cfiPicker40 Using cfiCommon1
        CFI (cfiPicker40) NoFunction
        CFI (cfiPicker40) Picker
        MOVX    @DPTR,A
        ; Setup parameters for call to function GUI__Read16
        ; Setup parameters for call to function GUI__Read16
        ; Setup parameters for call to function GUI__Read16
        ; Setup parameters for call to function GUI__Read16
        MOV     DPL,?XSP + 0
        MOV     DPH,?XSP + 1
        MOV     R2,DPL
        MOV     R3,DPH
        LCALL   ??GUI__Read16?relay
        RET
        CFI EndBlock cfiCond36
        CFI EndBlock cfiCond37
        CFI EndBlock cfiCond38
        CFI EndBlock cfiCond39
        CFI EndBlock cfiPicker40
//  147 
//  148 /*********************************************************************
//  149 *
//  150 *       GUI_SIF_IsInFont
//  151 */

        RSEG BANKED_CODE:CODE:NOROOT(0)
//  152 static char _GUI_SIF_IsInFont(const GUI_FONT GUI_UNI_PTR * pFont, U16 c) {
_GUI_SIF_IsInFont:
        CFI Block cfiBlock41 Using cfiCommon0
        CFI Function _GUI_SIF_IsInFont
        CODE
        FUNCALL _GUI_SIF_IsInFont, _GetpCharInfo
        LOCFRAME ISTACK, 0, STACK
        LOCFRAME PSTACK, 0, STACK
        LOCFRAME XSTACK, 10, STACK
        LOCFRAME IOVERLAY, 0, STATIC
        LOCFRAME DOVERLAY, 0, STATIC
        ARGFRAME ISTACK, 0, STACK
        ARGFRAME PSTACK, 0, STACK
        ARGFRAME XSTACK, 10, STACK
        ARGFRAME IOVERLAY, 0, STATIC
        ARGFRAME DOVERLAY, 0, STATIC
        MOV     A,#-0xa
        LCALL   ?BANKED_ENTER_XDATA
        CFI DPH0 load(1, XDATA, add(CFA_XSP16, literal(-1)))
        CFI DPL0 load(1, XDATA, add(CFA_XSP16, literal(-2)))
        CFI ?BRET_EXT load(1, XDATA, add(CFA_XSP16, literal(-3)))
        CFI ?RET_HIGH load(1, XDATA, add(CFA_XSP16, literal(-4)))
        CFI ?RET_LOW load(1, XDATA, add(CFA_XSP16, literal(-5)))
        CFI R7 load(1, XDATA, add(CFA_XSP16, literal(-6)))
        CFI V1 load(1, XDATA, add(CFA_XSP16, literal(-7)))
        CFI V0 load(1, XDATA, add(CFA_XSP16, literal(-8)))
        CFI VB load(1, XDATA, add(CFA_XSP16, literal(-9)))
        CFI R6 load(1, XDATA, add(CFA_XSP16, literal(-10)))
        CFI CFA_SP SP+0
        CFI CFA_XSP16 add(XSP16, 10)
        ; Saved register size: 10
        ; Auto size: 0
//  153   const U8 * pCharInfo;
//  154   GUI_USE_PARA(pFont);
//  155   pCharInfo = _GetpCharInfo(GUI_Context.pAFont, c);
//  156   return (pCharInfo) ? 1 : 0;
        ; Setup parameters for call to function _GetpCharInfo
        LCALL   ?Subroutine6 & 0xFFFF
??CrossCallReturnLabel_23:
        LCALL   ??_GetpCharInfo?relay
        MOV     ?V0 + 1,R3
        MOV     A,R2
        ORL     A,?V0 + 1
        JZ      ??_GUI_SIF_IsInFont_0
        MOV     R1,#0x1
        SJMP    ??_GUI_SIF_IsInFont_1
??_GUI_SIF_IsInFont_0:
        MOV     R1,#0x0
??_GUI_SIF_IsInFont_1:
        LJMP    ?Subroutine0 & 0xFFFF
        CFI EndBlock cfiBlock41
//  157 }

        RSEG BANKED_CODE:CODE:NOROOT(0)
?Subroutine6:
        CFI Block cfiCond42 Using cfiCommon0
        CFI NoFunction
        CFI Conditional ??CrossCallReturnLabel_22
        CFI R6 load(1, XDATA, add(CFA_XSP16, literal(-20)))
        CFI VB load(1, XDATA, add(CFA_XSP16, literal(-19)))
        CFI V0 load(1, XDATA, add(CFA_XSP16, literal(-18)))
        CFI V1 load(1, XDATA, add(CFA_XSP16, literal(-17)))
        CFI V2 load(1, XDATA, add(CFA_XSP16, literal(-16)))
        CFI V3 load(1, XDATA, add(CFA_XSP16, literal(-15)))
        CFI V4 load(1, XDATA, add(CFA_XSP16, literal(-14)))
        CFI V5 load(1, XDATA, add(CFA_XSP16, literal(-13)))
        CFI V6 load(1, XDATA, add(CFA_XSP16, literal(-12)))
        CFI V7 load(1, XDATA, add(CFA_XSP16, literal(-11)))
        CFI V8 load(1, XDATA, add(CFA_XSP16, literal(-10)))
        CFI V9 load(1, XDATA, add(CFA_XSP16, literal(-9)))
        CFI V10 load(1, XDATA, add(CFA_XSP16, literal(-8)))
        CFI V11 load(1, XDATA, add(CFA_XSP16, literal(-7)))
        CFI R7 load(1, XDATA, add(CFA_XSP16, literal(-6)))
        CFI ?RET_LOW load(1, XDATA, add(CFA_XSP16, literal(-5)))
        CFI ?RET_HIGH load(1, XDATA, add(CFA_XSP16, literal(-4)))
        CFI ?BRET_EXT load(1, XDATA, add(CFA_XSP16, literal(-3)))
        CFI DPL0 load(1, XDATA, add(CFA_XSP16, literal(-2)))
        CFI DPH0 load(1, XDATA, add(CFA_XSP16, literal(-1)))
        CFI CFA_SP SP+0
        CFI CFA_XSP16 add(XSP16, 22)
        CFI Block cfiCond43 Using cfiCommon0
        CFI (cfiCond43) NoFunction
        CFI (cfiCond43) Conditional ??CrossCallReturnLabel_23
        CFI (cfiCond43) R6 load(1, XDATA, add(CFA_XSP16, literal(-10)))
        CFI (cfiCond43) VB load(1, XDATA, add(CFA_XSP16, literal(-9)))
        CFI (cfiCond43) V0 load(1, XDATA, add(CFA_XSP16, literal(-8)))
        CFI (cfiCond43) V1 load(1, XDATA, add(CFA_XSP16, literal(-7)))
        CFI (cfiCond43) R7 load(1, XDATA, add(CFA_XSP16, literal(-6)))
        CFI (cfiCond43) ?RET_LOW load(1, XDATA, add(CFA_XSP16, literal(-5)))
        CFI (cfiCond43) ?RET_HIGH load(1, XDATA, add(CFA_XSP16, literal(-4)))
        CFI (cfiCond43) ?BRET_EXT load(1, XDATA, add(CFA_XSP16, literal(-3)))
        CFI (cfiCond43) DPL0 load(1, XDATA, add(CFA_XSP16, literal(-2)))
        CFI (cfiCond43) DPH0 load(1, XDATA, add(CFA_XSP16, literal(-1)))
        CFI (cfiCond43) CFA_SP SP+0
        CFI (cfiCond43) CFA_XSP16 add(XSP16, 10)
        CFI Block cfiPicker44 Using cfiCommon1
        CFI (cfiPicker44) NoFunction
        CFI (cfiPicker44) Picker
        MOV     DPTR,#GUI_Context + 21
        CFI EndBlock cfiCond42
        CFI EndBlock cfiCond43
        CFI EndBlock cfiPicker44
        REQUIRE ??Subroutine12_0
        ; // Fall through to label ??Subroutine12_0

        RSEG BANKED_CODE:CODE:NOROOT(0)
??Subroutine12_0:
        CFI Block cfiCond45 Using cfiCommon0
        CFI NoFunction
        CFI Conditional ??CrossCallReturnLabel_20
        CFI R6 load(1, XDATA, add(CFA_XSP16, literal(-20)))
        CFI VB load(1, XDATA, add(CFA_XSP16, literal(-19)))
        CFI V0 load(1, XDATA, add(CFA_XSP16, literal(-18)))
        CFI V1 load(1, XDATA, add(CFA_XSP16, literal(-17)))
        CFI V2 load(1, XDATA, add(CFA_XSP16, literal(-16)))
        CFI V3 load(1, XDATA, add(CFA_XSP16, literal(-15)))
        CFI V4 load(1, XDATA, add(CFA_XSP16, literal(-14)))
        CFI V5 load(1, XDATA, add(CFA_XSP16, literal(-13)))
        CFI V6 load(1, XDATA, add(CFA_XSP16, literal(-12)))
        CFI V7 load(1, XDATA, add(CFA_XSP16, literal(-11)))
        CFI V8 load(1, XDATA, add(CFA_XSP16, literal(-10)))
        CFI V9 load(1, XDATA, add(CFA_XSP16, literal(-9)))
        CFI V10 load(1, XDATA, add(CFA_XSP16, literal(-8)))
        CFI V11 load(1, XDATA, add(CFA_XSP16, literal(-7)))
        CFI R7 load(1, XDATA, add(CFA_XSP16, literal(-6)))
        CFI ?RET_LOW load(1, XDATA, add(CFA_XSP16, literal(-5)))
        CFI ?RET_HIGH load(1, XDATA, add(CFA_XSP16, literal(-4)))
        CFI ?BRET_EXT load(1, XDATA, add(CFA_XSP16, literal(-3)))
        CFI DPL0 load(1, XDATA, add(CFA_XSP16, literal(-2)))
        CFI DPH0 load(1, XDATA, add(CFA_XSP16, literal(-1)))
        CFI CFA_SP SP+0
        CFI CFA_XSP16 add(XSP16, 38)
        CFI Block cfiCond46 Using cfiCommon0
        CFI (cfiCond46) NoFunction
        CFI (cfiCond46) Conditional ??CrossCallReturnLabel_21
        CFI (cfiCond46) R6 load(1, XDATA, add(CFA_XSP16, literal(-20)))
        CFI (cfiCond46) VB load(1, XDATA, add(CFA_XSP16, literal(-19)))
        CFI (cfiCond46) V0 load(1, XDATA, add(CFA_XSP16, literal(-18)))
        CFI (cfiCond46) V1 load(1, XDATA, add(CFA_XSP16, literal(-17)))
        CFI (cfiCond46) V2 load(1, XDATA, add(CFA_XSP16, literal(-16)))
        CFI (cfiCond46) V3 load(1, XDATA, add(CFA_XSP16, literal(-15)))
        CFI (cfiCond46) V4 load(1, XDATA, add(CFA_XSP16, literal(-14)))
        CFI (cfiCond46) V5 load(1, XDATA, add(CFA_XSP16, literal(-13)))
        CFI (cfiCond46) V6 load(1, XDATA, add(CFA_XSP16, literal(-12)))
        CFI (cfiCond46) V7 load(1, XDATA, add(CFA_XSP16, literal(-11)))
        CFI (cfiCond46) V8 load(1, XDATA, add(CFA_XSP16, literal(-10)))
        CFI (cfiCond46) V9 load(1, XDATA, add(CFA_XSP16, literal(-9)))
        CFI (cfiCond46) V10 load(1, XDATA, add(CFA_XSP16, literal(-8)))
        CFI (cfiCond46) V11 load(1, XDATA, add(CFA_XSP16, literal(-7)))
        CFI (cfiCond46) R7 load(1, XDATA, add(CFA_XSP16, literal(-6)))
        CFI (cfiCond46) ?RET_LOW load(1, XDATA, add(CFA_XSP16, literal(-5)))
        CFI (cfiCond46) ?RET_HIGH load(1, XDATA, add(CFA_XSP16, literal(-4)))
        CFI (cfiCond46) ?BRET_EXT load(1, XDATA, add(CFA_XSP16, literal(-3)))
        CFI (cfiCond46) DPL0 load(1, XDATA, add(CFA_XSP16, literal(-2)))
        CFI (cfiCond46) DPH0 load(1, XDATA, add(CFA_XSP16, literal(-1)))
        CFI (cfiCond46) CFA_SP SP+0
        CFI (cfiCond46) CFA_XSP16 add(XSP16, 22)
        CFI Block cfiCond47 Using cfiCommon0
        CFI (cfiCond47) NoFunction
        CFI (cfiCond47) Conditional ??CrossCallReturnLabel_22
        CFI (cfiCond47) R6 load(1, XDATA, add(CFA_XSP16, literal(-20)))
        CFI (cfiCond47) VB load(1, XDATA, add(CFA_XSP16, literal(-19)))
        CFI (cfiCond47) V0 load(1, XDATA, add(CFA_XSP16, literal(-18)))
        CFI (cfiCond47) V1 load(1, XDATA, add(CFA_XSP16, literal(-17)))
        CFI (cfiCond47) V2 load(1, XDATA, add(CFA_XSP16, literal(-16)))
        CFI (cfiCond47) V3 load(1, XDATA, add(CFA_XSP16, literal(-15)))
        CFI (cfiCond47) V4 load(1, XDATA, add(CFA_XSP16, literal(-14)))
        CFI (cfiCond47) V5 load(1, XDATA, add(CFA_XSP16, literal(-13)))
        CFI (cfiCond47) V6 load(1, XDATA, add(CFA_XSP16, literal(-12)))
        CFI (cfiCond47) V7 load(1, XDATA, add(CFA_XSP16, literal(-11)))
        CFI (cfiCond47) V8 load(1, XDATA, add(CFA_XSP16, literal(-10)))
        CFI (cfiCond47) V9 load(1, XDATA, add(CFA_XSP16, literal(-9)))
        CFI (cfiCond47) V10 load(1, XDATA, add(CFA_XSP16, literal(-8)))
        CFI (cfiCond47) V11 load(1, XDATA, add(CFA_XSP16, literal(-7)))
        CFI (cfiCond47) R7 load(1, XDATA, add(CFA_XSP16, literal(-6)))
        CFI (cfiCond47) ?RET_LOW load(1, XDATA, add(CFA_XSP16, literal(-5)))
        CFI (cfiCond47) ?RET_HIGH load(1, XDATA, add(CFA_XSP16, literal(-4)))
        CFI (cfiCond47) ?BRET_EXT load(1, XDATA, add(CFA_XSP16, literal(-3)))
        CFI (cfiCond47) DPL0 load(1, XDATA, add(CFA_XSP16, literal(-2)))
        CFI (cfiCond47) DPH0 load(1, XDATA, add(CFA_XSP16, literal(-1)))
        CFI (cfiCond47) CFA_SP SP+0
        CFI (cfiCond47) CFA_XSP16 add(XSP16, 22)
        CFI Block cfiCond48 Using cfiCommon0
        CFI (cfiCond48) NoFunction
        CFI (cfiCond48) Conditional ??CrossCallReturnLabel_23
        CFI (cfiCond48) R6 load(1, XDATA, add(CFA_XSP16, literal(-10)))
        CFI (cfiCond48) VB load(1, XDATA, add(CFA_XSP16, literal(-9)))
        CFI (cfiCond48) V0 load(1, XDATA, add(CFA_XSP16, literal(-8)))
        CFI (cfiCond48) V1 load(1, XDATA, add(CFA_XSP16, literal(-7)))
        CFI (cfiCond48) R7 load(1, XDATA, add(CFA_XSP16, literal(-6)))
        CFI (cfiCond48) ?RET_LOW load(1, XDATA, add(CFA_XSP16, literal(-5)))
        CFI (cfiCond48) ?RET_HIGH load(1, XDATA, add(CFA_XSP16, literal(-4)))
        CFI (cfiCond48) ?BRET_EXT load(1, XDATA, add(CFA_XSP16, literal(-3)))
        CFI (cfiCond48) DPL0 load(1, XDATA, add(CFA_XSP16, literal(-2)))
        CFI (cfiCond48) DPH0 load(1, XDATA, add(CFA_XSP16, literal(-1)))
        CFI (cfiCond48) CFA_SP SP+0
        CFI (cfiCond48) CFA_XSP16 add(XSP16, 10)
        CFI Block cfiPicker49 Using cfiCommon1
        CFI (cfiPicker49) NoFunction
        CFI (cfiPicker49) Picker
        MOVX    A,@DPTR
        MOV     R2,A
        INC     DPTR
        MOVX    A,@DPTR
        MOV     R3,A
        RET
        CFI EndBlock cfiCond45
        CFI EndBlock cfiCond46
        CFI EndBlock cfiCond47
        CFI EndBlock cfiCond48
        CFI EndBlock cfiPicker49
//  158 
//  159 /*********************************************************************
//  160 *
//  161 *       GUI_SIF_TYPE_PROP
//  162 */

        RSEG XDATA_ROM_C:CONST:REORDER:NOROOT(0)
        DATA8
//  163 const tGUI_SIF_APIList GUI_SIF_APIList_Prop = {
GUI_SIF_APIList_Prop:
        DATA16
        DW ??_GUI_SIF_DispChar?relay
        DW ??_GUI_SIF_GetCharDistX?relay
        DW ??_GUI_SIF_GetFontInfo?relay
        DW ??_GUI_SIF_IsInFont?relay

        RSEG BANK_RELAYS:CODE:REORDER:NOROOT(0)
??_GetpCharInfo?relay:
        LCALL   ?BDISPATCH
        DATA
        DC24    _GetpCharInfo

        RSEG BANK_RELAYS:CODE:REORDER:NOROOT(0)
??_GUI_SIF_DispChar?relay:
        LCALL   ?BDISPATCH
        DATA
        DC24    _GUI_SIF_DispChar

        RSEG BANK_RELAYS:CODE:REORDER:NOROOT(0)
??_GUI_SIF_GetCharDistX?relay:
        LCALL   ?BDISPATCH
        DATA
        DC24    _GUI_SIF_GetCharDistX

        RSEG BANK_RELAYS:CODE:REORDER:NOROOT(0)
??_GUI_SIF_GetFontInfo?relay:
        LCALL   ?BDISPATCH
        DATA
        DC24    _GUI_SIF_GetFontInfo

        RSEG BANK_RELAYS:CODE:REORDER:NOROOT(0)
??_GUI_SIF_IsInFont?relay:
        LCALL   ?BDISPATCH
        DATA
        DC24    _GUI_SIF_IsInFont

        END
//  164   _GUI_SIF_DispChar,
//  165   _GUI_SIF_GetCharDistX,
//  166   _GUI_SIF_GetFontInfo,
//  167   _GUI_SIF_IsInFont
//  168 };
// 
// 984 bytes in segment BANKED_CODE
//  30 bytes in segment BANK_RELAYS
//   8 bytes in segment XDATA_ROM_C
// 
// 1 014 bytes of CODE  memory
//     8 bytes of CONST memory
//
//Errors: none
//Warnings: none
