///////////////////////////////////////////////////////////////////////////////
//                                                                            /
// IAR C/C++ Compiler V8.10.1.10194/W32 for 8051        14/Jun/2016  16:18:17 /
// Copyright 2004-2011 IAR Systems AB.                                        /
//                                                                            /
//    Core               =  plain                                             /
//    Code model         =  banked                                            /
//    Data model         =  large                                             /
//    Calling convention =  xdata reentrant                                   /
//    Constant location  =  data_rom                                          /
//    Dptr setup         =  1,16                                              /
//    Source file        =  F:\¹âÅÌ×ÊÁÏ\ETC-WSNÎïÁªÍø¹âÅÌ×ÊÁÏ210\ZigBeeÍøÂç\W /
//                          SN-CSÔ´Âë\ZStack-CC2530-2.5.1a\Components\uCGUI\C /
//                          ore\GUI__Wrap.c                                   /
//    Command line       =  -f F:\¹âÅÌ×ÊÁÏ\ETC-WSNÎïÁªÍø¹âÅÌ×ÊÁÏ210\ZigBeeÍøÂ /
//                          ç\WSN-CSÔ´Âë\ZStack-CC2530-2.5.1a\Projects\zstack /
//                          \Utilities\SerialApp\CC2530DB\..\..\..\Tools\CC25 /
//                          30DB\f8wCoord.cfg (-DCPU32MHZ -DROOT=__near_func  /
//                          -DMAC_CFG_APP_PENDING_QUEUE=TRUE                  /
//                          -DMAC_CFG_TX_DATA_MAX=5 -DMAC_CFG_TX_MAX=8        /
//                          -DMAC_CFG_RX_MAX=5 -DZDO_COORDINATOR -DRTR_NWK)   /
//                          -f F:\¹âÅÌ×ÊÁÏ\ETC-WSNÎïÁªÍø¹âÅÌ×ÊÁÏ210\ZigBeeÍøÂ /
//                          ç\WSN-CSÔ´Âë\ZStack-CC2530-2.5.1a\Projects\zstack /
//                          \Utilities\SerialApp\CC2530DB\..\..\..\Tools\CC25 /
//                          30DB\f8wConfig.cfg (-DZIGBEEPRO -DSECURE=0        /
//                          -DZG_SECURE_DYNAMIC=0 -DREFLECTOR                 /
//                          -DDEFAULT_CHANLIST=0x00000800                     /
//                          -DZDAPP_CONFIG_PAN_ID=0x1001                      /
//                          -DNWK_START_DELAY=100 -DEXTENDED_JOINING_RANDOM_M /
//                          ASK=0x007F -DBEACON_REQUEST_DELAY=100             /
//                          -DBEACON_REQ_DELAY_MASK=0x00FF                    /
//                          -DLINK_STATUS_JITTER_MASK=0x007F                  /
//                          -DROUTE_EXPIRY_TIME=30 -DAPSC_ACK_WAIT_DURATION_P /
//                          OLLED=3000 -DNWK_INDIRECT_MSG_TIMEOUT=7           /
//                          -DMAX_RREQ_ENTRIES=8 -DAPSC_MAX_FRAME_RETRIES=3   /
//                          -DNWK_MAX_DATA_RETRIES=2                          /
//                          -DMAX_POLL_FAILURE_RETRIES=2 -DMAX_BCAST=9        /
//                          -DAPS_MAX_GROUPS=16 -DMAX_RTG_ENTRIES=40          /
//                          -DNWK_MAX_BINDING_ENTRIES=4                       /
//                          -DMAX_BINDING_CLUSTER_IDS=4                       /
//                          "-DDEFAULT_KEY={0x01, 0x03, 0x05, 0x07, 0x09,     /
//                          0x0B, 0x0D, 0x0F, 0x00, 0x02, 0x04, 0x06, 0x08,   /
//                          0x0A, 0x0C, 0x0D}" -DMAC_MAX_FRAME_SIZE=116       /
//                          -DZDNWKMGR_MIN_TRANSMISSIONS=20 "-DCONST=const    /
//                          __code" -DGENERIC=__generic                       /
//                          -DRFD_RCVC_ALWAYS_ON=FALSE -DPOLL_RATE=1000       /
//                          -DQUEUED_POLL_RATE=100 -DRESPONSE_POLL_RATE=100)  /
//                          -DREJOIN_POLL_RATE=440 F:\¹âÅÌ×ÊÁÏ\ETC-WSNÎïÁªÍø¹ /
//                          âÅÌ×ÊÁÏ210\ZigBeeÍøÂç\WSN-CSÔ´Âë\ZStack-CC2530-2. /
//                          5.1a\Components\uCGUI\Core\GUI__Wrap.c -D         /
//                          HAL_UART=TRUE -D SERIAL_APP_PORT=0 -D COOR -D     /
//                          LCD_SUPPORTED -D NV_INIT -lC                      /
//                          F:\¹âÅÌ×ÊÁÏ\ETC-WSNÎïÁªÍø¹âÅÌ×ÊÁÏ210\ZigBeeÍøÂç\W /
//                          SN-CSÔ´Âë\ZStack-CC2530-2.5.1a\Projects\zstack\Ut /
//                          ilities\SerialApp\CC2530DB\CoordinatorEB\List\    /
//                          -lA F:\¹âÅÌ×ÊÁÏ\ETC-WSNÎïÁªÍø¹âÅÌ×ÊÁÏ210\ZigBeeÍø /
//                          Âç\WSN-CSÔ´Âë\ZStack-CC2530-2.5.1a\Projects\zstac /
//                          k\Utilities\SerialApp\CC2530DB\CoordinatorEB\List /
//                          \ --diag_suppress Pe001,Pa010 -o                  /
//                          F:\¹âÅÌ×ÊÁÏ\ETC-WSNÎïÁªÍø¹âÅÌ×ÊÁÏ210\ZigBeeÍøÂç\W /
//                          SN-CSÔ´Âë\ZStack-CC2530-2.5.1a\Projects\zstack\Ut /
//                          ilities\SerialApp\CC2530DB\CoordinatorEB\Obj\ -e  /
//                          --no_code_motion --debug --core=plain             /
//                          --dptr=16,1 --data_model=large                    /
//                          --code_model=banked --calling_convention=xdata_re /
//                          entrant --place_constants=data_rom                /
//                          --nr_virtual_regs 16 -I                           /
//                          F:\¹âÅÌ×ÊÁÏ\ETC-WSNÎïÁªÍø¹âÅÌ×ÊÁÏ210\ZigBeeÍøÂç\W /
//                          SN-CSÔ´Âë\ZStack-CC2530-2.5.1a\Projects\zstack\Ut /
//                          ilities\SerialApp\CC2530DB\ -I                    /
//                          F:\¹âÅÌ×ÊÁÏ\ETC-WSNÎïÁªÍø¹âÅÌ×ÊÁÏ210\ZigBeeÍøÂç\W /
//                          SN-CSÔ´Âë\ZStack-CC2530-2.5.1a\Projects\zstack\Ut /
//                          ilities\SerialApp\CC2530DB\..\Public\ -I          /
//                          F:\¹âÅÌ×ÊÁÏ\ETC-WSNÎïÁªÍø¹âÅÌ×ÊÁÏ210\ZigBeeÍøÂç\W /
//                          SN-CSÔ´Âë\ZStack-CC2530-2.5.1a\Projects\zstack\Ut /
//                          ilities\SerialApp\CC2530DB\..\..\..\..\..\Compone /
//                          nts\uCGUI\Core\ -I F:\¹âÅÌ×ÊÁÏ\ETC-WSNÎïÁªÍø¹âÅÌ× /
//                          ÊÁÏ210\ZigBeeÍøÂç\WSN-CSÔ´Âë\ZStack-CC2530-2.5.1a /
//                          \Projects\zstack\Utilities\SerialApp\CC2530DB\..\ /
//                          ..\..\..\..\Components\uCGUI\MultiLayer\ -I       /
//                          F:\¹âÅÌ×ÊÁÏ\ETC-WSNÎïÁªÍø¹âÅÌ×ÊÁÏ210\ZigBeeÍøÂç\W /
//                          SN-CSÔ´Âë\ZStack-CC2530-2.5.1a\Projects\zstack\Ut /
//                          ilities\SerialApp\CC2530DB\..\..\..\..\..\Compone /
//                          nts\uCGUI\Config\ -I F:\¹âÅÌ×ÊÁÏ\ETC-WSNÎïÁªÍø¹âÅ /
//                          Ì×ÊÁÏ210\ZigBeeÍøÂç\WSN-CSÔ´Âë\ZStack-CC2530-2.5. /
//                          1a\Projects\zstack\Utilities\SerialApp\CC2530DB\. /
//                          .\Coordinator\ -I F:\¹âÅÌ×ÊÁÏ\ETC-WSNÎïÁªÍø¹âÅÌ×Ê /
//                          ÁÏ210\ZigBeeÍøÂç\WSN-CSÔ´Âë\ZStack-CC2530-2.5.1a\ /
//                          Projects\zstack\Utilities\SerialApp\CC2530DB\..\. /
//                          .\..\ZMain\TI2530DB\ -I                           /
//                          F:\¹âÅÌ×ÊÁÏ\ETC-WSNÎïÁªÍø¹âÅÌ×ÊÁÏ210\ZigBeeÍøÂç\W /
//                          SN-CSÔ´Âë\ZStack-CC2530-2.5.1a\Projects\zstack\Ut /
//                          ilities\SerialApp\CC2530DB\..\..\..\..\..\Compone /
//                          nts\hal\include\ -I F:\¹âÅÌ×ÊÁÏ\ETC-WSNÎïÁªÍø¹âÅÌ /
//                          ×ÊÁÏ210\ZigBeeÍøÂç\WSN-CSÔ´Âë\ZStack-CC2530-2.5.1 /
//                          a\Projects\zstack\Utilities\SerialApp\CC2530DB\.. /
//                          \..\..\..\..\Components\hal\target\CC2530EB\ -I   /
//                          F:\¹âÅÌ×ÊÁÏ\ETC-WSNÎïÁªÍø¹âÅÌ×ÊÁÏ210\ZigBeeÍøÂç\W /
//                          SN-CSÔ´Âë\ZStack-CC2530-2.5.1a\Projects\zstack\Ut /
//                          ilities\SerialApp\CC2530DB\..\..\..\..\..\Compone /
//                          nts\mac\include\ -I F:\¹âÅÌ×ÊÁÏ\ETC-WSNÎïÁªÍø¹âÅÌ /
//                          ×ÊÁÏ210\ZigBeeÍøÂç\WSN-CSÔ´Âë\ZStack-CC2530-2.5.1 /
//                          a\Projects\zstack\Utilities\SerialApp\CC2530DB\.. /
//                          \..\..\..\..\Components\mac\high_level\ -I        /
//                          F:\¹âÅÌ×ÊÁÏ\ETC-WSNÎïÁªÍø¹âÅÌ×ÊÁÏ210\ZigBeeÍøÂç\W /
//                          SN-CSÔ´Âë\ZStack-CC2530-2.5.1a\Projects\zstack\Ut /
//                          ilities\SerialApp\CC2530DB\..\..\..\..\..\Compone /
//                          nts\mac\low_level\srf04\ -I                       /
//                          F:\¹âÅÌ×ÊÁÏ\ETC-WSNÎïÁªÍø¹âÅÌ×ÊÁÏ210\ZigBeeÍøÂç\W /
//                          SN-CSÔ´Âë\ZStack-CC2530-2.5.1a\Projects\zstack\Ut /
//                          ilities\SerialApp\CC2530DB\..\..\..\..\..\Compone /
//                          nts\mac\low_level\srf04\single_chip\ -I           /
//                          F:\¹âÅÌ×ÊÁÏ\ETC-WSNÎïÁªÍø¹âÅÌ×ÊÁÏ210\ZigBeeÍøÂç\W /
//                          SN-CSÔ´Âë\ZStack-CC2530-2.5.1a\Projects\zstack\Ut /
//                          ilities\SerialApp\CC2530DB\..\..\..\..\..\Compone /
//                          nts\mt\ -I F:\¹âÅÌ×ÊÁÏ\ETC-WSNÎïÁªÍø¹âÅÌ×ÊÁÏ210\Z /
//                          igBeeÍøÂç\WSN-CSÔ´Âë\ZStack-CC2530-2.5.1a\Project /
//                          s\zstack\Utilities\SerialApp\CC2530DB\..\..\..\.. /
//                          \..\Components\osal\include\ -I                   /
//                          F:\¹âÅÌ×ÊÁÏ\ETC-WSNÎïÁªÍø¹âÅÌ×ÊÁÏ210\ZigBeeÍøÂç\W /
//                          SN-CSÔ´Âë\ZStack-CC2530-2.5.1a\Projects\zstack\Ut /
//                          ilities\SerialApp\CC2530DB\..\..\..\..\..\Compone /
//                          nts\services\saddr\ -I F:\¹âÅÌ×ÊÁÏ\ETC-WSNÎïÁªÍø¹ /
//                          âÅÌ×ÊÁÏ210\ZigBeeÍøÂç\WSN-CSÔ´Âë\ZStack-CC2530-2. /
//                          5.1a\Projects\zstack\Utilities\SerialApp\CC2530DB /
//                          \..\..\..\..\..\Components\services\sdata\ -I     /
//                          F:\¹âÅÌ×ÊÁÏ\ETC-WSNÎïÁªÍø¹âÅÌ×ÊÁÏ210\ZigBeeÍøÂç\W /
//                          SN-CSÔ´Âë\ZStack-CC2530-2.5.1a\Projects\zstack\Ut /
//                          ilities\SerialApp\CC2530DB\..\..\..\..\..\Compone /
//                          nts\stack\af\ -I F:\¹âÅÌ×ÊÁÏ\ETC-WSNÎïÁªÍø¹âÅÌ×ÊÁ /
//                          Ï210\ZigBeeÍøÂç\WSN-CSÔ´Âë\ZStack-CC2530-2.5.1a\P /
//                          rojects\zstack\Utilities\SerialApp\CC2530DB\..\.. /
//                          \..\..\..\Components\stack\nwk\ -I                /
//                          F:\¹âÅÌ×ÊÁÏ\ETC-WSNÎïÁªÍø¹âÅÌ×ÊÁÏ210\ZigBeeÍøÂç\W /
//                          SN-CSÔ´Âë\ZStack-CC2530-2.5.1a\Projects\zstack\Ut /
//                          ilities\SerialApp\CC2530DB\..\..\..\..\..\Compone /
//                          nts\stack\sapi\ -I F:\¹âÅÌ×ÊÁÏ\ETC-WSNÎïÁªÍø¹âÅÌ× /
//                          ÊÁÏ210\ZigBeeÍøÂç\WSN-CSÔ´Âë\ZStack-CC2530-2.5.1a /
//                          \Projects\zstack\Utilities\SerialApp\CC2530DB\..\ /
//                          ..\..\..\..\Components\stack\sec\ -I              /
//                          F:\¹âÅÌ×ÊÁÏ\ETC-WSNÎïÁªÍø¹âÅÌ×ÊÁÏ210\ZigBeeÍøÂç\W /
//                          SN-CSÔ´Âë\ZStack-CC2530-2.5.1a\Projects\zstack\Ut /
//                          ilities\SerialApp\CC2530DB\..\..\..\..\..\Compone /
//                          nts\stack\sys\ -I F:\¹âÅÌ×ÊÁÏ\ETC-WSNÎïÁªÍø¹âÅÌ×Ê /
//                          ÁÏ210\ZigBeeÍøÂç\WSN-CSÔ´Âë\ZStack-CC2530-2.5.1a\ /
//                          Projects\zstack\Utilities\SerialApp\CC2530DB\..\. /
//                          .\..\..\..\Components\stack\zdo\ -I               /
//                          F:\¹âÅÌ×ÊÁÏ\ETC-WSNÎïÁªÍø¹âÅÌ×ÊÁÏ210\ZigBeeÍøÂç\W /
//                          SN-CSÔ´Âë\ZStack-CC2530-2.5.1a\Projects\zstack\Ut /
//                          ilities\SerialApp\CC2530DB\..\..\..\..\..\Compone /
//                          nts\zmac\ -I F:\¹âÅÌ×ÊÁÏ\ETC-WSNÎïÁªÍø¹âÅÌ×ÊÁÏ210 /
//                          \ZigBeeÍøÂç\WSN-CSÔ´Âë\ZStack-CC2530-2.5.1a\Proje /
//                          cts\zstack\Utilities\SerialApp\CC2530DB\..\..\..\ /
//                          ..\..\Components\zmac\f8w\ -Ohz                   /
//                          --require_prototypes                              /
//    List file          =  F:\¹âÅÌ×ÊÁÏ\ETC-WSNÎïÁªÍø¹âÅÌ×ÊÁÏ210\ZigBeeÍøÂç\W /
//                          SN-CSÔ´Âë\ZStack-CC2530-2.5.1a\Projects\zstack\Ut /
//                          ilities\SerialApp\CC2530DB\CoordinatorEB\List\GUI /
//                          __Wrap.s51                                        /
//                                                                            /
//                                                                            /
///////////////////////////////////////////////////////////////////////////////

        NAME GUI__Wrap

        RTMODEL "__SystemLibrary", "CLib"
        RTMODEL "__calling_convention", "xdata_reentrant"
        RTMODEL "__code_model", "banked"
        RTMODEL "__core", "plain"
        RTMODEL "__data_model", "large"
        RTMODEL "__dptr_size", "16"
        RTMODEL "__extended_stack", "disabled"
        RTMODEL "__location_for_constants", "data"
        RTMODEL "__number_of_dptrs", "1"
        RTMODEL "__rt_version", "1"

        RSEG DOVERLAY:DATA:NOROOT(0)
        RSEG IOVERLAY:IDATA:NOROOT(0)
        RSEG ISTACK:IDATA:NOROOT(0)
        RSEG PSTACK:XDATA:NOROOT(0)
        RSEG XSTACK:XDATA:NOROOT(0)

        EXTERN ?ALLOC_XSTACK8
        EXTERN ?BANKED_ENTER_XDATA
        EXTERN ?BANKED_LEAVE_XDATA
        EXTERN ?BDISPATCH
        EXTERN ?DEALLOC_XSTACK8
        EXTERN ?V0
        EXTERN ?XSP

        PUBLIC ??GUI__WrapGetNumBytesToNextLine?relay
        FUNCTION ??GUI__WrapGetNumBytesToNextLine?relay,0203H
        PUBLIC ??GUI__WrapGetNumCharsDisp?relay
        FUNCTION ??GUI__WrapGetNumCharsDisp?relay,0203H
        PUBLIC ??GUI__WrapGetNumCharsToNextLine?relay
        FUNCTION ??GUI__WrapGetNumCharsToNextLine?relay,0203H
        PUBLIC GUI__WrapGetNumBytesToNextLine
        FUNCTION GUI__WrapGetNumBytesToNextLine,021203H
        ARGFRAME XSTACK, 0, STACK
        LOCFRAME XSTACK, 9, STACK
        PUBLIC GUI__WrapGetNumCharsDisp
        FUNCTION GUI__WrapGetNumCharsDisp,021203H
        ARGFRAME XSTACK, 14, STACK
        ARGFRAME IOVERLAY, 0, STATIC
        ARGFRAME DOVERLAY, 0, STATIC
        LOCFRAME XSTACK, 22, STACK
        PUBLIC GUI__WrapGetNumCharsToNextLine
        FUNCTION GUI__WrapGetNumCharsToNextLine,021203H
        ARGFRAME XSTACK, 9, STACK
        ARGFRAME IOVERLAY, 0, STATIC
        ARGFRAME DOVERLAY, 0, STATIC
        LOCFRAME XSTACK, 14, STACK
        
        CFI Names cfiNames0
        CFI StackFrame CFA_SP SP IDATA
        CFI StackFrame CFA_PSP16 PSP16 XDATA
        CFI StackFrame CFA_XSP16 XSP16 XDATA
        CFI StaticOverlayFrame CFA_IOVERLAY IOVERLAY
        CFI StaticOverlayFrame CFA_DOVERLAY DOVERLAY
        CFI Resource `PSW.CY`:1, `B.BR0`:1, `B.BR1`:1, `B.BR2`:1, `B.BR3`:1
        CFI Resource `B.BR4`:1, `B.BR5`:1, `B.BR6`:1, `B.BR7`:1, `VB.BR8`:1
        CFI Resource `VB.BR9`:1, `VB.BR10`:1, `VB.BR11`:1, `VB.BR12`:1
        CFI Resource `VB.BR13`:1, `VB.BR14`:1, `VB.BR15`:1, VB:8, B:8, A:8
        CFI Resource PSW:8, DPL0:8, DPH0:8, R0:8, R1:8, R2:8, R3:8, R4:8, R5:8
        CFI Resource R6:8, R7:8, V0:8, V1:8, V2:8, V3:8, V4:8, V5:8, V6:8, V7:8
        CFI Resource V8:8, V9:8, V10:8, V11:8, V12:8, V13:8, V14:8, V15:8, SP:8
        CFI Resource PSPH:8, PSPL:8, PSP16:16, XSPH:8, XSPL:8, XSP16:16
        CFI VirtualResource ?RET:24
        CFI Resource ?BRET_EXT:8
        CFI VirtualResource ?RET_HIGH:8, ?RET_LOW:8
        CFI ResourceParts PSP16 PSPH, PSPL
        CFI ResourceParts XSP16 XSPH, XSPL
        CFI ResourceParts ?RET ?BRET_EXT, ?RET_HIGH, ?RET_LOW
        CFI EndNames cfiNames0
        
        CFI Common cfiCommon0 Using cfiNames0
        CFI CodeAlign 1
        CFI DataAlign -1
        CFI ReturnAddress ?RET CODE
        CFI CFA_DOVERLAY Used
        CFI CFA_IOVERLAY Used
        CFI CFA_SP SP+-3
        CFI CFA_PSP16 PSP16+0
        CFI CFA_XSP16 XSP16+0
        CFI `PSW.CY` SameValue
        CFI `B.BR0` SameValue
        CFI `B.BR1` SameValue
        CFI `B.BR2` SameValue
        CFI `B.BR3` SameValue
        CFI `B.BR4` SameValue
        CFI `B.BR5` SameValue
        CFI `B.BR6` SameValue
        CFI `B.BR7` SameValue
        CFI `VB.BR8` SameValue
        CFI `VB.BR9` SameValue
        CFI `VB.BR10` SameValue
        CFI `VB.BR11` SameValue
        CFI `VB.BR12` SameValue
        CFI `VB.BR13` SameValue
        CFI `VB.BR14` SameValue
        CFI `VB.BR15` SameValue
        CFI VB SameValue
        CFI B Undefined
        CFI A Undefined
        CFI PSW SameValue
        CFI DPL0 SameValue
        CFI DPH0 SameValue
        CFI R0 Undefined
        CFI R1 Undefined
        CFI R2 Undefined
        CFI R3 Undefined
        CFI R4 Undefined
        CFI R5 Undefined
        CFI R6 SameValue
        CFI R7 SameValue
        CFI V0 SameValue
        CFI V1 SameValue
        CFI V2 SameValue
        CFI V3 SameValue
        CFI V4 SameValue
        CFI V5 SameValue
        CFI V6 SameValue
        CFI V7 SameValue
        CFI V8 SameValue
        CFI V9 SameValue
        CFI V10 SameValue
        CFI V11 SameValue
        CFI V12 SameValue
        CFI V13 SameValue
        CFI V14 SameValue
        CFI V15 SameValue
        CFI PSPH Undefined
        CFI PSPL Undefined
        CFI XSPH Undefined
        CFI XSPL Undefined
        CFI ?RET Concat
        CFI ?BRET_EXT Frame(CFA_SP, 3)
        CFI ?RET_HIGH Frame(CFA_SP, 2)
        CFI ?RET_LOW Frame(CFA_SP, 1)
        CFI EndCommon cfiCommon0
        
        
        CFI Common cfiCommon1 Using cfiNames0
        CFI CodeAlign 1
        CFI DataAlign -1
        CFI ReturnAddress ?RET CODE
        CFI CFA_DOVERLAY Used
        CFI CFA_IOVERLAY Used
        CFI CFA_SP SP+-2
        CFI CFA_PSP16 PSP16+0
        CFI CFA_XSP16 XSP16+0
        CFI `PSW.CY` SameValue
        CFI `B.BR0` SameValue
        CFI `B.BR1` SameValue
        CFI `B.BR2` SameValue
        CFI `B.BR3` SameValue
        CFI `B.BR4` SameValue
        CFI `B.BR5` SameValue
        CFI `B.BR6` SameValue
        CFI `B.BR7` SameValue
        CFI `VB.BR8` SameValue
        CFI `VB.BR9` SameValue
        CFI `VB.BR10` SameValue
        CFI `VB.BR11` SameValue
        CFI `VB.BR12` SameValue
        CFI `VB.BR13` SameValue
        CFI `VB.BR14` SameValue
        CFI `VB.BR15` SameValue
        CFI VB SameValue
        CFI B SameValue
        CFI A SameValue
        CFI PSW SameValue
        CFI DPL0 SameValue
        CFI DPH0 SameValue
        CFI R0 SameValue
        CFI R1 SameValue
        CFI R2 SameValue
        CFI R3 SameValue
        CFI R4 SameValue
        CFI R5 SameValue
        CFI R6 SameValue
        CFI R7 SameValue
        CFI V0 SameValue
        CFI V1 SameValue
        CFI V2 SameValue
        CFI V3 SameValue
        CFI V4 SameValue
        CFI V5 SameValue
        CFI V6 SameValue
        CFI V7 SameValue
        CFI V8 SameValue
        CFI V9 SameValue
        CFI V10 SameValue
        CFI V11 SameValue
        CFI V12 SameValue
        CFI V13 SameValue
        CFI V14 SameValue
        CFI V15 SameValue
        CFI PSPH Undefined
        CFI PSPL Undefined
        CFI XSPH Undefined
        CFI XSPL Undefined
        CFI ?RET Concat
        CFI ?BRET_EXT SameValue
        CFI ?RET_HIGH Frame(CFA_SP, 2)
        CFI ?RET_LOW Frame(CFA_SP, 1)
        CFI EndCommon cfiCommon1
        
GUI_UC__GetCharCodeInc SYMBOL "GUI_UC__GetCharCodeInc"
GUI_GetCharDistX    SYMBOL "GUI_GetCharDistX"
GUI__GetLineNumChars SYMBOL "GUI__GetLineNumChars"
GUI_UC__NumChars2NumBytes SYMBOL "GUI_UC__NumChars2NumBytes"
??GUI_GetCharDistX?relay SYMBOL "?relay", GUI_GetCharDistX
??GUI_UC__GetCharCodeInc?relay SYMBOL "?relay", GUI_UC__GetCharCodeInc
??GUI_UC__NumChars2NumBytes?relay SYMBOL "?relay", GUI_UC__NumChars2NumBytes
??GUI__GetLineNumChars?relay SYMBOL "?relay", GUI__GetLineNumChars
GUI__WrapGetNumBytesToNextLine SYMBOL "GUI__WrapGetNumBytesToNextLine"
??GUI__WrapGetNumBytesToNextLine?relay SYMBOL "?relay", GUI__WrapGetNumBytesToNextLine
GUI__WrapGetNumCharsDisp SYMBOL "GUI__WrapGetNumCharsDisp"
??GUI__WrapGetNumCharsDisp?relay SYMBOL "?relay", GUI__WrapGetNumCharsDisp
GUI__WrapGetNumCharsToNextLine SYMBOL "GUI__WrapGetNumCharsToNextLine"
??GUI__WrapGetNumCharsToNextLine?relay SYMBOL "?relay", GUI__WrapGetNumCharsToNextLine

        EXTERN GUI_UC__GetCharCodeInc
        FUNCTION GUI_UC__GetCharCodeInc,0202H
        ARGFRAME ISTACK, 0, STACK
        ARGFRAME PSTACK, 0, STACK
        ARGFRAME XSTACK, 22, STACK
        ARGFRAME IOVERLAY, 0, STATIC
        ARGFRAME DOVERLAY, 0, STATIC
        EXTERN GUI_GetCharDistX
        FUNCTION GUI_GetCharDistX,0202H
        ARGFRAME ISTACK, 0, STACK
        ARGFRAME PSTACK, 0, STACK
        ARGFRAME XSTACK, 22, STACK
        ARGFRAME IOVERLAY, 0, STATIC
        ARGFRAME DOVERLAY, 0, STATIC
        EXTERN GUI__GetLineNumChars
        FUNCTION GUI__GetLineNumChars,0202H
        ARGFRAME ISTACK, 0, STACK
        ARGFRAME PSTACK, 0, STACK
        ARGFRAME XSTACK, 22, STACK
        ARGFRAME IOVERLAY, 0, STATIC
        ARGFRAME DOVERLAY, 0, STATIC
        EXTERN GUI_UC__NumChars2NumBytes
        FUNCTION GUI_UC__NumChars2NumBytes,0202H
        ARGFRAME ISTACK, 0, STACK
        ARGFRAME PSTACK, 0, STACK
        ARGFRAME XSTACK, 14, STACK
        ARGFRAME IOVERLAY, 0, STATIC
        ARGFRAME DOVERLAY, 0, STATIC
        EXTERN ??GUI_GetCharDistX?relay
        FUNCTION ??GUI_GetCharDistX?relay,00H
        EXTERN ??GUI_UC__GetCharCodeInc?relay
        FUNCTION ??GUI_UC__GetCharCodeInc?relay,00H
        EXTERN ??GUI_UC__NumChars2NumBytes?relay
        FUNCTION ??GUI_UC__NumChars2NumBytes?relay,00H
        EXTERN ??GUI__GetLineNumChars?relay
        FUNCTION ??GUI__GetLineNumChars?relay,00H

// F:\¹âÅÌ×ÊÁÏ\ETC-WSNÎïÁªÍø¹âÅÌ×ÊÁÏ210\ZigBeeÍøÂç\WSN-CSÔ´Âë\ZStack-CC2530-2.5.1a\Components\uCGUI\Core\GUI__Wrap.c
//    1 /*
//    2 *********************************************************************************************************
//    3 *                                                uC/GUI
//    4 *                        Universal graphic software for embedded applications
//    5 *
//    6 *                       (c) Copyright 2002, Micrium Inc., Weston, FL
//    7 *                       (c) Copyright 2002, SEGGER Microcontroller Systeme GmbH
//    8 *
//    9 *              µC/GUI is protected by international copyright laws. Knowledge of the
//   10 *              source code may not be used to write a similar product. This file may
//   11 *              only be used in accordance with a license and should not be redistributed
//   12 *              in any way. We appreciate your understanding and fairness.
//   13 *
//   14 ----------------------------------------------------------------------
//   15 File        : GUI__WRAP.c
//   16 Purpose     : Implementation of wrap routines
//   17 ---------------------------END-OF-HEADER------------------------------
//   18 */
//   19 
//   20 #include "GUI_Protected.h"
//   21 
//   22 /*********************************************************************
//   23 *
//   24 *       static code
//   25 *
//   26 **********************************************************************
//   27 */
//   28 /*********************************************************************
//   29 *
//   30 *       _IsLineEnd
//   31 */
//   32 static int _IsLineEnd(U16 Char) {
//   33   if (!Char || (Char == '\n')) {
//   34     return 1;
//   35   }
//   36   return 0;
//   37 }
//   38 
//   39 /*********************************************************************
//   40 *
//   41 *       _GetWordWrap
//   42 */
//   43 static int _GetWordWrap(const char GUI_UNI_PTR * s, int xSize) {
//   44   int xDist = 0, NumChars = 0, WordWrap = 0;
//   45   U16 Char, PrevChar = 0;
//   46   while (1) {
//   47     Char = GUI_UC__GetCharCodeInc(&s);   /* Similar to:  *s++ */
//   48     /* Let's first check if the line end is reached. In this case we are done. */
//   49     if (_IsLineEnd(Char)) {
//   50       WordWrap = NumChars;
//   51       break;
//   52     }
//   53     /* If current character is a space, we found a wrap position */
//   54     if ((Char == ' ') && (Char != PrevChar)) {
//   55       WordWrap = NumChars;
//   56     }
//   57     PrevChar = Char;
//   58     xDist += GUI_GetCharDistX(Char);
//   59     if ((xDist <= xSize) || (NumChars == 0)) {
//   60       NumChars++;
//   61     } else {
//   62       break;
//   63     }
//   64   }
//   65   if (!WordWrap) {
//   66     WordWrap = NumChars;
//   67   }
//   68   return WordWrap;
//   69 }
//   70 
//   71 /*********************************************************************
//   72 *
//   73 *       _GetCharWrap
//   74 */
//   75 static int _GetCharWrap(const char GUI_UNI_PTR * s, int xSize) {
//   76   int xDist = 0, NumChars = 0;
//   77   U16 Char;
//   78   while ((Char = GUI_UC__GetCharCodeInc(&s)) != 0) {
//   79     xDist += GUI_GetCharDistX(Char);
//   80     if ((NumChars && (xDist > xSize)) || (Char == '\n')) {
//   81       break;
//   82     }
//   83     NumChars++;
//   84   }
//   85   return NumChars;
//   86 }
//   87 
//   88 /*********************************************************************
//   89 *
//   90 *       _GetNoWrap
//   91 */
//   92 static int _GetNoWrap(const char GUI_UNI_PTR * s) {
//   93   return GUI__GetLineNumChars(s, 0x7FFF);
//   94 }
//   95 
//   96 /*********************************************************************
//   97 *
//   98 *       puplic code
//   99 *
//  100 **********************************************************************
//  101 */
//  102 /*********************************************************************
//  103 *
//  104 *       GUI__WrapGetNumCharsDisp
//  105 *
//  106 * Returns:
//  107 *  Number of characters to display in the line.
//  108 *  Trailing spaces and line end character are
//  109 *  not counted
//  110 */

        RSEG BANKED_CODE:CODE:NOROOT(0)
//  111 int GUI__WrapGetNumCharsDisp(const char GUI_UNI_PTR * pText, int xSize, GUI_WRAPMODE WrapMode) {
GUI__WrapGetNumCharsDisp:
        CFI Block cfiBlock0 Using cfiCommon0
        CFI Function GUI__WrapGetNumCharsDisp
        CODE
        FUNCALL GUI__WrapGetNumCharsDisp, GUI_UC__GetCharCodeInc
        LOCFRAME ISTACK, 0, STACK
        LOCFRAME PSTACK, 0, STACK
        LOCFRAME XSTACK, 22, STACK
        LOCFRAME IOVERLAY, 0, STATIC
        LOCFRAME DOVERLAY, 0, STATIC
        ARGFRAME ISTACK, 0, STACK
        ARGFRAME PSTACK, 0, STACK
        ARGFRAME XSTACK, 22, STACK
        ARGFRAME IOVERLAY, 0, STATIC
        ARGFRAME DOVERLAY, 0, STATIC
        FUNCALL GUI__WrapGetNumCharsDisp, GUI_GetCharDistX
        LOCFRAME ISTACK, 0, STACK
        LOCFRAME PSTACK, 0, STACK
        LOCFRAME XSTACK, 22, STACK
        LOCFRAME IOVERLAY, 0, STATIC
        LOCFRAME DOVERLAY, 0, STATIC
        ARGFRAME ISTACK, 0, STACK
        ARGFRAME PSTACK, 0, STACK
        ARGFRAME XSTACK, 22, STACK
        ARGFRAME IOVERLAY, 0, STATIC
        ARGFRAME DOVERLAY, 0, STATIC
        FUNCALL GUI__WrapGetNumCharsDisp, GUI_UC__GetCharCodeInc
        LOCFRAME ISTACK, 0, STACK
        LOCFRAME PSTACK, 0, STACK
        LOCFRAME XSTACK, 22, STACK
        LOCFRAME IOVERLAY, 0, STATIC
        LOCFRAME DOVERLAY, 0, STATIC
        ARGFRAME ISTACK, 0, STACK
        ARGFRAME PSTACK, 0, STACK
        ARGFRAME XSTACK, 22, STACK
        ARGFRAME IOVERLAY, 0, STATIC
        ARGFRAME DOVERLAY, 0, STATIC
        FUNCALL GUI__WrapGetNumCharsDisp, GUI_GetCharDistX
        LOCFRAME ISTACK, 0, STACK
        LOCFRAME PSTACK, 0, STACK
        LOCFRAME XSTACK, 22, STACK
        LOCFRAME IOVERLAY, 0, STATIC
        LOCFRAME DOVERLAY, 0, STATIC
        ARGFRAME ISTACK, 0, STACK
        ARGFRAME PSTACK, 0, STACK
        ARGFRAME XSTACK, 22, STACK
        ARGFRAME IOVERLAY, 0, STATIC
        ARGFRAME DOVERLAY, 0, STATIC
        FUNCALL GUI__WrapGetNumCharsDisp, GUI__GetLineNumChars
        LOCFRAME ISTACK, 0, STACK
        LOCFRAME PSTACK, 0, STACK
        LOCFRAME XSTACK, 22, STACK
        LOCFRAME IOVERLAY, 0, STATIC
        LOCFRAME DOVERLAY, 0, STATIC
        ARGFRAME ISTACK, 0, STACK
        ARGFRAME PSTACK, 0, STACK
        ARGFRAME XSTACK, 22, STACK
        ARGFRAME IOVERLAY, 0, STATIC
        ARGFRAME DOVERLAY, 0, STATIC
        MOV     A,#-0x14
        LCALL   ?BANKED_ENTER_XDATA
        CFI DPH0 load(1, XDATA, add(CFA_XSP16, literal(-1)))
        CFI DPL0 load(1, XDATA, add(CFA_XSP16, literal(-2)))
        CFI ?BRET_EXT load(1, XDATA, add(CFA_XSP16, literal(-3)))
        CFI ?RET_HIGH load(1, XDATA, add(CFA_XSP16, literal(-4)))
        CFI ?RET_LOW load(1, XDATA, add(CFA_XSP16, literal(-5)))
        CFI R7 load(1, XDATA, add(CFA_XSP16, literal(-6)))
        CFI V11 load(1, XDATA, add(CFA_XSP16, literal(-7)))
        CFI V10 load(1, XDATA, add(CFA_XSP16, literal(-8)))
        CFI V9 load(1, XDATA, add(CFA_XSP16, literal(-9)))
        CFI V8 load(1, XDATA, add(CFA_XSP16, literal(-10)))
        CFI V7 load(1, XDATA, add(CFA_XSP16, literal(-11)))
        CFI V6 load(1, XDATA, add(CFA_XSP16, literal(-12)))
        CFI V5 load(1, XDATA, add(CFA_XSP16, literal(-13)))
        CFI V4 load(1, XDATA, add(CFA_XSP16, literal(-14)))
        CFI V3 load(1, XDATA, add(CFA_XSP16, literal(-15)))
        CFI V2 load(1, XDATA, add(CFA_XSP16, literal(-16)))
        CFI V1 load(1, XDATA, add(CFA_XSP16, literal(-17)))
        CFI V0 load(1, XDATA, add(CFA_XSP16, literal(-18)))
        CFI VB load(1, XDATA, add(CFA_XSP16, literal(-19)))
        CFI R6 load(1, XDATA, add(CFA_XSP16, literal(-20)))
        CFI CFA_SP SP+0
        CFI CFA_XSP16 add(XSP16, 20)
        ; Saved register size: 20
        ; Auto size: 2
        MOV     A,#-0x2
        LCALL   ?ALLOC_XSTACK8
        CFI CFA_XSP16 add(XSP16, 22)
        MOV     ?V0 + 0,R4
        MOV     ?V0 + 1,R5
//  112   int r;
//  113   switch (WrapMode) {
        MOV     A,R1
        DEC     A
        JZ      ??GUI__WrapGetNumCharsDisp_0
        DEC     A
        JNZ     $+5
        LJMP    ??GUI__WrapGetNumCharsDisp_1 & 0xFFFF
        LJMP    ??GUI__WrapGetNumCharsDisp_2 & 0xFFFF
//  114   case GUI_WRAPMODE_WORD:
//  115     r = _GetWordWrap(pText, xSize);
??GUI__WrapGetNumCharsDisp_0:
        MOV     DPL,?XSP + 0
        MOV     DPH,?XSP + 1
        MOV     A,R2
        MOVX    @DPTR,A
        INC     DPTR
        MOV     A,R3
        MOVX    @DPTR,A
        MOV     ?V0 + 2,#0x0
        MOV     ?V0 + 3,#0x0
        MOV     R6,#0x0
        MOV     R7,#0x0
        MOV     ?V0 + 4,R6
        MOV     ?V0 + 5,R6
        MOV     ?V0 + 6,R6
        MOV     ?V0 + 7,R6
        SJMP    ??CrossCallReturnLabel_0
??GUI__WrapGetNumCharsDisp_3:
        LCALL   ?Subroutine0 & 0xFFFF
??CrossCallReturnLabel_0:
        ; Setup parameters for call to function GUI_UC__GetCharCodeInc
        MOV     DPL,?XSP + 0
        MOV     DPH,?XSP + 1
        MOV     R2,DPL
        MOV     R3,DPH
        LCALL   ??GUI_UC__GetCharCodeInc?relay
        MOV     A,R2
        ORL     A,R3
        JZ      ??GUI__WrapGetNumCharsDisp_4
        MOV     A,#0xa
        XRL     A,R2
        JNZ     ??GUI__WrapGetNumCharsDisp_5
        MOV     A,R3
??GUI__WrapGetNumCharsDisp_5:
        JZ      ??GUI__WrapGetNumCharsDisp_4
        MOV     A,#0x20
        XRL     A,R2
        JNZ     ??GUI__WrapGetNumCharsDisp_6
        MOV     A,R3
??GUI__WrapGetNumCharsDisp_6:
        JNZ     ??GUI__WrapGetNumCharsDisp_7
        MOV     A,#0x20
        XRL     A,?V0 + 6
        JNZ     ??GUI__WrapGetNumCharsDisp_8
        MOV     A,?V0 + 7
??GUI__WrapGetNumCharsDisp_8:
        JZ      ??GUI__WrapGetNumCharsDisp_7
        MOV     ?V0 + 4,R6
        MOV     ?V0 + 5,R7
??GUI__WrapGetNumCharsDisp_7:
        MOV     ?V0 + 6,R2
        MOV     ?V0 + 7,R3
        ; Setup parameters for call to function GUI_GetCharDistX
        LCALL   ??GUI_GetCharDistX?relay
        MOV     ?V0 + 10,R2
        MOV     ?V0 + 11,R3
        MOV     A,?V0 + 2
        ADD     A,?V0 + 10
        MOV     ?V0 + 2,A
        MOV     A,?V0 + 3
        ADDC    A,?V0 + 11
        MOV     ?V0 + 3,A
        CLR     C
        MOV     A,?V0 + 0
        SUBB    A,?V0 + 2
        MOV     A,?V0 + 1
        SUBB    A,?V0 + 3
        MOV     C,0xD0 /* PSW */.2
        XRL     A,PSW
        RLC     A
        JNC     ??GUI__WrapGetNumCharsDisp_3
        MOV     A,R6
        ORL     A,R7
        JZ      ??GUI__WrapGetNumCharsDisp_3
??GUI__WrapGetNumCharsDisp_9:
        MOV     A,?V0 + 4
        ORL     A,?V0 + 5
        JNZ     ??GUI__WrapGetNumCharsDisp_10
        MOV     ?V0 + 4,R6
        MOV     ?V0 + 5,R7
??GUI__WrapGetNumCharsDisp_10:
        MOV     R2,?V0 + 4
        MOV     R3,?V0 + 5
//  116     break;
        LJMP    ??GUI__WrapGetNumCharsDisp_11 & 0xFFFF
??GUI__WrapGetNumCharsDisp_4:
        MOV     ?V0 + 4,R6
        MOV     ?V0 + 5,R7
        SJMP    ??GUI__WrapGetNumCharsDisp_9
//  117   case GUI_WRAPMODE_CHAR:
//  118     r = _GetCharWrap(pText, xSize);
??GUI__WrapGetNumCharsDisp_1:
        MOV     DPL,?XSP + 0
        MOV     DPH,?XSP + 1
        MOV     A,R2
        MOVX    @DPTR,A
        INC     DPTR
        MOV     A,R3
        MOVX    @DPTR,A
        MOV     ?V0 + 4,#0x0
        MOV     ?V0 + 5,#0x0
        MOV     ?V0 + 2,#0x0
        MOV     ?V0 + 3,#0x0
        SJMP    ??GUI__WrapGetNumCharsDisp_12
??GUI__WrapGetNumCharsDisp_13:
        MOV     A,?V0 + 2
        ADD     A,#0x1
        MOV     ?V0 + 2,A
        MOV     A,?V0 + 3
        ADDC    A,#0x0
        MOV     ?V0 + 3,A
??GUI__WrapGetNumCharsDisp_12:
        ; Setup parameters for call to function GUI_UC__GetCharCodeInc
        MOV     DPL,?XSP + 0
        MOV     DPH,?XSP + 1
        MOV     R2,DPL
        MOV     R3,DPH
        LCALL   ??GUI_UC__GetCharCodeInc?relay
        MOV     ?V0 + 6,R2
        MOV     ?V0 + 7,R3
        MOV     R0,?V0 + 6
        MOV     R1,?V0 + 7
        MOV     A,R0
        MOV     R6,A
        MOV     A,R1
        MOV     R7,A
        MOV     A,R0
        ORL     A,R1
        JZ      ??GUI__WrapGetNumCharsDisp_14
        ; Setup parameters for call to function GUI_GetCharDistX
        LCALL   ??GUI_GetCharDistX?relay
        MOV     ?V0 + 6,R2
        MOV     ?V0 + 7,R3
        MOV     A,?V0 + 4
        ADD     A,?V0 + 6
        MOV     ?V0 + 4,A
        MOV     A,?V0 + 5
        ADDC    A,?V0 + 7
        MOV     ?V0 + 5,A
        MOV     A,?V0 + 2
        ORL     A,?V0 + 3
        JZ      ??GUI__WrapGetNumCharsDisp_15
        CLR     C
        MOV     A,?V0 + 0
        SUBB    A,?V0 + 4
        MOV     A,?V0 + 1
        SUBB    A,?V0 + 5
        MOV     C,0xD0 /* PSW */.2
        XRL     A,PSW
        RLC     A
        JC      ??GUI__WrapGetNumCharsDisp_14
??GUI__WrapGetNumCharsDisp_15:
        MOV     A,#0xa
        XRL     A,R6
        JNZ     ??GUI__WrapGetNumCharsDisp_16
        MOV     A,R7
??GUI__WrapGetNumCharsDisp_16:
        JNZ     ??GUI__WrapGetNumCharsDisp_13
??GUI__WrapGetNumCharsDisp_14:
        MOV     R2,?V0 + 2
        MOV     R3,?V0 + 3
//  119     break;
        SJMP    ??GUI__WrapGetNumCharsDisp_11
//  120   default:
//  121     r = _GetNoWrap(pText);
??GUI__WrapGetNumCharsDisp_2:
        ; Setup parameters for call to function GUI__GetLineNumChars
        MOV     R4,#-0x1
        MOV     R5,#0x7f
        LCALL   ??GUI__GetLineNumChars?relay
//  122   }
//  123   return r;
??GUI__WrapGetNumCharsDisp_11:
        MOV     A,#0x2
        LCALL   ?DEALLOC_XSTACK8
        CFI CFA_XSP16 add(XSP16, 20)
        MOV     R7,#0xc
        LJMP    ?BANKED_LEAVE_XDATA
        CFI EndBlock cfiBlock0
//  124 }
//  125 
//  126 /*********************************************************************
//  127 *
//  128 *       GUI__WrapGetNumCharsToNextLine
//  129 */

        RSEG BANKED_CODE:CODE:NOROOT(0)
//  130 int GUI__WrapGetNumCharsToNextLine(const char GUI_UNI_PTR * pText, int xSize, GUI_WRAPMODE WrapMode) {
GUI__WrapGetNumCharsToNextLine:
        CFI Block cfiBlock1 Using cfiCommon0
        CFI Function GUI__WrapGetNumCharsToNextLine
        CODE
        FUNCALL GUI__WrapGetNumCharsToNextLine, GUI__WrapGetNumCharsDisp
        LOCFRAME ISTACK, 0, STACK
        LOCFRAME PSTACK, 0, STACK
        LOCFRAME XSTACK, 14, STACK
        LOCFRAME IOVERLAY, 0, STATIC
        LOCFRAME DOVERLAY, 0, STATIC
        ARGFRAME ISTACK, 0, STACK
        ARGFRAME PSTACK, 0, STACK
        ARGFRAME XSTACK, 14, STACK
        ARGFRAME IOVERLAY, 0, STATIC
        ARGFRAME DOVERLAY, 0, STATIC
        FUNCALL GUI__WrapGetNumCharsToNextLine, GUI_UC__NumChars2NumBytes
        LOCFRAME ISTACK, 0, STACK
        LOCFRAME PSTACK, 0, STACK
        LOCFRAME XSTACK, 14, STACK
        LOCFRAME IOVERLAY, 0, STATIC
        LOCFRAME DOVERLAY, 0, STATIC
        ARGFRAME ISTACK, 0, STACK
        ARGFRAME PSTACK, 0, STACK
        ARGFRAME XSTACK, 14, STACK
        ARGFRAME IOVERLAY, 0, STATIC
        ARGFRAME DOVERLAY, 0, STATIC
        FUNCALL GUI__WrapGetNumCharsToNextLine, GUI_UC__GetCharCodeInc
        LOCFRAME ISTACK, 0, STACK
        LOCFRAME PSTACK, 0, STACK
        LOCFRAME XSTACK, 14, STACK
        LOCFRAME IOVERLAY, 0, STATIC
        LOCFRAME DOVERLAY, 0, STATIC
        ARGFRAME ISTACK, 0, STACK
        ARGFRAME PSTACK, 0, STACK
        ARGFRAME XSTACK, 14, STACK
        ARGFRAME IOVERLAY, 0, STATIC
        ARGFRAME DOVERLAY, 0, STATIC
        FUNCALL GUI__WrapGetNumCharsToNextLine, GUI_UC__GetCharCodeInc
        LOCFRAME ISTACK, 0, STACK
        LOCFRAME PSTACK, 0, STACK
        LOCFRAME XSTACK, 14, STACK
        LOCFRAME IOVERLAY, 0, STATIC
        LOCFRAME DOVERLAY, 0, STATIC
        ARGFRAME ISTACK, 0, STACK
        ARGFRAME PSTACK, 0, STACK
        ARGFRAME XSTACK, 14, STACK
        ARGFRAME IOVERLAY, 0, STATIC
        ARGFRAME DOVERLAY, 0, STATIC
        MOV     A,#-0xc
        LCALL   ?BANKED_ENTER_XDATA
        CFI DPH0 load(1, XDATA, add(CFA_XSP16, literal(-1)))
        CFI DPL0 load(1, XDATA, add(CFA_XSP16, literal(-2)))
        CFI ?BRET_EXT load(1, XDATA, add(CFA_XSP16, literal(-3)))
        CFI ?RET_HIGH load(1, XDATA, add(CFA_XSP16, literal(-4)))
        CFI ?RET_LOW load(1, XDATA, add(CFA_XSP16, literal(-5)))
        CFI R7 load(1, XDATA, add(CFA_XSP16, literal(-6)))
        CFI V3 load(1, XDATA, add(CFA_XSP16, literal(-7)))
        CFI V2 load(1, XDATA, add(CFA_XSP16, literal(-8)))
        CFI V1 load(1, XDATA, add(CFA_XSP16, literal(-9)))
        CFI V0 load(1, XDATA, add(CFA_XSP16, literal(-10)))
        CFI VB load(1, XDATA, add(CFA_XSP16, literal(-11)))
        CFI R6 load(1, XDATA, add(CFA_XSP16, literal(-12)))
        CFI CFA_SP SP+0
        CFI CFA_XSP16 add(XSP16, 12)
        ; Saved register size: 12
        ; Auto size: 2
        MOV     A,#-0x2
        LCALL   ?ALLOC_XSTACK8
        CFI CFA_XSP16 add(XSP16, 14)
        MOV     DPL,?XSP + 0
        MOV     DPH,?XSP + 1
        MOV     A,R2
        MOVX    @DPTR,A
        INC     DPTR
        MOV     A,R3
        MOVX    @DPTR,A
        MOV     ?V0 + 0,R1
//  131   int NumChars;
//  132   U16 Char;
//  133   NumChars = GUI__WrapGetNumCharsDisp(pText, xSize, WrapMode);
        ; Setup parameters for call to function GUI__WrapGetNumCharsDisp
        MOV     DPL,?XSP + 0
        MOV     DPH,?XSP + 1
        MOVX    A,@DPTR
        MOV     R2,A
        LCALL   ??GUI__WrapGetNumCharsDisp?relay
        MOV     ?V0 + 2,R2
        MOV     ?V0 + 3,R3
        MOV     R6,?V0 + 2
        MOV     R7,?V0 + 3
//  134   pText   += GUI_UC__NumChars2NumBytes(pText, NumChars);
        ; Setup parameters for call to function GUI_UC__NumChars2NumBytes
        MOV     A,R6
        MOV     R4,A
        MOV     A,R7
        MOV     R5,A
        MOV     DPL,?XSP + 0
        MOV     DPH,?XSP + 1
        MOVX    A,@DPTR
        MOV     R2,A
        INC     DPTR
        MOVX    A,@DPTR
        MOV     R3,A
        LCALL   ??GUI_UC__NumChars2NumBytes?relay
        MOV     ?V0 + 2,R2
        MOV     ?V0 + 3,R3
        MOV     R0,?V0 + 2
        MOV     R1,?V0 + 3
        MOV     DPL,?XSP + 0
        MOV     DPH,?XSP + 1
        MOVX    A,@DPTR
        ADD     A,R0
        MOV     R0,A
        INC     DPTR
        MOVX    A,@DPTR
        ADDC    A,R1
        MOV     R1,A
        MOV     DPL,?XSP + 0
        MOV     DPH,?XSP + 1
        MOV     A,R0
        MOVX    @DPTR,A
        INC     DPTR
        MOV     A,R1
        MOVX    @DPTR,A
//  135   Char     = GUI_UC__GetCharCodeInc(&pText);
        ; Setup parameters for call to function GUI_UC__GetCharCodeInc
        LCALL   ?Subroutine1 & 0xFFFF
//  136   if (Char == '\n') {
??CrossCallReturnLabel_3:
        MOV     A,#0xa
        XRL     A,R0
        JNZ     ??GUI__WrapGetNumCharsToNextLine_0
        MOV     A,R1
??GUI__WrapGetNumCharsToNextLine_0:
        JNZ     ??GUI__WrapGetNumCharsToNextLine_1
//  137     NumChars++;
        LCALL   ?Subroutine0 & 0xFFFF
//  138   } else {
??CrossCallReturnLabel_1:
        SJMP    ??GUI__WrapGetNumCharsToNextLine_2
//  139     if (WrapMode == GUI_WRAPMODE_WORD) {
??GUI__WrapGetNumCharsToNextLine_1:
        MOV     A,#0x1
        XRL     A,?V0 + 0
        JNZ     ??GUI__WrapGetNumCharsToNextLine_2
        SJMP    ??CrossCallReturnLabel_4
//  140       while (Char == ' ') {
//  141         NumChars++;
??GUI__WrapGetNumCharsToNextLine_3:
        LCALL   ?Subroutine0 & 0xFFFF
//  142         Char = GUI_UC__GetCharCodeInc(&pText);
??CrossCallReturnLabel_2:
        ; Setup parameters for call to function GUI_UC__GetCharCodeInc
        LCALL   ?Subroutine1 & 0xFFFF
//  143       }
??CrossCallReturnLabel_4:
        MOV     A,#0x20
        XRL     A,R0
        JNZ     ??GUI__WrapGetNumCharsToNextLine_4
        MOV     A,R1
??GUI__WrapGetNumCharsToNextLine_4:
        JZ      ??GUI__WrapGetNumCharsToNextLine_3
//  144     }
//  145   }
//  146   return NumChars;
??GUI__WrapGetNumCharsToNextLine_2:
        MOV     A,R6
        MOV     R2,A
        MOV     A,R7
        MOV     R3,A
        MOV     A,#0x2
        LCALL   ?DEALLOC_XSTACK8
        CFI CFA_XSP16 add(XSP16, 12)
        MOV     R7,#0x4
        LJMP    ?BANKED_LEAVE_XDATA
        CFI EndBlock cfiBlock1
//  147 }

        RSEG BANKED_CODE:CODE:NOROOT(0)
?Subroutine1:
        CFI Block cfiCond2 Using cfiCommon0
        CFI NoFunction
        CFI Conditional ??CrossCallReturnLabel_3
        CFI R6 load(1, XDATA, add(CFA_XSP16, literal(-12)))
        CFI VB load(1, XDATA, add(CFA_XSP16, literal(-11)))
        CFI V0 load(1, XDATA, add(CFA_XSP16, literal(-10)))
        CFI V1 load(1, XDATA, add(CFA_XSP16, literal(-9)))
        CFI V2 load(1, XDATA, add(CFA_XSP16, literal(-8)))
        CFI V3 load(1, XDATA, add(CFA_XSP16, literal(-7)))
        CFI R7 load(1, XDATA, add(CFA_XSP16, literal(-6)))
        CFI ?RET_LOW load(1, XDATA, add(CFA_XSP16, literal(-5)))
        CFI ?RET_HIGH load(1, XDATA, add(CFA_XSP16, literal(-4)))
        CFI ?BRET_EXT load(1, XDATA, add(CFA_XSP16, literal(-3)))
        CFI DPL0 load(1, XDATA, add(CFA_XSP16, literal(-2)))
        CFI DPH0 load(1, XDATA, add(CFA_XSP16, literal(-1)))
        CFI CFA_SP SP+0
        CFI CFA_XSP16 add(XSP16, 14)
        CFI Block cfiCond3 Using cfiCommon0
        CFI (cfiCond3) NoFunction
        CFI (cfiCond3) Conditional ??CrossCallReturnLabel_4
        CFI (cfiCond3) R6 load(1, XDATA, add(CFA_XSP16, literal(-12)))
        CFI (cfiCond3) VB load(1, XDATA, add(CFA_XSP16, literal(-11)))
        CFI (cfiCond3) V0 load(1, XDATA, add(CFA_XSP16, literal(-10)))
        CFI (cfiCond3) V1 load(1, XDATA, add(CFA_XSP16, literal(-9)))
        CFI (cfiCond3) V2 load(1, XDATA, add(CFA_XSP16, literal(-8)))
        CFI (cfiCond3) V3 load(1, XDATA, add(CFA_XSP16, literal(-7)))
        CFI (cfiCond3) R7 load(1, XDATA, add(CFA_XSP16, literal(-6)))
        CFI (cfiCond3) ?RET_LOW load(1, XDATA, add(CFA_XSP16, literal(-5)))
        CFI (cfiCond3) ?RET_HIGH load(1, XDATA, add(CFA_XSP16, literal(-4)))
        CFI (cfiCond3) ?BRET_EXT load(1, XDATA, add(CFA_XSP16, literal(-3)))
        CFI (cfiCond3) DPL0 load(1, XDATA, add(CFA_XSP16, literal(-2)))
        CFI (cfiCond3) DPH0 load(1, XDATA, add(CFA_XSP16, literal(-1)))
        CFI (cfiCond3) CFA_SP SP+0
        CFI (cfiCond3) CFA_XSP16 add(XSP16, 14)
        CFI Block cfiPicker4 Using cfiCommon1
        CFI (cfiPicker4) NoFunction
        CFI (cfiPicker4) Picker
        MOV     DPL,?XSP + 0
        MOV     DPH,?XSP + 1
        MOV     R2,DPL
        MOV     R3,DPH
        LCALL   ??GUI_UC__GetCharCodeInc?relay
        MOV     ?V0 + 2,R2
        MOV     ?V0 + 3,R3
        MOV     R0,?V0 + 2
        MOV     R1,?V0 + 3
        RET
        CFI EndBlock cfiCond2
        CFI EndBlock cfiCond3
        CFI EndBlock cfiPicker4

        RSEG BANKED_CODE:CODE:NOROOT(0)
?Subroutine0:
        CFI Block cfiCond5 Using cfiCommon0
        CFI NoFunction
        CFI Conditional ??CrossCallReturnLabel_0
        CFI R6 load(1, XDATA, add(CFA_XSP16, literal(-20)))
        CFI VB load(1, XDATA, add(CFA_XSP16, literal(-19)))
        CFI V0 load(1, XDATA, add(CFA_XSP16, literal(-18)))
        CFI V1 load(1, XDATA, add(CFA_XSP16, literal(-17)))
        CFI V2 load(1, XDATA, add(CFA_XSP16, literal(-16)))
        CFI V3 load(1, XDATA, add(CFA_XSP16, literal(-15)))
        CFI V4 load(1, XDATA, add(CFA_XSP16, literal(-14)))
        CFI V5 load(1, XDATA, add(CFA_XSP16, literal(-13)))
        CFI V6 load(1, XDATA, add(CFA_XSP16, literal(-12)))
        CFI V7 load(1, XDATA, add(CFA_XSP16, literal(-11)))
        CFI V8 load(1, XDATA, add(CFA_XSP16, literal(-10)))
        CFI V9 load(1, XDATA, add(CFA_XSP16, literal(-9)))
        CFI V10 load(1, XDATA, add(CFA_XSP16, literal(-8)))
        CFI V11 load(1, XDATA, add(CFA_XSP16, literal(-7)))
        CFI R7 load(1, XDATA, add(CFA_XSP16, literal(-6)))
        CFI ?RET_LOW load(1, XDATA, add(CFA_XSP16, literal(-5)))
        CFI ?RET_HIGH load(1, XDATA, add(CFA_XSP16, literal(-4)))
        CFI ?BRET_EXT load(1, XDATA, add(CFA_XSP16, literal(-3)))
        CFI DPL0 load(1, XDATA, add(CFA_XSP16, literal(-2)))
        CFI DPH0 load(1, XDATA, add(CFA_XSP16, literal(-1)))
        CFI CFA_SP SP+0
        CFI CFA_XSP16 add(XSP16, 22)
        CFI Block cfiCond6 Using cfiCommon0
        CFI (cfiCond6) NoFunction
        CFI (cfiCond6) Conditional ??CrossCallReturnLabel_1
        CFI (cfiCond6) R6 load(1, XDATA, add(CFA_XSP16, literal(-12)))
        CFI (cfiCond6) VB load(1, XDATA, add(CFA_XSP16, literal(-11)))
        CFI (cfiCond6) V0 load(1, XDATA, add(CFA_XSP16, literal(-10)))
        CFI (cfiCond6) V1 load(1, XDATA, add(CFA_XSP16, literal(-9)))
        CFI (cfiCond6) V2 load(1, XDATA, add(CFA_XSP16, literal(-8)))
        CFI (cfiCond6) V3 load(1, XDATA, add(CFA_XSP16, literal(-7)))
        CFI (cfiCond6) R7 load(1, XDATA, add(CFA_XSP16, literal(-6)))
        CFI (cfiCond6) ?RET_LOW load(1, XDATA, add(CFA_XSP16, literal(-5)))
        CFI (cfiCond6) ?RET_HIGH load(1, XDATA, add(CFA_XSP16, literal(-4)))
        CFI (cfiCond6) ?BRET_EXT load(1, XDATA, add(CFA_XSP16, literal(-3)))
        CFI (cfiCond6) DPL0 load(1, XDATA, add(CFA_XSP16, literal(-2)))
        CFI (cfiCond6) DPH0 load(1, XDATA, add(CFA_XSP16, literal(-1)))
        CFI (cfiCond6) CFA_SP SP+0
        CFI (cfiCond6) CFA_XSP16 add(XSP16, 14)
        CFI Block cfiCond7 Using cfiCommon0
        CFI (cfiCond7) NoFunction
        CFI (cfiCond7) Conditional ??CrossCallReturnLabel_2
        CFI (cfiCond7) R6 load(1, XDATA, add(CFA_XSP16, literal(-12)))
        CFI (cfiCond7) VB load(1, XDATA, add(CFA_XSP16, literal(-11)))
        CFI (cfiCond7) V0 load(1, XDATA, add(CFA_XSP16, literal(-10)))
        CFI (cfiCond7) V1 load(1, XDATA, add(CFA_XSP16, literal(-9)))
        CFI (cfiCond7) V2 load(1, XDATA, add(CFA_XSP16, literal(-8)))
        CFI (cfiCond7) V3 load(1, XDATA, add(CFA_XSP16, literal(-7)))
        CFI (cfiCond7) R7 load(1, XDATA, add(CFA_XSP16, literal(-6)))
        CFI (cfiCond7) ?RET_LOW load(1, XDATA, add(CFA_XSP16, literal(-5)))
        CFI (cfiCond7) ?RET_HIGH load(1, XDATA, add(CFA_XSP16, literal(-4)))
        CFI (cfiCond7) ?BRET_EXT load(1, XDATA, add(CFA_XSP16, literal(-3)))
        CFI (cfiCond7) DPL0 load(1, XDATA, add(CFA_XSP16, literal(-2)))
        CFI (cfiCond7) DPH0 load(1, XDATA, add(CFA_XSP16, literal(-1)))
        CFI (cfiCond7) CFA_SP SP+0
        CFI (cfiCond7) CFA_XSP16 add(XSP16, 14)
        CFI Block cfiPicker8 Using cfiCommon1
        CFI (cfiPicker8) NoFunction
        CFI (cfiPicker8) Picker
        MOV     A,R6
        ADD     A,#0x1
        INC     R6
        MOV     A,R7
        ADDC    A,#0x0
        MOV     R7,A
        RET
        CFI EndBlock cfiCond5
        CFI EndBlock cfiCond6
        CFI EndBlock cfiCond7
        CFI EndBlock cfiPicker8
//  148 
//  149 /*********************************************************************
//  150 *
//  151 *       GUI__WrapGetNumBytesToNextLine
//  152 */

        RSEG BANKED_CODE:CODE:NOROOT(0)
//  153 int GUI__WrapGetNumBytesToNextLine(const char GUI_UNI_PTR * pText, int xSize, GUI_WRAPMODE WrapMode) {
GUI__WrapGetNumBytesToNextLine:
        CFI Block cfiBlock9 Using cfiCommon0
        CFI Function GUI__WrapGetNumBytesToNextLine
        CODE
        FUNCALL GUI__WrapGetNumBytesToNextLine, GUI__WrapGetNumCharsToNextLine
        LOCFRAME ISTACK, 0, STACK
        LOCFRAME PSTACK, 0, STACK
        LOCFRAME XSTACK, 9, STACK
        LOCFRAME IOVERLAY, 0, STATIC
        LOCFRAME DOVERLAY, 0, STATIC
        ARGFRAME ISTACK, 0, STACK
        ARGFRAME PSTACK, 0, STACK
        ARGFRAME XSTACK, 9, STACK
        ARGFRAME IOVERLAY, 0, STATIC
        ARGFRAME DOVERLAY, 0, STATIC
        FUNCALL GUI__WrapGetNumBytesToNextLine, GUI_UC__NumChars2NumBytes
        LOCFRAME ISTACK, 0, STACK
        LOCFRAME PSTACK, 0, STACK
        LOCFRAME XSTACK, 9, STACK
        LOCFRAME IOVERLAY, 0, STATIC
        LOCFRAME DOVERLAY, 0, STATIC
        ARGFRAME ISTACK, 0, STACK
        ARGFRAME PSTACK, 0, STACK
        ARGFRAME XSTACK, 9, STACK
        ARGFRAME IOVERLAY, 0, STATIC
        ARGFRAME DOVERLAY, 0, STATIC
        MOV     A,#-0x9
        LCALL   ?BANKED_ENTER_XDATA
        CFI DPH0 load(1, XDATA, add(CFA_XSP16, literal(-1)))
        CFI DPL0 load(1, XDATA, add(CFA_XSP16, literal(-2)))
        CFI ?BRET_EXT load(1, XDATA, add(CFA_XSP16, literal(-3)))
        CFI ?RET_HIGH load(1, XDATA, add(CFA_XSP16, literal(-4)))
        CFI ?RET_LOW load(1, XDATA, add(CFA_XSP16, literal(-5)))
        CFI R7 load(1, XDATA, add(CFA_XSP16, literal(-6)))
        CFI V0 load(1, XDATA, add(CFA_XSP16, literal(-7)))
        CFI VB load(1, XDATA, add(CFA_XSP16, literal(-8)))
        CFI R6 load(1, XDATA, add(CFA_XSP16, literal(-9)))
        CFI CFA_SP SP+0
        CFI CFA_XSP16 add(XSP16, 9)
        ; Saved register size: 9
        ; Auto size: 0
        MOV     A,R2
        MOV     R6,A
        MOV     A,R3
        MOV     R7,A
//  154   int NumChars, NumBytes;
//  155   NumChars = GUI__WrapGetNumCharsToNextLine(pText, xSize, WrapMode);
//  156   NumBytes = GUI_UC__NumChars2NumBytes(pText, NumChars);
//  157   return NumBytes;
        ; Setup parameters for call to function GUI_UC__NumChars2NumBytes
        ; Setup parameters for call to function GUI__WrapGetNumCharsToNextLine
        LCALL   ??GUI__WrapGetNumCharsToNextLine?relay
        MOV     A,R2
        MOV     R4,A
        MOV     A,R3
        MOV     R5,A
        MOV     A,R6
        MOV     R2,A
        MOV     A,R7
        MOV     R3,A
        LCALL   ??GUI_UC__NumChars2NumBytes?relay
        MOV     R7,#0x1
        LJMP    ?BANKED_LEAVE_XDATA
        CFI EndBlock cfiBlock9
//  158 }

        RSEG BANK_RELAYS:CODE:REORDER:NOROOT(0)
??GUI__WrapGetNumCharsDisp?relay:
        LCALL   ?BDISPATCH
        DATA
        DC24    GUI__WrapGetNumCharsDisp

        RSEG BANK_RELAYS:CODE:REORDER:NOROOT(0)
??GUI__WrapGetNumCharsToNextLine?relay:
        LCALL   ?BDISPATCH
        DATA
        DC24    GUI__WrapGetNumCharsToNextLine

        RSEG BANK_RELAYS:CODE:REORDER:NOROOT(0)
??GUI__WrapGetNumBytesToNextLine?relay:
        LCALL   ?BDISPATCH
        DATA
        DC24    GUI__WrapGetNumBytesToNextLine

        END
//  159 
//  160 /*************************** End of file ****************************/
//  161 
// 
// 515 bytes in segment BANKED_CODE
//  18 bytes in segment BANK_RELAYS
// 
// 533 bytes of CODE memory
//
//Errors: none
//Warnings: none
