###############################################################################
#                                                                             #
# IAR C/C++ Compiler V8.10.1.10194/W32 for 8051         14/Jun/2016  16:18:41 #
# Copyright 2004-2011 IAR Systems AB.                                         #
#                                                                             #
#    Core               =  plain                                              #
#    Code model         =  banked                                             #
#    Data model         =  large                                              #
#    Calling convention =  xdata reentrant                                    #
#    Constant location  =  data_rom                                           #
#    Dptr setup         =  1,16                                               #
#    Source file        =  F:\¹âÅÌ×ÊÁÏ\ETC-WSNÎïÁªÍø¹âÅÌ×ÊÁÏ210\ZigBeeÍøÂç\WS #
#                          N-CSÔ´Âë\ZStack-CC2530-2.5.1a\Components\uCGUI\Cor #
#                          e\GUI_SetTextStyle.c                               #
#    Command line       =  -f F:\¹âÅÌ×ÊÁÏ\ETC-WSNÎïÁªÍø¹âÅÌ×ÊÁÏ210\ZigBeeÍøÂç #
#                          \WSN-CSÔ´Âë\ZStack-CC2530-2.5.1a\Projects\zstack\U #
#                          tilities\SerialApp\CC2530DB\..\..\..\Tools\CC2530D #
#                          B\f8wCoord.cfg (-DCPU32MHZ -DROOT=__near_func      #
#                          -DMAC_CFG_APP_PENDING_QUEUE=TRUE                   #
#                          -DMAC_CFG_TX_DATA_MAX=5 -DMAC_CFG_TX_MAX=8         #
#                          -DMAC_CFG_RX_MAX=5 -DZDO_COORDINATOR -DRTR_NWK)    #
#                          -f F:\¹âÅÌ×ÊÁÏ\ETC-WSNÎïÁªÍø¹âÅÌ×ÊÁÏ210\ZigBeeÍøÂç #
#                          \WSN-CSÔ´Âë\ZStack-CC2530-2.5.1a\Projects\zstack\U #
#                          tilities\SerialApp\CC2530DB\..\..\..\Tools\CC2530D #
#                          B\f8wConfig.cfg (-DZIGBEEPRO -DSECURE=0            #
#                          -DZG_SECURE_DYNAMIC=0 -DREFLECTOR                  #
#                          -DDEFAULT_CHANLIST=0x00000800                      #
#                          -DZDAPP_CONFIG_PAN_ID=0x1001                       #
#                          -DNWK_START_DELAY=100 -DEXTENDED_JOINING_RANDOM_MA #
#                          SK=0x007F -DBEACON_REQUEST_DELAY=100               #
#                          -DBEACON_REQ_DELAY_MASK=0x00FF                     #
#                          -DLINK_STATUS_JITTER_MASK=0x007F                   #
#                          -DROUTE_EXPIRY_TIME=30 -DAPSC_ACK_WAIT_DURATION_PO #
#                          LLED=3000 -DNWK_INDIRECT_MSG_TIMEOUT=7             #
#                          -DMAX_RREQ_ENTRIES=8 -DAPSC_MAX_FRAME_RETRIES=3    #
#                          -DNWK_MAX_DATA_RETRIES=2                           #
#                          -DMAX_POLL_FAILURE_RETRIES=2 -DMAX_BCAST=9         #
#                          -DAPS_MAX_GROUPS=16 -DMAX_RTG_ENTRIES=40           #
#                          -DNWK_MAX_BINDING_ENTRIES=4                        #
#                          -DMAX_BINDING_CLUSTER_IDS=4 "-DDEFAULT_KEY={0x01,  #
#                          0x03, 0x05, 0x07, 0x09, 0x0B, 0x0D, 0x0F, 0x00,    #
#                          0x02, 0x04, 0x06, 0x08, 0x0A, 0x0C, 0x0D}"         #
#                          -DMAC_MAX_FRAME_SIZE=116                           #
#                          -DZDNWKMGR_MIN_TRANSMISSIONS=20 "-DCONST=const     #
#                          __code" -DGENERIC=__generic                        #
#                          -DRFD_RCVC_ALWAYS_ON=FALSE -DPOLL_RATE=1000        #
#                          -DQUEUED_POLL_RATE=100 -DRESPONSE_POLL_RATE=100)   #
#                          -DREJOIN_POLL_RATE=440 F:\¹âÅÌ×ÊÁÏ\ETC-WSNÎïÁªÍø¹â #
#                          ÅÌ×ÊÁÏ210\ZigBeeÍøÂç\WSN-CSÔ´Âë\ZStack-CC2530-2.5. #
#                          1a\Components\uCGUI\Core\GUI_SetTextStyle.c -D     #
#                          HAL_UART=TRUE -D SERIAL_APP_PORT=0 -D COOR -D      #
#                          LCD_SUPPORTED -D NV_INIT -lC                       #
#                          F:\¹âÅÌ×ÊÁÏ\ETC-WSNÎïÁªÍø¹âÅÌ×ÊÁÏ210\ZigBeeÍøÂç\WS #
#                          N-CSÔ´Âë\ZStack-CC2530-2.5.1a\Projects\zstack\Util #
#                          ities\SerialApp\CC2530DB\CoordinatorEB\List\ -lA   #
#                          F:\¹âÅÌ×ÊÁÏ\ETC-WSNÎïÁªÍø¹âÅÌ×ÊÁÏ210\ZigBeeÍøÂç\WS #
#                          N-CSÔ´Âë\ZStack-CC2530-2.5.1a\Projects\zstack\Util #
#                          ities\SerialApp\CC2530DB\CoordinatorEB\List\       #
#                          --diag_suppress Pe001,Pa010 -o                     #
#                          F:\¹âÅÌ×ÊÁÏ\ETC-WSNÎïÁªÍø¹âÅÌ×ÊÁÏ210\ZigBeeÍøÂç\WS #
#                          N-CSÔ´Âë\ZStack-CC2530-2.5.1a\Projects\zstack\Util #
#                          ities\SerialApp\CC2530DB\CoordinatorEB\Obj\ -e     #
#                          --no_code_motion --debug --core=plain --dptr=16,1  #
#                          --data_model=large --code_model=banked             #
#                          --calling_convention=xdata_reentrant               #
#                          --place_constants=data_rom --nr_virtual_regs 16    #
#                          -I F:\¹âÅÌ×ÊÁÏ\ETC-WSNÎïÁªÍø¹âÅÌ×ÊÁÏ210\ZigBeeÍøÂç #
#                          \WSN-CSÔ´Âë\ZStack-CC2530-2.5.1a\Projects\zstack\U #
#                          tilities\SerialApp\CC2530DB\ -I                    #
#                          F:\¹âÅÌ×ÊÁÏ\ETC-WSNÎïÁªÍø¹âÅÌ×ÊÁÏ210\ZigBeeÍøÂç\WS #
#                          N-CSÔ´Âë\ZStack-CC2530-2.5.1a\Projects\zstack\Util #
#                          ities\SerialApp\CC2530DB\..\Public\ -I             #
#                          F:\¹âÅÌ×ÊÁÏ\ETC-WSNÎïÁªÍø¹âÅÌ×ÊÁÏ210\ZigBeeÍøÂç\WS #
#                          N-CSÔ´Âë\ZStack-CC2530-2.5.1a\Projects\zstack\Util #
#                          ities\SerialApp\CC2530DB\..\..\..\..\..\Components #
#                          \uCGUI\Core\ -I F:\¹âÅÌ×ÊÁÏ\ETC-WSNÎïÁªÍø¹âÅÌ×ÊÁÏ2 #
#                          10\ZigBeeÍøÂç\WSN-CSÔ´Âë\ZStack-CC2530-2.5.1a\Proj #
#                          ects\zstack\Utilities\SerialApp\CC2530DB\..\..\..\ #
#                          ..\..\Components\uCGUI\MultiLayer\ -I              #
#                          F:\¹âÅÌ×ÊÁÏ\ETC-WSNÎïÁªÍø¹âÅÌ×ÊÁÏ210\ZigBeeÍøÂç\WS #
#                          N-CSÔ´Âë\ZStack-CC2530-2.5.1a\Projects\zstack\Util #
#                          ities\SerialApp\CC2530DB\..\..\..\..\..\Components #
#                          \uCGUI\Config\ -I F:\¹âÅÌ×ÊÁÏ\ETC-WSNÎïÁªÍø¹âÅÌ×ÊÁ #
#                          Ï210\ZigBeeÍøÂç\WSN-CSÔ´Âë\ZStack-CC2530-2.5.1a\Pr #
#                          ojects\zstack\Utilities\SerialApp\CC2530DB\..\Coor #
#                          dinator\ -I F:\¹âÅÌ×ÊÁÏ\ETC-WSNÎïÁªÍø¹âÅÌ×ÊÁÏ210\Z #
#                          igBeeÍøÂç\WSN-CSÔ´Âë\ZStack-CC2530-2.5.1a\Projects #
#                          \zstack\Utilities\SerialApp\CC2530DB\..\..\..\ZMai #
#                          n\TI2530DB\ -I F:\¹âÅÌ×ÊÁÏ\ETC-WSNÎïÁªÍø¹âÅÌ×ÊÁÏ21 #
#                          0\ZigBeeÍøÂç\WSN-CSÔ´Âë\ZStack-CC2530-2.5.1a\Proje #
#                          cts\zstack\Utilities\SerialApp\CC2530DB\..\..\..\. #
#                          .\..\Components\hal\include\ -I                    #
#                          F:\¹âÅÌ×ÊÁÏ\ETC-WSNÎïÁªÍø¹âÅÌ×ÊÁÏ210\ZigBeeÍøÂç\WS #
#                          N-CSÔ´Âë\ZStack-CC2530-2.5.1a\Projects\zstack\Util #
#                          ities\SerialApp\CC2530DB\..\..\..\..\..\Components #
#                          \hal\target\CC2530EB\ -I                           #
#                          F:\¹âÅÌ×ÊÁÏ\ETC-WSNÎïÁªÍø¹âÅÌ×ÊÁÏ210\ZigBeeÍøÂç\WS #
#                          N-CSÔ´Âë\ZStack-CC2530-2.5.1a\Projects\zstack\Util #
#                          ities\SerialApp\CC2530DB\..\..\..\..\..\Components #
#                          \mac\include\ -I F:\¹âÅÌ×ÊÁÏ\ETC-WSNÎïÁªÍø¹âÅÌ×ÊÁÏ #
#                          210\ZigBeeÍøÂç\WSN-CSÔ´Âë\ZStack-CC2530-2.5.1a\Pro #
#                          jects\zstack\Utilities\SerialApp\CC2530DB\..\..\.. #
#                          \..\..\Components\mac\high_level\ -I               #
#                          F:\¹âÅÌ×ÊÁÏ\ETC-WSNÎïÁªÍø¹âÅÌ×ÊÁÏ210\ZigBeeÍøÂç\WS #
#                          N-CSÔ´Âë\ZStack-CC2530-2.5.1a\Projects\zstack\Util #
#                          ities\SerialApp\CC2530DB\..\..\..\..\..\Components #
#                          \mac\low_level\srf04\ -I                           #
#                          F:\¹âÅÌ×ÊÁÏ\ETC-WSNÎïÁªÍø¹âÅÌ×ÊÁÏ210\ZigBeeÍøÂç\WS #
#                          N-CSÔ´Âë\ZStack-CC2530-2.5.1a\Projects\zstack\Util #
#                          ities\SerialApp\CC2530DB\..\..\..\..\..\Components #
#                          \mac\low_level\srf04\single_chip\ -I               #
#                          F:\¹âÅÌ×ÊÁÏ\ETC-WSNÎïÁªÍø¹âÅÌ×ÊÁÏ210\ZigBeeÍøÂç\WS #
#                          N-CSÔ´Âë\ZStack-CC2530-2.5.1a\Projects\zstack\Util #
#                          ities\SerialApp\CC2530DB\..\..\..\..\..\Components #
#                          \mt\ -I F:\¹âÅÌ×ÊÁÏ\ETC-WSNÎïÁªÍø¹âÅÌ×ÊÁÏ210\ZigBe #
#                          eÍøÂç\WSN-CSÔ´Âë\ZStack-CC2530-2.5.1a\Projects\zst #
#                          ack\Utilities\SerialApp\CC2530DB\..\..\..\..\..\Co #
#                          mponents\osal\include\ -I                          #
#                          F:\¹âÅÌ×ÊÁÏ\ETC-WSNÎïÁªÍø¹âÅÌ×ÊÁÏ210\ZigBeeÍøÂç\WS #
#                          N-CSÔ´Âë\ZStack-CC2530-2.5.1a\Projects\zstack\Util #
#                          ities\SerialApp\CC2530DB\..\..\..\..\..\Components #
#                          \services\saddr\ -I F:\¹âÅÌ×ÊÁÏ\ETC-WSNÎïÁªÍø¹âÅÌ× #
#                          ÊÁÏ210\ZigBeeÍøÂç\WSN-CSÔ´Âë\ZStack-CC2530-2.5.1a\ #
#                          Projects\zstack\Utilities\SerialApp\CC2530DB\..\.. #
#                          \..\..\..\Components\services\sdata\ -I            #
#                          F:\¹âÅÌ×ÊÁÏ\ETC-WSNÎïÁªÍø¹âÅÌ×ÊÁÏ210\ZigBeeÍøÂç\WS #
#                          N-CSÔ´Âë\ZStack-CC2530-2.5.1a\Projects\zstack\Util #
#                          ities\SerialApp\CC2530DB\..\..\..\..\..\Components #
#                          \stack\af\ -I F:\¹âÅÌ×ÊÁÏ\ETC-WSNÎïÁªÍø¹âÅÌ×ÊÁÏ210 #
#                          \ZigBeeÍøÂç\WSN-CSÔ´Âë\ZStack-CC2530-2.5.1a\Projec #
#                          ts\zstack\Utilities\SerialApp\CC2530DB\..\..\..\.. #
#                          \..\Components\stack\nwk\ -I                       #
#                          F:\¹âÅÌ×ÊÁÏ\ETC-WSNÎïÁªÍø¹âÅÌ×ÊÁÏ210\ZigBeeÍøÂç\WS #
#                          N-CSÔ´Âë\ZStack-CC2530-2.5.1a\Projects\zstack\Util #
#                          ities\SerialApp\CC2530DB\..\..\..\..\..\Components #
#                          \stack\sapi\ -I F:\¹âÅÌ×ÊÁÏ\ETC-WSNÎïÁªÍø¹âÅÌ×ÊÁÏ2 #
#                          10\ZigBeeÍøÂç\WSN-CSÔ´Âë\ZStack-CC2530-2.5.1a\Proj #
#                          ects\zstack\Utilities\SerialApp\CC2530DB\..\..\..\ #
#                          ..\..\Components\stack\sec\ -I                     #
#                          F:\¹âÅÌ×ÊÁÏ\ETC-WSNÎïÁªÍø¹âÅÌ×ÊÁÏ210\ZigBeeÍøÂç\WS #
#                          N-CSÔ´Âë\ZStack-CC2530-2.5.1a\Projects\zstack\Util #
#                          ities\SerialApp\CC2530DB\..\..\..\..\..\Components #
#                          \stack\sys\ -I F:\¹âÅÌ×ÊÁÏ\ETC-WSNÎïÁªÍø¹âÅÌ×ÊÁÏ21 #
#                          0\ZigBeeÍøÂç\WSN-CSÔ´Âë\ZStack-CC2530-2.5.1a\Proje #
#                          cts\zstack\Utilities\SerialApp\CC2530DB\..\..\..\. #
#                          .\..\Components\stack\zdo\ -I                      #
#                          F:\¹âÅÌ×ÊÁÏ\ETC-WSNÎïÁªÍø¹âÅÌ×ÊÁÏ210\ZigBeeÍøÂç\WS #
#                          N-CSÔ´Âë\ZStack-CC2530-2.5.1a\Projects\zstack\Util #
#                          ities\SerialApp\CC2530DB\..\..\..\..\..\Components #
#                          \zmac\ -I F:\¹âÅÌ×ÊÁÏ\ETC-WSNÎïÁªÍø¹âÅÌ×ÊÁÏ210\Zig #
#                          BeeÍøÂç\WSN-CSÔ´Âë\ZStack-CC2530-2.5.1a\Projects\z #
#                          stack\Utilities\SerialApp\CC2530DB\..\..\..\..\..\ #
#                          Components\zmac\f8w\ -Ohz --require_prototypes     #
#    List file          =  F:\¹âÅÌ×ÊÁÏ\ETC-WSNÎïÁªÍø¹âÅÌ×ÊÁÏ210\ZigBeeÍøÂç\WS #
#                          N-CSÔ´Âë\ZStack-CC2530-2.5.1a\Projects\zstack\Util #
#                          ities\SerialApp\CC2530DB\CoordinatorEB\List\GUI_Se #
#                          tTextStyle.lst                                     #
#    Object file        =  F:\¹âÅÌ×ÊÁÏ\ETC-WSNÎïÁªÍø¹âÅÌ×ÊÁÏ210\ZigBeeÍøÂç\WS #
#                          N-CSÔ´Âë\ZStack-CC2530-2.5.1a\Projects\zstack\Util #
#                          ities\SerialApp\CC2530DB\CoordinatorEB\Obj\GUI_Set #
#                          TextStyle.r51                                      #
#                                                                             #
#                                                                             #
###############################################################################

F:\¹âÅÌ×ÊÁÏ\ETC-WSNÎïÁªÍø¹âÅÌ×ÊÁÏ210\ZigBeeÍøÂç\WSN-CSÔ´Âë\ZStack-CC2530-2.5.1a\Components\uCGUI\Core\GUI_SetTextStyle.c
      1          /*
      2          *********************************************************************************************************
      3          *                                                uC/GUI
      4          *                        Universal graphic software for embedded applications
      5          *
      6          *                       (c) Copyright 2002, Micrium Inc., Weston, FL
      7          *                       (c) Copyright 2002, SEGGER Microcontroller Systeme GmbH
      8          *
      9          *              µC/GUI is protected by international copyright laws. Knowledge of the
     10          *              source code may not be used to write a similar product. This file may
     11          *              only be used in accordance with a license and should not be redistributed
     12          *              in any way. We appreciate your understanding and fairness.
     13          *
     14          ----------------------------------------------------------------------
     15          File        : GUI_SetTextStyle.C
     16          Purpose     : Implementation of various text styles
     17          ---------------------------END-OF-HEADER------------------------------
     18          */
     19          
     20          #include <stddef.h>           /* needed for definition of NULL */
     21          #include <stdio.h>
     22          #include "GUI_Protected.h"

   \                                 In  segment SFR_AN, at 0xa8
   \   union <unnamed> volatile __sfr _A_IEN0
   \                     _A_IEN0:
   \   000000                DS 1
     23          
     24          /*********************************************************************
     25          *
     26          *       Static code
     27          *
     28          **********************************************************************
     29          */
     30          /*********************************************************************
     31          *
     32          *       GUI__cbDrawTextStyle
     33          */

   \                                 In  segment BANKED_CODE, align 1, keep-with-next
     34          static void GUI__cbDrawTextStyle(U16 Char) {
   \                     GUI__cbDrawTextStyle:
   \   000000   74F4         MOV     A,#-0xc
   \   000002   12....       LCALL   ?BANKED_ENTER_XDATA
   \   000005                ; Saved register size: 12
   \   000005                ; Auto size: 0
     35            int x0, x1;
     36            x1 = GUI_Context.DispPosX - 1;
   \   000005   90....       MOV     DPTR,#GUI_Context + 27
   \   000008   E0           MOVX    A,@DPTR
   \   000009   24FF         ADD     A,#-0x1
   \   00000B   F5..         MOV     ?V0 + 0,A
   \   00000D   A3           INC     DPTR
   \   00000E   E0           MOVX    A,@DPTR
   \   00000F   34FF         ADDC    A,#-0x1
   \   000011   F5..         MOV     ?V0 + 1,A
     37            x0 = x1 - GUI_Context.pAFont->pfGetCharDistX(Char) + 1;
   \   000013                ; Setup parameters for indirect call
   \   000013   12....       LCALL   ?Subroutine2 & 0xFFFF
   \                     ??CrossCallReturnLabel_4:
   \   000016   12....       LCALL   ?Subroutine4 & 0xFFFF
   \                     ??CrossCallReturnLabel_6:
   \   000019   12....       LCALL   ?CALL_IND
   \   00001C   8A..         MOV     ?V0 + 2,R2
   \   00001E   8B..         MOV     ?V0 + 3,R3
   \   000020   E5..         MOV     A,?V0 + 0
   \   000022   C3           CLR     C
   \   000023   95..         SUBB    A,?V0 + 2
   \   000025   F8           MOV     R0,A
   \   000026   E5..         MOV     A,?V0 + 1
   \   000028   95..         SUBB    A,?V0 + 3
   \   00002A   F9           MOV     R1,A
   \   00002B   E8           MOV     A,R0
   \   00002C   2401         ADD     A,#0x1
   \   00002E   FE           MOV     R6,A
   \   00002F   E9           MOV     A,R1
   \   000030   3400         ADDC    A,#0x0
   \   000032   FF           MOV     R7,A
     38            /* Handle Underline */
     39            if (GUI_Context.TextStyle & GUI_TS_UNDERLINE) {
   \   000033   90....       MOV     DPTR,#GUI_Context + 14
   \   000036   E0           MOVX    A,@DPTR
   \   000037   A2E0         MOV     C,0xE0 /* A   */.0
   \   000039   5038         JNC     ??GUI__cbDrawTextStyle_0
     40              int yOff = GUI_Context.pAFont->Baseline;
   \   00003B   12....       LCALL   ?Subroutine0 & 0xFFFF
   \                     ??CrossCallReturnLabel_0:
   \   00003E   7B00         MOV     R3,#0x0
     41              if (yOff >= GUI_Context.pAFont->YSize) {
   \   000040   8882         MOV     DPL,R0
   \   000042   8983         MOV     DPH,R1
   \   000044   A3           INC     DPTR
   \   000045   A3           INC     DPTR
   \   000046   A3           INC     DPTR
   \   000047   A3           INC     DPTR
   \   000048   A3           INC     DPTR
   \   000049   A3           INC     DPTR
   \   00004A   A3           INC     DPTR
   \   00004B   A3           INC     DPTR
   \   00004C   A3           INC     DPTR
   \   00004D   A3           INC     DPTR
   \   00004E   E0           MOVX    A,@DPTR
   \   00004F   F8           MOV     R0,A
   \   000050   EA           MOV     A,R2
   \   000051   C3           CLR     C
   \   000052   98           SUBB    A,R0
   \   000053   4013         JC      ??GUI__cbDrawTextStyle_1
     42                yOff = GUI_Context.pAFont->YSize - 1;
   \   000055   12....       LCALL   ?Subroutine2 & 0xFFFF
     43              }
   \                     ??CrossCallReturnLabel_5:
   \   000058   A3           INC     DPTR
   \   000059   A3           INC     DPTR
   \   00005A   A3           INC     DPTR
   \   00005B   A3           INC     DPTR
   \   00005C   A3           INC     DPTR
   \   00005D   A3           INC     DPTR
   \   00005E   A3           INC     DPTR
   \   00005F   A3           INC     DPTR
   \   000060   E0           MOVX    A,@DPTR
   \   000061   24FF         ADD     A,#-0x1
   \   000063   FA           MOV     R2,A
   \   000064   E4           CLR     A
   \   000065   34FF         ADDC    A,#-0x1
   \   000067   FB           MOV     R3,A
     44              LCD_DrawHLine(x0, GUI_Context.DispPosY + yOff, x1);
   \                     ??GUI__cbDrawTextStyle_1:
   \   000068                ; Setup parameters for call to function LCD_DrawHLine
   \   000068   78..         MOV     R0,#?V0 + 0
   \   00006A   12....       LCALL   ?PUSH_XSTACK_I_TWO
   \   00006D   12....       LCALL   ?Subroutine1 & 0xFFFF
     45            }
   \                     ??CrossCallReturnLabel_2:
   \   000070   12....       LCALL   ?DEALLOC_XSTACK8
     46            /* Handle strike thru */
     47            if (GUI_Context.TextStyle & GUI_TS_STRIKETHRU) {
   \                     ??GUI__cbDrawTextStyle_0:
   \   000073   90....       MOV     DPTR,#GUI_Context + 14
   \   000076   E0           MOVX    A,@DPTR
   \   000077   A2E1         MOV     C,0xE0 /* A   */.1
   \   000079   504F         JNC     ??GUI__cbDrawTextStyle_2
     48              int yOff = GUI_Context.pAFont->Baseline - ((GUI_Context.pAFont->CHeight + 1) / 2);
     49              LCD_DrawHLine(x0, GUI_Context.DispPosY + yOff, x1);
   \   00007B   90....       MOV     DPTR,#GUI_Context + 21
   \   00007E   E0           MOVX    A,@DPTR
   \   00007F   FA           MOV     R2,A
   \   000080   A3           INC     DPTR
   \   000081   E0           MOVX    A,@DPTR
   \   000082   FB           MOV     R3,A
   \   000083                ; Setup parameters for call to function LCD_DrawHLine
   \   000083   78..         MOV     R0,#?V0 + 0
   \   000085   12....       LCALL   ?PUSH_XSTACK_I_TWO
   \   000088   EA           MOV     A,R2
   \   000089   2410         ADD     A,#0x10
   \   00008B   12....       LCALL   ?Subroutine3 & 0xFFFF
     50            }
   \                     ??CrossCallReturnLabel_10:
   \   00008E   F8           MOV     R0,A
   \   00008F   7583..       MOV     DPH,#((GUI_Context + 29) >> 8) & 0xff
   \   000092   7582..       MOV     DPL,#(GUI_Context + 29) & 0xff
   \   000095   E0           MOVX    A,@DPTR
   \   000096   28           ADD     A,R0
   \   000097   FC           MOV     R4,A
   \   000098   A3           INC     DPTR
   \   000099   E0           MOVX    A,@DPTR
   \   00009A   3400         ADDC    A,#0x0
   \   00009C   FD           MOV     R5,A
   \   00009D   EA           MOV     A,R2
   \   00009E   2412         ADD     A,#0x12
   \   0000A0   12....       LCALL   ?Subroutine3 & 0xFFFF
   \                     ??CrossCallReturnLabel_11:
   \   0000A3   2401         ADD     A,#0x1
   \   0000A5   F8           MOV     R0,A
   \   0000A6   E4           CLR     A
   \   0000A7   3400         ADDC    A,#0x0
   \   0000A9   F9           MOV     R1,A
   \   0000AA   7A02         MOV     R2,#0x2
   \   0000AC   7B00         MOV     R3,#0x0
   \   0000AE   12....       LCALL   ?S_DIV_MOD
   \   0000B1   88..         MOV     ?V0 + 2,R0
   \   0000B3   89..         MOV     ?V0 + 3,R1
   \   0000B5   EC           MOV     A,R4
   \   0000B6   C3           CLR     C
   \   0000B7   95..         SUBB    A,?V0 + 2
   \   0000B9   FC           MOV     R4,A
   \   0000BA   ED           MOV     A,R5
   \   0000BB   95..         SUBB    A,?V0 + 3
   \   0000BD   FD           MOV     R5,A
   \   0000BE   EE           MOV     A,R6
   \   0000BF   FA           MOV     R2,A
   \   0000C0   EF           MOV     A,R7
   \   0000C1   FB           MOV     R3,A
   \   0000C2   12....       LCALL   ??LCD_DrawHLine?relay
   \   0000C5   7402         MOV     A,#0x2
   \   0000C7   12....       LCALL   ?DEALLOC_XSTACK8
     51            /* Handle over line */
     52            if (GUI_Context.TextStyle & GUI_TS_OVERLINE) {
   \                     ??GUI__cbDrawTextStyle_2:
   \   0000CA   90....       MOV     DPTR,#GUI_Context + 14
   \   0000CD   E0           MOVX    A,@DPTR
   \   0000CE   A2E2         MOV     C,0xE0 /* A   */.2
   \   0000D0   5035         JNC     ??GUI__cbDrawTextStyle_3
     53              int yOff = GUI_Context.pAFont->Baseline - GUI_Context.pAFont->CHeight - 1;
   \   0000D2   12....       LCALL   ?Subroutine0 & 0xFFFF
   \                     ??CrossCallReturnLabel_1:
   \   0000D5   E8           MOV     A,R0
   \   0000D6   2412         ADD     A,#0x12
   \   0000D8   F582         MOV     DPL,A
   \   0000DA   E9           MOV     A,R1
   \   0000DB   12....       LCALL   ??Subroutine5_0 & 0xFFFF
   \                     ??CrossCallReturnLabel_8:
   \   0000DE   F8           MOV     R0,A
   \   0000DF   EA           MOV     A,R2
   \   0000E0   C3           CLR     C
   \   0000E1   98           SUBB    A,R0
   \   0000E2   F8           MOV     R0,A
   \   0000E3   95E0         SUBB    A,0xE0 /* A   */
   \   0000E5   F9           MOV     R1,A
   \   0000E6   E8           MOV     A,R0
   \   0000E7   24FF         ADD     A,#-0x1
   \   0000E9   FA           MOV     R2,A
   \   0000EA   E9           MOV     A,R1
   \   0000EB   34FF         ADDC    A,#-0x1
   \   0000ED   FB           MOV     R3,A
     54              if (yOff < 0) {
   \   0000EE   C3           CLR     C
   \   0000EF   9400         SUBB    A,#0x0
   \   0000F1   A2D2         MOV     C,0xD0 /* PSW */.2
   \   0000F3   65D0         XRL     A,PSW
   \   0000F5   33           RLC     A
   \   0000F6   5004         JNC     ??GUI__cbDrawTextStyle_4
     55                yOff = 0;
   \   0000F8   7A00         MOV     R2,#0x0
   \   0000FA   7B00         MOV     R3,#0x0
     56              }
     57              LCD_DrawHLine(x0, GUI_Context.DispPosY + yOff, x1);
   \                     ??GUI__cbDrawTextStyle_4:
   \   0000FC                ; Setup parameters for call to function LCD_DrawHLine
   \   0000FC   78..         MOV     R0,#?V0 + 0
   \   0000FE   12....       LCALL   ?PUSH_XSTACK_I_TWO
   \   000101   12....       LCALL   ?Subroutine1 & 0xFFFF
     58            }
   \                     ??CrossCallReturnLabel_3:
   \   000104   12....       LCALL   ?DEALLOC_XSTACK8
     59          }
   \                     ??GUI__cbDrawTextStyle_3:
   \   000107   7F04         MOV     R7,#0x4
   \   000109   02....       LJMP    ?BANKED_LEAVE_XDATA

   \                                 In  segment BANKED_CODE, align 1, keep-with-next
   \                     ?Subroutine2:
   \   000000   90....       MOV     DPTR,#GUI_Context + 21
   \   000003   12....       LCALL   ?Subroutine4 & 0xFFFF
   \                     ??CrossCallReturnLabel_7:
   \   000006   A3           INC     DPTR
   \   000007   A3           INC     DPTR
   \   000008   22           RET

   \                                 In  segment BANKED_CODE, align 1, keep-with-next
   \                     ?Subroutine4:
   \   000000   E0           MOVX    A,@DPTR
   \   000001   F8           MOV     R0,A
   \   000002   A3           INC     DPTR
   \   000003   E0           MOVX    A,@DPTR
   \   000004   F583         MOV     DPH,A
   \   000006   8882         MOV     DPL,R0
   \   000008   22           RET

   \                                 In  segment BANKED_CODE, align 1, keep-with-next
   \                     ?Subroutine1:
   \   000000   90....       MOV     DPTR,#GUI_Context + 29
   \   000003   E0           MOVX    A,@DPTR
   \   000004   2A           ADD     A,R2
   \   000005   FC           MOV     R4,A
   \   000006   A3           INC     DPTR
   \   000007   E0           MOVX    A,@DPTR
   \   000008   3B           ADDC    A,R3
   \   000009   FD           MOV     R5,A
   \   00000A   EE           MOV     A,R6
   \   00000B   FA           MOV     R2,A
   \   00000C   EF           MOV     A,R7
   \   00000D   FB           MOV     R3,A
   \   00000E   12....       LCALL   ??LCD_DrawHLine?relay
   \   000011   7402         MOV     A,#0x2
   \   000013   22           RET

   \                                 In  segment BANKED_CODE, align 1, keep-with-next
   \                     ?Subroutine0:
   \   000000   90....       MOV     DPTR,#GUI_Context + 21
   \   000003   E0           MOVX    A,@DPTR
   \   000004   F8           MOV     R0,A
   \   000005   A3           INC     DPTR
   \   000006   E0           MOVX    A,@DPTR
   \   000007   F9           MOV     R1,A
   \   000008   E8           MOV     A,R0
   \   000009   2410         ADD     A,#0x10
   \   00000B   F582         MOV     DPL,A
   \   00000D   E9           MOV     A,R1
   \   00000E   12....       LCALL   ??Subroutine5_0 & 0xFFFF
   \                     ??CrossCallReturnLabel_9:
   \   000011   FA           MOV     R2,A
   \   000012   22           RET

   \                                 In  segment BANKED_CODE, align 1, keep-with-next
   \                     ?Subroutine3:
   \   000000   F582         MOV     DPL,A
   \   000002   EB           MOV     A,R3
   \   000003                REQUIRE ??Subroutine5_0
   \   000003                ; // Fall through to label ??Subroutine5_0

   \                                 In  segment BANKED_CODE, align 1, keep-with-next
   \                     ??Subroutine5_0:
   \   000000   3400         ADDC    A,#0x0
   \   000002   F583         MOV     DPH,A
   \   000004   E0           MOVX    A,@DPTR
   \   000005   22           RET
     60          
     61          /*********************************************************************
     62          *
     63          *       Public code
     64          *
     65          **********************************************************************
     66          */
     67          /*********************************************************************
     68          *
     69          *       GUI_SetTextStyle
     70          */

   \                                 In  segment BANKED_CODE, align 1, keep-with-next
     71          char GUI_SetTextStyle(char Style) {
   \                     GUI_SetTextStyle:
   \   000000   C082         PUSH    DPL
   \   000002   C083         PUSH    DPH
   \   000004                ; Saved register size: 2
   \   000004                ; Auto size: 0
   \   000004   E9           MOV     A,R1
   \   000005   F8           MOV     R0,A
     72            char OldStyle;
     73            halIntState_t state;
     74            GUI_LOCK(state);
   \   000006   E5A8         MOV     A,0xa8
   \   000008   FA           MOV     R2,A
   \   000009   C2AF         CLR     0xa8.7
     75            OldStyle = GUI_Context.TextStyle;
   \   00000B   90....       MOV     DPTR,#GUI_Context + 14
   \   00000E   E0           MOVX    A,@DPTR
   \   00000F   F9           MOV     R1,A
     76            GUI_pfDispCharStyle = GUI__cbDrawTextStyle;    /* Init function pointer (function in this module) */
   \   000010   90....       MOV     DPTR,#GUI_pfDispCharStyle
   \   000013   74..         MOV     A,#??GUI__cbDrawTextStyle?relay & 0xff
   \   000015   F0           MOVX    @DPTR,A
   \   000016   A3           INC     DPTR
   \   000017   74..         MOV     A,#(??GUI__cbDrawTextStyle?relay >> 8) & 0xff
   \   000019   F0           MOVX    @DPTR,A
     77            GUI_Context.TextStyle = Style;
   \   00001A   E8           MOV     A,R0
   \   00001B   90....       MOV     DPTR,#GUI_Context + 14
   \   00001E   F0           MOVX    @DPTR,A
     78            GUI_UNLOCK(state);
   \   00001F   EA           MOV     A,R2
   \   000020   A2E7         MOV     C,0xE0 /* A   */.7
   \   000022   92AF         MOV     0xa8.7,C
     79            return OldStyle;
   \   000024   D083         POP     DPH
   \   000026   D082         POP     DPL
   \   000028   02....       LJMP    ?BRET
   \   00002B                REQUIRE _A_IEN0
     80          }

   \                                 In  segment BANK_RELAYS, align 1
   \                     ??GUI__cbDrawTextStyle?relay:
   \   000000   12....       LCALL   ?BDISPATCH
   \   000003   ......       DC24    GUI__cbDrawTextStyle

   \                                 In  segment BANK_RELAYS, align 1
   \                     ??GUI_SetTextStyle?relay:
   \   000000   12....       LCALL   ?BDISPATCH
   \   000003   ......       DC24    GUI_SetTextStyle
     81          
     82          /*************************** End of file ****************************/

   Maximum stack usage in bytes:

     Function             ISTACK PSTACK XSTACK
     --------             ------ ------ ------
     GUI_SetTextStyle         2      0      0
     GUI__cbDrawTextStyle     2      0     14
       -> LCD_DrawHLine       0      0     28
       -> LCD_DrawHLine       0      0     28
       -> LCD_DrawHLine       0      0     28


   Segment part sizes:

     Function/Label               Bytes
     --------------               -----
     _A_IEN0                         1
     GUI__cbDrawTextStyle          268
     ?Subroutine2                    9
     ?Subroutine4                    9
     ?Subroutine1                   20
     ?Subroutine0                   19
     ?Subroutine3                    3
     ??Subroutine5_0                 6
     GUI_SetTextStyle               43
     ??GUI__cbDrawTextStyle?relay    6
     ??GUI_SetTextStyle?relay        6

 
 377 bytes in segment BANKED_CODE
  12 bytes in segment BANK_RELAYS
   1 byte  in segment SFR_AN
 
 389 bytes of CODE memory
   0 bytes of DATA memory (+ 1 byte shared)

Errors: none
Warnings: none
