///////////////////////////////////////////////////////////////////////////////
//                                                                            /
// IAR C/C++ Compiler V8.10.1.10194/W32 for 8051        14/Jun/2016  16:18:11 /
// Copyright 2004-2011 IAR Systems AB.                                        /
//                                                                            /
//    Core               =  plain                                             /
//    Code model         =  banked                                            /
//    Data model         =  large                                             /
//    Calling convention =  xdata reentrant                                   /
//    Constant location  =  data_rom                                          /
//    Dptr setup         =  1,16                                              /
//    Source file        =  F:\¹âÅÌ×ÊÁÏ\ETC-WSNÎïÁªÍø¹âÅÌ×ÊÁÏ210\ZigBeeÍøÂç\W /
//                          SN-CSÔ´Âë\ZStack-CC2530-2.5.1a\Components\uCGUI\C /
//                          ore\GUI_UC_DispString.c                           /
//    Command line       =  -f F:\¹âÅÌ×ÊÁÏ\ETC-WSNÎïÁªÍø¹âÅÌ×ÊÁÏ210\ZigBeeÍøÂ /
//                          ç\WSN-CSÔ´Âë\ZStack-CC2530-2.5.1a\Projects\zstack /
//                          \Utilities\SerialApp\CC2530DB\..\..\..\Tools\CC25 /
//                          30DB\f8wCoord.cfg (-DCPU32MHZ -DROOT=__near_func  /
//                          -DMAC_CFG_APP_PENDING_QUEUE=TRUE                  /
//                          -DMAC_CFG_TX_DATA_MAX=5 -DMAC_CFG_TX_MAX=8        /
//                          -DMAC_CFG_RX_MAX=5 -DZDO_COORDINATOR -DRTR_NWK)   /
//                          -f F:\¹âÅÌ×ÊÁÏ\ETC-WSNÎïÁªÍø¹âÅÌ×ÊÁÏ210\ZigBeeÍøÂ /
//                          ç\WSN-CSÔ´Âë\ZStack-CC2530-2.5.1a\Projects\zstack /
//                          \Utilities\SerialApp\CC2530DB\..\..\..\Tools\CC25 /
//                          30DB\f8wConfig.cfg (-DZIGBEEPRO -DSECURE=0        /
//                          -DZG_SECURE_DYNAMIC=0 -DREFLECTOR                 /
//                          -DDEFAULT_CHANLIST=0x00000800                     /
//                          -DZDAPP_CONFIG_PAN_ID=0x1001                      /
//                          -DNWK_START_DELAY=100 -DEXTENDED_JOINING_RANDOM_M /
//                          ASK=0x007F -DBEACON_REQUEST_DELAY=100             /
//                          -DBEACON_REQ_DELAY_MASK=0x00FF                    /
//                          -DLINK_STATUS_JITTER_MASK=0x007F                  /
//                          -DROUTE_EXPIRY_TIME=30 -DAPSC_ACK_WAIT_DURATION_P /
//                          OLLED=3000 -DNWK_INDIRECT_MSG_TIMEOUT=7           /
//                          -DMAX_RREQ_ENTRIES=8 -DAPSC_MAX_FRAME_RETRIES=3   /
//                          -DNWK_MAX_DATA_RETRIES=2                          /
//                          -DMAX_POLL_FAILURE_RETRIES=2 -DMAX_BCAST=9        /
//                          -DAPS_MAX_GROUPS=16 -DMAX_RTG_ENTRIES=40          /
//                          -DNWK_MAX_BINDING_ENTRIES=4                       /
//                          -DMAX_BINDING_CLUSTER_IDS=4                       /
//                          "-DDEFAULT_KEY={0x01, 0x03, 0x05, 0x07, 0x09,     /
//                          0x0B, 0x0D, 0x0F, 0x00, 0x02, 0x04, 0x06, 0x08,   /
//                          0x0A, 0x0C, 0x0D}" -DMAC_MAX_FRAME_SIZE=116       /
//                          -DZDNWKMGR_MIN_TRANSMISSIONS=20 "-DCONST=const    /
//                          __code" -DGENERIC=__generic                       /
//                          -DRFD_RCVC_ALWAYS_ON=FALSE -DPOLL_RATE=1000       /
//                          -DQUEUED_POLL_RATE=100 -DRESPONSE_POLL_RATE=100)  /
//                          -DREJOIN_POLL_RATE=440 F:\¹âÅÌ×ÊÁÏ\ETC-WSNÎïÁªÍø¹ /
//                          âÅÌ×ÊÁÏ210\ZigBeeÍøÂç\WSN-CSÔ´Âë\ZStack-CC2530-2. /
//                          5.1a\Components\uCGUI\Core\GUI_UC_DispString.c    /
//                          -D HAL_UART=TRUE -D SERIAL_APP_PORT=0 -D COOR -D  /
//                          LCD_SUPPORTED -D NV_INIT -lC                      /
//                          F:\¹âÅÌ×ÊÁÏ\ETC-WSNÎïÁªÍø¹âÅÌ×ÊÁÏ210\ZigBeeÍøÂç\W /
//                          SN-CSÔ´Âë\ZStack-CC2530-2.5.1a\Projects\zstack\Ut /
//                          ilities\SerialApp\CC2530DB\CoordinatorEB\List\    /
//                          -lA F:\¹âÅÌ×ÊÁÏ\ETC-WSNÎïÁªÍø¹âÅÌ×ÊÁÏ210\ZigBeeÍø /
//                          Âç\WSN-CSÔ´Âë\ZStack-CC2530-2.5.1a\Projects\zstac /
//                          k\Utilities\SerialApp\CC2530DB\CoordinatorEB\List /
//                          \ --diag_suppress Pe001,Pa010 -o                  /
//                          F:\¹âÅÌ×ÊÁÏ\ETC-WSNÎïÁªÍø¹âÅÌ×ÊÁÏ210\ZigBeeÍøÂç\W /
//                          SN-CSÔ´Âë\ZStack-CC2530-2.5.1a\Projects\zstack\Ut /
//                          ilities\SerialApp\CC2530DB\CoordinatorEB\Obj\ -e  /
//                          --no_code_motion --debug --core=plain             /
//                          --dptr=16,1 --data_model=large                    /
//                          --code_model=banked --calling_convention=xdata_re /
//                          entrant --place_constants=data_rom                /
//                          --nr_virtual_regs 16 -I                           /
//                          F:\¹âÅÌ×ÊÁÏ\ETC-WSNÎïÁªÍø¹âÅÌ×ÊÁÏ210\ZigBeeÍøÂç\W /
//                          SN-CSÔ´Âë\ZStack-CC2530-2.5.1a\Projects\zstack\Ut /
//                          ilities\SerialApp\CC2530DB\ -I                    /
//                          F:\¹âÅÌ×ÊÁÏ\ETC-WSNÎïÁªÍø¹âÅÌ×ÊÁÏ210\ZigBeeÍøÂç\W /
//                          SN-CSÔ´Âë\ZStack-CC2530-2.5.1a\Projects\zstack\Ut /
//                          ilities\SerialApp\CC2530DB\..\Public\ -I          /
//                          F:\¹âÅÌ×ÊÁÏ\ETC-WSNÎïÁªÍø¹âÅÌ×ÊÁÏ210\ZigBeeÍøÂç\W /
//                          SN-CSÔ´Âë\ZStack-CC2530-2.5.1a\Projects\zstack\Ut /
//                          ilities\SerialApp\CC2530DB\..\..\..\..\..\Compone /
//                          nts\uCGUI\Core\ -I F:\¹âÅÌ×ÊÁÏ\ETC-WSNÎïÁªÍø¹âÅÌ× /
//                          ÊÁÏ210\ZigBeeÍøÂç\WSN-CSÔ´Âë\ZStack-CC2530-2.5.1a /
//                          \Projects\zstack\Utilities\SerialApp\CC2530DB\..\ /
//                          ..\..\..\..\Components\uCGUI\MultiLayer\ -I       /
//                          F:\¹âÅÌ×ÊÁÏ\ETC-WSNÎïÁªÍø¹âÅÌ×ÊÁÏ210\ZigBeeÍøÂç\W /
//                          SN-CSÔ´Âë\ZStack-CC2530-2.5.1a\Projects\zstack\Ut /
//                          ilities\SerialApp\CC2530DB\..\..\..\..\..\Compone /
//                          nts\uCGUI\Config\ -I F:\¹âÅÌ×ÊÁÏ\ETC-WSNÎïÁªÍø¹âÅ /
//                          Ì×ÊÁÏ210\ZigBeeÍøÂç\WSN-CSÔ´Âë\ZStack-CC2530-2.5. /
//                          1a\Projects\zstack\Utilities\SerialApp\CC2530DB\. /
//                          .\Coordinator\ -I F:\¹âÅÌ×ÊÁÏ\ETC-WSNÎïÁªÍø¹âÅÌ×Ê /
//                          ÁÏ210\ZigBeeÍøÂç\WSN-CSÔ´Âë\ZStack-CC2530-2.5.1a\ /
//                          Projects\zstack\Utilities\SerialApp\CC2530DB\..\. /
//                          .\..\ZMain\TI2530DB\ -I                           /
//                          F:\¹âÅÌ×ÊÁÏ\ETC-WSNÎïÁªÍø¹âÅÌ×ÊÁÏ210\ZigBeeÍøÂç\W /
//                          SN-CSÔ´Âë\ZStack-CC2530-2.5.1a\Projects\zstack\Ut /
//                          ilities\SerialApp\CC2530DB\..\..\..\..\..\Compone /
//                          nts\hal\include\ -I F:\¹âÅÌ×ÊÁÏ\ETC-WSNÎïÁªÍø¹âÅÌ /
//                          ×ÊÁÏ210\ZigBeeÍøÂç\WSN-CSÔ´Âë\ZStack-CC2530-2.5.1 /
//                          a\Projects\zstack\Utilities\SerialApp\CC2530DB\.. /
//                          \..\..\..\..\Components\hal\target\CC2530EB\ -I   /
//                          F:\¹âÅÌ×ÊÁÏ\ETC-WSNÎïÁªÍø¹âÅÌ×ÊÁÏ210\ZigBeeÍøÂç\W /
//                          SN-CSÔ´Âë\ZStack-CC2530-2.5.1a\Projects\zstack\Ut /
//                          ilities\SerialApp\CC2530DB\..\..\..\..\..\Compone /
//                          nts\mac\include\ -I F:\¹âÅÌ×ÊÁÏ\ETC-WSNÎïÁªÍø¹âÅÌ /
//                          ×ÊÁÏ210\ZigBeeÍøÂç\WSN-CSÔ´Âë\ZStack-CC2530-2.5.1 /
//                          a\Projects\zstack\Utilities\SerialApp\CC2530DB\.. /
//                          \..\..\..\..\Components\mac\high_level\ -I        /
//                          F:\¹âÅÌ×ÊÁÏ\ETC-WSNÎïÁªÍø¹âÅÌ×ÊÁÏ210\ZigBeeÍøÂç\W /
//                          SN-CSÔ´Âë\ZStack-CC2530-2.5.1a\Projects\zstack\Ut /
//                          ilities\SerialApp\CC2530DB\..\..\..\..\..\Compone /
//                          nts\mac\low_level\srf04\ -I                       /
//                          F:\¹âÅÌ×ÊÁÏ\ETC-WSNÎïÁªÍø¹âÅÌ×ÊÁÏ210\ZigBeeÍøÂç\W /
//                          SN-CSÔ´Âë\ZStack-CC2530-2.5.1a\Projects\zstack\Ut /
//                          ilities\SerialApp\CC2530DB\..\..\..\..\..\Compone /
//                          nts\mac\low_level\srf04\single_chip\ -I           /
//                          F:\¹âÅÌ×ÊÁÏ\ETC-WSNÎïÁªÍø¹âÅÌ×ÊÁÏ210\ZigBeeÍøÂç\W /
//                          SN-CSÔ´Âë\ZStack-CC2530-2.5.1a\Projects\zstack\Ut /
//                          ilities\SerialApp\CC2530DB\..\..\..\..\..\Compone /
//                          nts\mt\ -I F:\¹âÅÌ×ÊÁÏ\ETC-WSNÎïÁªÍø¹âÅÌ×ÊÁÏ210\Z /
//                          igBeeÍøÂç\WSN-CSÔ´Âë\ZStack-CC2530-2.5.1a\Project /
//                          s\zstack\Utilities\SerialApp\CC2530DB\..\..\..\.. /
//                          \..\Components\osal\include\ -I                   /
//                          F:\¹âÅÌ×ÊÁÏ\ETC-WSNÎïÁªÍø¹âÅÌ×ÊÁÏ210\ZigBeeÍøÂç\W /
//                          SN-CSÔ´Âë\ZStack-CC2530-2.5.1a\Projects\zstack\Ut /
//                          ilities\SerialApp\CC2530DB\..\..\..\..\..\Compone /
//                          nts\services\saddr\ -I F:\¹âÅÌ×ÊÁÏ\ETC-WSNÎïÁªÍø¹ /
//                          âÅÌ×ÊÁÏ210\ZigBeeÍøÂç\WSN-CSÔ´Âë\ZStack-CC2530-2. /
//                          5.1a\Projects\zstack\Utilities\SerialApp\CC2530DB /
//                          \..\..\..\..\..\Components\services\sdata\ -I     /
//                          F:\¹âÅÌ×ÊÁÏ\ETC-WSNÎïÁªÍø¹âÅÌ×ÊÁÏ210\ZigBeeÍøÂç\W /
//                          SN-CSÔ´Âë\ZStack-CC2530-2.5.1a\Projects\zstack\Ut /
//                          ilities\SerialApp\CC2530DB\..\..\..\..\..\Compone /
//                          nts\stack\af\ -I F:\¹âÅÌ×ÊÁÏ\ETC-WSNÎïÁªÍø¹âÅÌ×ÊÁ /
//                          Ï210\ZigBeeÍøÂç\WSN-CSÔ´Âë\ZStack-CC2530-2.5.1a\P /
//                          rojects\zstack\Utilities\SerialApp\CC2530DB\..\.. /
//                          \..\..\..\Components\stack\nwk\ -I                /
//                          F:\¹âÅÌ×ÊÁÏ\ETC-WSNÎïÁªÍø¹âÅÌ×ÊÁÏ210\ZigBeeÍøÂç\W /
//                          SN-CSÔ´Âë\ZStack-CC2530-2.5.1a\Projects\zstack\Ut /
//                          ilities\SerialApp\CC2530DB\..\..\..\..\..\Compone /
//                          nts\stack\sapi\ -I F:\¹âÅÌ×ÊÁÏ\ETC-WSNÎïÁªÍø¹âÅÌ× /
//                          ÊÁÏ210\ZigBeeÍøÂç\WSN-CSÔ´Âë\ZStack-CC2530-2.5.1a /
//                          \Projects\zstack\Utilities\SerialApp\CC2530DB\..\ /
//                          ..\..\..\..\Components\stack\sec\ -I              /
//                          F:\¹âÅÌ×ÊÁÏ\ETC-WSNÎïÁªÍø¹âÅÌ×ÊÁÏ210\ZigBeeÍøÂç\W /
//                          SN-CSÔ´Âë\ZStack-CC2530-2.5.1a\Projects\zstack\Ut /
//                          ilities\SerialApp\CC2530DB\..\..\..\..\..\Compone /
//                          nts\stack\sys\ -I F:\¹âÅÌ×ÊÁÏ\ETC-WSNÎïÁªÍø¹âÅÌ×Ê /
//                          ÁÏ210\ZigBeeÍøÂç\WSN-CSÔ´Âë\ZStack-CC2530-2.5.1a\ /
//                          Projects\zstack\Utilities\SerialApp\CC2530DB\..\. /
//                          .\..\..\..\Components\stack\zdo\ -I               /
//                          F:\¹âÅÌ×ÊÁÏ\ETC-WSNÎïÁªÍø¹âÅÌ×ÊÁÏ210\ZigBeeÍøÂç\W /
//                          SN-CSÔ´Âë\ZStack-CC2530-2.5.1a\Projects\zstack\Ut /
//                          ilities\SerialApp\CC2530DB\..\..\..\..\..\Compone /
//                          nts\zmac\ -I F:\¹âÅÌ×ÊÁÏ\ETC-WSNÎïÁªÍø¹âÅÌ×ÊÁÏ210 /
//                          \ZigBeeÍøÂç\WSN-CSÔ´Âë\ZStack-CC2530-2.5.1a\Proje /
//                          cts\zstack\Utilities\SerialApp\CC2530DB\..\..\..\ /
//                          ..\..\Components\zmac\f8w\ -Ohz                   /
//                          --require_prototypes                              /
//    List file          =  F:\¹âÅÌ×ÊÁÏ\ETC-WSNÎïÁªÍø¹âÅÌ×ÊÁÏ210\ZigBeeÍøÂç\W /
//                          SN-CSÔ´Âë\ZStack-CC2530-2.5.1a\Projects\zstack\Ut /
//                          ilities\SerialApp\CC2530DB\CoordinatorEB\List\GUI /
//                          _UC_DispString.s51                                /
//                                                                            /
//                                                                            /
///////////////////////////////////////////////////////////////////////////////

        NAME GUI_UC_DispString

        RTMODEL "__SystemLibrary", "CLib"
        RTMODEL "__calling_convention", "xdata_reentrant"
        RTMODEL "__code_model", "banked"
        RTMODEL "__core", "plain"
        RTMODEL "__data_model", "large"
        RTMODEL "__dptr_size", "16"
        RTMODEL "__extended_stack", "disabled"
        RTMODEL "__location_for_constants", "data"
        RTMODEL "__number_of_dptrs", "1"
        RTMODEL "__rt_version", "1"

        RSEG DOVERLAY:DATA:NOROOT(0)
        RSEG IOVERLAY:IDATA:NOROOT(0)
        RSEG ISTACK:IDATA:NOROOT(0)
        RSEG PSTACK:XDATA:NOROOT(0)
        RSEG XSTACK:XDATA:NOROOT(0)

        EXTERN ?ALLOC_XSTACK8
        EXTERN ?BANKED_ENTER_XDATA
        EXTERN ?BANKED_LEAVE_XDATA
        EXTERN ?BDISPATCH
        EXTERN ?DEALLOC_XSTACK8
        EXTERN ?S_DIV_MOD
        EXTERN ?V0
        EXTERN ?XSP
        EXTERN ?XSTACK_DISP0_8

        PUBLIC ??GUI_UC_DispString?relay
        FUNCTION ??GUI_UC_DispString?relay,0203H
        PUBLIC GUI_UC_DispString
        FUNCTION GUI_UC_DispString,021203H
        ARGFRAME XSTACK, 0, STACK
        LOCFRAME ISTACK, 1, STACK
        LOCFRAME XSTACK, 37, STACK
        PUBWEAK _A_IEN0
        
        CFI Names cfiNames0
        CFI StackFrame CFA_SP SP IDATA
        CFI StackFrame CFA_PSP16 PSP16 XDATA
        CFI StackFrame CFA_XSP16 XSP16 XDATA
        CFI StaticOverlayFrame CFA_IOVERLAY IOVERLAY
        CFI StaticOverlayFrame CFA_DOVERLAY DOVERLAY
        CFI Resource `PSW.CY`:1, `B.BR0`:1, `B.BR1`:1, `B.BR2`:1, `B.BR3`:1
        CFI Resource `B.BR4`:1, `B.BR5`:1, `B.BR6`:1, `B.BR7`:1, `VB.BR8`:1
        CFI Resource `VB.BR9`:1, `VB.BR10`:1, `VB.BR11`:1, `VB.BR12`:1
        CFI Resource `VB.BR13`:1, `VB.BR14`:1, `VB.BR15`:1, VB:8, B:8, A:8
        CFI Resource PSW:8, DPL0:8, DPH0:8, R0:8, R1:8, R2:8, R3:8, R4:8, R5:8
        CFI Resource R6:8, R7:8, V0:8, V1:8, V2:8, V3:8, V4:8, V5:8, V6:8, V7:8
        CFI Resource V8:8, V9:8, V10:8, V11:8, V12:8, V13:8, V14:8, V15:8, SP:8
        CFI Resource PSPH:8, PSPL:8, PSP16:16, XSPH:8, XSPL:8, XSP16:16
        CFI VirtualResource ?RET:24
        CFI Resource ?BRET_EXT:8
        CFI VirtualResource ?RET_HIGH:8, ?RET_LOW:8
        CFI ResourceParts PSP16 PSPH, PSPL
        CFI ResourceParts XSP16 XSPH, XSPL
        CFI ResourceParts ?RET ?BRET_EXT, ?RET_HIGH, ?RET_LOW
        CFI EndNames cfiNames0
        
        CFI Common cfiCommon0 Using cfiNames0
        CFI CodeAlign 1
        CFI DataAlign -1
        CFI ReturnAddress ?RET CODE
        CFI CFA_DOVERLAY Used
        CFI CFA_IOVERLAY Used
        CFI CFA_SP SP+-3
        CFI CFA_PSP16 PSP16+0
        CFI CFA_XSP16 XSP16+0
        CFI `PSW.CY` SameValue
        CFI `B.BR0` SameValue
        CFI `B.BR1` SameValue
        CFI `B.BR2` SameValue
        CFI `B.BR3` SameValue
        CFI `B.BR4` SameValue
        CFI `B.BR5` SameValue
        CFI `B.BR6` SameValue
        CFI `B.BR7` SameValue
        CFI `VB.BR8` SameValue
        CFI `VB.BR9` SameValue
        CFI `VB.BR10` SameValue
        CFI `VB.BR11` SameValue
        CFI `VB.BR12` SameValue
        CFI `VB.BR13` SameValue
        CFI `VB.BR14` SameValue
        CFI `VB.BR15` SameValue
        CFI VB SameValue
        CFI B Undefined
        CFI A Undefined
        CFI PSW SameValue
        CFI DPL0 SameValue
        CFI DPH0 SameValue
        CFI R0 Undefined
        CFI R1 Undefined
        CFI R2 Undefined
        CFI R3 Undefined
        CFI R4 Undefined
        CFI R5 Undefined
        CFI R6 SameValue
        CFI R7 SameValue
        CFI V0 SameValue
        CFI V1 SameValue
        CFI V2 SameValue
        CFI V3 SameValue
        CFI V4 SameValue
        CFI V5 SameValue
        CFI V6 SameValue
        CFI V7 SameValue
        CFI V8 SameValue
        CFI V9 SameValue
        CFI V10 SameValue
        CFI V11 SameValue
        CFI V12 SameValue
        CFI V13 SameValue
        CFI V14 SameValue
        CFI V15 SameValue
        CFI PSPH Undefined
        CFI PSPL Undefined
        CFI XSPH Undefined
        CFI XSPL Undefined
        CFI ?RET Concat
        CFI ?BRET_EXT Frame(CFA_SP, 3)
        CFI ?RET_HIGH Frame(CFA_SP, 2)
        CFI ?RET_LOW Frame(CFA_SP, 1)
        CFI EndCommon cfiCommon0
        
        
        CFI Common cfiCommon1 Using cfiNames0
        CFI CodeAlign 1
        CFI DataAlign -1
        CFI ReturnAddress ?RET CODE
        CFI CFA_DOVERLAY Used
        CFI CFA_IOVERLAY Used
        CFI CFA_SP SP+-2
        CFI CFA_PSP16 PSP16+0
        CFI CFA_XSP16 XSP16+0
        CFI `PSW.CY` SameValue
        CFI `B.BR0` SameValue
        CFI `B.BR1` SameValue
        CFI `B.BR2` SameValue
        CFI `B.BR3` SameValue
        CFI `B.BR4` SameValue
        CFI `B.BR5` SameValue
        CFI `B.BR6` SameValue
        CFI `B.BR7` SameValue
        CFI `VB.BR8` SameValue
        CFI `VB.BR9` SameValue
        CFI `VB.BR10` SameValue
        CFI `VB.BR11` SameValue
        CFI `VB.BR12` SameValue
        CFI `VB.BR13` SameValue
        CFI `VB.BR14` SameValue
        CFI `VB.BR15` SameValue
        CFI VB SameValue
        CFI B SameValue
        CFI A SameValue
        CFI PSW SameValue
        CFI DPL0 SameValue
        CFI DPH0 SameValue
        CFI R0 SameValue
        CFI R1 SameValue
        CFI R2 SameValue
        CFI R3 SameValue
        CFI R4 SameValue
        CFI R5 SameValue
        CFI R6 SameValue
        CFI R7 SameValue
        CFI V0 SameValue
        CFI V1 SameValue
        CFI V2 SameValue
        CFI V3 SameValue
        CFI V4 SameValue
        CFI V5 SameValue
        CFI V6 SameValue
        CFI V7 SameValue
        CFI V8 SameValue
        CFI V9 SameValue
        CFI V10 SameValue
        CFI V11 SameValue
        CFI V12 SameValue
        CFI V13 SameValue
        CFI V14 SameValue
        CFI V15 SameValue
        CFI PSPH Undefined
        CFI PSPL Undefined
        CFI XSPH Undefined
        CFI XSPL Undefined
        CFI ?RET Concat
        CFI ?BRET_EXT SameValue
        CFI ?RET_HIGH Frame(CFA_SP, 2)
        CFI ?RET_LOW Frame(CFA_SP, 1)
        CFI EndCommon cfiCommon1
        
GUI_GetYAdjust      SYMBOL "GUI_GetYAdjust"
GUI_GetCharDistX    SYMBOL "GUI_GetCharDistX"
GUI_RectsIntersect  SYMBOL "GUI_RectsIntersect"
GL_DispChar         SYMBOL "GL_DispChar"
GUI_GetFontDistY    SYMBOL "GUI_GetFontDistY"
??GL_DispChar?relay SYMBOL "?relay", GL_DispChar
??GUI_GetCharDistX?relay SYMBOL "?relay", GUI_GetCharDistX
??GUI_GetFontDistY?relay SYMBOL "?relay", GUI_GetFontDistY
??GUI_GetYAdjust?relay SYMBOL "?relay", GUI_GetYAdjust
??GUI_RectsIntersect?relay SYMBOL "?relay", GUI_RectsIntersect
GUI_UC_DispString   SYMBOL "GUI_UC_DispString"
??GUI_UC_DispString?relay SYMBOL "?relay", GUI_UC_DispString

        EXTERN GUI_GetYAdjust
        FUNCTION GUI_GetYAdjust,0202H
        ARGFRAME ISTACK, 0, STACK
        ARGFRAME PSTACK, 0, STACK
        ARGFRAME XSTACK, 37, STACK
        ARGFRAME IOVERLAY, 0, STATIC
        ARGFRAME DOVERLAY, 0, STATIC
        EXTERN GUI_GetCharDistX
        FUNCTION GUI_GetCharDistX,0202H
        ARGFRAME ISTACK, 0, STACK
        ARGFRAME PSTACK, 0, STACK
        ARGFRAME XSTACK, 37, STACK
        ARGFRAME IOVERLAY, 0, STATIC
        ARGFRAME DOVERLAY, 0, STATIC
        EXTERN GUI_RectsIntersect
        FUNCTION GUI_RectsIntersect,0202H
        ARGFRAME ISTACK, 0, STACK
        ARGFRAME PSTACK, 0, STACK
        ARGFRAME XSTACK, 37, STACK
        ARGFRAME IOVERLAY, 0, STATIC
        ARGFRAME DOVERLAY, 0, STATIC
        EXTERN GL_DispChar
        FUNCTION GL_DispChar,0202H
        ARGFRAME ISTACK, 0, STACK
        ARGFRAME PSTACK, 0, STACK
        ARGFRAME XSTACK, 37, STACK
        ARGFRAME IOVERLAY, 0, STATIC
        ARGFRAME DOVERLAY, 0, STATIC
        EXTERN GUI_GetFontDistY
        FUNCTION GUI_GetFontDistY,0202H
        ARGFRAME ISTACK, 0, STACK
        ARGFRAME PSTACK, 0, STACK
        ARGFRAME XSTACK, 37, STACK
        ARGFRAME IOVERLAY, 0, STATIC
        ARGFRAME DOVERLAY, 0, STATIC
        EXTERN ??GL_DispChar?relay
        FUNCTION ??GL_DispChar?relay,00H
        EXTERN ??GUI_GetCharDistX?relay
        FUNCTION ??GUI_GetCharDistX?relay,00H
        EXTERN ??GUI_GetFontDistY?relay
        FUNCTION ??GUI_GetFontDistY?relay,00H
        EXTERN ??GUI_GetYAdjust?relay
        FUNCTION ??GUI_GetYAdjust?relay,00H
        EXTERN ??GUI_RectsIntersect?relay
        FUNCTION ??GUI_RectsIntersect?relay,00H
        EXTERN GUI_Context

// F:\¹âÅÌ×ÊÁÏ\ETC-WSNÎïÁªÍø¹âÅÌ×ÊÁÏ210\ZigBeeÍøÂç\WSN-CSÔ´Âë\ZStack-CC2530-2.5.1a\Components\uCGUI\Core\GUI_UC_DispString.c
//    1 /*
//    2 *********************************************************************************************************
//    3 *                                                uC/GUI
//    4 *                        Universal graphic software for embedded applications
//    5 *
//    6 *                       (c) Copyright 2002, Micrium Inc., Weston, FL
//    7 *                       (c) Copyright 2002, SEGGER Microcontroller Systeme GmbH
//    8 *
//    9 *              µC/GUI is protected by international copyright laws. Knowledge of the
//   10 *              source code may not be used to write a similar product. This file may
//   11 *              only be used in accordance with a license and should not be redistributed
//   12 *              in any way. We appreciate your understanding and fairness.
//   13 *
//   14 ----------------------------------------------------------------------
//   15 File        : GUI_UC_DispString.c
//   16 Purpose     : Implementation of GUI_UC_DispString
//   17 ---------------------------END-OF-HEADER------------------------------
//   18 */
//   19 
//   20 #include <stddef.h>           /* needed for definition of NULL */
//   21 #include "GUI_Protected.h"

        ASEGN SFR_AN:DATA:NOROOT,0a8H
// union <unnamed> volatile __sfr _A_IEN0
_A_IEN0:
        DATA8
        DS 1
//   22 
//   23 /*********************************************************************
//   24 *
//   25 *       Static code
//   26 *
//   27 **********************************************************************
//   28 */
//   29 /*********************************************************************
//   30 *
//   31 *       _GetLineDistX
//   32 */
//   33 static int _GetLineDistX(const U16 GUI_UNI_PTR *s, int MaxNumChars) {
//   34   int Dist =0;
//   35   if (s) {
//   36     U16 Char;
//   37     while (((Char = *s) != 0) && MaxNumChars >= 0) {
//   38       s++;
//   39       MaxNumChars--;
//   40       Dist += GUI_GetCharDistX(Char);
//   41     }
//   42   }
//   43   return Dist;
//   44 }
//   45 
//   46 /*********************************************************************
//   47 *
//   48 *       _GetLineLen
//   49 */
//   50 static int _GetLineLen(const U16 GUI_UNI_PTR *s, int MaxLen) {
//   51   int Len =0;
//   52   if (!s)
//   53     return 0;
//   54   {
//   55     while ((*s !=0) && Len < MaxLen) {
//   56       Len++; s++;
//   57     }
//   58   }
//   59   return Len;
//   60 }
//   61 
//   62 /*********************************************************************
//   63 *
//   64 *       _DispLine_UC
//   65 */
//   66 static void _DispLine_UC(const U16 GUI_UNI_PTR *s, int Len, const GUI_RECT *pRect) {
//   67   if (GUI_Context.pClipRect_HL) {
//   68     if (GUI_RectsIntersect(GUI_Context.pClipRect_HL, pRect) == 0)
//   69       return;
//   70   }
//   71   {
//   72     U16 c0;
//   73     while (--Len >=0) {
//   74       c0=*s++;
//   75       GL_DispChar(c0);
//   76     }
//   77   }
//   78 }
//   79 
//   80 /*********************************************************************
//   81 *
//   82 *       _DispLine
//   83 */
//   84 static void _DispLine(const U16 GUI_UNI_PTR *s, int Len, const GUI_RECT* pr) {
//   85   GUI_RECT r;
//   86   r = *pr;
//   87   #if GUI_WINSUPPORT
//   88   WM_ADDORG(r.x0,r.y0);
//   89   WM_ADDORG(r.x1,r.y1);
//   90   WM_ITERATE_START(&r) {
//   91   #endif
//   92      GUI_Context.DispPosX = r.x0;
//   93      GUI_Context.DispPosY = r.y0;
//   94      _DispLine_UC(s, Len, &r);    /* Do the actual drawing via routine call. */
//   95   #if GUI_WINSUPPORT
//   96   } WM_ITERATE_END();
//   97   WM_SUBORG(GUI_Context.DispPosX, GUI_Context.DispPosY);
//   98   #endif
//   99 }
//  100 
//  101 /*********************************************************************
//  102 *
//  103 *       Public code
//  104 *
//  105 **********************************************************************
//  106 */
//  107 /*********************************************************************
//  108 *
//  109 *       GUI_UC_DispString
//  110 */

        RSEG BANKED_CODE:CODE:NOROOT(0)
//  111 void GUI_UC_DispString(const U16 GUI_UNI_PTR *s) {
GUI_UC_DispString:
        CFI Block cfiBlock0 Using cfiCommon0
        CFI Function GUI_UC_DispString
        CODE
        FUNCALL GUI_UC_DispString, GUI_GetYAdjust
        LOCFRAME ISTACK, 0, STACK
        LOCFRAME PSTACK, 0, STACK
        LOCFRAME XSTACK, 37, STACK
        LOCFRAME IOVERLAY, 0, STATIC
        LOCFRAME DOVERLAY, 0, STATIC
        ARGFRAME ISTACK, 0, STACK
        ARGFRAME PSTACK, 0, STACK
        ARGFRAME XSTACK, 37, STACK
        ARGFRAME IOVERLAY, 0, STATIC
        ARGFRAME DOVERLAY, 0, STATIC
        FUNCALL GUI_UC_DispString, GUI_GetCharDistX
        LOCFRAME ISTACK, 0, STACK
        LOCFRAME PSTACK, 0, STACK
        LOCFRAME XSTACK, 37, STACK
        LOCFRAME IOVERLAY, 0, STATIC
        LOCFRAME DOVERLAY, 0, STATIC
        ARGFRAME ISTACK, 0, STACK
        ARGFRAME PSTACK, 0, STACK
        ARGFRAME XSTACK, 37, STACK
        ARGFRAME IOVERLAY, 0, STATIC
        ARGFRAME DOVERLAY, 0, STATIC
        FUNCALL GUI_UC_DispString, GUI_RectsIntersect
        LOCFRAME ISTACK, 0, STACK
        LOCFRAME PSTACK, 0, STACK
        LOCFRAME XSTACK, 37, STACK
        LOCFRAME IOVERLAY, 0, STATIC
        LOCFRAME DOVERLAY, 0, STATIC
        ARGFRAME ISTACK, 0, STACK
        ARGFRAME PSTACK, 0, STACK
        ARGFRAME XSTACK, 37, STACK
        ARGFRAME IOVERLAY, 0, STATIC
        ARGFRAME DOVERLAY, 0, STATIC
        FUNCALL GUI_UC_DispString, GL_DispChar
        LOCFRAME ISTACK, 0, STACK
        LOCFRAME PSTACK, 0, STACK
        LOCFRAME XSTACK, 37, STACK
        LOCFRAME IOVERLAY, 0, STATIC
        LOCFRAME DOVERLAY, 0, STATIC
        ARGFRAME ISTACK, 0, STACK
        ARGFRAME PSTACK, 0, STACK
        ARGFRAME XSTACK, 37, STACK
        ARGFRAME IOVERLAY, 0, STATIC
        ARGFRAME DOVERLAY, 0, STATIC
        FUNCALL GUI_UC_DispString, GUI_GetFontDistY
        LOCFRAME ISTACK, 0, STACK
        LOCFRAME PSTACK, 0, STACK
        LOCFRAME XSTACK, 37, STACK
        LOCFRAME IOVERLAY, 0, STATIC
        LOCFRAME DOVERLAY, 0, STATIC
        ARGFRAME ISTACK, 0, STACK
        ARGFRAME PSTACK, 0, STACK
        ARGFRAME XSTACK, 37, STACK
        ARGFRAME IOVERLAY, 0, STATIC
        ARGFRAME DOVERLAY, 0, STATIC
        MOV     A,#-0x18
        LCALL   ?BANKED_ENTER_XDATA
        CFI DPH0 load(1, XDATA, add(CFA_XSP16, literal(-1)))
        CFI DPL0 load(1, XDATA, add(CFA_XSP16, literal(-2)))
        CFI ?BRET_EXT load(1, XDATA, add(CFA_XSP16, literal(-3)))
        CFI ?RET_HIGH load(1, XDATA, add(CFA_XSP16, literal(-4)))
        CFI ?RET_LOW load(1, XDATA, add(CFA_XSP16, literal(-5)))
        CFI R7 load(1, XDATA, add(CFA_XSP16, literal(-6)))
        CFI V15 load(1, XDATA, add(CFA_XSP16, literal(-7)))
        CFI V14 load(1, XDATA, add(CFA_XSP16, literal(-8)))
        CFI V13 load(1, XDATA, add(CFA_XSP16, literal(-9)))
        CFI V12 load(1, XDATA, add(CFA_XSP16, literal(-10)))
        CFI V11 load(1, XDATA, add(CFA_XSP16, literal(-11)))
        CFI V10 load(1, XDATA, add(CFA_XSP16, literal(-12)))
        CFI V9 load(1, XDATA, add(CFA_XSP16, literal(-13)))
        CFI V8 load(1, XDATA, add(CFA_XSP16, literal(-14)))
        CFI V7 load(1, XDATA, add(CFA_XSP16, literal(-15)))
        CFI V6 load(1, XDATA, add(CFA_XSP16, literal(-16)))
        CFI V5 load(1, XDATA, add(CFA_XSP16, literal(-17)))
        CFI V4 load(1, XDATA, add(CFA_XSP16, literal(-18)))
        CFI V3 load(1, XDATA, add(CFA_XSP16, literal(-19)))
        CFI V2 load(1, XDATA, add(CFA_XSP16, literal(-20)))
        CFI V1 load(1, XDATA, add(CFA_XSP16, literal(-21)))
        CFI V0 load(1, XDATA, add(CFA_XSP16, literal(-22)))
        CFI VB load(1, XDATA, add(CFA_XSP16, literal(-23)))
        CFI R6 load(1, XDATA, add(CFA_XSP16, literal(-24)))
        CFI CFA_SP SP+0
        CFI CFA_XSP16 add(XSP16, 24)
        ; Saved register size: 24
        ; Auto size: 13
        MOV     A,#-0xd
        LCALL   ?ALLOC_XSTACK8
        CFI CFA_XSP16 add(XSP16, 37)
        MOV     ?V0 + 4,R2
        MOV     ?V0 + 5,R3
//  112   int xAdjust, yAdjust, xOrg;
//  113   int FontSizeY;
//  114   if (!s)
        MOV     A,R2
        ORL     A,?V0 + 5
        JNZ     $+5
        LJMP    ??GUI_UC_DispString_0 & 0xFFFF
//  115     return;
//  116   halIntState_t state;
//  117   GUI_LOCK(state);
        MOV     C,0xa8.7
        CLR     A
        RLC     A
        MOV     DPL,?XSP + 0
        MOV     DPH,?XSP + 1
        MOVX    @DPTR,A
        CLR     0xa8.7
//  118   FontSizeY = GUI_Context.pAFont->YSize;
        MOV     DPTR,#GUI_Context + 21
        MOVX    A,@DPTR
        MOV     R0,A
        INC     DPTR
        MOVX    A,@DPTR
        MOV     DPH,A
        MOV     DPL,R0
        INC     DPTR
        INC     DPTR
        INC     DPTR
        INC     DPTR
        INC     DPTR
        INC     DPTR
        INC     DPTR
        INC     DPTR
        INC     DPTR
        INC     DPTR
        MOVX    A,@DPTR
        MOV     ?V0 + 0,A
//  119   xOrg = GUI_Context.DispPosX;
        MOV     DPTR,#GUI_Context + 27
        LCALL   ?Subroutine7 & 0xFFFF
??CrossCallReturnLabel_20:
        MOV     A,#0xb
        LCALL   ?XSTACK_DISP0_8
        LCALL   ?Subroutine3 & 0xFFFF
//  120  /* Adjust vertical position */
//  121   yAdjust = GUI_GetYAdjust();
??CrossCallReturnLabel_5:
        ; Setup parameters for call to function GUI_GetYAdjust
        LCALL   ??GUI_GetYAdjust?relay
        MOV     A,#0x1
        LCALL   ?XSTACK_DISP0_8
        MOV     A,R2
        MOVX    @DPTR,A
        INC     DPTR
        MOV     A,R3
        MOVX    @DPTR,A
//  122   GUI_Context.DispPosY -= yAdjust;
        MOV     A,#0x1
        LCALL   ?XSTACK_DISP0_8
        LCALL   ?Subroutine0 & 0xFFFF
??CrossCallReturnLabel_0:
        CLR     C
        MOVX    A,@DPTR
        SUBB    A,R0
        MOVX    @DPTR,A
        INC     DPTR
        MOVX    A,@DPTR
        SUBB    A,R1
        MOVX    @DPTR,A
        SJMP    ??GUI_UC_DispString_1
//  123   for (; *s; s++) {
??GUI_UC_DispString_2:
        MOV     A,?V0 + 4
        ADD     A,#0x2
        MOV     ?V0 + 4,A
        MOV     A,?V0 + 5
        ADDC    A,#0x0
        MOV     ?V0 + 5,A
??GUI_UC_DispString_1:
        LCALL   ?Subroutine1 & 0xFFFF
??CrossCallReturnLabel_18:
        JNZ     $+5
        LJMP    ??GUI_UC_DispString_3 & 0xFFFF
//  124     GUI_RECT r;
//  125     int LineLen= _GetLineLen(s,0x7fff);
        MOV     R0,?V0 + 4
        MOV     R1,?V0 + 5
        MOV     R2,#0x0
        MOV     R3,#0x0
        MOV     A,R0
        ORL     A,R1
        JNZ     ??GUI_UC_DispString_4
        MOV     R6,#0x0
        MOV     R7,#0x0
        SJMP    ??GUI_UC_DispString_5
??GUI_UC_DispString_6:
        MOV     A,R2
        ADD     A,#0x1
        INC     R2
        MOV     A,R3
        ADDC    A,#0x0
        MOV     R3,A
        MOV     A,R0
        ADD     A,#0x2
        INC     R0
        INC     R0
        MOV     A,R1
        ADDC    A,#0x0
        MOV     R1,A
??GUI_UC_DispString_4:
        MOV     DPL,R0
        MOV     DPH,R1
        MOVX    A,@DPTR
        MOV     R4,A
        INC     DPTR
        MOVX    A,@DPTR
        MOV     R5,A
        MOV     A,R4
        ORL     A,R5
        JZ      ??GUI_UC_DispString_7
        MOV     A,#-0x1
        XRL     A,R2
        JNZ     ??GUI_UC_DispString_8
        MOV     A,#0x7f
        XRL     A,R3
??GUI_UC_DispString_8:
        JNZ     ??GUI_UC_DispString_6
??GUI_UC_DispString_7:
        MOV     A,R2
        MOV     R6,A
        MOV     A,R3
        MOV     R7,A
//  126     int xLineSize = _GetLineDistX(s, LineLen);
??GUI_UC_DispString_5:
        MOV     ?V0 + 8,R6
        MOV     ?V0 + 9,R7
        MOV     ?V0 + 6,?V0 + 4
        MOV     ?V0 + 7,?V0 + 5
        MOV     ?V0 + 2,#0x0
        MOV     ?V0 + 3,#0x0
        MOV     A,?V0 + 6
        ORL     A,?V0 + 7
        JZ      ??GUI_UC_DispString_9
        SJMP    ??GUI_UC_DispString_10
??GUI_UC_DispString_11:
        LCALL   ?Subroutine2 & 0xFFFF
??CrossCallReturnLabel_3:
        LCALL   ?Subroutine5 & 0xFFFF
??CrossCallReturnLabel_13:
        ; Setup parameters for call to function GUI_GetCharDistX
        LCALL   ??GUI_GetCharDistX?relay
        MOV     ?V0 + 10,R2
        MOV     ?V0 + 11,R3
        MOV     A,?V0 + 2
        ADD     A,?V0 + 10
        MOV     ?V0 + 2,A
        MOV     A,?V0 + 3
        ADDC    A,?V0 + 11
        MOV     ?V0 + 3,A
??GUI_UC_DispString_10:
        MOV     DPL,?V0 + 6
        MOV     DPH,?V0 + 7
        MOVX    A,@DPTR
        MOV     R2,A
        INC     DPTR
        MOVX    A,@DPTR
        MOV     R3,A
        MOV     A,R2
        ORL     A,R3
        JZ      ??GUI_UC_DispString_9
        CLR     C
        MOV     A,?V0 + 9
        SUBB    A,#0x0
        MOV     C,0xD0 /* PSW */.2
        XRL     A,PSW
        RLC     A
        JNC     ??GUI_UC_DispString_11
//  127   /* Check if x-position needs to be changed due to h-alignment */
//  128     switch (GUI_Context.TextAlign & GUI_TA_HORIZONTAL) { 
??GUI_UC_DispString_9:
        MOV     DPTR,#GUI_Context + 37
        MOVX    A,@DPTR
        ANL     A,#0x3
        DEC     A
        JZ      ??GUI_UC_DispString_12
        DEC     A
        JNZ     ??GUI_UC_DispString_13
//  129     case GUI_TA_CENTER: xAdjust= xLineSize/2; break;
        MOV     R0,?V0 + 2
        MOV     R1,?V0 + 3
        MOV     R2,#0x2
        MOV     R3,#0x0
        LCALL   ?S_DIV_MOD
        SJMP    ??GUI_UC_DispString_14
//  130     case GUI_TA_RIGHT:  xAdjust= xLineSize; break;
??GUI_UC_DispString_12:
        MOV     R0,?V0 + 2
        MOV     R1,?V0 + 3
        SJMP    ??GUI_UC_DispString_14
//  131     default:            xAdjust= 0;
??GUI_UC_DispString_13:
        MOV     R0,#0x0
        MOV     R1,#0x0
//  132     }
//  133     r.x0 = GUI_Context.DispPosX -= xAdjust;
??GUI_UC_DispString_14:
        MOV     DPTR,#GUI_Context + 27
        CLR     C
        MOVX    A,@DPTR
        SUBB    A,R0
        MOVX    @DPTR,A
        INC     DPTR
        MOVX    A,@DPTR
        SUBB    A,R1
        MOVX    @DPTR,A
        MOV     DPTR,#GUI_Context + 27
        MOVX    A,@DPTR
        MOV     ?V0 + 14,A
        INC     DPTR
        MOVX    A,@DPTR
        MOV     ?V0 + 15,A
//  134     r.x1 = r.x0 + xLineSize-1;    
//  135     r.y0 = GUI_Context.DispPosY;
        INC     DPTR
        MOVX    A,@DPTR
        MOV     ?V0 + 10,A
        INC     DPTR
        MOVX    A,@DPTR
        MOV     ?V0 + 11,A
//  136     r.y1 = r.y0 + FontSizeY-1;    
//  137     _DispLine(s, LineLen, &r);
        MOV     A,#0x3
        LCALL   ?XSTACK_DISP0_8
        MOV     A,?V0 + 14
        MOVX    @DPTR,A
        INC     DPTR
        MOV     A,?V0 + 15
        MOVX    @DPTR,A
        MOV     A,#0x5
        LCALL   ?XSTACK_DISP0_8
        MOV     A,?V0 + 10
        MOVX    @DPTR,A
        INC     DPTR
        MOV     A,?V0 + 11
        MOVX    @DPTR,A
        LCALL   ?Subroutine6 & 0xFFFF
??CrossCallReturnLabel_15:
        MOV     A,R0
        ADD     A,#-0x1
        DEC     R0
        MOV     A,R1
        ADDC    A,#-0x1
        MOV     R1,A
        MOV     A,#0x7
        LCALL   ?XSTACK_DISP0_8
        LCALL   ?Subroutine3 & 0xFFFF
??CrossCallReturnLabel_6:
        MOV     A,?V0 + 10
        ADD     A,?V0 + 0
        MOV     R0,A
        MOV     A,?V0 + 11
        ADDC    A,#0x0
        MOV     R1,A
        MOV     A,R0
        ADD     A,#-0x1
        DEC     R0
        MOV     A,R1
        ADDC    A,#-0x1
        MOV     R1,A
        MOV     A,#0x9
        LCALL   ?XSTACK_DISP0_8
        LCALL   ?Subroutine3 & 0xFFFF
??CrossCallReturnLabel_7:
        MOV     A,#0x3
        LCALL   ?XSTACK_DISP0_8
        LCALL   ?Subroutine4 & 0xFFFF
??CrossCallReturnLabel_11:
        LCALL   ?Subroutine3 & 0xFFFF
??CrossCallReturnLabel_8:
        MOV     A,#0x5
        LCALL   ?XSTACK_DISP0_8
        LCALL   ?Subroutine0 & 0xFFFF
??CrossCallReturnLabel_1:
        LCALL   ?Subroutine3 & 0xFFFF
??CrossCallReturnLabel_9:
        MOV     ?V0 + 8,R6
        MOV     ?V0 + 9,R7
        MOV     ?V0 + 6,?V0 + 4
        MOV     ?V0 + 7,?V0 + 5
        MOV     DPTR,#GUI_Context + 15
        LCALL   ??Subroutine8_0 & 0xFFFF
??CrossCallReturnLabel_17:
        JZ      ??GUI_UC_DispString_15
        ; Setup parameters for call to function GUI_RectsIntersect
        MOV     A,#0x3
        LCALL   ?XSTACK_DISP0_8
        MOV     R4,DPL
        MOV     R5,DPH
        MOV     DPTR,#GUI_Context + 15
        MOVX    A,@DPTR
        MOV     R2,A
        INC     DPTR
        MOVX    A,@DPTR
        MOV     R3,A
        LCALL   ??GUI_RectsIntersect?relay
        MOV     ?V0 + 13,R3
        MOV     A,R2
        ORL     A,?V0 + 13
        JNZ     ??GUI_UC_DispString_15
        SJMP    ??GUI_UC_DispString_16
??GUI_UC_DispString_17:
        MOV     DPL,?V0 + 6
        MOV     DPH,?V0 + 7
        MOVX    A,@DPTR
        MOV     R2,A
        INC     DPTR
        MOVX    A,@DPTR
        MOV     R3,A
        LCALL   ?Subroutine2 & 0xFFFF
??CrossCallReturnLabel_4:
        ; Setup parameters for call to function GL_DispChar
        LCALL   ??GL_DispChar?relay
??GUI_UC_DispString_15:
        LCALL   ?Subroutine5 & 0xFFFF
??CrossCallReturnLabel_14:
        CLR     C
        SUBB    A,#0x0
        MOV     C,0xD0 /* PSW */.2
        XRL     A,PSW
        RLC     A
        JNC     ??GUI_UC_DispString_17
//  138     GUI_Context.DispPosY = r.y0;
??GUI_UC_DispString_16:
        MOV     DPTR,#GUI_Context + 29
        MOV     A,?V0 + 10
        MOVX    @DPTR,A
        INC     DPTR
        MOV     A,?V0 + 11
        MOVX    @DPTR,A
//  139     s += LineLen;
        MOV     A,R6
        CLR     C
        RLC     A
        MOV     R6,A
        MOV     A,R7
        RLC     A
        MOV     R7,A
        MOV     A,?V0 + 4
        ADD     A,R6
        MOV     ?V0 + 4,A
        MOV     A,?V0 + 5
        ADDC    A,R7
        MOV     ?V0 + 5,A
//  140     if (*s=='\n') {
        MOV     DPL,?V0 + 4
        MOV     DPH,A
        MOVX    A,@DPTR
        XRL     A,#0xa
        JNZ     ??GUI_UC_DispString_18
        INC     DPTR
        MOVX    A,@DPTR
??GUI_UC_DispString_18:
        JNZ     ??GUI_UC_DispString_19
//  141       switch (GUI_Context.TextAlign & GUI_TA_HORIZONTAL) { 
        MOV     DPTR,#GUI_Context + 37
        MOVX    A,@DPTR
        ANL     A,#0x3
        DEC     A
        JZ      ??GUI_UC_DispString_20
        DEC     A
        JNZ     ??GUI_UC_DispString_21
//  142       case GUI_TA_CENTER:
//  143       case GUI_TA_RIGHT:
//  144         GUI_Context.DispPosX = xOrg;
??GUI_UC_DispString_20:
        MOV     A,#0xb
        LCALL   ?XSTACK_DISP0_8
        LCALL   ?Subroutine4 & 0xFFFF
??CrossCallReturnLabel_12:
        SJMP    ??GUI_UC_DispString_22
//  145         break;
//  146       default:
//  147         GUI_Context.DispPosX = GUI_Context.LBorder;
??GUI_UC_DispString_21:
        MOV     DPTR,#GUI_Context + 25
        LCALL   ?Subroutine7 & 0xFFFF
??CrossCallReturnLabel_21:
        INC     DPTR
??GUI_UC_DispString_22:
        LCALL   ?Subroutine3 & 0xFFFF
//  148         break;
//  149       }
//  150       GUI_Context.DispPosY += GUI_GetFontDistY();
??CrossCallReturnLabel_10:
        ; Setup parameters for call to function GUI_GetFontDistY
        LCALL   ??GUI_GetFontDistY?relay
        MOV     ?V0 + 2,R2
        MOV     ?V0 + 3,R3
        MOV     R0,?V0 + 2
        MOV     R1,?V0 + 3
        MOV     DPTR,#GUI_Context + 29
        MOVX    A,@DPTR
        ADD     A,R0
        MOVX    @DPTR,A
        INC     DPTR
        MOVX    A,@DPTR
        ADDC    A,R1
        SJMP    ??GUI_UC_DispString_23
//  151     } else {
//  152       GUI_Context.DispPosX = r.x0+xLineSize;
??GUI_UC_DispString_19:
        LCALL   ?Subroutine6 & 0xFFFF
//  153     }
??CrossCallReturnLabel_16:
        MOV     DPTR,#GUI_Context + 27
        MOV     A,R0
        MOVX    @DPTR,A
        INC     DPTR
        MOV     A,R1
??GUI_UC_DispString_23:
        MOVX    @DPTR,A
//  154     if (*s==0)    /* end of string (last line) reached ? */
        LCALL   ?Subroutine1 & 0xFFFF
//  155       break;
//  156   }
??CrossCallReturnLabel_19:
        JZ      $+5
        LJMP    ??GUI_UC_DispString_2 & 0xFFFF
//  157   GUI_Context.DispPosY += yAdjust;
??GUI_UC_DispString_3:
        MOV     A,#0x1
        LCALL   ?XSTACK_DISP0_8
        LCALL   ?Subroutine0 & 0xFFFF
??CrossCallReturnLabel_2:
        MOVX    A,@DPTR
        ADD     A,R0
        MOVX    @DPTR,A
        INC     DPTR
        MOVX    A,@DPTR
        ADDC    A,R1
        MOVX    @DPTR,A
//  158   GUI_Context.TextAlign &= ~GUI_TA_HORIZONTAL;
        MOV     DPTR,#GUI_Context + 37
        MOVX    A,@DPTR
        ANL     A,#0xfc
        MOVX    @DPTR,A
//  159   GUI_UNLOCK(state);
        MOV     DPL,?XSP + 0
        MOV     DPH,?XSP + 1
        MOVX    A,@DPTR
        MOV     C,0xE0 /* A   */.0
        MOV     0xa8.7,C
//  160 }
??GUI_UC_DispString_0:
        MOV     A,#0xd
        LCALL   ?DEALLOC_XSTACK8
        CFI CFA_XSP16 add(XSP16, 24)
        MOV     R7,#0x10
        LJMP    ?BANKED_LEAVE_XDATA
        CFI EndBlock cfiBlock0
        REQUIRE _A_IEN0

        RSEG BANKED_CODE:CODE:NOROOT(0)
?Subroutine6:
        CFI Block cfiCond1 Using cfiCommon0
        CFI NoFunction
        CFI Conditional ??CrossCallReturnLabel_15
        CFI R6 load(1, XDATA, add(CFA_XSP16, literal(-24)))
        CFI VB load(1, XDATA, add(CFA_XSP16, literal(-23)))
        CFI V0 load(1, XDATA, add(CFA_XSP16, literal(-22)))
        CFI V1 load(1, XDATA, add(CFA_XSP16, literal(-21)))
        CFI V2 load(1, XDATA, add(CFA_XSP16, literal(-20)))
        CFI V3 load(1, XDATA, add(CFA_XSP16, literal(-19)))
        CFI V4 load(1, XDATA, add(CFA_XSP16, literal(-18)))
        CFI V5 load(1, XDATA, add(CFA_XSP16, literal(-17)))
        CFI V6 load(1, XDATA, add(CFA_XSP16, literal(-16)))
        CFI V7 load(1, XDATA, add(CFA_XSP16, literal(-15)))
        CFI V8 load(1, XDATA, add(CFA_XSP16, literal(-14)))
        CFI V9 load(1, XDATA, add(CFA_XSP16, literal(-13)))
        CFI V10 load(1, XDATA, add(CFA_XSP16, literal(-12)))
        CFI V11 load(1, XDATA, add(CFA_XSP16, literal(-11)))
        CFI V12 load(1, XDATA, add(CFA_XSP16, literal(-10)))
        CFI V13 load(1, XDATA, add(CFA_XSP16, literal(-9)))
        CFI V14 load(1, XDATA, add(CFA_XSP16, literal(-8)))
        CFI V15 load(1, XDATA, add(CFA_XSP16, literal(-7)))
        CFI R7 load(1, XDATA, add(CFA_XSP16, literal(-6)))
        CFI ?RET_LOW load(1, XDATA, add(CFA_XSP16, literal(-5)))
        CFI ?RET_HIGH load(1, XDATA, add(CFA_XSP16, literal(-4)))
        CFI ?BRET_EXT load(1, XDATA, add(CFA_XSP16, literal(-3)))
        CFI DPL0 load(1, XDATA, add(CFA_XSP16, literal(-2)))
        CFI DPH0 load(1, XDATA, add(CFA_XSP16, literal(-1)))
        CFI CFA_SP SP+0
        CFI CFA_XSP16 add(XSP16, 37)
        CFI Block cfiCond2 Using cfiCommon0
        CFI (cfiCond2) NoFunction
        CFI (cfiCond2) Conditional ??CrossCallReturnLabel_16
        CFI (cfiCond2) R6 load(1, XDATA, add(CFA_XSP16, literal(-24)))
        CFI (cfiCond2) VB load(1, XDATA, add(CFA_XSP16, literal(-23)))
        CFI (cfiCond2) V0 load(1, XDATA, add(CFA_XSP16, literal(-22)))
        CFI (cfiCond2) V1 load(1, XDATA, add(CFA_XSP16, literal(-21)))
        CFI (cfiCond2) V2 load(1, XDATA, add(CFA_XSP16, literal(-20)))
        CFI (cfiCond2) V3 load(1, XDATA, add(CFA_XSP16, literal(-19)))
        CFI (cfiCond2) V4 load(1, XDATA, add(CFA_XSP16, literal(-18)))
        CFI (cfiCond2) V5 load(1, XDATA, add(CFA_XSP16, literal(-17)))
        CFI (cfiCond2) V6 load(1, XDATA, add(CFA_XSP16, literal(-16)))
        CFI (cfiCond2) V7 load(1, XDATA, add(CFA_XSP16, literal(-15)))
        CFI (cfiCond2) V8 load(1, XDATA, add(CFA_XSP16, literal(-14)))
        CFI (cfiCond2) V9 load(1, XDATA, add(CFA_XSP16, literal(-13)))
        CFI (cfiCond2) V10 load(1, XDATA, add(CFA_XSP16, literal(-12)))
        CFI (cfiCond2) V11 load(1, XDATA, add(CFA_XSP16, literal(-11)))
        CFI (cfiCond2) V12 load(1, XDATA, add(CFA_XSP16, literal(-10)))
        CFI (cfiCond2) V13 load(1, XDATA, add(CFA_XSP16, literal(-9)))
        CFI (cfiCond2) V14 load(1, XDATA, add(CFA_XSP16, literal(-8)))
        CFI (cfiCond2) V15 load(1, XDATA, add(CFA_XSP16, literal(-7)))
        CFI (cfiCond2) R7 load(1, XDATA, add(CFA_XSP16, literal(-6)))
        CFI (cfiCond2) ?RET_LOW load(1, XDATA, add(CFA_XSP16, literal(-5)))
        CFI (cfiCond2) ?RET_HIGH load(1, XDATA, add(CFA_XSP16, literal(-4)))
        CFI (cfiCond2) ?BRET_EXT load(1, XDATA, add(CFA_XSP16, literal(-3)))
        CFI (cfiCond2) DPL0 load(1, XDATA, add(CFA_XSP16, literal(-2)))
        CFI (cfiCond2) DPH0 load(1, XDATA, add(CFA_XSP16, literal(-1)))
        CFI (cfiCond2) CFA_SP SP+0
        CFI (cfiCond2) CFA_XSP16 add(XSP16, 37)
        CFI Block cfiPicker3 Using cfiCommon1
        CFI (cfiPicker3) NoFunction
        CFI (cfiPicker3) Picker
        MOV     A,?V0 + 14
        ADD     A,?V0 + 2
        MOV     R0,A
        MOV     A,?V0 + 15
        ADDC    A,?V0 + 3
        MOV     R1,A
        RET
        CFI EndBlock cfiCond1
        CFI EndBlock cfiCond2
        CFI EndBlock cfiPicker3

        RSEG BANKED_CODE:CODE:NOROOT(0)
?Subroutine5:
        CFI Block cfiCond4 Using cfiCommon0
        CFI NoFunction
        CFI Conditional ??CrossCallReturnLabel_13
        CFI R6 load(1, XDATA, add(CFA_XSP16, literal(-24)))
        CFI VB load(1, XDATA, add(CFA_XSP16, literal(-23)))
        CFI V0 load(1, XDATA, add(CFA_XSP16, literal(-22)))
        CFI V1 load(1, XDATA, add(CFA_XSP16, literal(-21)))
        CFI V2 load(1, XDATA, add(CFA_XSP16, literal(-20)))
        CFI V3 load(1, XDATA, add(CFA_XSP16, literal(-19)))
        CFI V4 load(1, XDATA, add(CFA_XSP16, literal(-18)))
        CFI V5 load(1, XDATA, add(CFA_XSP16, literal(-17)))
        CFI V6 load(1, XDATA, add(CFA_XSP16, literal(-16)))
        CFI V7 load(1, XDATA, add(CFA_XSP16, literal(-15)))
        CFI V8 load(1, XDATA, add(CFA_XSP16, literal(-14)))
        CFI V9 load(1, XDATA, add(CFA_XSP16, literal(-13)))
        CFI V10 load(1, XDATA, add(CFA_XSP16, literal(-12)))
        CFI V11 load(1, XDATA, add(CFA_XSP16, literal(-11)))
        CFI V12 load(1, XDATA, add(CFA_XSP16, literal(-10)))
        CFI V13 load(1, XDATA, add(CFA_XSP16, literal(-9)))
        CFI V14 load(1, XDATA, add(CFA_XSP16, literal(-8)))
        CFI V15 load(1, XDATA, add(CFA_XSP16, literal(-7)))
        CFI R7 load(1, XDATA, add(CFA_XSP16, literal(-6)))
        CFI ?RET_LOW load(1, XDATA, add(CFA_XSP16, literal(-5)))
        CFI ?RET_HIGH load(1, XDATA, add(CFA_XSP16, literal(-4)))
        CFI ?BRET_EXT load(1, XDATA, add(CFA_XSP16, literal(-3)))
        CFI DPL0 load(1, XDATA, add(CFA_XSP16, literal(-2)))
        CFI DPH0 load(1, XDATA, add(CFA_XSP16, literal(-1)))
        CFI CFA_SP SP+0
        CFI CFA_XSP16 add(XSP16, 37)
        CFI Block cfiCond5 Using cfiCommon0
        CFI (cfiCond5) NoFunction
        CFI (cfiCond5) Conditional ??CrossCallReturnLabel_14
        CFI (cfiCond5) R6 load(1, XDATA, add(CFA_XSP16, literal(-24)))
        CFI (cfiCond5) VB load(1, XDATA, add(CFA_XSP16, literal(-23)))
        CFI (cfiCond5) V0 load(1, XDATA, add(CFA_XSP16, literal(-22)))
        CFI (cfiCond5) V1 load(1, XDATA, add(CFA_XSP16, literal(-21)))
        CFI (cfiCond5) V2 load(1, XDATA, add(CFA_XSP16, literal(-20)))
        CFI (cfiCond5) V3 load(1, XDATA, add(CFA_XSP16, literal(-19)))
        CFI (cfiCond5) V4 load(1, XDATA, add(CFA_XSP16, literal(-18)))
        CFI (cfiCond5) V5 load(1, XDATA, add(CFA_XSP16, literal(-17)))
        CFI (cfiCond5) V6 load(1, XDATA, add(CFA_XSP16, literal(-16)))
        CFI (cfiCond5) V7 load(1, XDATA, add(CFA_XSP16, literal(-15)))
        CFI (cfiCond5) V8 load(1, XDATA, add(CFA_XSP16, literal(-14)))
        CFI (cfiCond5) V9 load(1, XDATA, add(CFA_XSP16, literal(-13)))
        CFI (cfiCond5) V10 load(1, XDATA, add(CFA_XSP16, literal(-12)))
        CFI (cfiCond5) V11 load(1, XDATA, add(CFA_XSP16, literal(-11)))
        CFI (cfiCond5) V12 load(1, XDATA, add(CFA_XSP16, literal(-10)))
        CFI (cfiCond5) V13 load(1, XDATA, add(CFA_XSP16, literal(-9)))
        CFI (cfiCond5) V14 load(1, XDATA, add(CFA_XSP16, literal(-8)))
        CFI (cfiCond5) V15 load(1, XDATA, add(CFA_XSP16, literal(-7)))
        CFI (cfiCond5) R7 load(1, XDATA, add(CFA_XSP16, literal(-6)))
        CFI (cfiCond5) ?RET_LOW load(1, XDATA, add(CFA_XSP16, literal(-5)))
        CFI (cfiCond5) ?RET_HIGH load(1, XDATA, add(CFA_XSP16, literal(-4)))
        CFI (cfiCond5) ?BRET_EXT load(1, XDATA, add(CFA_XSP16, literal(-3)))
        CFI (cfiCond5) DPL0 load(1, XDATA, add(CFA_XSP16, literal(-2)))
        CFI (cfiCond5) DPH0 load(1, XDATA, add(CFA_XSP16, literal(-1)))
        CFI (cfiCond5) CFA_SP SP+0
        CFI (cfiCond5) CFA_XSP16 add(XSP16, 37)
        CFI Block cfiPicker6 Using cfiCommon1
        CFI (cfiPicker6) NoFunction
        CFI (cfiPicker6) Picker
        MOV     A,?V0 + 8
        ADD     A,#-0x1
        MOV     ?V0 + 8,A
        MOV     A,?V0 + 9
        ADDC    A,#-0x1
        MOV     ?V0 + 9,A
        RET
        CFI EndBlock cfiCond4
        CFI EndBlock cfiCond5
        CFI EndBlock cfiPicker6

        RSEG BANKED_CODE:CODE:NOROOT(0)
?Subroutine4:
        CFI Block cfiCond7 Using cfiCommon0
        CFI NoFunction
        CFI Conditional ??CrossCallReturnLabel_11
        CFI R6 load(1, XDATA, add(CFA_XSP16, literal(-24)))
        CFI VB load(1, XDATA, add(CFA_XSP16, literal(-23)))
        CFI V0 load(1, XDATA, add(CFA_XSP16, literal(-22)))
        CFI V1 load(1, XDATA, add(CFA_XSP16, literal(-21)))
        CFI V2 load(1, XDATA, add(CFA_XSP16, literal(-20)))
        CFI V3 load(1, XDATA, add(CFA_XSP16, literal(-19)))
        CFI V4 load(1, XDATA, add(CFA_XSP16, literal(-18)))
        CFI V5 load(1, XDATA, add(CFA_XSP16, literal(-17)))
        CFI V6 load(1, XDATA, add(CFA_XSP16, literal(-16)))
        CFI V7 load(1, XDATA, add(CFA_XSP16, literal(-15)))
        CFI V8 load(1, XDATA, add(CFA_XSP16, literal(-14)))
        CFI V9 load(1, XDATA, add(CFA_XSP16, literal(-13)))
        CFI V10 load(1, XDATA, add(CFA_XSP16, literal(-12)))
        CFI V11 load(1, XDATA, add(CFA_XSP16, literal(-11)))
        CFI V12 load(1, XDATA, add(CFA_XSP16, literal(-10)))
        CFI V13 load(1, XDATA, add(CFA_XSP16, literal(-9)))
        CFI V14 load(1, XDATA, add(CFA_XSP16, literal(-8)))
        CFI V15 load(1, XDATA, add(CFA_XSP16, literal(-7)))
        CFI R7 load(1, XDATA, add(CFA_XSP16, literal(-6)))
        CFI ?RET_LOW load(1, XDATA, add(CFA_XSP16, literal(-5)))
        CFI ?RET_HIGH load(1, XDATA, add(CFA_XSP16, literal(-4)))
        CFI ?BRET_EXT load(1, XDATA, add(CFA_XSP16, literal(-3)))
        CFI DPL0 load(1, XDATA, add(CFA_XSP16, literal(-2)))
        CFI DPH0 load(1, XDATA, add(CFA_XSP16, literal(-1)))
        CFI CFA_SP SP+0
        CFI CFA_XSP16 add(XSP16, 37)
        CFI Block cfiCond8 Using cfiCommon0
        CFI (cfiCond8) NoFunction
        CFI (cfiCond8) Conditional ??CrossCallReturnLabel_12
        CFI (cfiCond8) R6 load(1, XDATA, add(CFA_XSP16, literal(-24)))
        CFI (cfiCond8) VB load(1, XDATA, add(CFA_XSP16, literal(-23)))
        CFI (cfiCond8) V0 load(1, XDATA, add(CFA_XSP16, literal(-22)))
        CFI (cfiCond8) V1 load(1, XDATA, add(CFA_XSP16, literal(-21)))
        CFI (cfiCond8) V2 load(1, XDATA, add(CFA_XSP16, literal(-20)))
        CFI (cfiCond8) V3 load(1, XDATA, add(CFA_XSP16, literal(-19)))
        CFI (cfiCond8) V4 load(1, XDATA, add(CFA_XSP16, literal(-18)))
        CFI (cfiCond8) V5 load(1, XDATA, add(CFA_XSP16, literal(-17)))
        CFI (cfiCond8) V6 load(1, XDATA, add(CFA_XSP16, literal(-16)))
        CFI (cfiCond8) V7 load(1, XDATA, add(CFA_XSP16, literal(-15)))
        CFI (cfiCond8) V8 load(1, XDATA, add(CFA_XSP16, literal(-14)))
        CFI (cfiCond8) V9 load(1, XDATA, add(CFA_XSP16, literal(-13)))
        CFI (cfiCond8) V10 load(1, XDATA, add(CFA_XSP16, literal(-12)))
        CFI (cfiCond8) V11 load(1, XDATA, add(CFA_XSP16, literal(-11)))
        CFI (cfiCond8) V12 load(1, XDATA, add(CFA_XSP16, literal(-10)))
        CFI (cfiCond8) V13 load(1, XDATA, add(CFA_XSP16, literal(-9)))
        CFI (cfiCond8) V14 load(1, XDATA, add(CFA_XSP16, literal(-8)))
        CFI (cfiCond8) V15 load(1, XDATA, add(CFA_XSP16, literal(-7)))
        CFI (cfiCond8) R7 load(1, XDATA, add(CFA_XSP16, literal(-6)))
        CFI (cfiCond8) ?RET_LOW load(1, XDATA, add(CFA_XSP16, literal(-5)))
        CFI (cfiCond8) ?RET_HIGH load(1, XDATA, add(CFA_XSP16, literal(-4)))
        CFI (cfiCond8) ?BRET_EXT load(1, XDATA, add(CFA_XSP16, literal(-3)))
        CFI (cfiCond8) DPL0 load(1, XDATA, add(CFA_XSP16, literal(-2)))
        CFI (cfiCond8) DPH0 load(1, XDATA, add(CFA_XSP16, literal(-1)))
        CFI (cfiCond8) CFA_SP SP+0
        CFI (cfiCond8) CFA_XSP16 add(XSP16, 37)
        CFI Block cfiPicker9 Using cfiCommon1
        CFI (cfiPicker9) NoFunction
        CFI (cfiPicker9) Picker
        LCALL   ?Subroutine7 & 0xFFFF
??CrossCallReturnLabel_23:
        MOV     DPTR,#GUI_Context + 27
        RET
        CFI EndBlock cfiCond7
        CFI EndBlock cfiCond8
        CFI EndBlock cfiPicker9

        RSEG BANKED_CODE:CODE:NOROOT(0)
?Subroutine3:
        CFI Block cfiCond10 Using cfiCommon0
        CFI NoFunction
        CFI Conditional ??CrossCallReturnLabel_5
        CFI R6 load(1, XDATA, add(CFA_XSP16, literal(-24)))
        CFI VB load(1, XDATA, add(CFA_XSP16, literal(-23)))
        CFI V0 load(1, XDATA, add(CFA_XSP16, literal(-22)))
        CFI V1 load(1, XDATA, add(CFA_XSP16, literal(-21)))
        CFI V2 load(1, XDATA, add(CFA_XSP16, literal(-20)))
        CFI V3 load(1, XDATA, add(CFA_XSP16, literal(-19)))
        CFI V4 load(1, XDATA, add(CFA_XSP16, literal(-18)))
        CFI V5 load(1, XDATA, add(CFA_XSP16, literal(-17)))
        CFI V6 load(1, XDATA, add(CFA_XSP16, literal(-16)))
        CFI V7 load(1, XDATA, add(CFA_XSP16, literal(-15)))
        CFI V8 load(1, XDATA, add(CFA_XSP16, literal(-14)))
        CFI V9 load(1, XDATA, add(CFA_XSP16, literal(-13)))
        CFI V10 load(1, XDATA, add(CFA_XSP16, literal(-12)))
        CFI V11 load(1, XDATA, add(CFA_XSP16, literal(-11)))
        CFI V12 load(1, XDATA, add(CFA_XSP16, literal(-10)))
        CFI V13 load(1, XDATA, add(CFA_XSP16, literal(-9)))
        CFI V14 load(1, XDATA, add(CFA_XSP16, literal(-8)))
        CFI V15 load(1, XDATA, add(CFA_XSP16, literal(-7)))
        CFI R7 load(1, XDATA, add(CFA_XSP16, literal(-6)))
        CFI ?RET_LOW load(1, XDATA, add(CFA_XSP16, literal(-5)))
        CFI ?RET_HIGH load(1, XDATA, add(CFA_XSP16, literal(-4)))
        CFI ?BRET_EXT load(1, XDATA, add(CFA_XSP16, literal(-3)))
        CFI DPL0 load(1, XDATA, add(CFA_XSP16, literal(-2)))
        CFI DPH0 load(1, XDATA, add(CFA_XSP16, literal(-1)))
        CFI CFA_SP SP+0
        CFI CFA_XSP16 add(XSP16, 37)
        CFI Block cfiCond11 Using cfiCommon0
        CFI (cfiCond11) NoFunction
        CFI (cfiCond11) Conditional ??CrossCallReturnLabel_6
        CFI (cfiCond11) R6 load(1, XDATA, add(CFA_XSP16, literal(-24)))
        CFI (cfiCond11) VB load(1, XDATA, add(CFA_XSP16, literal(-23)))
        CFI (cfiCond11) V0 load(1, XDATA, add(CFA_XSP16, literal(-22)))
        CFI (cfiCond11) V1 load(1, XDATA, add(CFA_XSP16, literal(-21)))
        CFI (cfiCond11) V2 load(1, XDATA, add(CFA_XSP16, literal(-20)))
        CFI (cfiCond11) V3 load(1, XDATA, add(CFA_XSP16, literal(-19)))
        CFI (cfiCond11) V4 load(1, XDATA, add(CFA_XSP16, literal(-18)))
        CFI (cfiCond11) V5 load(1, XDATA, add(CFA_XSP16, literal(-17)))
        CFI (cfiCond11) V6 load(1, XDATA, add(CFA_XSP16, literal(-16)))
        CFI (cfiCond11) V7 load(1, XDATA, add(CFA_XSP16, literal(-15)))
        CFI (cfiCond11) V8 load(1, XDATA, add(CFA_XSP16, literal(-14)))
        CFI (cfiCond11) V9 load(1, XDATA, add(CFA_XSP16, literal(-13)))
        CFI (cfiCond11) V10 load(1, XDATA, add(CFA_XSP16, literal(-12)))
        CFI (cfiCond11) V11 load(1, XDATA, add(CFA_XSP16, literal(-11)))
        CFI (cfiCond11) V12 load(1, XDATA, add(CFA_XSP16, literal(-10)))
        CFI (cfiCond11) V13 load(1, XDATA, add(CFA_XSP16, literal(-9)))
        CFI (cfiCond11) V14 load(1, XDATA, add(CFA_XSP16, literal(-8)))
        CFI (cfiCond11) V15 load(1, XDATA, add(CFA_XSP16, literal(-7)))
        CFI (cfiCond11) R7 load(1, XDATA, add(CFA_XSP16, literal(-6)))
        CFI (cfiCond11) ?RET_LOW load(1, XDATA, add(CFA_XSP16, literal(-5)))
        CFI (cfiCond11) ?RET_HIGH load(1, XDATA, add(CFA_XSP16, literal(-4)))
        CFI (cfiCond11) ?BRET_EXT load(1, XDATA, add(CFA_XSP16, literal(-3)))
        CFI (cfiCond11) DPL0 load(1, XDATA, add(CFA_XSP16, literal(-2)))
        CFI (cfiCond11) DPH0 load(1, XDATA, add(CFA_XSP16, literal(-1)))
        CFI (cfiCond11) CFA_SP SP+0
        CFI (cfiCond11) CFA_XSP16 add(XSP16, 37)
        CFI Block cfiCond12 Using cfiCommon0
        CFI (cfiCond12) NoFunction
        CFI (cfiCond12) Conditional ??CrossCallReturnLabel_7
        CFI (cfiCond12) R6 load(1, XDATA, add(CFA_XSP16, literal(-24)))
        CFI (cfiCond12) VB load(1, XDATA, add(CFA_XSP16, literal(-23)))
        CFI (cfiCond12) V0 load(1, XDATA, add(CFA_XSP16, literal(-22)))
        CFI (cfiCond12) V1 load(1, XDATA, add(CFA_XSP16, literal(-21)))
        CFI (cfiCond12) V2 load(1, XDATA, add(CFA_XSP16, literal(-20)))
        CFI (cfiCond12) V3 load(1, XDATA, add(CFA_XSP16, literal(-19)))
        CFI (cfiCond12) V4 load(1, XDATA, add(CFA_XSP16, literal(-18)))
        CFI (cfiCond12) V5 load(1, XDATA, add(CFA_XSP16, literal(-17)))
        CFI (cfiCond12) V6 load(1, XDATA, add(CFA_XSP16, literal(-16)))
        CFI (cfiCond12) V7 load(1, XDATA, add(CFA_XSP16, literal(-15)))
        CFI (cfiCond12) V8 load(1, XDATA, add(CFA_XSP16, literal(-14)))
        CFI (cfiCond12) V9 load(1, XDATA, add(CFA_XSP16, literal(-13)))
        CFI (cfiCond12) V10 load(1, XDATA, add(CFA_XSP16, literal(-12)))
        CFI (cfiCond12) V11 load(1, XDATA, add(CFA_XSP16, literal(-11)))
        CFI (cfiCond12) V12 load(1, XDATA, add(CFA_XSP16, literal(-10)))
        CFI (cfiCond12) V13 load(1, XDATA, add(CFA_XSP16, literal(-9)))
        CFI (cfiCond12) V14 load(1, XDATA, add(CFA_XSP16, literal(-8)))
        CFI (cfiCond12) V15 load(1, XDATA, add(CFA_XSP16, literal(-7)))
        CFI (cfiCond12) R7 load(1, XDATA, add(CFA_XSP16, literal(-6)))
        CFI (cfiCond12) ?RET_LOW load(1, XDATA, add(CFA_XSP16, literal(-5)))
        CFI (cfiCond12) ?RET_HIGH load(1, XDATA, add(CFA_XSP16, literal(-4)))
        CFI (cfiCond12) ?BRET_EXT load(1, XDATA, add(CFA_XSP16, literal(-3)))
        CFI (cfiCond12) DPL0 load(1, XDATA, add(CFA_XSP16, literal(-2)))
        CFI (cfiCond12) DPH0 load(1, XDATA, add(CFA_XSP16, literal(-1)))
        CFI (cfiCond12) CFA_SP SP+0
        CFI (cfiCond12) CFA_XSP16 add(XSP16, 37)
        CFI Block cfiCond13 Using cfiCommon0
        CFI (cfiCond13) NoFunction
        CFI (cfiCond13) Conditional ??CrossCallReturnLabel_8
        CFI (cfiCond13) R6 load(1, XDATA, add(CFA_XSP16, literal(-24)))
        CFI (cfiCond13) VB load(1, XDATA, add(CFA_XSP16, literal(-23)))
        CFI (cfiCond13) V0 load(1, XDATA, add(CFA_XSP16, literal(-22)))
        CFI (cfiCond13) V1 load(1, XDATA, add(CFA_XSP16, literal(-21)))
        CFI (cfiCond13) V2 load(1, XDATA, add(CFA_XSP16, literal(-20)))
        CFI (cfiCond13) V3 load(1, XDATA, add(CFA_XSP16, literal(-19)))
        CFI (cfiCond13) V4 load(1, XDATA, add(CFA_XSP16, literal(-18)))
        CFI (cfiCond13) V5 load(1, XDATA, add(CFA_XSP16, literal(-17)))
        CFI (cfiCond13) V6 load(1, XDATA, add(CFA_XSP16, literal(-16)))
        CFI (cfiCond13) V7 load(1, XDATA, add(CFA_XSP16, literal(-15)))
        CFI (cfiCond13) V8 load(1, XDATA, add(CFA_XSP16, literal(-14)))
        CFI (cfiCond13) V9 load(1, XDATA, add(CFA_XSP16, literal(-13)))
        CFI (cfiCond13) V10 load(1, XDATA, add(CFA_XSP16, literal(-12)))
        CFI (cfiCond13) V11 load(1, XDATA, add(CFA_XSP16, literal(-11)))
        CFI (cfiCond13) V12 load(1, XDATA, add(CFA_XSP16, literal(-10)))
        CFI (cfiCond13) V13 load(1, XDATA, add(CFA_XSP16, literal(-9)))
        CFI (cfiCond13) V14 load(1, XDATA, add(CFA_XSP16, literal(-8)))
        CFI (cfiCond13) V15 load(1, XDATA, add(CFA_XSP16, literal(-7)))
        CFI (cfiCond13) R7 load(1, XDATA, add(CFA_XSP16, literal(-6)))
        CFI (cfiCond13) ?RET_LOW load(1, XDATA, add(CFA_XSP16, literal(-5)))
        CFI (cfiCond13) ?RET_HIGH load(1, XDATA, add(CFA_XSP16, literal(-4)))
        CFI (cfiCond13) ?BRET_EXT load(1, XDATA, add(CFA_XSP16, literal(-3)))
        CFI (cfiCond13) DPL0 load(1, XDATA, add(CFA_XSP16, literal(-2)))
        CFI (cfiCond13) DPH0 load(1, XDATA, add(CFA_XSP16, literal(-1)))
        CFI (cfiCond13) CFA_SP SP+0
        CFI (cfiCond13) CFA_XSP16 add(XSP16, 37)
        CFI Block cfiCond14 Using cfiCommon0
        CFI (cfiCond14) NoFunction
        CFI (cfiCond14) Conditional ??CrossCallReturnLabel_9
        CFI (cfiCond14) R6 load(1, XDATA, add(CFA_XSP16, literal(-24)))
        CFI (cfiCond14) VB load(1, XDATA, add(CFA_XSP16, literal(-23)))
        CFI (cfiCond14) V0 load(1, XDATA, add(CFA_XSP16, literal(-22)))
        CFI (cfiCond14) V1 load(1, XDATA, add(CFA_XSP16, literal(-21)))
        CFI (cfiCond14) V2 load(1, XDATA, add(CFA_XSP16, literal(-20)))
        CFI (cfiCond14) V3 load(1, XDATA, add(CFA_XSP16, literal(-19)))
        CFI (cfiCond14) V4 load(1, XDATA, add(CFA_XSP16, literal(-18)))
        CFI (cfiCond14) V5 load(1, XDATA, add(CFA_XSP16, literal(-17)))
        CFI (cfiCond14) V6 load(1, XDATA, add(CFA_XSP16, literal(-16)))
        CFI (cfiCond14) V7 load(1, XDATA, add(CFA_XSP16, literal(-15)))
        CFI (cfiCond14) V8 load(1, XDATA, add(CFA_XSP16, literal(-14)))
        CFI (cfiCond14) V9 load(1, XDATA, add(CFA_XSP16, literal(-13)))
        CFI (cfiCond14) V10 load(1, XDATA, add(CFA_XSP16, literal(-12)))
        CFI (cfiCond14) V11 load(1, XDATA, add(CFA_XSP16, literal(-11)))
        CFI (cfiCond14) V12 load(1, XDATA, add(CFA_XSP16, literal(-10)))
        CFI (cfiCond14) V13 load(1, XDATA, add(CFA_XSP16, literal(-9)))
        CFI (cfiCond14) V14 load(1, XDATA, add(CFA_XSP16, literal(-8)))
        CFI (cfiCond14) V15 load(1, XDATA, add(CFA_XSP16, literal(-7)))
        CFI (cfiCond14) R7 load(1, XDATA, add(CFA_XSP16, literal(-6)))
        CFI (cfiCond14) ?RET_LOW load(1, XDATA, add(CFA_XSP16, literal(-5)))
        CFI (cfiCond14) ?RET_HIGH load(1, XDATA, add(CFA_XSP16, literal(-4)))
        CFI (cfiCond14) ?BRET_EXT load(1, XDATA, add(CFA_XSP16, literal(-3)))
        CFI (cfiCond14) DPL0 load(1, XDATA, add(CFA_XSP16, literal(-2)))
        CFI (cfiCond14) DPH0 load(1, XDATA, add(CFA_XSP16, literal(-1)))
        CFI (cfiCond14) CFA_SP SP+0
        CFI (cfiCond14) CFA_XSP16 add(XSP16, 37)
        CFI Block cfiCond15 Using cfiCommon0
        CFI (cfiCond15) NoFunction
        CFI (cfiCond15) Conditional ??CrossCallReturnLabel_10
        CFI (cfiCond15) R6 load(1, XDATA, add(CFA_XSP16, literal(-24)))
        CFI (cfiCond15) VB load(1, XDATA, add(CFA_XSP16, literal(-23)))
        CFI (cfiCond15) V0 load(1, XDATA, add(CFA_XSP16, literal(-22)))
        CFI (cfiCond15) V1 load(1, XDATA, add(CFA_XSP16, literal(-21)))
        CFI (cfiCond15) V2 load(1, XDATA, add(CFA_XSP16, literal(-20)))
        CFI (cfiCond15) V3 load(1, XDATA, add(CFA_XSP16, literal(-19)))
        CFI (cfiCond15) V4 load(1, XDATA, add(CFA_XSP16, literal(-18)))
        CFI (cfiCond15) V5 load(1, XDATA, add(CFA_XSP16, literal(-17)))
        CFI (cfiCond15) V6 load(1, XDATA, add(CFA_XSP16, literal(-16)))
        CFI (cfiCond15) V7 load(1, XDATA, add(CFA_XSP16, literal(-15)))
        CFI (cfiCond15) V8 load(1, XDATA, add(CFA_XSP16, literal(-14)))
        CFI (cfiCond15) V9 load(1, XDATA, add(CFA_XSP16, literal(-13)))
        CFI (cfiCond15) V10 load(1, XDATA, add(CFA_XSP16, literal(-12)))
        CFI (cfiCond15) V11 load(1, XDATA, add(CFA_XSP16, literal(-11)))
        CFI (cfiCond15) V12 load(1, XDATA, add(CFA_XSP16, literal(-10)))
        CFI (cfiCond15) V13 load(1, XDATA, add(CFA_XSP16, literal(-9)))
        CFI (cfiCond15) V14 load(1, XDATA, add(CFA_XSP16, literal(-8)))
        CFI (cfiCond15) V15 load(1, XDATA, add(CFA_XSP16, literal(-7)))
        CFI (cfiCond15) R7 load(1, XDATA, add(CFA_XSP16, literal(-6)))
        CFI (cfiCond15) ?RET_LOW load(1, XDATA, add(CFA_XSP16, literal(-5)))
        CFI (cfiCond15) ?RET_HIGH load(1, XDATA, add(CFA_XSP16, literal(-4)))
        CFI (cfiCond15) ?BRET_EXT load(1, XDATA, add(CFA_XSP16, literal(-3)))
        CFI (cfiCond15) DPL0 load(1, XDATA, add(CFA_XSP16, literal(-2)))
        CFI (cfiCond15) DPH0 load(1, XDATA, add(CFA_XSP16, literal(-1)))
        CFI (cfiCond15) CFA_SP SP+0
        CFI (cfiCond15) CFA_XSP16 add(XSP16, 37)
        CFI Block cfiPicker16 Using cfiCommon1
        CFI (cfiPicker16) NoFunction
        CFI (cfiPicker16) Picker
        MOV     A,R0
        MOVX    @DPTR,A
        INC     DPTR
        MOV     A,R1
        MOVX    @DPTR,A
        RET
        CFI EndBlock cfiCond10
        CFI EndBlock cfiCond11
        CFI EndBlock cfiCond12
        CFI EndBlock cfiCond13
        CFI EndBlock cfiCond14
        CFI EndBlock cfiCond15
        CFI EndBlock cfiPicker16

        RSEG BANKED_CODE:CODE:NOROOT(0)
?Subroutine2:
        CFI Block cfiCond17 Using cfiCommon0
        CFI NoFunction
        CFI Conditional ??CrossCallReturnLabel_3
        CFI R6 load(1, XDATA, add(CFA_XSP16, literal(-24)))
        CFI VB load(1, XDATA, add(CFA_XSP16, literal(-23)))
        CFI V0 load(1, XDATA, add(CFA_XSP16, literal(-22)))
        CFI V1 load(1, XDATA, add(CFA_XSP16, literal(-21)))
        CFI V2 load(1, XDATA, add(CFA_XSP16, literal(-20)))
        CFI V3 load(1, XDATA, add(CFA_XSP16, literal(-19)))
        CFI V4 load(1, XDATA, add(CFA_XSP16, literal(-18)))
        CFI V5 load(1, XDATA, add(CFA_XSP16, literal(-17)))
        CFI V6 load(1, XDATA, add(CFA_XSP16, literal(-16)))
        CFI V7 load(1, XDATA, add(CFA_XSP16, literal(-15)))
        CFI V8 load(1, XDATA, add(CFA_XSP16, literal(-14)))
        CFI V9 load(1, XDATA, add(CFA_XSP16, literal(-13)))
        CFI V10 load(1, XDATA, add(CFA_XSP16, literal(-12)))
        CFI V11 load(1, XDATA, add(CFA_XSP16, literal(-11)))
        CFI V12 load(1, XDATA, add(CFA_XSP16, literal(-10)))
        CFI V13 load(1, XDATA, add(CFA_XSP16, literal(-9)))
        CFI V14 load(1, XDATA, add(CFA_XSP16, literal(-8)))
        CFI V15 load(1, XDATA, add(CFA_XSP16, literal(-7)))
        CFI R7 load(1, XDATA, add(CFA_XSP16, literal(-6)))
        CFI ?RET_LOW load(1, XDATA, add(CFA_XSP16, literal(-5)))
        CFI ?RET_HIGH load(1, XDATA, add(CFA_XSP16, literal(-4)))
        CFI ?BRET_EXT load(1, XDATA, add(CFA_XSP16, literal(-3)))
        CFI DPL0 load(1, XDATA, add(CFA_XSP16, literal(-2)))
        CFI DPH0 load(1, XDATA, add(CFA_XSP16, literal(-1)))
        CFI CFA_SP SP+0
        CFI CFA_XSP16 add(XSP16, 37)
        CFI Block cfiCond18 Using cfiCommon0
        CFI (cfiCond18) NoFunction
        CFI (cfiCond18) Conditional ??CrossCallReturnLabel_4
        CFI (cfiCond18) R6 load(1, XDATA, add(CFA_XSP16, literal(-24)))
        CFI (cfiCond18) VB load(1, XDATA, add(CFA_XSP16, literal(-23)))
        CFI (cfiCond18) V0 load(1, XDATA, add(CFA_XSP16, literal(-22)))
        CFI (cfiCond18) V1 load(1, XDATA, add(CFA_XSP16, literal(-21)))
        CFI (cfiCond18) V2 load(1, XDATA, add(CFA_XSP16, literal(-20)))
        CFI (cfiCond18) V3 load(1, XDATA, add(CFA_XSP16, literal(-19)))
        CFI (cfiCond18) V4 load(1, XDATA, add(CFA_XSP16, literal(-18)))
        CFI (cfiCond18) V5 load(1, XDATA, add(CFA_XSP16, literal(-17)))
        CFI (cfiCond18) V6 load(1, XDATA, add(CFA_XSP16, literal(-16)))
        CFI (cfiCond18) V7 load(1, XDATA, add(CFA_XSP16, literal(-15)))
        CFI (cfiCond18) V8 load(1, XDATA, add(CFA_XSP16, literal(-14)))
        CFI (cfiCond18) V9 load(1, XDATA, add(CFA_XSP16, literal(-13)))
        CFI (cfiCond18) V10 load(1, XDATA, add(CFA_XSP16, literal(-12)))
        CFI (cfiCond18) V11 load(1, XDATA, add(CFA_XSP16, literal(-11)))
        CFI (cfiCond18) V12 load(1, XDATA, add(CFA_XSP16, literal(-10)))
        CFI (cfiCond18) V13 load(1, XDATA, add(CFA_XSP16, literal(-9)))
        CFI (cfiCond18) V14 load(1, XDATA, add(CFA_XSP16, literal(-8)))
        CFI (cfiCond18) V15 load(1, XDATA, add(CFA_XSP16, literal(-7)))
        CFI (cfiCond18) R7 load(1, XDATA, add(CFA_XSP16, literal(-6)))
        CFI (cfiCond18) ?RET_LOW load(1, XDATA, add(CFA_XSP16, literal(-5)))
        CFI (cfiCond18) ?RET_HIGH load(1, XDATA, add(CFA_XSP16, literal(-4)))
        CFI (cfiCond18) ?BRET_EXT load(1, XDATA, add(CFA_XSP16, literal(-3)))
        CFI (cfiCond18) DPL0 load(1, XDATA, add(CFA_XSP16, literal(-2)))
        CFI (cfiCond18) DPH0 load(1, XDATA, add(CFA_XSP16, literal(-1)))
        CFI (cfiCond18) CFA_SP SP+0
        CFI (cfiCond18) CFA_XSP16 add(XSP16, 37)
        CFI Block cfiPicker19 Using cfiCommon1
        CFI (cfiPicker19) NoFunction
        CFI (cfiPicker19) Picker
        MOV     A,?V0 + 6
        ADD     A,#0x2
        MOV     ?V0 + 6,A
        MOV     A,?V0 + 7
        ADDC    A,#0x0
        MOV     ?V0 + 7,A
        RET
        CFI EndBlock cfiCond17
        CFI EndBlock cfiCond18
        CFI EndBlock cfiPicker19

        RSEG BANKED_CODE:CODE:NOROOT(0)
?Subroutine1:
        CFI Block cfiCond20 Using cfiCommon0
        CFI NoFunction
        CFI Conditional ??CrossCallReturnLabel_18
        CFI R6 load(1, XDATA, add(CFA_XSP16, literal(-24)))
        CFI VB load(1, XDATA, add(CFA_XSP16, literal(-23)))
        CFI V0 load(1, XDATA, add(CFA_XSP16, literal(-22)))
        CFI V1 load(1, XDATA, add(CFA_XSP16, literal(-21)))
        CFI V2 load(1, XDATA, add(CFA_XSP16, literal(-20)))
        CFI V3 load(1, XDATA, add(CFA_XSP16, literal(-19)))
        CFI V4 load(1, XDATA, add(CFA_XSP16, literal(-18)))
        CFI V5 load(1, XDATA, add(CFA_XSP16, literal(-17)))
        CFI V6 load(1, XDATA, add(CFA_XSP16, literal(-16)))
        CFI V7 load(1, XDATA, add(CFA_XSP16, literal(-15)))
        CFI V8 load(1, XDATA, add(CFA_XSP16, literal(-14)))
        CFI V9 load(1, XDATA, add(CFA_XSP16, literal(-13)))
        CFI V10 load(1, XDATA, add(CFA_XSP16, literal(-12)))
        CFI V11 load(1, XDATA, add(CFA_XSP16, literal(-11)))
        CFI V12 load(1, XDATA, add(CFA_XSP16, literal(-10)))
        CFI V13 load(1, XDATA, add(CFA_XSP16, literal(-9)))
        CFI V14 load(1, XDATA, add(CFA_XSP16, literal(-8)))
        CFI V15 load(1, XDATA, add(CFA_XSP16, literal(-7)))
        CFI R7 load(1, XDATA, add(CFA_XSP16, literal(-6)))
        CFI ?RET_LOW load(1, XDATA, add(CFA_XSP16, literal(-5)))
        CFI ?RET_HIGH load(1, XDATA, add(CFA_XSP16, literal(-4)))
        CFI ?BRET_EXT load(1, XDATA, add(CFA_XSP16, literal(-3)))
        CFI DPL0 load(1, XDATA, add(CFA_XSP16, literal(-2)))
        CFI DPH0 load(1, XDATA, add(CFA_XSP16, literal(-1)))
        CFI CFA_SP SP+0
        CFI CFA_XSP16 add(XSP16, 37)
        CFI Block cfiCond21 Using cfiCommon0
        CFI (cfiCond21) NoFunction
        CFI (cfiCond21) Conditional ??CrossCallReturnLabel_19
        CFI (cfiCond21) R6 load(1, XDATA, add(CFA_XSP16, literal(-24)))
        CFI (cfiCond21) VB load(1, XDATA, add(CFA_XSP16, literal(-23)))
        CFI (cfiCond21) V0 load(1, XDATA, add(CFA_XSP16, literal(-22)))
        CFI (cfiCond21) V1 load(1, XDATA, add(CFA_XSP16, literal(-21)))
        CFI (cfiCond21) V2 load(1, XDATA, add(CFA_XSP16, literal(-20)))
        CFI (cfiCond21) V3 load(1, XDATA, add(CFA_XSP16, literal(-19)))
        CFI (cfiCond21) V4 load(1, XDATA, add(CFA_XSP16, literal(-18)))
        CFI (cfiCond21) V5 load(1, XDATA, add(CFA_XSP16, literal(-17)))
        CFI (cfiCond21) V6 load(1, XDATA, add(CFA_XSP16, literal(-16)))
        CFI (cfiCond21) V7 load(1, XDATA, add(CFA_XSP16, literal(-15)))
        CFI (cfiCond21) V8 load(1, XDATA, add(CFA_XSP16, literal(-14)))
        CFI (cfiCond21) V9 load(1, XDATA, add(CFA_XSP16, literal(-13)))
        CFI (cfiCond21) V10 load(1, XDATA, add(CFA_XSP16, literal(-12)))
        CFI (cfiCond21) V11 load(1, XDATA, add(CFA_XSP16, literal(-11)))
        CFI (cfiCond21) V12 load(1, XDATA, add(CFA_XSP16, literal(-10)))
        CFI (cfiCond21) V13 load(1, XDATA, add(CFA_XSP16, literal(-9)))
        CFI (cfiCond21) V14 load(1, XDATA, add(CFA_XSP16, literal(-8)))
        CFI (cfiCond21) V15 load(1, XDATA, add(CFA_XSP16, literal(-7)))
        CFI (cfiCond21) R7 load(1, XDATA, add(CFA_XSP16, literal(-6)))
        CFI (cfiCond21) ?RET_LOW load(1, XDATA, add(CFA_XSP16, literal(-5)))
        CFI (cfiCond21) ?RET_HIGH load(1, XDATA, add(CFA_XSP16, literal(-4)))
        CFI (cfiCond21) ?BRET_EXT load(1, XDATA, add(CFA_XSP16, literal(-3)))
        CFI (cfiCond21) DPL0 load(1, XDATA, add(CFA_XSP16, literal(-2)))
        CFI (cfiCond21) DPH0 load(1, XDATA, add(CFA_XSP16, literal(-1)))
        CFI (cfiCond21) CFA_SP SP+0
        CFI (cfiCond21) CFA_XSP16 add(XSP16, 37)
        CFI Block cfiPicker22 Using cfiCommon1
        CFI (cfiPicker22) NoFunction
        CFI (cfiPicker22) Picker
        MOV     DPL,?V0 + 4
        MOV     DPH,?V0 + 5
        CFI EndBlock cfiCond20
        CFI EndBlock cfiCond21
        CFI EndBlock cfiPicker22
        REQUIRE ??Subroutine8_0
        ; // Fall through to label ??Subroutine8_0

        RSEG BANKED_CODE:CODE:NOROOT(0)
??Subroutine8_0:
        CFI Block cfiCond23 Using cfiCommon0
        CFI NoFunction
        CFI Conditional ??CrossCallReturnLabel_17
        CFI R6 load(1, XDATA, add(CFA_XSP16, literal(-24)))
        CFI VB load(1, XDATA, add(CFA_XSP16, literal(-23)))
        CFI V0 load(1, XDATA, add(CFA_XSP16, literal(-22)))
        CFI V1 load(1, XDATA, add(CFA_XSP16, literal(-21)))
        CFI V2 load(1, XDATA, add(CFA_XSP16, literal(-20)))
        CFI V3 load(1, XDATA, add(CFA_XSP16, literal(-19)))
        CFI V4 load(1, XDATA, add(CFA_XSP16, literal(-18)))
        CFI V5 load(1, XDATA, add(CFA_XSP16, literal(-17)))
        CFI V6 load(1, XDATA, add(CFA_XSP16, literal(-16)))
        CFI V7 load(1, XDATA, add(CFA_XSP16, literal(-15)))
        CFI V8 load(1, XDATA, add(CFA_XSP16, literal(-14)))
        CFI V9 load(1, XDATA, add(CFA_XSP16, literal(-13)))
        CFI V10 load(1, XDATA, add(CFA_XSP16, literal(-12)))
        CFI V11 load(1, XDATA, add(CFA_XSP16, literal(-11)))
        CFI V12 load(1, XDATA, add(CFA_XSP16, literal(-10)))
        CFI V13 load(1, XDATA, add(CFA_XSP16, literal(-9)))
        CFI V14 load(1, XDATA, add(CFA_XSP16, literal(-8)))
        CFI V15 load(1, XDATA, add(CFA_XSP16, literal(-7)))
        CFI R7 load(1, XDATA, add(CFA_XSP16, literal(-6)))
        CFI ?RET_LOW load(1, XDATA, add(CFA_XSP16, literal(-5)))
        CFI ?RET_HIGH load(1, XDATA, add(CFA_XSP16, literal(-4)))
        CFI ?BRET_EXT load(1, XDATA, add(CFA_XSP16, literal(-3)))
        CFI DPL0 load(1, XDATA, add(CFA_XSP16, literal(-2)))
        CFI DPH0 load(1, XDATA, add(CFA_XSP16, literal(-1)))
        CFI CFA_SP SP+0
        CFI CFA_XSP16 add(XSP16, 37)
        CFI Block cfiCond24 Using cfiCommon0
        CFI (cfiCond24) NoFunction
        CFI (cfiCond24) Conditional ??CrossCallReturnLabel_18
        CFI (cfiCond24) R6 load(1, XDATA, add(CFA_XSP16, literal(-24)))
        CFI (cfiCond24) VB load(1, XDATA, add(CFA_XSP16, literal(-23)))
        CFI (cfiCond24) V0 load(1, XDATA, add(CFA_XSP16, literal(-22)))
        CFI (cfiCond24) V1 load(1, XDATA, add(CFA_XSP16, literal(-21)))
        CFI (cfiCond24) V2 load(1, XDATA, add(CFA_XSP16, literal(-20)))
        CFI (cfiCond24) V3 load(1, XDATA, add(CFA_XSP16, literal(-19)))
        CFI (cfiCond24) V4 load(1, XDATA, add(CFA_XSP16, literal(-18)))
        CFI (cfiCond24) V5 load(1, XDATA, add(CFA_XSP16, literal(-17)))
        CFI (cfiCond24) V6 load(1, XDATA, add(CFA_XSP16, literal(-16)))
        CFI (cfiCond24) V7 load(1, XDATA, add(CFA_XSP16, literal(-15)))
        CFI (cfiCond24) V8 load(1, XDATA, add(CFA_XSP16, literal(-14)))
        CFI (cfiCond24) V9 load(1, XDATA, add(CFA_XSP16, literal(-13)))
        CFI (cfiCond24) V10 load(1, XDATA, add(CFA_XSP16, literal(-12)))
        CFI (cfiCond24) V11 load(1, XDATA, add(CFA_XSP16, literal(-11)))
        CFI (cfiCond24) V12 load(1, XDATA, add(CFA_XSP16, literal(-10)))
        CFI (cfiCond24) V13 load(1, XDATA, add(CFA_XSP16, literal(-9)))
        CFI (cfiCond24) V14 load(1, XDATA, add(CFA_XSP16, literal(-8)))
        CFI (cfiCond24) V15 load(1, XDATA, add(CFA_XSP16, literal(-7)))
        CFI (cfiCond24) R7 load(1, XDATA, add(CFA_XSP16, literal(-6)))
        CFI (cfiCond24) ?RET_LOW load(1, XDATA, add(CFA_XSP16, literal(-5)))
        CFI (cfiCond24) ?RET_HIGH load(1, XDATA, add(CFA_XSP16, literal(-4)))
        CFI (cfiCond24) ?BRET_EXT load(1, XDATA, add(CFA_XSP16, literal(-3)))
        CFI (cfiCond24) DPL0 load(1, XDATA, add(CFA_XSP16, literal(-2)))
        CFI (cfiCond24) DPH0 load(1, XDATA, add(CFA_XSP16, literal(-1)))
        CFI (cfiCond24) CFA_SP SP+0
        CFI (cfiCond24) CFA_XSP16 add(XSP16, 37)
        CFI Block cfiCond25 Using cfiCommon0
        CFI (cfiCond25) NoFunction
        CFI (cfiCond25) Conditional ??CrossCallReturnLabel_19
        CFI (cfiCond25) R6 load(1, XDATA, add(CFA_XSP16, literal(-24)))
        CFI (cfiCond25) VB load(1, XDATA, add(CFA_XSP16, literal(-23)))
        CFI (cfiCond25) V0 load(1, XDATA, add(CFA_XSP16, literal(-22)))
        CFI (cfiCond25) V1 load(1, XDATA, add(CFA_XSP16, literal(-21)))
        CFI (cfiCond25) V2 load(1, XDATA, add(CFA_XSP16, literal(-20)))
        CFI (cfiCond25) V3 load(1, XDATA, add(CFA_XSP16, literal(-19)))
        CFI (cfiCond25) V4 load(1, XDATA, add(CFA_XSP16, literal(-18)))
        CFI (cfiCond25) V5 load(1, XDATA, add(CFA_XSP16, literal(-17)))
        CFI (cfiCond25) V6 load(1, XDATA, add(CFA_XSP16, literal(-16)))
        CFI (cfiCond25) V7 load(1, XDATA, add(CFA_XSP16, literal(-15)))
        CFI (cfiCond25) V8 load(1, XDATA, add(CFA_XSP16, literal(-14)))
        CFI (cfiCond25) V9 load(1, XDATA, add(CFA_XSP16, literal(-13)))
        CFI (cfiCond25) V10 load(1, XDATA, add(CFA_XSP16, literal(-12)))
        CFI (cfiCond25) V11 load(1, XDATA, add(CFA_XSP16, literal(-11)))
        CFI (cfiCond25) V12 load(1, XDATA, add(CFA_XSP16, literal(-10)))
        CFI (cfiCond25) V13 load(1, XDATA, add(CFA_XSP16, literal(-9)))
        CFI (cfiCond25) V14 load(1, XDATA, add(CFA_XSP16, literal(-8)))
        CFI (cfiCond25) V15 load(1, XDATA, add(CFA_XSP16, literal(-7)))
        CFI (cfiCond25) R7 load(1, XDATA, add(CFA_XSP16, literal(-6)))
        CFI (cfiCond25) ?RET_LOW load(1, XDATA, add(CFA_XSP16, literal(-5)))
        CFI (cfiCond25) ?RET_HIGH load(1, XDATA, add(CFA_XSP16, literal(-4)))
        CFI (cfiCond25) ?BRET_EXT load(1, XDATA, add(CFA_XSP16, literal(-3)))
        CFI (cfiCond25) DPL0 load(1, XDATA, add(CFA_XSP16, literal(-2)))
        CFI (cfiCond25) DPH0 load(1, XDATA, add(CFA_XSP16, literal(-1)))
        CFI (cfiCond25) CFA_SP SP+0
        CFI (cfiCond25) CFA_XSP16 add(XSP16, 37)
        CFI Block cfiPicker26 Using cfiCommon1
        CFI (cfiPicker26) NoFunction
        CFI (cfiPicker26) Picker
        LCALL   ?Subroutine7 & 0xFFFF
??CrossCallReturnLabel_24:
        MOV     A,R0
        ORL     A,R1
        RET
        CFI EndBlock cfiCond23
        CFI EndBlock cfiCond24
        CFI EndBlock cfiCond25
        CFI EndBlock cfiPicker26

        RSEG BANKED_CODE:CODE:NOROOT(0)
?Subroutine7:
        CFI Block cfiCond27 Using cfiCommon0
        CFI NoFunction
        CFI Conditional ??CrossCallReturnLabel_20
        CFI R6 load(1, XDATA, add(CFA_XSP16, literal(-24)))
        CFI VB load(1, XDATA, add(CFA_XSP16, literal(-23)))
        CFI V0 load(1, XDATA, add(CFA_XSP16, literal(-22)))
        CFI V1 load(1, XDATA, add(CFA_XSP16, literal(-21)))
        CFI V2 load(1, XDATA, add(CFA_XSP16, literal(-20)))
        CFI V3 load(1, XDATA, add(CFA_XSP16, literal(-19)))
        CFI V4 load(1, XDATA, add(CFA_XSP16, literal(-18)))
        CFI V5 load(1, XDATA, add(CFA_XSP16, literal(-17)))
        CFI V6 load(1, XDATA, add(CFA_XSP16, literal(-16)))
        CFI V7 load(1, XDATA, add(CFA_XSP16, literal(-15)))
        CFI V8 load(1, XDATA, add(CFA_XSP16, literal(-14)))
        CFI V9 load(1, XDATA, add(CFA_XSP16, literal(-13)))
        CFI V10 load(1, XDATA, add(CFA_XSP16, literal(-12)))
        CFI V11 load(1, XDATA, add(CFA_XSP16, literal(-11)))
        CFI V12 load(1, XDATA, add(CFA_XSP16, literal(-10)))
        CFI V13 load(1, XDATA, add(CFA_XSP16, literal(-9)))
        CFI V14 load(1, XDATA, add(CFA_XSP16, literal(-8)))
        CFI V15 load(1, XDATA, add(CFA_XSP16, literal(-7)))
        CFI R7 load(1, XDATA, add(CFA_XSP16, literal(-6)))
        CFI ?RET_LOW load(1, XDATA, add(CFA_XSP16, literal(-5)))
        CFI ?RET_HIGH load(1, XDATA, add(CFA_XSP16, literal(-4)))
        CFI ?BRET_EXT load(1, XDATA, add(CFA_XSP16, literal(-3)))
        CFI DPL0 load(1, XDATA, add(CFA_XSP16, literal(-2)))
        CFI DPH0 load(1, XDATA, add(CFA_XSP16, literal(-1)))
        CFI CFA_SP SP+0
        CFI CFA_XSP16 add(XSP16, 37)
        CFI Block cfiCond28 Using cfiCommon0
        CFI (cfiCond28) NoFunction
        CFI (cfiCond28) Conditional ??CrossCallReturnLabel_21
        CFI (cfiCond28) R6 load(1, XDATA, add(CFA_XSP16, literal(-24)))
        CFI (cfiCond28) VB load(1, XDATA, add(CFA_XSP16, literal(-23)))
        CFI (cfiCond28) V0 load(1, XDATA, add(CFA_XSP16, literal(-22)))
        CFI (cfiCond28) V1 load(1, XDATA, add(CFA_XSP16, literal(-21)))
        CFI (cfiCond28) V2 load(1, XDATA, add(CFA_XSP16, literal(-20)))
        CFI (cfiCond28) V3 load(1, XDATA, add(CFA_XSP16, literal(-19)))
        CFI (cfiCond28) V4 load(1, XDATA, add(CFA_XSP16, literal(-18)))
        CFI (cfiCond28) V5 load(1, XDATA, add(CFA_XSP16, literal(-17)))
        CFI (cfiCond28) V6 load(1, XDATA, add(CFA_XSP16, literal(-16)))
        CFI (cfiCond28) V7 load(1, XDATA, add(CFA_XSP16, literal(-15)))
        CFI (cfiCond28) V8 load(1, XDATA, add(CFA_XSP16, literal(-14)))
        CFI (cfiCond28) V9 load(1, XDATA, add(CFA_XSP16, literal(-13)))
        CFI (cfiCond28) V10 load(1, XDATA, add(CFA_XSP16, literal(-12)))
        CFI (cfiCond28) V11 load(1, XDATA, add(CFA_XSP16, literal(-11)))
        CFI (cfiCond28) V12 load(1, XDATA, add(CFA_XSP16, literal(-10)))
        CFI (cfiCond28) V13 load(1, XDATA, add(CFA_XSP16, literal(-9)))
        CFI (cfiCond28) V14 load(1, XDATA, add(CFA_XSP16, literal(-8)))
        CFI (cfiCond28) V15 load(1, XDATA, add(CFA_XSP16, literal(-7)))
        CFI (cfiCond28) R7 load(1, XDATA, add(CFA_XSP16, literal(-6)))
        CFI (cfiCond28) ?RET_LOW load(1, XDATA, add(CFA_XSP16, literal(-5)))
        CFI (cfiCond28) ?RET_HIGH load(1, XDATA, add(CFA_XSP16, literal(-4)))
        CFI (cfiCond28) ?BRET_EXT load(1, XDATA, add(CFA_XSP16, literal(-3)))
        CFI (cfiCond28) DPL0 load(1, XDATA, add(CFA_XSP16, literal(-2)))
        CFI (cfiCond28) DPH0 load(1, XDATA, add(CFA_XSP16, literal(-1)))
        CFI (cfiCond28) CFA_SP SP+0
        CFI (cfiCond28) CFA_XSP16 add(XSP16, 37)
        CFI Block cfiCond29 Using cfiCommon0
        CFI (cfiCond29) NoFunction
        CFI (cfiCond29) Conditional ??CrossCallReturnLabel_23, ??CrossCallReturnLabel_11
        CFI (cfiCond29) R6 load(1, XDATA, add(CFA_XSP16, literal(-24)))
        CFI (cfiCond29) VB load(1, XDATA, add(CFA_XSP16, literal(-23)))
        CFI (cfiCond29) V0 load(1, XDATA, add(CFA_XSP16, literal(-22)))
        CFI (cfiCond29) V1 load(1, XDATA, add(CFA_XSP16, literal(-21)))
        CFI (cfiCond29) V2 load(1, XDATA, add(CFA_XSP16, literal(-20)))
        CFI (cfiCond29) V3 load(1, XDATA, add(CFA_XSP16, literal(-19)))
        CFI (cfiCond29) V4 load(1, XDATA, add(CFA_XSP16, literal(-18)))
        CFI (cfiCond29) V5 load(1, XDATA, add(CFA_XSP16, literal(-17)))
        CFI (cfiCond29) V6 load(1, XDATA, add(CFA_XSP16, literal(-16)))
        CFI (cfiCond29) V7 load(1, XDATA, add(CFA_XSP16, literal(-15)))
        CFI (cfiCond29) V8 load(1, XDATA, add(CFA_XSP16, literal(-14)))
        CFI (cfiCond29) V9 load(1, XDATA, add(CFA_XSP16, literal(-13)))
        CFI (cfiCond29) V10 load(1, XDATA, add(CFA_XSP16, literal(-12)))
        CFI (cfiCond29) V11 load(1, XDATA, add(CFA_XSP16, literal(-11)))
        CFI (cfiCond29) V12 load(1, XDATA, add(CFA_XSP16, literal(-10)))
        CFI (cfiCond29) V13 load(1, XDATA, add(CFA_XSP16, literal(-9)))
        CFI (cfiCond29) V14 load(1, XDATA, add(CFA_XSP16, literal(-8)))
        CFI (cfiCond29) V15 load(1, XDATA, add(CFA_XSP16, literal(-7)))
        CFI (cfiCond29) R7 load(1, XDATA, add(CFA_XSP16, literal(-6)))
        CFI (cfiCond29) ?RET_LOW load(1, XDATA, add(CFA_XSP16, literal(-5)))
        CFI (cfiCond29) ?RET_HIGH load(1, XDATA, add(CFA_XSP16, literal(-4)))
        CFI (cfiCond29) ?BRET_EXT load(1, XDATA, add(CFA_XSP16, literal(-3)))
        CFI (cfiCond29) DPL0 load(1, XDATA, add(CFA_XSP16, literal(-2)))
        CFI (cfiCond29) DPH0 load(1, XDATA, add(CFA_XSP16, literal(-1)))
        CFI (cfiCond29) CFA_SP SP+0
        CFI (cfiCond29) CFA_XSP16 add(XSP16, 37)
        CFI Block cfiCond30 Using cfiCommon0
        CFI (cfiCond30) NoFunction
        CFI (cfiCond30) Conditional ??CrossCallReturnLabel_23, ??CrossCallReturnLabel_12
        CFI (cfiCond30) R6 load(1, XDATA, add(CFA_XSP16, literal(-24)))
        CFI (cfiCond30) VB load(1, XDATA, add(CFA_XSP16, literal(-23)))
        CFI (cfiCond30) V0 load(1, XDATA, add(CFA_XSP16, literal(-22)))
        CFI (cfiCond30) V1 load(1, XDATA, add(CFA_XSP16, literal(-21)))
        CFI (cfiCond30) V2 load(1, XDATA, add(CFA_XSP16, literal(-20)))
        CFI (cfiCond30) V3 load(1, XDATA, add(CFA_XSP16, literal(-19)))
        CFI (cfiCond30) V4 load(1, XDATA, add(CFA_XSP16, literal(-18)))
        CFI (cfiCond30) V5 load(1, XDATA, add(CFA_XSP16, literal(-17)))
        CFI (cfiCond30) V6 load(1, XDATA, add(CFA_XSP16, literal(-16)))
        CFI (cfiCond30) V7 load(1, XDATA, add(CFA_XSP16, literal(-15)))
        CFI (cfiCond30) V8 load(1, XDATA, add(CFA_XSP16, literal(-14)))
        CFI (cfiCond30) V9 load(1, XDATA, add(CFA_XSP16, literal(-13)))
        CFI (cfiCond30) V10 load(1, XDATA, add(CFA_XSP16, literal(-12)))
        CFI (cfiCond30) V11 load(1, XDATA, add(CFA_XSP16, literal(-11)))
        CFI (cfiCond30) V12 load(1, XDATA, add(CFA_XSP16, literal(-10)))
        CFI (cfiCond30) V13 load(1, XDATA, add(CFA_XSP16, literal(-9)))
        CFI (cfiCond30) V14 load(1, XDATA, add(CFA_XSP16, literal(-8)))
        CFI (cfiCond30) V15 load(1, XDATA, add(CFA_XSP16, literal(-7)))
        CFI (cfiCond30) R7 load(1, XDATA, add(CFA_XSP16, literal(-6)))
        CFI (cfiCond30) ?RET_LOW load(1, XDATA, add(CFA_XSP16, literal(-5)))
        CFI (cfiCond30) ?RET_HIGH load(1, XDATA, add(CFA_XSP16, literal(-4)))
        CFI (cfiCond30) ?BRET_EXT load(1, XDATA, add(CFA_XSP16, literal(-3)))
        CFI (cfiCond30) DPL0 load(1, XDATA, add(CFA_XSP16, literal(-2)))
        CFI (cfiCond30) DPH0 load(1, XDATA, add(CFA_XSP16, literal(-1)))
        CFI (cfiCond30) CFA_SP SP+0
        CFI (cfiCond30) CFA_XSP16 add(XSP16, 37)
        CFI Block cfiCond31 Using cfiCommon0
        CFI (cfiCond31) NoFunction
        CFI (cfiCond31) Conditional ??CrossCallReturnLabel_24, ??CrossCallReturnLabel_18
        CFI (cfiCond31) R6 load(1, XDATA, add(CFA_XSP16, literal(-24)))
        CFI (cfiCond31) VB load(1, XDATA, add(CFA_XSP16, literal(-23)))
        CFI (cfiCond31) V0 load(1, XDATA, add(CFA_XSP16, literal(-22)))
        CFI (cfiCond31) V1 load(1, XDATA, add(CFA_XSP16, literal(-21)))
        CFI (cfiCond31) V2 load(1, XDATA, add(CFA_XSP16, literal(-20)))
        CFI (cfiCond31) V3 load(1, XDATA, add(CFA_XSP16, literal(-19)))
        CFI (cfiCond31) V4 load(1, XDATA, add(CFA_XSP16, literal(-18)))
        CFI (cfiCond31) V5 load(1, XDATA, add(CFA_XSP16, literal(-17)))
        CFI (cfiCond31) V6 load(1, XDATA, add(CFA_XSP16, literal(-16)))
        CFI (cfiCond31) V7 load(1, XDATA, add(CFA_XSP16, literal(-15)))
        CFI (cfiCond31) V8 load(1, XDATA, add(CFA_XSP16, literal(-14)))
        CFI (cfiCond31) V9 load(1, XDATA, add(CFA_XSP16, literal(-13)))
        CFI (cfiCond31) V10 load(1, XDATA, add(CFA_XSP16, literal(-12)))
        CFI (cfiCond31) V11 load(1, XDATA, add(CFA_XSP16, literal(-11)))
        CFI (cfiCond31) V12 load(1, XDATA, add(CFA_XSP16, literal(-10)))
        CFI (cfiCond31) V13 load(1, XDATA, add(CFA_XSP16, literal(-9)))
        CFI (cfiCond31) V14 load(1, XDATA, add(CFA_XSP16, literal(-8)))
        CFI (cfiCond31) V15 load(1, XDATA, add(CFA_XSP16, literal(-7)))
        CFI (cfiCond31) R7 load(1, XDATA, add(CFA_XSP16, literal(-6)))
        CFI (cfiCond31) ?RET_LOW load(1, XDATA, add(CFA_XSP16, literal(-5)))
        CFI (cfiCond31) ?RET_HIGH load(1, XDATA, add(CFA_XSP16, literal(-4)))
        CFI (cfiCond31) ?BRET_EXT load(1, XDATA, add(CFA_XSP16, literal(-3)))
        CFI (cfiCond31) DPL0 load(1, XDATA, add(CFA_XSP16, literal(-2)))
        CFI (cfiCond31) DPH0 load(1, XDATA, add(CFA_XSP16, literal(-1)))
        CFI (cfiCond31) CFA_SP SP+0
        CFI (cfiCond31) CFA_XSP16 add(XSP16, 37)
        CFI Block cfiCond32 Using cfiCommon0
        CFI (cfiCond32) NoFunction
        CFI (cfiCond32) Conditional ??CrossCallReturnLabel_24, ??CrossCallReturnLabel_19
        CFI (cfiCond32) R6 load(1, XDATA, add(CFA_XSP16, literal(-24)))
        CFI (cfiCond32) VB load(1, XDATA, add(CFA_XSP16, literal(-23)))
        CFI (cfiCond32) V0 load(1, XDATA, add(CFA_XSP16, literal(-22)))
        CFI (cfiCond32) V1 load(1, XDATA, add(CFA_XSP16, literal(-21)))
        CFI (cfiCond32) V2 load(1, XDATA, add(CFA_XSP16, literal(-20)))
        CFI (cfiCond32) V3 load(1, XDATA, add(CFA_XSP16, literal(-19)))
        CFI (cfiCond32) V4 load(1, XDATA, add(CFA_XSP16, literal(-18)))
        CFI (cfiCond32) V5 load(1, XDATA, add(CFA_XSP16, literal(-17)))
        CFI (cfiCond32) V6 load(1, XDATA, add(CFA_XSP16, literal(-16)))
        CFI (cfiCond32) V7 load(1, XDATA, add(CFA_XSP16, literal(-15)))
        CFI (cfiCond32) V8 load(1, XDATA, add(CFA_XSP16, literal(-14)))
        CFI (cfiCond32) V9 load(1, XDATA, add(CFA_XSP16, literal(-13)))
        CFI (cfiCond32) V10 load(1, XDATA, add(CFA_XSP16, literal(-12)))
        CFI (cfiCond32) V11 load(1, XDATA, add(CFA_XSP16, literal(-11)))
        CFI (cfiCond32) V12 load(1, XDATA, add(CFA_XSP16, literal(-10)))
        CFI (cfiCond32) V13 load(1, XDATA, add(CFA_XSP16, literal(-9)))
        CFI (cfiCond32) V14 load(1, XDATA, add(CFA_XSP16, literal(-8)))
        CFI (cfiCond32) V15 load(1, XDATA, add(CFA_XSP16, literal(-7)))
        CFI (cfiCond32) R7 load(1, XDATA, add(CFA_XSP16, literal(-6)))
        CFI (cfiCond32) ?RET_LOW load(1, XDATA, add(CFA_XSP16, literal(-5)))
        CFI (cfiCond32) ?RET_HIGH load(1, XDATA, add(CFA_XSP16, literal(-4)))
        CFI (cfiCond32) ?BRET_EXT load(1, XDATA, add(CFA_XSP16, literal(-3)))
        CFI (cfiCond32) DPL0 load(1, XDATA, add(CFA_XSP16, literal(-2)))
        CFI (cfiCond32) DPH0 load(1, XDATA, add(CFA_XSP16, literal(-1)))
        CFI (cfiCond32) CFA_SP SP+0
        CFI (cfiCond32) CFA_XSP16 add(XSP16, 37)
        CFI Block cfiCond33 Using cfiCommon0
        CFI (cfiCond33) NoFunction
        CFI (cfiCond33) Conditional ??CrossCallReturnLabel_24, ??CrossCallReturnLabel_17
        CFI (cfiCond33) R6 load(1, XDATA, add(CFA_XSP16, literal(-24)))
        CFI (cfiCond33) VB load(1, XDATA, add(CFA_XSP16, literal(-23)))
        CFI (cfiCond33) V0 load(1, XDATA, add(CFA_XSP16, literal(-22)))
        CFI (cfiCond33) V1 load(1, XDATA, add(CFA_XSP16, literal(-21)))
        CFI (cfiCond33) V2 load(1, XDATA, add(CFA_XSP16, literal(-20)))
        CFI (cfiCond33) V3 load(1, XDATA, add(CFA_XSP16, literal(-19)))
        CFI (cfiCond33) V4 load(1, XDATA, add(CFA_XSP16, literal(-18)))
        CFI (cfiCond33) V5 load(1, XDATA, add(CFA_XSP16, literal(-17)))
        CFI (cfiCond33) V6 load(1, XDATA, add(CFA_XSP16, literal(-16)))
        CFI (cfiCond33) V7 load(1, XDATA, add(CFA_XSP16, literal(-15)))
        CFI (cfiCond33) V8 load(1, XDATA, add(CFA_XSP16, literal(-14)))
        CFI (cfiCond33) V9 load(1, XDATA, add(CFA_XSP16, literal(-13)))
        CFI (cfiCond33) V10 load(1, XDATA, add(CFA_XSP16, literal(-12)))
        CFI (cfiCond33) V11 load(1, XDATA, add(CFA_XSP16, literal(-11)))
        CFI (cfiCond33) V12 load(1, XDATA, add(CFA_XSP16, literal(-10)))
        CFI (cfiCond33) V13 load(1, XDATA, add(CFA_XSP16, literal(-9)))
        CFI (cfiCond33) V14 load(1, XDATA, add(CFA_XSP16, literal(-8)))
        CFI (cfiCond33) V15 load(1, XDATA, add(CFA_XSP16, literal(-7)))
        CFI (cfiCond33) R7 load(1, XDATA, add(CFA_XSP16, literal(-6)))
        CFI (cfiCond33) ?RET_LOW load(1, XDATA, add(CFA_XSP16, literal(-5)))
        CFI (cfiCond33) ?RET_HIGH load(1, XDATA, add(CFA_XSP16, literal(-4)))
        CFI (cfiCond33) ?BRET_EXT load(1, XDATA, add(CFA_XSP16, literal(-3)))
        CFI (cfiCond33) DPL0 load(1, XDATA, add(CFA_XSP16, literal(-2)))
        CFI (cfiCond33) DPH0 load(1, XDATA, add(CFA_XSP16, literal(-1)))
        CFI (cfiCond33) CFA_SP SP+0
        CFI (cfiCond33) CFA_XSP16 add(XSP16, 37)
        CFI Block cfiCond34 Using cfiCommon0
        CFI (cfiCond34) NoFunction
        CFI (cfiCond34) Conditional ??CrossCallReturnLabel_22, ??CrossCallReturnLabel_0
        CFI (cfiCond34) R6 load(1, XDATA, add(CFA_XSP16, literal(-24)))
        CFI (cfiCond34) VB load(1, XDATA, add(CFA_XSP16, literal(-23)))
        CFI (cfiCond34) V0 load(1, XDATA, add(CFA_XSP16, literal(-22)))
        CFI (cfiCond34) V1 load(1, XDATA, add(CFA_XSP16, literal(-21)))
        CFI (cfiCond34) V2 load(1, XDATA, add(CFA_XSP16, literal(-20)))
        CFI (cfiCond34) V3 load(1, XDATA, add(CFA_XSP16, literal(-19)))
        CFI (cfiCond34) V4 load(1, XDATA, add(CFA_XSP16, literal(-18)))
        CFI (cfiCond34) V5 load(1, XDATA, add(CFA_XSP16, literal(-17)))
        CFI (cfiCond34) V6 load(1, XDATA, add(CFA_XSP16, literal(-16)))
        CFI (cfiCond34) V7 load(1, XDATA, add(CFA_XSP16, literal(-15)))
        CFI (cfiCond34) V8 load(1, XDATA, add(CFA_XSP16, literal(-14)))
        CFI (cfiCond34) V9 load(1, XDATA, add(CFA_XSP16, literal(-13)))
        CFI (cfiCond34) V10 load(1, XDATA, add(CFA_XSP16, literal(-12)))
        CFI (cfiCond34) V11 load(1, XDATA, add(CFA_XSP16, literal(-11)))
        CFI (cfiCond34) V12 load(1, XDATA, add(CFA_XSP16, literal(-10)))
        CFI (cfiCond34) V13 load(1, XDATA, add(CFA_XSP16, literal(-9)))
        CFI (cfiCond34) V14 load(1, XDATA, add(CFA_XSP16, literal(-8)))
        CFI (cfiCond34) V15 load(1, XDATA, add(CFA_XSP16, literal(-7)))
        CFI (cfiCond34) R7 load(1, XDATA, add(CFA_XSP16, literal(-6)))
        CFI (cfiCond34) ?RET_LOW load(1, XDATA, add(CFA_XSP16, literal(-5)))
        CFI (cfiCond34) ?RET_HIGH load(1, XDATA, add(CFA_XSP16, literal(-4)))
        CFI (cfiCond34) ?BRET_EXT load(1, XDATA, add(CFA_XSP16, literal(-3)))
        CFI (cfiCond34) DPL0 load(1, XDATA, add(CFA_XSP16, literal(-2)))
        CFI (cfiCond34) DPH0 load(1, XDATA, add(CFA_XSP16, literal(-1)))
        CFI (cfiCond34) CFA_SP SP+0
        CFI (cfiCond34) CFA_XSP16 add(XSP16, 37)
        CFI Block cfiCond35 Using cfiCommon0
        CFI (cfiCond35) NoFunction
        CFI (cfiCond35) Conditional ??CrossCallReturnLabel_22, ??CrossCallReturnLabel_1
        CFI (cfiCond35) R6 load(1, XDATA, add(CFA_XSP16, literal(-24)))
        CFI (cfiCond35) VB load(1, XDATA, add(CFA_XSP16, literal(-23)))
        CFI (cfiCond35) V0 load(1, XDATA, add(CFA_XSP16, literal(-22)))
        CFI (cfiCond35) V1 load(1, XDATA, add(CFA_XSP16, literal(-21)))
        CFI (cfiCond35) V2 load(1, XDATA, add(CFA_XSP16, literal(-20)))
        CFI (cfiCond35) V3 load(1, XDATA, add(CFA_XSP16, literal(-19)))
        CFI (cfiCond35) V4 load(1, XDATA, add(CFA_XSP16, literal(-18)))
        CFI (cfiCond35) V5 load(1, XDATA, add(CFA_XSP16, literal(-17)))
        CFI (cfiCond35) V6 load(1, XDATA, add(CFA_XSP16, literal(-16)))
        CFI (cfiCond35) V7 load(1, XDATA, add(CFA_XSP16, literal(-15)))
        CFI (cfiCond35) V8 load(1, XDATA, add(CFA_XSP16, literal(-14)))
        CFI (cfiCond35) V9 load(1, XDATA, add(CFA_XSP16, literal(-13)))
        CFI (cfiCond35) V10 load(1, XDATA, add(CFA_XSP16, literal(-12)))
        CFI (cfiCond35) V11 load(1, XDATA, add(CFA_XSP16, literal(-11)))
        CFI (cfiCond35) V12 load(1, XDATA, add(CFA_XSP16, literal(-10)))
        CFI (cfiCond35) V13 load(1, XDATA, add(CFA_XSP16, literal(-9)))
        CFI (cfiCond35) V14 load(1, XDATA, add(CFA_XSP16, literal(-8)))
        CFI (cfiCond35) V15 load(1, XDATA, add(CFA_XSP16, literal(-7)))
        CFI (cfiCond35) R7 load(1, XDATA, add(CFA_XSP16, literal(-6)))
        CFI (cfiCond35) ?RET_LOW load(1, XDATA, add(CFA_XSP16, literal(-5)))
        CFI (cfiCond35) ?RET_HIGH load(1, XDATA, add(CFA_XSP16, literal(-4)))
        CFI (cfiCond35) ?BRET_EXT load(1, XDATA, add(CFA_XSP16, literal(-3)))
        CFI (cfiCond35) DPL0 load(1, XDATA, add(CFA_XSP16, literal(-2)))
        CFI (cfiCond35) DPH0 load(1, XDATA, add(CFA_XSP16, literal(-1)))
        CFI (cfiCond35) CFA_SP SP+0
        CFI (cfiCond35) CFA_XSP16 add(XSP16, 37)
        CFI Block cfiCond36 Using cfiCommon0
        CFI (cfiCond36) NoFunction
        CFI (cfiCond36) Conditional ??CrossCallReturnLabel_22, ??CrossCallReturnLabel_2
        CFI (cfiCond36) R6 load(1, XDATA, add(CFA_XSP16, literal(-24)))
        CFI (cfiCond36) VB load(1, XDATA, add(CFA_XSP16, literal(-23)))
        CFI (cfiCond36) V0 load(1, XDATA, add(CFA_XSP16, literal(-22)))
        CFI (cfiCond36) V1 load(1, XDATA, add(CFA_XSP16, literal(-21)))
        CFI (cfiCond36) V2 load(1, XDATA, add(CFA_XSP16, literal(-20)))
        CFI (cfiCond36) V3 load(1, XDATA, add(CFA_XSP16, literal(-19)))
        CFI (cfiCond36) V4 load(1, XDATA, add(CFA_XSP16, literal(-18)))
        CFI (cfiCond36) V5 load(1, XDATA, add(CFA_XSP16, literal(-17)))
        CFI (cfiCond36) V6 load(1, XDATA, add(CFA_XSP16, literal(-16)))
        CFI (cfiCond36) V7 load(1, XDATA, add(CFA_XSP16, literal(-15)))
        CFI (cfiCond36) V8 load(1, XDATA, add(CFA_XSP16, literal(-14)))
        CFI (cfiCond36) V9 load(1, XDATA, add(CFA_XSP16, literal(-13)))
        CFI (cfiCond36) V10 load(1, XDATA, add(CFA_XSP16, literal(-12)))
        CFI (cfiCond36) V11 load(1, XDATA, add(CFA_XSP16, literal(-11)))
        CFI (cfiCond36) V12 load(1, XDATA, add(CFA_XSP16, literal(-10)))
        CFI (cfiCond36) V13 load(1, XDATA, add(CFA_XSP16, literal(-9)))
        CFI (cfiCond36) V14 load(1, XDATA, add(CFA_XSP16, literal(-8)))
        CFI (cfiCond36) V15 load(1, XDATA, add(CFA_XSP16, literal(-7)))
        CFI (cfiCond36) R7 load(1, XDATA, add(CFA_XSP16, literal(-6)))
        CFI (cfiCond36) ?RET_LOW load(1, XDATA, add(CFA_XSP16, literal(-5)))
        CFI (cfiCond36) ?RET_HIGH load(1, XDATA, add(CFA_XSP16, literal(-4)))
        CFI (cfiCond36) ?BRET_EXT load(1, XDATA, add(CFA_XSP16, literal(-3)))
        CFI (cfiCond36) DPL0 load(1, XDATA, add(CFA_XSP16, literal(-2)))
        CFI (cfiCond36) DPH0 load(1, XDATA, add(CFA_XSP16, literal(-1)))
        CFI (cfiCond36) CFA_SP SP+0
        CFI (cfiCond36) CFA_XSP16 add(XSP16, 37)
        CFI Block cfiPicker37 Using cfiCommon1
        CFI (cfiPicker37) NoFunction
        CFI (cfiPicker37) Picker
        MOVX    A,@DPTR
        MOV     R0,A
        INC     DPTR
        MOVX    A,@DPTR
        MOV     R1,A
        RET
        CFI EndBlock cfiCond27
        CFI EndBlock cfiCond28
        CFI EndBlock cfiCond29
        CFI EndBlock cfiCond30
        CFI EndBlock cfiCond31
        CFI EndBlock cfiCond32
        CFI EndBlock cfiCond33
        CFI EndBlock cfiCond34
        CFI EndBlock cfiCond35
        CFI EndBlock cfiCond36
        CFI EndBlock cfiPicker37

        RSEG BANKED_CODE:CODE:NOROOT(0)
?Subroutine0:
        CFI Block cfiCond38 Using cfiCommon0
        CFI NoFunction
        CFI Conditional ??CrossCallReturnLabel_0
        CFI R6 load(1, XDATA, add(CFA_XSP16, literal(-24)))
        CFI VB load(1, XDATA, add(CFA_XSP16, literal(-23)))
        CFI V0 load(1, XDATA, add(CFA_XSP16, literal(-22)))
        CFI V1 load(1, XDATA, add(CFA_XSP16, literal(-21)))
        CFI V2 load(1, XDATA, add(CFA_XSP16, literal(-20)))
        CFI V3 load(1, XDATA, add(CFA_XSP16, literal(-19)))
        CFI V4 load(1, XDATA, add(CFA_XSP16, literal(-18)))
        CFI V5 load(1, XDATA, add(CFA_XSP16, literal(-17)))
        CFI V6 load(1, XDATA, add(CFA_XSP16, literal(-16)))
        CFI V7 load(1, XDATA, add(CFA_XSP16, literal(-15)))
        CFI V8 load(1, XDATA, add(CFA_XSP16, literal(-14)))
        CFI V9 load(1, XDATA, add(CFA_XSP16, literal(-13)))
        CFI V10 load(1, XDATA, add(CFA_XSP16, literal(-12)))
        CFI V11 load(1, XDATA, add(CFA_XSP16, literal(-11)))
        CFI V12 load(1, XDATA, add(CFA_XSP16, literal(-10)))
        CFI V13 load(1, XDATA, add(CFA_XSP16, literal(-9)))
        CFI V14 load(1, XDATA, add(CFA_XSP16, literal(-8)))
        CFI V15 load(1, XDATA, add(CFA_XSP16, literal(-7)))
        CFI R7 load(1, XDATA, add(CFA_XSP16, literal(-6)))
        CFI ?RET_LOW load(1, XDATA, add(CFA_XSP16, literal(-5)))
        CFI ?RET_HIGH load(1, XDATA, add(CFA_XSP16, literal(-4)))
        CFI ?BRET_EXT load(1, XDATA, add(CFA_XSP16, literal(-3)))
        CFI DPL0 load(1, XDATA, add(CFA_XSP16, literal(-2)))
        CFI DPH0 load(1, XDATA, add(CFA_XSP16, literal(-1)))
        CFI CFA_SP SP+0
        CFI CFA_XSP16 add(XSP16, 37)
        CFI Block cfiCond39 Using cfiCommon0
        CFI (cfiCond39) NoFunction
        CFI (cfiCond39) Conditional ??CrossCallReturnLabel_1
        CFI (cfiCond39) R6 load(1, XDATA, add(CFA_XSP16, literal(-24)))
        CFI (cfiCond39) VB load(1, XDATA, add(CFA_XSP16, literal(-23)))
        CFI (cfiCond39) V0 load(1, XDATA, add(CFA_XSP16, literal(-22)))
        CFI (cfiCond39) V1 load(1, XDATA, add(CFA_XSP16, literal(-21)))
        CFI (cfiCond39) V2 load(1, XDATA, add(CFA_XSP16, literal(-20)))
        CFI (cfiCond39) V3 load(1, XDATA, add(CFA_XSP16, literal(-19)))
        CFI (cfiCond39) V4 load(1, XDATA, add(CFA_XSP16, literal(-18)))
        CFI (cfiCond39) V5 load(1, XDATA, add(CFA_XSP16, literal(-17)))
        CFI (cfiCond39) V6 load(1, XDATA, add(CFA_XSP16, literal(-16)))
        CFI (cfiCond39) V7 load(1, XDATA, add(CFA_XSP16, literal(-15)))
        CFI (cfiCond39) V8 load(1, XDATA, add(CFA_XSP16, literal(-14)))
        CFI (cfiCond39) V9 load(1, XDATA, add(CFA_XSP16, literal(-13)))
        CFI (cfiCond39) V10 load(1, XDATA, add(CFA_XSP16, literal(-12)))
        CFI (cfiCond39) V11 load(1, XDATA, add(CFA_XSP16, literal(-11)))
        CFI (cfiCond39) V12 load(1, XDATA, add(CFA_XSP16, literal(-10)))
        CFI (cfiCond39) V13 load(1, XDATA, add(CFA_XSP16, literal(-9)))
        CFI (cfiCond39) V14 load(1, XDATA, add(CFA_XSP16, literal(-8)))
        CFI (cfiCond39) V15 load(1, XDATA, add(CFA_XSP16, literal(-7)))
        CFI (cfiCond39) R7 load(1, XDATA, add(CFA_XSP16, literal(-6)))
        CFI (cfiCond39) ?RET_LOW load(1, XDATA, add(CFA_XSP16, literal(-5)))
        CFI (cfiCond39) ?RET_HIGH load(1, XDATA, add(CFA_XSP16, literal(-4)))
        CFI (cfiCond39) ?BRET_EXT load(1, XDATA, add(CFA_XSP16, literal(-3)))
        CFI (cfiCond39) DPL0 load(1, XDATA, add(CFA_XSP16, literal(-2)))
        CFI (cfiCond39) DPH0 load(1, XDATA, add(CFA_XSP16, literal(-1)))
        CFI (cfiCond39) CFA_SP SP+0
        CFI (cfiCond39) CFA_XSP16 add(XSP16, 37)
        CFI Block cfiCond40 Using cfiCommon0
        CFI (cfiCond40) NoFunction
        CFI (cfiCond40) Conditional ??CrossCallReturnLabel_2
        CFI (cfiCond40) R6 load(1, XDATA, add(CFA_XSP16, literal(-24)))
        CFI (cfiCond40) VB load(1, XDATA, add(CFA_XSP16, literal(-23)))
        CFI (cfiCond40) V0 load(1, XDATA, add(CFA_XSP16, literal(-22)))
        CFI (cfiCond40) V1 load(1, XDATA, add(CFA_XSP16, literal(-21)))
        CFI (cfiCond40) V2 load(1, XDATA, add(CFA_XSP16, literal(-20)))
        CFI (cfiCond40) V3 load(1, XDATA, add(CFA_XSP16, literal(-19)))
        CFI (cfiCond40) V4 load(1, XDATA, add(CFA_XSP16, literal(-18)))
        CFI (cfiCond40) V5 load(1, XDATA, add(CFA_XSP16, literal(-17)))
        CFI (cfiCond40) V6 load(1, XDATA, add(CFA_XSP16, literal(-16)))
        CFI (cfiCond40) V7 load(1, XDATA, add(CFA_XSP16, literal(-15)))
        CFI (cfiCond40) V8 load(1, XDATA, add(CFA_XSP16, literal(-14)))
        CFI (cfiCond40) V9 load(1, XDATA, add(CFA_XSP16, literal(-13)))
        CFI (cfiCond40) V10 load(1, XDATA, add(CFA_XSP16, literal(-12)))
        CFI (cfiCond40) V11 load(1, XDATA, add(CFA_XSP16, literal(-11)))
        CFI (cfiCond40) V12 load(1, XDATA, add(CFA_XSP16, literal(-10)))
        CFI (cfiCond40) V13 load(1, XDATA, add(CFA_XSP16, literal(-9)))
        CFI (cfiCond40) V14 load(1, XDATA, add(CFA_XSP16, literal(-8)))
        CFI (cfiCond40) V15 load(1, XDATA, add(CFA_XSP16, literal(-7)))
        CFI (cfiCond40) R7 load(1, XDATA, add(CFA_XSP16, literal(-6)))
        CFI (cfiCond40) ?RET_LOW load(1, XDATA, add(CFA_XSP16, literal(-5)))
        CFI (cfiCond40) ?RET_HIGH load(1, XDATA, add(CFA_XSP16, literal(-4)))
        CFI (cfiCond40) ?BRET_EXT load(1, XDATA, add(CFA_XSP16, literal(-3)))
        CFI (cfiCond40) DPL0 load(1, XDATA, add(CFA_XSP16, literal(-2)))
        CFI (cfiCond40) DPH0 load(1, XDATA, add(CFA_XSP16, literal(-1)))
        CFI (cfiCond40) CFA_SP SP+0
        CFI (cfiCond40) CFA_XSP16 add(XSP16, 37)
        CFI Block cfiPicker41 Using cfiCommon1
        CFI (cfiPicker41) NoFunction
        CFI (cfiPicker41) Picker
        LCALL   ?Subroutine7 & 0xFFFF
??CrossCallReturnLabel_22:
        MOV     DPTR,#GUI_Context + 29
        RET
        CFI EndBlock cfiCond38
        CFI EndBlock cfiCond39
        CFI EndBlock cfiCond40
        CFI EndBlock cfiPicker41

        RSEG BANK_RELAYS:CODE:REORDER:NOROOT(0)
??GUI_UC_DispString?relay:
        LCALL   ?BDISPATCH
        DATA
        DC24    GUI_UC_DispString

        END
//  161 
//  162 /*************************** End of file ****************************/
// 
// 726 bytes in segment BANKED_CODE
//   6 bytes in segment BANK_RELAYS
//   1 byte  in segment SFR_AN
// 
// 732 bytes of CODE memory
//   0 bytes of DATA memory (+ 1 byte shared)
//
//Errors: none
//Warnings: none
