###############################################################################
#                                                                             #
# IAR C/C++ Compiler V8.10.1.10194/W32 for 8051         14/Jun/2016  16:18:38 #
# Copyright 2004-2011 IAR Systems AB.                                         #
#                                                                             #
#    Core               =  plain                                              #
#    Code model         =  banked                                             #
#    Data model         =  large                                              #
#    Calling convention =  xdata reentrant                                    #
#    Constant location  =  data_rom                                           #
#    Dptr setup         =  1,16                                               #
#    Source file        =  F:\¹âÅÌ×ÊÁÏ\ETC-WSNÎïÁªÍø¹âÅÌ×ÊÁÏ210\ZigBeeÍøÂç\WS #
#                          N-CSÔ´Âë\ZStack-CC2530-2.5.1a\Components\uCGUI\Cor #
#                          e\GUI_DispStringInRectEx.c                         #
#    Command line       =  -f F:\¹âÅÌ×ÊÁÏ\ETC-WSNÎïÁªÍø¹âÅÌ×ÊÁÏ210\ZigBeeÍøÂç #
#                          \WSN-CSÔ´Âë\ZStack-CC2530-2.5.1a\Projects\zstack\U #
#                          tilities\SerialApp\CC2530DB\..\..\..\Tools\CC2530D #
#                          B\f8wCoord.cfg (-DCPU32MHZ -DROOT=__near_func      #
#                          -DMAC_CFG_APP_PENDING_QUEUE=TRUE                   #
#                          -DMAC_CFG_TX_DATA_MAX=5 -DMAC_CFG_TX_MAX=8         #
#                          -DMAC_CFG_RX_MAX=5 -DZDO_COORDINATOR -DRTR_NWK)    #
#                          -f F:\¹âÅÌ×ÊÁÏ\ETC-WSNÎïÁªÍø¹âÅÌ×ÊÁÏ210\ZigBeeÍøÂç #
#                          \WSN-CSÔ´Âë\ZStack-CC2530-2.5.1a\Projects\zstack\U #
#                          tilities\SerialApp\CC2530DB\..\..\..\Tools\CC2530D #
#                          B\f8wConfig.cfg (-DZIGBEEPRO -DSECURE=0            #
#                          -DZG_SECURE_DYNAMIC=0 -DREFLECTOR                  #
#                          -DDEFAULT_CHANLIST=0x00000800                      #
#                          -DZDAPP_CONFIG_PAN_ID=0x1001                       #
#                          -DNWK_START_DELAY=100 -DEXTENDED_JOINING_RANDOM_MA #
#                          SK=0x007F -DBEACON_REQUEST_DELAY=100               #
#                          -DBEACON_REQ_DELAY_MASK=0x00FF                     #
#                          -DLINK_STATUS_JITTER_MASK=0x007F                   #
#                          -DROUTE_EXPIRY_TIME=30 -DAPSC_ACK_WAIT_DURATION_PO #
#                          LLED=3000 -DNWK_INDIRECT_MSG_TIMEOUT=7             #
#                          -DMAX_RREQ_ENTRIES=8 -DAPSC_MAX_FRAME_RETRIES=3    #
#                          -DNWK_MAX_DATA_RETRIES=2                           #
#                          -DMAX_POLL_FAILURE_RETRIES=2 -DMAX_BCAST=9         #
#                          -DAPS_MAX_GROUPS=16 -DMAX_RTG_ENTRIES=40           #
#                          -DNWK_MAX_BINDING_ENTRIES=4                        #
#                          -DMAX_BINDING_CLUSTER_IDS=4 "-DDEFAULT_KEY={0x01,  #
#                          0x03, 0x05, 0x07, 0x09, 0x0B, 0x0D, 0x0F, 0x00,    #
#                          0x02, 0x04, 0x06, 0x08, 0x0A, 0x0C, 0x0D}"         #
#                          -DMAC_MAX_FRAME_SIZE=116                           #
#                          -DZDNWKMGR_MIN_TRANSMISSIONS=20 "-DCONST=const     #
#                          __code" -DGENERIC=__generic                        #
#                          -DRFD_RCVC_ALWAYS_ON=FALSE -DPOLL_RATE=1000        #
#                          -DQUEUED_POLL_RATE=100 -DRESPONSE_POLL_RATE=100)   #
#                          -DREJOIN_POLL_RATE=440 F:\¹âÅÌ×ÊÁÏ\ETC-WSNÎïÁªÍø¹â #
#                          ÅÌ×ÊÁÏ210\ZigBeeÍøÂç\WSN-CSÔ´Âë\ZStack-CC2530-2.5. #
#                          1a\Components\uCGUI\Core\GUI_DispStringInRectEx.c  #
#                          -D HAL_UART=TRUE -D SERIAL_APP_PORT=0 -D COOR -D   #
#                          LCD_SUPPORTED -D NV_INIT -lC                       #
#                          F:\¹âÅÌ×ÊÁÏ\ETC-WSNÎïÁªÍø¹âÅÌ×ÊÁÏ210\ZigBeeÍøÂç\WS #
#                          N-CSÔ´Âë\ZStack-CC2530-2.5.1a\Projects\zstack\Util #
#                          ities\SerialApp\CC2530DB\CoordinatorEB\List\ -lA   #
#                          F:\¹âÅÌ×ÊÁÏ\ETC-WSNÎïÁªÍø¹âÅÌ×ÊÁÏ210\ZigBeeÍøÂç\WS #
#                          N-CSÔ´Âë\ZStack-CC2530-2.5.1a\Projects\zstack\Util #
#                          ities\SerialApp\CC2530DB\CoordinatorEB\List\       #
#                          --diag_suppress Pe001,Pa010 -o                     #
#                          F:\¹âÅÌ×ÊÁÏ\ETC-WSNÎïÁªÍø¹âÅÌ×ÊÁÏ210\ZigBeeÍøÂç\WS #
#                          N-CSÔ´Âë\ZStack-CC2530-2.5.1a\Projects\zstack\Util #
#                          ities\SerialApp\CC2530DB\CoordinatorEB\Obj\ -e     #
#                          --no_code_motion --debug --core=plain --dptr=16,1  #
#                          --data_model=large --code_model=banked             #
#                          --calling_convention=xdata_reentrant               #
#                          --place_constants=data_rom --nr_virtual_regs 16    #
#                          -I F:\¹âÅÌ×ÊÁÏ\ETC-WSNÎïÁªÍø¹âÅÌ×ÊÁÏ210\ZigBeeÍøÂç #
#                          \WSN-CSÔ´Âë\ZStack-CC2530-2.5.1a\Projects\zstack\U #
#                          tilities\SerialApp\CC2530DB\ -I                    #
#                          F:\¹âÅÌ×ÊÁÏ\ETC-WSNÎïÁªÍø¹âÅÌ×ÊÁÏ210\ZigBeeÍøÂç\WS #
#                          N-CSÔ´Âë\ZStack-CC2530-2.5.1a\Projects\zstack\Util #
#                          ities\SerialApp\CC2530DB\..\Public\ -I             #
#                          F:\¹âÅÌ×ÊÁÏ\ETC-WSNÎïÁªÍø¹âÅÌ×ÊÁÏ210\ZigBeeÍøÂç\WS #
#                          N-CSÔ´Âë\ZStack-CC2530-2.5.1a\Projects\zstack\Util #
#                          ities\SerialApp\CC2530DB\..\..\..\..\..\Components #
#                          \uCGUI\Core\ -I F:\¹âÅÌ×ÊÁÏ\ETC-WSNÎïÁªÍø¹âÅÌ×ÊÁÏ2 #
#                          10\ZigBeeÍøÂç\WSN-CSÔ´Âë\ZStack-CC2530-2.5.1a\Proj #
#                          ects\zstack\Utilities\SerialApp\CC2530DB\..\..\..\ #
#                          ..\..\Components\uCGUI\MultiLayer\ -I              #
#                          F:\¹âÅÌ×ÊÁÏ\ETC-WSNÎïÁªÍø¹âÅÌ×ÊÁÏ210\ZigBeeÍøÂç\WS #
#                          N-CSÔ´Âë\ZStack-CC2530-2.5.1a\Projects\zstack\Util #
#                          ities\SerialApp\CC2530DB\..\..\..\..\..\Components #
#                          \uCGUI\Config\ -I F:\¹âÅÌ×ÊÁÏ\ETC-WSNÎïÁªÍø¹âÅÌ×ÊÁ #
#                          Ï210\ZigBeeÍøÂç\WSN-CSÔ´Âë\ZStack-CC2530-2.5.1a\Pr #
#                          ojects\zstack\Utilities\SerialApp\CC2530DB\..\Coor #
#                          dinator\ -I F:\¹âÅÌ×ÊÁÏ\ETC-WSNÎïÁªÍø¹âÅÌ×ÊÁÏ210\Z #
#                          igBeeÍøÂç\WSN-CSÔ´Âë\ZStack-CC2530-2.5.1a\Projects #
#                          \zstack\Utilities\SerialApp\CC2530DB\..\..\..\ZMai #
#                          n\TI2530DB\ -I F:\¹âÅÌ×ÊÁÏ\ETC-WSNÎïÁªÍø¹âÅÌ×ÊÁÏ21 #
#                          0\ZigBeeÍøÂç\WSN-CSÔ´Âë\ZStack-CC2530-2.5.1a\Proje #
#                          cts\zstack\Utilities\SerialApp\CC2530DB\..\..\..\. #
#                          .\..\Components\hal\include\ -I                    #
#                          F:\¹âÅÌ×ÊÁÏ\ETC-WSNÎïÁªÍø¹âÅÌ×ÊÁÏ210\ZigBeeÍøÂç\WS #
#                          N-CSÔ´Âë\ZStack-CC2530-2.5.1a\Projects\zstack\Util #
#                          ities\SerialApp\CC2530DB\..\..\..\..\..\Components #
#                          \hal\target\CC2530EB\ -I                           #
#                          F:\¹âÅÌ×ÊÁÏ\ETC-WSNÎïÁªÍø¹âÅÌ×ÊÁÏ210\ZigBeeÍøÂç\WS #
#                          N-CSÔ´Âë\ZStack-CC2530-2.5.1a\Projects\zstack\Util #
#                          ities\SerialApp\CC2530DB\..\..\..\..\..\Components #
#                          \mac\include\ -I F:\¹âÅÌ×ÊÁÏ\ETC-WSNÎïÁªÍø¹âÅÌ×ÊÁÏ #
#                          210\ZigBeeÍøÂç\WSN-CSÔ´Âë\ZStack-CC2530-2.5.1a\Pro #
#                          jects\zstack\Utilities\SerialApp\CC2530DB\..\..\.. #
#                          \..\..\Components\mac\high_level\ -I               #
#                          F:\¹âÅÌ×ÊÁÏ\ETC-WSNÎïÁªÍø¹âÅÌ×ÊÁÏ210\ZigBeeÍøÂç\WS #
#                          N-CSÔ´Âë\ZStack-CC2530-2.5.1a\Projects\zstack\Util #
#                          ities\SerialApp\CC2530DB\..\..\..\..\..\Components #
#                          \mac\low_level\srf04\ -I                           #
#                          F:\¹âÅÌ×ÊÁÏ\ETC-WSNÎïÁªÍø¹âÅÌ×ÊÁÏ210\ZigBeeÍøÂç\WS #
#                          N-CSÔ´Âë\ZStack-CC2530-2.5.1a\Projects\zstack\Util #
#                          ities\SerialApp\CC2530DB\..\..\..\..\..\Components #
#                          \mac\low_level\srf04\single_chip\ -I               #
#                          F:\¹âÅÌ×ÊÁÏ\ETC-WSNÎïÁªÍø¹âÅÌ×ÊÁÏ210\ZigBeeÍøÂç\WS #
#                          N-CSÔ´Âë\ZStack-CC2530-2.5.1a\Projects\zstack\Util #
#                          ities\SerialApp\CC2530DB\..\..\..\..\..\Components #
#                          \mt\ -I F:\¹âÅÌ×ÊÁÏ\ETC-WSNÎïÁªÍø¹âÅÌ×ÊÁÏ210\ZigBe #
#                          eÍøÂç\WSN-CSÔ´Âë\ZStack-CC2530-2.5.1a\Projects\zst #
#                          ack\Utilities\SerialApp\CC2530DB\..\..\..\..\..\Co #
#                          mponents\osal\include\ -I                          #
#                          F:\¹âÅÌ×ÊÁÏ\ETC-WSNÎïÁªÍø¹âÅÌ×ÊÁÏ210\ZigBeeÍøÂç\WS #
#                          N-CSÔ´Âë\ZStack-CC2530-2.5.1a\Projects\zstack\Util #
#                          ities\SerialApp\CC2530DB\..\..\..\..\..\Components #
#                          \services\saddr\ -I F:\¹âÅÌ×ÊÁÏ\ETC-WSNÎïÁªÍø¹âÅÌ× #
#                          ÊÁÏ210\ZigBeeÍøÂç\WSN-CSÔ´Âë\ZStack-CC2530-2.5.1a\ #
#                          Projects\zstack\Utilities\SerialApp\CC2530DB\..\.. #
#                          \..\..\..\Components\services\sdata\ -I            #
#                          F:\¹âÅÌ×ÊÁÏ\ETC-WSNÎïÁªÍø¹âÅÌ×ÊÁÏ210\ZigBeeÍøÂç\WS #
#                          N-CSÔ´Âë\ZStack-CC2530-2.5.1a\Projects\zstack\Util #
#                          ities\SerialApp\CC2530DB\..\..\..\..\..\Components #
#                          \stack\af\ -I F:\¹âÅÌ×ÊÁÏ\ETC-WSNÎïÁªÍø¹âÅÌ×ÊÁÏ210 #
#                          \ZigBeeÍøÂç\WSN-CSÔ´Âë\ZStack-CC2530-2.5.1a\Projec #
#                          ts\zstack\Utilities\SerialApp\CC2530DB\..\..\..\.. #
#                          \..\Components\stack\nwk\ -I                       #
#                          F:\¹âÅÌ×ÊÁÏ\ETC-WSNÎïÁªÍø¹âÅÌ×ÊÁÏ210\ZigBeeÍøÂç\WS #
#                          N-CSÔ´Âë\ZStack-CC2530-2.5.1a\Projects\zstack\Util #
#                          ities\SerialApp\CC2530DB\..\..\..\..\..\Components #
#                          \stack\sapi\ -I F:\¹âÅÌ×ÊÁÏ\ETC-WSNÎïÁªÍø¹âÅÌ×ÊÁÏ2 #
#                          10\ZigBeeÍøÂç\WSN-CSÔ´Âë\ZStack-CC2530-2.5.1a\Proj #
#                          ects\zstack\Utilities\SerialApp\CC2530DB\..\..\..\ #
#                          ..\..\Components\stack\sec\ -I                     #
#                          F:\¹âÅÌ×ÊÁÏ\ETC-WSNÎïÁªÍø¹âÅÌ×ÊÁÏ210\ZigBeeÍøÂç\WS #
#                          N-CSÔ´Âë\ZStack-CC2530-2.5.1a\Projects\zstack\Util #
#                          ities\SerialApp\CC2530DB\..\..\..\..\..\Components #
#                          \stack\sys\ -I F:\¹âÅÌ×ÊÁÏ\ETC-WSNÎïÁªÍø¹âÅÌ×ÊÁÏ21 #
#                          0\ZigBeeÍøÂç\WSN-CSÔ´Âë\ZStack-CC2530-2.5.1a\Proje #
#                          cts\zstack\Utilities\SerialApp\CC2530DB\..\..\..\. #
#                          .\..\Components\stack\zdo\ -I                      #
#                          F:\¹âÅÌ×ÊÁÏ\ETC-WSNÎïÁªÍø¹âÅÌ×ÊÁÏ210\ZigBeeÍøÂç\WS #
#                          N-CSÔ´Âë\ZStack-CC2530-2.5.1a\Projects\zstack\Util #
#                          ities\SerialApp\CC2530DB\..\..\..\..\..\Components #
#                          \zmac\ -I F:\¹âÅÌ×ÊÁÏ\ETC-WSNÎïÁªÍø¹âÅÌ×ÊÁÏ210\Zig #
#                          BeeÍøÂç\WSN-CSÔ´Âë\ZStack-CC2530-2.5.1a\Projects\z #
#                          stack\Utilities\SerialApp\CC2530DB\..\..\..\..\..\ #
#                          Components\zmac\f8w\ -Ohz --require_prototypes     #
#    List file          =  F:\¹âÅÌ×ÊÁÏ\ETC-WSNÎïÁªÍø¹âÅÌ×ÊÁÏ210\ZigBeeÍøÂç\WS #
#                          N-CSÔ´Âë\ZStack-CC2530-2.5.1a\Projects\zstack\Util #
#                          ities\SerialApp\CC2530DB\CoordinatorEB\List\GUI_Di #
#                          spStringInRectEx.lst                               #
#    Object file        =  F:\¹âÅÌ×ÊÁÏ\ETC-WSNÎïÁªÍø¹âÅÌ×ÊÁÏ210\ZigBeeÍøÂç\WS #
#                          N-CSÔ´Âë\ZStack-CC2530-2.5.1a\Projects\zstack\Util #
#                          ities\SerialApp\CC2530DB\CoordinatorEB\Obj\GUI_Dis #
#                          pStringInRectEx.r51                                #
#                                                                             #
#                                                                             #
###############################################################################

F:\¹âÅÌ×ÊÁÏ\ETC-WSNÎïÁªÍø¹âÅÌ×ÊÁÏ210\ZigBeeÍøÂç\WSN-CSÔ´Âë\ZStack-CC2530-2.5.1a\Components\uCGUI\Core\GUI_DispStringInRectEx.c
      1          /*
      2          *********************************************************************************************************
      3          *                                                uC/GUI
      4          *                        Universal graphic software for embedded applications
      5          *
      6          *                       (c) Copyright 2002, Micrium Inc., Weston, FL
      7          *                       (c) Copyright 2002, SEGGER Microcontroller Systeme GmbH
      8          *
      9          *              µC/GUI is protected by international copyright laws. Knowledge of the
     10          *              source code may not be used to write a similar product. This file may
     11          *              only be used in accordance with a license and should not be redistributed
     12          *              in any way. We appreciate your understanding and fairness.
     13          *
     14          ----------------------------------------------------------------------
     15          File        : GUI_DispStringInRectEx.c
     16          Purpose     : Implementation of GUI_DispStringInRectEx
     17          ---------------------------END-OF-HEADER------------------------------
     18          */
     19          
     20          #include <stddef.h>
     21          #include "GUI_Private.h"

   \                                 In  segment SFR_AN, at 0xa8
   \   union <unnamed> volatile __sfr _A_IEN0
   \                     _A_IEN0:
   \   000000                DS 1
     22          #if GUI_WINSUPPORT
     23            #include "WM.h"
     24          #endif
     25          
     26          #if GUI_SUPPORT_ROTATION
     27          
     28          /*********************************************************************
     29          *
     30          *       Global data
     31          *
     32          **********************************************************************
     33          */
     34          

   \                                 In  segment XDATA_Z, align 1, keep-with-next
     35          GUI_RECT GUI_RectDispString; /* Used by LCD_Rotate... */
   \                     GUI_RectDispString:
   \   000000                DS 8
   \   000008                REQUIRE __INIT_XDATA_Z
     36          
     37          /*********************************************************************
     38          *
     39          *       Static code
     40          *
     41          **********************************************************************
     42          */

   \                                 In  segment BANKED_CODE, align 1, keep-with-next
     43          static const GUI_ROTATION * _SetRotation(const GUI_ROTATION* pLCD_Api) {
   \                     _SetRotation:
   \   000000   C082         PUSH    DPL
   \   000002   C083         PUSH    DPH
   \   000004                ; Saved register size: 2
   \   000004                ; Auto size: 0
     44            const GUI_ROTATION * pLCD_ApiOld;
     45            halIntState_t state;
     46            GUI_LOCK(state);
   \   000004   A2AF         MOV     C,0xa8.7
   \   000006   E4           CLR     A
   \   000007   33           RLC     A
   \   000008   FC           MOV     R4,A
   \   000009   C2AF         CLR     0xa8.7
     47            pLCD_ApiOld = GUI_pLCD_APIList;
   \   00000B   90....       MOV     DPTR,#GUI_pLCD_APIList
   \   00000E   E0           MOVX    A,@DPTR
   \   00000F   F8           MOV     R0,A
   \   000010   A3           INC     DPTR
   \   000011   E0           MOVX    A,@DPTR
   \   000012   F9           MOV     R1,A
     48            if (pLCD_Api) {
   \   000013   EA           MOV     A,R2
   \   000014   4B           ORL     A,R3
   \   000015   90....       MOV     DPTR,#GUI_Context + 15
   \   000018   6005         JZ      ??_SetRotation_0
     49              GUI_Context.pClipRect_HL = NULL;           /* Do not perform high level clipping in rotated mode */
   \   00001A   E4           CLR     A
   \   00001B   F0           MOVX    @DPTR,A
   \   00001C   A3           INC     DPTR
   \   00001D   8006         SJMP    ??_SetRotation_1
     50            } else {
     51              GUI_Context.pClipRect_HL = &GUI_Context.ClipRect;
   \                     ??_SetRotation_0:
   \   00001F   74..         MOV     A,#(GUI_Context + 4) & 0xff
   \   000021   F0           MOVX    @DPTR,A
   \   000022   A3           INC     DPTR
   \   000023   74..         MOV     A,#((GUI_Context + 4) >> 8) & 0xff
   \                     ??_SetRotation_1:
   \   000025   F0           MOVX    @DPTR,A
     52            }
     53            GUI_pLCD_APIList = pLCD_Api;
   \   000026   90....       MOV     DPTR,#GUI_pLCD_APIList
   \   000029   EA           MOV     A,R2
   \   00002A   F0           MOVX    @DPTR,A
   \   00002B   A3           INC     DPTR
   \   00002C   EB           MOV     A,R3
   \   00002D   F0           MOVX    @DPTR,A
     54            GUI_UNLOCK(state);
   \   00002E   EC           MOV     A,R4
   \   00002F   A2E0         MOV     C,0xE0 /* A   */.0
   \   000031   92AF         MOV     0xa8.7,C
     55            return pLCD_ApiOld;
   \   000033   E8           MOV     A,R0
   \   000034   FA           MOV     R2,A
   \   000035   E9           MOV     A,R1
   \   000036   FB           MOV     R3,A
   \   000037   D083         POP     DPH
   \   000039   D082         POP     DPL
   \   00003B   02....       LJMP    ?BRET
   \   00003E                REQUIRE _A_IEN0
     56          }
     57          
     58          /*********************************************************************
     59          *
     60          *       Exported code
     61          *
     62          **********************************************************************
     63          */
     64          /*********************************************************************
     65          *
     66          *       GUI_DispStringInRectEx
     67          */

   \                                 In  segment BANKED_CODE, align 1, keep-with-next
     68          void GUI_DispStringInRectEx(const char GUI_UNI_PTR *s, GUI_RECT* pRect, int TextAlign, int MaxLen, const GUI_ROTATION * pLCD_Api) {
   \                     GUI_DispStringInRectEx:
   \   000000   74EC         MOV     A,#-0x14
   \   000002   12....       LCALL   ?BANKED_ENTER_XDATA
   \   000005                ; Saved register size: 20
   \   000005                ; Auto size: 24
   \   000005   74E8         MOV     A,#-0x18
   \   000007   12....       LCALL   ?ALLOC_XSTACK8
   \   00000A   8A..         MOV     ?V0 + 0,R2
   \   00000C   8B..         MOV     ?V0 + 1,R3
   \   00000E   EC           MOV     A,R4
   \   00000F   FA           MOV     R2,A
   \   000010   ED           MOV     A,R5
   \   000011   FB           MOV     R3,A
   \   000012   742C         MOV     A,#0x2c
   \   000014   12....       LCALL   ?XSTACK_DISP0_8
   \   000017   E0           MOVX    A,@DPTR
   \   000018   F5..         MOV     ?V0 + 8,A
   \   00001A   A3           INC     DPTR
   \   00001B   E0           MOVX    A,@DPTR
   \   00001C   F5..         MOV     ?V0 + 9,A
   \   00001E   742E         MOV     A,#0x2e
   \   000020   12....       LCALL   ?XSTACK_DISP0_8
   \   000023   E0           MOVX    A,@DPTR
   \   000024   F5..         MOV     ?V0 + 6,A
   \   000026   A3           INC     DPTR
   \   000027   E0           MOVX    A,@DPTR
   \   000028   F5..         MOV     ?V0 + 7,A
   \   00002A   7430         MOV     A,#0x30
   \   00002C   12....       LCALL   ?XSTACK_DISP0_8
   \   00002F   E0           MOVX    A,@DPTR
   \   000030   FE           MOV     R6,A
   \   000031   A3           INC     DPTR
   \   000032   E0           MOVX    A,@DPTR
   \   000033   FF           MOV     R7,A
     69            const GUI_ROTATION * pLCD_ApiOld;
     70            if (pLCD_Api == GUI_ROTATE_0) {
   \   000034   EE           MOV     A,R6
   \   000035   4F           ORL     A,R7
   \   000036   7019         JNZ     ??GUI_DispStringInRectEx_0
     71              /* Do nothing else but calling GUI_DispStringInRectMax if pLCD_Api == GUI_ROTATE_0 */
     72              GUI_DispStringInRectMax(s, pRect, TextAlign, MaxLen);
   \   000038                ; Setup parameters for call to function GUI_DispStringInRectMax
   \   000038   78..         MOV     R0,#?V0 + 6
   \   00003A   12....       LCALL   ?PUSH_XSTACK_I_TWO
   \   00003D   78..         MOV     R0,#?V0 + 8
   \   00003F   12....       LCALL   ?PUSH_XSTACK_I_TWO
   \   000042   AA..         MOV     R2,?V0 + 0
   \   000044   AB..         MOV     R3,?V0 + 1
   \   000046   12....       LCALL   ??GUI_DispStringInRectMax?relay
   \   000049   7404         MOV     A,#0x4
   \   00004B   12....       LCALL   ?DEALLOC_XSTACK8
   \   00004E   02....       LJMP    ??GUI_DispStringInRectEx_1 & 0xFFFF
     73            } else {
     74              #if (!GUI_WINSUPPORT)
     75                GUI_RECT Rect_Old;
     76              #else
     77                const GUI_RECT * pOldClipRect = NULL;
     78              #endif
     79              GUI_RECT rClip, rText = {0};
   \                     ??GUI_DispStringInRectEx_0:
   \   000051   90....       MOV     DPTR,#`?<Constant {0}>`
   \   000054   C082         PUSH    DPL
   \   000056   85..82       MOV     DPL,?XSP + 0
   \   000059   85..83       MOV     DPH,?XSP + 1
   \   00005C   AC82         MOV     R4,DPL
   \   00005E   AD83         MOV     R5,DPH
   \   000060   7583..       MOV     DPH,#(`?<Constant {0}>` >> 8) & 0xff
   \   000063   D082         POP     DPL
   \   000065   7408         MOV     A,#0x8
   \   000067   12....       LCALL   ?MOVE_LONG8_XDATA_XDATA
     80              halIntState_t state;
     81              GUI_LOCK(state);
   \   00006A   A2AF         MOV     C,0xa8.7
   \   00006C   33           RLC     A
   \   00006D   F5..         MOV     ?V0 + 4,A
   \   00006F   C2AF         CLR     0xa8.7
     82              /* Set the clip rectangle */
     83              if (pRect) {
   \   000071   EA           MOV     A,R2
   \   000072   4B           ORL     A,R3
   \   000073   606F         JZ      ??GUI_DispStringInRectEx_2
     84                rText = *pRect;
   \   000075   8A82         MOV     DPL,R2
   \   000077   C082         PUSH    DPL
   \   000079   85..82       MOV     DPL,?XSP + 0
   \   00007C   85..83       MOV     DPH,?XSP + 1
   \   00007F   AC82         MOV     R4,DPL
   \   000081   AD83         MOV     R5,DPH
   \   000083   8B83         MOV     DPH,R3
   \   000085   D082         POP     DPL
   \   000087   7408         MOV     A,#0x8
   \   000089   12....       LCALL   ?MOVE_LONG8_XDATA_XDATA
     85                GUI_RectDispString = rText;
   \   00008C   85..82       MOV     DPL,?XSP + 0
   \   00008F   85..83       MOV     DPH,?XSP + 1
   \   000092   7C..         MOV     R4,#GUI_RectDispString & 0xff
   \   000094   7D..         MOV     R5,#(GUI_RectDispString >> 8) & 0xff
   \   000096   7408         MOV     A,#0x8
   \   000098   12....       LCALL   ?MOVE_LONG8_XDATA_XDATA
     86                #if (GUI_WINSUPPORT)
     87                  pOldClipRect = WM_SetUserClipRect(pRect);
     88                  if (pOldClipRect) {
     89                    GUI__IntersectRects(&rClip, pRect, pOldClipRect);
     90                    WM_SetUserClipRect(&rClip);
     91                  }
     92                #else
     93                  Rect_Old = GUI_Context.ClipRect;
   \   00009B   90....       MOV     DPTR,#GUI_Context + 4
   \   00009E   C082         PUSH    DPL
   \   0000A0   7408         MOV     A,#0x8
   \   0000A2   12....       LCALL   ?XSTACK_DISP0_8
   \   0000A5   AC82         MOV     R4,DPL
   \   0000A7   AD83         MOV     R5,DPH
   \   0000A9   7583..       MOV     DPH,#((GUI_Context + 4) >> 8) & 0xff
   \   0000AC   D082         POP     DPL
   \   0000AE   7408         MOV     A,#0x8
   \   0000B0   12....       LCALL   ?MOVE_LONG8_XDATA_XDATA
     94                  GUI__IntersectRects(&rClip, pRect, &Rect_Old);
   \   0000B3                ; Setup parameters for call to function GUI__IntersectRects
   \   0000B3   7408         MOV     A,#0x8
   \   0000B5   12....       LCALL   ?XSTACK_DISP0_8
   \   0000B8   8582..       MOV     ?V0 + 2,DPL
   \   0000BB   8583..       MOV     ?V0 + 3,DPH
   \   0000BE   78..         MOV     R0,#?V0 + 2
   \   0000C0   12....       LCALL   ?PUSH_XSTACK_I_TWO
   \   0000C3   EA           MOV     A,R2
   \   0000C4   FC           MOV     R4,A
   \   0000C5   EB           MOV     A,R3
   \   0000C6   FD           MOV     R5,A
   \   0000C7   7412         MOV     A,#0x12
   \   0000C9   12....       LCALL   ?XSTACK_DISP0_8
   \   0000CC   AA82         MOV     R2,DPL
   \   0000CE   AB83         MOV     R3,DPH
   \   0000D0   12....       LCALL   ??GUI__IntersectRects?relay
   \   0000D3   7402         MOV     A,#0x2
   \   0000D5   12....       LCALL   ?DEALLOC_XSTACK8
     95                  LCD_SetClipRectEx(&rClip);
   \   0000D8                ; Setup parameters for call to function LCD_SetClipRectEx
   \   0000D8   7410         MOV     A,#0x10
   \   0000DA   12....       LCALL   ?XSTACK_DISP0_8
   \   0000DD   AA82         MOV     R2,DPL
   \   0000DF   AB83         MOV     R3,DPH
   \   0000E1   12....       LCALL   ??LCD_SetClipRectEx?relay
     96                #endif
     97              }
     98              pLCD_ApiOld = _SetRotation(pLCD_Api);                /* Set the new function pointer for rotating text */
   \                     ??GUI_DispStringInRectEx_2:
   \   0000E4                ; Setup parameters for call to function _SetRotation
   \   0000E4   EE           MOV     A,R6
   \   0000E5   FA           MOV     R2,A
   \   0000E6   EF           MOV     A,R7
   \   0000E7   FB           MOV     R3,A
   \   0000E8   12....       LCALL   ??_SetRotation?relay
   \   0000EB   8A..         MOV     ?V0 + 2,R2
   \   0000ED   8B..         MOV     ?V0 + 3,R3
     99              pLCD_Api->pfRect2TextRect(&rText);                   /* Calculate the text rectangle */
   \   0000EF                ; Setup parameters for indirect call
   \   0000EF   85..82       MOV     DPL,?XSP + 0
   \   0000F2   85..83       MOV     DPH,?XSP + 1
   \   0000F5   AA82         MOV     R2,DPL
   \   0000F7   AB83         MOV     R3,DPH
   \   0000F9   8E82         MOV     DPL,R6
   \   0000FB   8F83         MOV     DPH,R7
   \   0000FD   A3           INC     DPTR
   \   0000FE   A3           INC     DPTR
   \   0000FF   E0           MOVX    A,@DPTR
   \   000100   F8           MOV     R0,A
   \   000101   A3           INC     DPTR
   \   000102   E0           MOVX    A,@DPTR
   \   000103   F583         MOV     DPH,A
   \   000105   8882         MOV     DPL,R0
   \   000107   12....       LCALL   ?CALL_IND
    100              GUI__DispStringInRect(s, &rText, TextAlign, MaxLen); /* Display the string */
   \   00010A                ; Setup parameters for call to function GUI__DispStringInRect
   \   00010A   78..         MOV     R0,#?V0 + 6
   \   00010C   12....       LCALL   ?PUSH_XSTACK_I_TWO
   \   00010F   78..         MOV     R0,#?V0 + 8
   \   000111   12....       LCALL   ?PUSH_XSTACK_I_TWO
   \   000114   7404         MOV     A,#0x4
   \   000116   12....       LCALL   ?XSTACK_DISP0_8
   \   000119   AC82         MOV     R4,DPL
   \   00011B   AD83         MOV     R5,DPH
   \   00011D   AA..         MOV     R2,?V0 + 0
   \   00011F   AB..         MOV     R3,?V0 + 1
   \   000121   12....       LCALL   ??GUI__DispStringInRect?relay
   \   000124   7404         MOV     A,#0x4
   \   000126   12....       LCALL   ?DEALLOC_XSTACK8
    101              /* Restore old clipping rectangle */
    102              #if (GUI_WINSUPPORT)
    103                WM_SetUserClipRect(pOldClipRect);
    104              #else
    105                LCD_SetClipRectEx(&Rect_Old);
   \   000129                ; Setup parameters for call to function LCD_SetClipRectEx
   \   000129   7408         MOV     A,#0x8
   \   00012B   12....       LCALL   ?XSTACK_DISP0_8
   \   00012E   AA82         MOV     R2,DPL
   \   000130   AB83         MOV     R3,DPH
   \   000132   12....       LCALL   ??LCD_SetClipRectEx?relay
    106              #endif
    107              _SetRotation(pLCD_ApiOld);
   \   000135                ; Setup parameters for call to function _SetRotation
   \   000135   AA..         MOV     R2,?V0 + 2
   \   000137   AB..         MOV     R3,?V0 + 3
   \   000139   12....       LCALL   ??_SetRotation?relay
    108              GUI_UNLOCK(state);
   \   00013C   E5..         MOV     A,?V0 + 4
   \   00013E   A2E0         MOV     C,0xE0 /* A   */.0
   \   000140   92AF         MOV     0xa8.7,C
    109            }
    110          }
   \                     ??GUI_DispStringInRectEx_1:
   \   000142   7418         MOV     A,#0x18
   \   000144   12....       LCALL   ?DEALLOC_XSTACK8
   \   000147   7F0C         MOV     R7,#0xc
   \   000149   02....       LJMP    ?BANKED_LEAVE_XDATA
   \   00014C                REQUIRE _A_IEN0

   \                                 In  segment BANK_RELAYS, align 1
   \                     ??_SetRotation?relay:
   \   000000   12....       LCALL   ?BDISPATCH
   \   000003   ......       DC24    _SetRotation

   \                                 In  segment BANK_RELAYS, align 1
   \                     ??GUI_DispStringInRectEx?relay:
   \   000000   12....       LCALL   ?BDISPATCH
   \   000003   ......       DC24    GUI_DispStringInRectEx

   \                                 In  segment XDATA_ROM_C, align 1
   \                     `?<Constant {0}>`:
   \   000000   0000         DW 0
   \   000002   00000000     DB 0, 0, 0, 0, 0, 0
   \            0000    
    111          
    112          #else                                 /* Avoid empty object files */
    113          void GUI_DispStringInRectEx_C(void);
    114          void GUI_DispStringInRectEx_C(void) {}
    115          #endif
    116          
    117          /*************************** End of file ****************************/

   Maximum stack usage in bytes:

     Function                     ISTACK PSTACK XSTACK
     --------                     ------ ------ ------
     GUI_DispStringInRectEx           2      0     54
       -> GUI_DispStringInRectMax     0      0     96
       -> GUI__IntersectRects         0      0     92
       -> LCD_SetClipRectEx           0      0     88
       -> _SetRotation                0      0     88
       -> GUI__DispStringInRect       0      0     96
       -> LCD_SetClipRectEx           0      0     88
       -> _SetRotation                0      0     88
     _SetRotation                     2      0     44


   Segment part sizes:

     Function/Label                 Bytes
     --------------                 -----
     _A_IEN0                           1
     GUI_RectDispString                8
     _SetRotation                     62
     GUI_DispStringInRectEx          332
     ??_SetRotation?relay              6
     ??GUI_DispStringInRectEx?relay    6
     ?<Constant {0}>                   8

 
 394 bytes in segment BANKED_CODE
  12 bytes in segment BANK_RELAYS
   1 byte  in segment SFR_AN
   8 bytes in segment XDATA_ROM_C
   8 bytes in segment XDATA_Z
 
 406 bytes of CODE  memory
   8 bytes of CONST memory
   0 bytes of DATA  memory (+ 1 byte shared)
   8 bytes of XDATA memory

Errors: none
Warnings: none
