###############################################################################
#                                                                             #
# IAR C/C++ Compiler V8.10.1.10194/W32 for 8051         14/Jun/2016  16:18:51 #
# Copyright 2004-2011 IAR Systems AB.                                         #
#                                                                             #
#    Core               =  plain                                              #
#    Code model         =  banked                                             #
#    Data model         =  large                                              #
#    Calling convention =  xdata reentrant                                    #
#    Constant location  =  data_rom                                           #
#    Dptr setup         =  1,16                                               #
#    Source file        =  F:\นโลฬืสมฯ\ETC-WSNฮ๏มชอ๘นโลฬืสมฯ210\ZigBeeอ๘ย็\WS #
#                          N-CSิดย๋\ZStack-CC2530-2.5.1a\Components\uCGUI\Cor #
#                          e\GUI__CalcTextRect.c                              #
#    Command line       =  -f F:\นโลฬืสมฯ\ETC-WSNฮ๏มชอ๘นโลฬืสมฯ210\ZigBeeอ๘ย็ #
#                          \WSN-CSิดย๋\ZStack-CC2530-2.5.1a\Projects\zstack\U #
#                          tilities\SerialApp\CC2530DB\..\..\..\Tools\CC2530D #
#                          B\f8wCoord.cfg (-DCPU32MHZ -DROOT=__near_func      #
#                          -DMAC_CFG_APP_PENDING_QUEUE=TRUE                   #
#                          -DMAC_CFG_TX_DATA_MAX=5 -DMAC_CFG_TX_MAX=8         #
#                          -DMAC_CFG_RX_MAX=5 -DZDO_COORDINATOR -DRTR_NWK)    #
#                          -f F:\นโลฬืสมฯ\ETC-WSNฮ๏มชอ๘นโลฬืสมฯ210\ZigBeeอ๘ย็ #
#                          \WSN-CSิดย๋\ZStack-CC2530-2.5.1a\Projects\zstack\U #
#                          tilities\SerialApp\CC2530DB\..\..\..\Tools\CC2530D #
#                          B\f8wConfig.cfg (-DZIGBEEPRO -DSECURE=0            #
#                          -DZG_SECURE_DYNAMIC=0 -DREFLECTOR                  #
#                          -DDEFAULT_CHANLIST=0x00000800                      #
#                          -DZDAPP_CONFIG_PAN_ID=0x1001                       #
#                          -DNWK_START_DELAY=100 -DEXTENDED_JOINING_RANDOM_MA #
#                          SK=0x007F -DBEACON_REQUEST_DELAY=100               #
#                          -DBEACON_REQ_DELAY_MASK=0x00FF                     #
#                          -DLINK_STATUS_JITTER_MASK=0x007F                   #
#                          -DROUTE_EXPIRY_TIME=30 -DAPSC_ACK_WAIT_DURATION_PO #
#                          LLED=3000 -DNWK_INDIRECT_MSG_TIMEOUT=7             #
#                          -DMAX_RREQ_ENTRIES=8 -DAPSC_MAX_FRAME_RETRIES=3    #
#                          -DNWK_MAX_DATA_RETRIES=2                           #
#                          -DMAX_POLL_FAILURE_RETRIES=2 -DMAX_BCAST=9         #
#                          -DAPS_MAX_GROUPS=16 -DMAX_RTG_ENTRIES=40           #
#                          -DNWK_MAX_BINDING_ENTRIES=4                        #
#                          -DMAX_BINDING_CLUSTER_IDS=4 "-DDEFAULT_KEY={0x01,  #
#                          0x03, 0x05, 0x07, 0x09, 0x0B, 0x0D, 0x0F, 0x00,    #
#                          0x02, 0x04, 0x06, 0x08, 0x0A, 0x0C, 0x0D}"         #
#                          -DMAC_MAX_FRAME_SIZE=116                           #
#                          -DZDNWKMGR_MIN_TRANSMISSIONS=20 "-DCONST=const     #
#                          __code" -DGENERIC=__generic                        #
#                          -DRFD_RCVC_ALWAYS_ON=FALSE -DPOLL_RATE=1000        #
#                          -DQUEUED_POLL_RATE=100 -DRESPONSE_POLL_RATE=100)   #
#                          -DREJOIN_POLL_RATE=440 F:\นโลฬืสมฯ\ETC-WSNฮ๏มชอ๘นโ #
#                          ลฬืสมฯ210\ZigBeeอ๘ย็\WSN-CSิดย๋\ZStack-CC2530-2.5. #
#                          1a\Components\uCGUI\Core\GUI__CalcTextRect.c -D    #
#                          HAL_UART=TRUE -D SERIAL_APP_PORT=0 -D COOR -D      #
#                          LCD_SUPPORTED -D NV_INIT -lC                       #
#                          F:\นโลฬืสมฯ\ETC-WSNฮ๏มชอ๘นโลฬืสมฯ210\ZigBeeอ๘ย็\WS #
#                          N-CSิดย๋\ZStack-CC2530-2.5.1a\Projects\zstack\Util #
#                          ities\SerialApp\CC2530DB\CoordinatorEB\List\ -lA   #
#                          F:\นโลฬืสมฯ\ETC-WSNฮ๏มชอ๘นโลฬืสมฯ210\ZigBeeอ๘ย็\WS #
#                          N-CSิดย๋\ZStack-CC2530-2.5.1a\Projects\zstack\Util #
#                          ities\SerialApp\CC2530DB\CoordinatorEB\List\       #
#                          --diag_suppress Pe001,Pa010 -o                     #
#                          F:\นโลฬืสมฯ\ETC-WSNฮ๏มชอ๘นโลฬืสมฯ210\ZigBeeอ๘ย็\WS #
#                          N-CSิดย๋\ZStack-CC2530-2.5.1a\Projects\zstack\Util #
#                          ities\SerialApp\CC2530DB\CoordinatorEB\Obj\ -e     #
#                          --no_code_motion --debug --core=plain --dptr=16,1  #
#                          --data_model=large --code_model=banked             #
#                          --calling_convention=xdata_reentrant               #
#                          --place_constants=data_rom --nr_virtual_regs 16    #
#                          -I F:\นโลฬืสมฯ\ETC-WSNฮ๏มชอ๘นโลฬืสมฯ210\ZigBeeอ๘ย็ #
#                          \WSN-CSิดย๋\ZStack-CC2530-2.5.1a\Projects\zstack\U #
#                          tilities\SerialApp\CC2530DB\ -I                    #
#                          F:\นโลฬืสมฯ\ETC-WSNฮ๏มชอ๘นโลฬืสมฯ210\ZigBeeอ๘ย็\WS #
#                          N-CSิดย๋\ZStack-CC2530-2.5.1a\Projects\zstack\Util #
#                          ities\SerialApp\CC2530DB\..\Public\ -I             #
#                          F:\นโลฬืสมฯ\ETC-WSNฮ๏มชอ๘นโลฬืสมฯ210\ZigBeeอ๘ย็\WS #
#                          N-CSิดย๋\ZStack-CC2530-2.5.1a\Projects\zstack\Util #
#                          ities\SerialApp\CC2530DB\..\..\..\..\..\Components #
#                          \uCGUI\Core\ -I F:\นโลฬืสมฯ\ETC-WSNฮ๏มชอ๘นโลฬืสมฯ2 #
#                          10\ZigBeeอ๘ย็\WSN-CSิดย๋\ZStack-CC2530-2.5.1a\Proj #
#                          ects\zstack\Utilities\SerialApp\CC2530DB\..\..\..\ #
#                          ..\..\Components\uCGUI\MultiLayer\ -I              #
#                          F:\นโลฬืสมฯ\ETC-WSNฮ๏มชอ๘นโลฬืสมฯ210\ZigBeeอ๘ย็\WS #
#                          N-CSิดย๋\ZStack-CC2530-2.5.1a\Projects\zstack\Util #
#                          ities\SerialApp\CC2530DB\..\..\..\..\..\Components #
#                          \uCGUI\Config\ -I F:\นโลฬืสมฯ\ETC-WSNฮ๏มชอ๘นโลฬืสม #
#                          ฯ210\ZigBeeอ๘ย็\WSN-CSิดย๋\ZStack-CC2530-2.5.1a\Pr #
#                          ojects\zstack\Utilities\SerialApp\CC2530DB\..\Coor #
#                          dinator\ -I F:\นโลฬืสมฯ\ETC-WSNฮ๏มชอ๘นโลฬืสมฯ210\Z #
#                          igBeeอ๘ย็\WSN-CSิดย๋\ZStack-CC2530-2.5.1a\Projects #
#                          \zstack\Utilities\SerialApp\CC2530DB\..\..\..\ZMai #
#                          n\TI2530DB\ -I F:\นโลฬืสมฯ\ETC-WSNฮ๏มชอ๘นโลฬืสมฯ21 #
#                          0\ZigBeeอ๘ย็\WSN-CSิดย๋\ZStack-CC2530-2.5.1a\Proje #
#                          cts\zstack\Utilities\SerialApp\CC2530DB\..\..\..\. #
#                          .\..\Components\hal\include\ -I                    #
#                          F:\นโลฬืสมฯ\ETC-WSNฮ๏มชอ๘นโลฬืสมฯ210\ZigBeeอ๘ย็\WS #
#                          N-CSิดย๋\ZStack-CC2530-2.5.1a\Projects\zstack\Util #
#                          ities\SerialApp\CC2530DB\..\..\..\..\..\Components #
#                          \hal\target\CC2530EB\ -I                           #
#                          F:\นโลฬืสมฯ\ETC-WSNฮ๏มชอ๘นโลฬืสมฯ210\ZigBeeอ๘ย็\WS #
#                          N-CSิดย๋\ZStack-CC2530-2.5.1a\Projects\zstack\Util #
#                          ities\SerialApp\CC2530DB\..\..\..\..\..\Components #
#                          \mac\include\ -I F:\นโลฬืสมฯ\ETC-WSNฮ๏มชอ๘นโลฬืสมฯ #
#                          210\ZigBeeอ๘ย็\WSN-CSิดย๋\ZStack-CC2530-2.5.1a\Pro #
#                          jects\zstack\Utilities\SerialApp\CC2530DB\..\..\.. #
#                          \..\..\Components\mac\high_level\ -I               #
#                          F:\นโลฬืสมฯ\ETC-WSNฮ๏มชอ๘นโลฬืสมฯ210\ZigBeeอ๘ย็\WS #
#                          N-CSิดย๋\ZStack-CC2530-2.5.1a\Projects\zstack\Util #
#                          ities\SerialApp\CC2530DB\..\..\..\..\..\Components #
#                          \mac\low_level\srf04\ -I                           #
#                          F:\นโลฬืสมฯ\ETC-WSNฮ๏มชอ๘นโลฬืสมฯ210\ZigBeeอ๘ย็\WS #
#                          N-CSิดย๋\ZStack-CC2530-2.5.1a\Projects\zstack\Util #
#                          ities\SerialApp\CC2530DB\..\..\..\..\..\Components #
#                          \mac\low_level\srf04\single_chip\ -I               #
#                          F:\นโลฬืสมฯ\ETC-WSNฮ๏มชอ๘นโลฬืสมฯ210\ZigBeeอ๘ย็\WS #
#                          N-CSิดย๋\ZStack-CC2530-2.5.1a\Projects\zstack\Util #
#                          ities\SerialApp\CC2530DB\..\..\..\..\..\Components #
#                          \mt\ -I F:\นโลฬืสมฯ\ETC-WSNฮ๏มชอ๘นโลฬืสมฯ210\ZigBe #
#                          eอ๘ย็\WSN-CSิดย๋\ZStack-CC2530-2.5.1a\Projects\zst #
#                          ack\Utilities\SerialApp\CC2530DB\..\..\..\..\..\Co #
#                          mponents\osal\include\ -I                          #
#                          F:\นโลฬืสมฯ\ETC-WSNฮ๏มชอ๘นโลฬืสมฯ210\ZigBeeอ๘ย็\WS #
#                          N-CSิดย๋\ZStack-CC2530-2.5.1a\Projects\zstack\Util #
#                          ities\SerialApp\CC2530DB\..\..\..\..\..\Components #
#                          \services\saddr\ -I F:\นโลฬืสมฯ\ETC-WSNฮ๏มชอ๘นโลฬื #
#                          สมฯ210\ZigBeeอ๘ย็\WSN-CSิดย๋\ZStack-CC2530-2.5.1a\ #
#                          Projects\zstack\Utilities\SerialApp\CC2530DB\..\.. #
#                          \..\..\..\Components\services\sdata\ -I            #
#                          F:\นโลฬืสมฯ\ETC-WSNฮ๏มชอ๘นโลฬืสมฯ210\ZigBeeอ๘ย็\WS #
#                          N-CSิดย๋\ZStack-CC2530-2.5.1a\Projects\zstack\Util #
#                          ities\SerialApp\CC2530DB\..\..\..\..\..\Components #
#                          \stack\af\ -I F:\นโลฬืสมฯ\ETC-WSNฮ๏มชอ๘นโลฬืสมฯ210 #
#                          \ZigBeeอ๘ย็\WSN-CSิดย๋\ZStack-CC2530-2.5.1a\Projec #
#                          ts\zstack\Utilities\SerialApp\CC2530DB\..\..\..\.. #
#                          \..\Components\stack\nwk\ -I                       #
#                          F:\นโลฬืสมฯ\ETC-WSNฮ๏มชอ๘นโลฬืสมฯ210\ZigBeeอ๘ย็\WS #
#                          N-CSิดย๋\ZStack-CC2530-2.5.1a\Projects\zstack\Util #
#                          ities\SerialApp\CC2530DB\..\..\..\..\..\Components #
#                          \stack\sapi\ -I F:\นโลฬืสมฯ\ETC-WSNฮ๏มชอ๘นโลฬืสมฯ2 #
#                          10\ZigBeeอ๘ย็\WSN-CSิดย๋\ZStack-CC2530-2.5.1a\Proj #
#                          ects\zstack\Utilities\SerialApp\CC2530DB\..\..\..\ #
#                          ..\..\Components\stack\sec\ -I                     #
#                          F:\นโลฬืสมฯ\ETC-WSNฮ๏มชอ๘นโลฬืสมฯ210\ZigBeeอ๘ย็\WS #
#                          N-CSิดย๋\ZStack-CC2530-2.5.1a\Projects\zstack\Util #
#                          ities\SerialApp\CC2530DB\..\..\..\..\..\Components #
#                          \stack\sys\ -I F:\นโลฬืสมฯ\ETC-WSNฮ๏มชอ๘นโลฬืสมฯ21 #
#                          0\ZigBeeอ๘ย็\WSN-CSิดย๋\ZStack-CC2530-2.5.1a\Proje #
#                          cts\zstack\Utilities\SerialApp\CC2530DB\..\..\..\. #
#                          .\..\Components\stack\zdo\ -I                      #
#                          F:\นโลฬืสมฯ\ETC-WSNฮ๏มชอ๘นโลฬืสมฯ210\ZigBeeอ๘ย็\WS #
#                          N-CSิดย๋\ZStack-CC2530-2.5.1a\Projects\zstack\Util #
#                          ities\SerialApp\CC2530DB\..\..\..\..\..\Components #
#                          \zmac\ -I F:\นโลฬืสมฯ\ETC-WSNฮ๏มชอ๘นโลฬืสมฯ210\Zig #
#                          Beeอ๘ย็\WSN-CSิดย๋\ZStack-CC2530-2.5.1a\Projects\z #
#                          stack\Utilities\SerialApp\CC2530DB\..\..\..\..\..\ #
#                          Components\zmac\f8w\ -Ohz --require_prototypes     #
#    List file          =  F:\นโลฬืสมฯ\ETC-WSNฮ๏มชอ๘นโลฬืสมฯ210\ZigBeeอ๘ย็\WS #
#                          N-CSิดย๋\ZStack-CC2530-2.5.1a\Projects\zstack\Util #
#                          ities\SerialApp\CC2530DB\CoordinatorEB\List\GUI__C #
#                          alcTextRect.lst                                    #
#    Object file        =  F:\นโลฬืสมฯ\ETC-WSNฮ๏มชอ๘นโลฬืสมฯ210\ZigBeeอ๘ย็\WS #
#                          N-CSิดย๋\ZStack-CC2530-2.5.1a\Projects\zstack\Util #
#                          ities\SerialApp\CC2530DB\CoordinatorEB\Obj\GUI__Ca #
#                          lcTextRect.r51                                     #
#                                                                             #
#                                                                             #
###############################################################################

F:\นโลฬืสมฯ\ETC-WSNฮ๏มชอ๘นโลฬืสมฯ210\ZigBeeอ๘ย็\WSN-CSิดย๋\ZStack-CC2530-2.5.1a\Components\uCGUI\Core\GUI__CalcTextRect.c
      1          /*
      2          *********************************************************************************************************
      3          *                                                uC/GUI
      4          *                        Universal graphic software for embedded applications
      5          *
      6          *                       (c) Copyright 2002, Micrium Inc., Weston, FL
      7          *                       (c) Copyright 2002, SEGGER Microcontroller Systeme GmbH
      8          *
      9          *              ตC/GUI is protected by international copyright laws. Knowledge of the
     10          *              source code may not be used to write a similar product. This file may
     11          *              only be used in accordance with a license and should not be redistributed
     12          *              in any way. We appreciate your understanding and fairness.
     13          *
     14          ----------------------------------------------------------------------
     15          File        : GUI__CalcTextRect.c
     16          Purpose     : Implementation of gui function
     17          ---------------------------END-OF-HEADER------------------------------
     18          */
     19          
     20          #include <stdlib.h>
     21          #include "GUI_Protected.h"
     22          #include "GUI.h"
     23          
     24          /*********************************************************************
     25          *
     26          *       Public code
     27          *
     28          **********************************************************************
     29          */
     30          /*********************************************************************
     31          *
     32          *       GUI__CalcTextRect
     33          */

   \                                 In  segment BANKED_CODE, align 1, keep-with-next
     34          void GUI__CalcTextRect(const char GUI_UNI_PTR* pText, const GUI_RECT* pTextRectIn, GUI_RECT* pTextRectOut, int TextAlign) {
   \                     GUI__CalcTextRect:
   \   000000   74EE         MOV     A,#-0x12
   \   000002   12....       LCALL   ?BANKED_ENTER_XDATA
   \   000005                ; Saved register size: 18
   \   000005                ; Auto size: 0
   \   000005   8C..         MOV     ?V0 + 2,R4
   \   000007   8D..         MOV     ?V0 + 3,R5
   \   000009   7412         MOV     A,#0x12
   \   00000B   12....       LCALL   ?XSTACK_DISP0_8
   \   00000E   E0           MOVX    A,@DPTR
   \   00000F   F5..         MOV     ?V0 + 4,A
   \   000011   A3           INC     DPTR
   \   000012   E0           MOVX    A,@DPTR
   \   000013   F5..         MOV     ?V0 + 5,A
   \   000015   7414         MOV     A,#0x14
   \   000017   12....       LCALL   ?XSTACK_DISP0_8
   \   00001A   E0           MOVX    A,@DPTR
   \   00001B   FE           MOV     R6,A
     35            if (pText) {
   \   00001C   EA           MOV     A,R2
   \   00001D   4B           ORL     A,R3
   \   00001E   7003         JNZ     $+5
   \   000020   02....       LJMP    ??GUI__CalcTextRect_0 & 0xFFFF
     36              int xPos, yPos, TextWidth, TextHeight;
     37          
     38              /* Calculate X-pos of text */
     39              TextWidth = GUI_GetStringDistX(pText);
   \   000023                ; Setup parameters for call to function GUI_GetStringDistX
   \   000023   12....       LCALL   ??GUI_GetStringDistX?relay
   \   000026   8A..         MOV     ?V0 + 6,R2
   \   000028   8B..         MOV     ?V0 + 7,R3
     40              switch (TextAlign & GUI_TA_HORIZONTAL) {
   \   00002A   EE           MOV     A,R6
   \   00002B   5403         ANL     A,#0x3
   \   00002D   14           DEC     A
   \   00002E   6036         JZ      ??GUI__CalcTextRect_1
   \   000030   14           DEC     A
   \   000031   85..82       MOV     DPL,?V0 + 2
   \   000034   85..83       MOV     DPH,?V0 + 3
   \   000037   704B         JNZ     ??GUI__CalcTextRect_2
     41              case GUI_TA_HCENTER:
     42                xPos = pTextRectIn->x0 + ((pTextRectIn->x1 - pTextRectIn->x0 + 1) - TextWidth) / 2;
   \   000039   E0           MOVX    A,@DPTR
   \   00003A   FC           MOV     R4,A
   \   00003B   A3           INC     DPTR
   \   00003C   E0           MOVX    A,@DPTR
   \   00003D   FD           MOV     R5,A
   \   00003E   85..82       MOV     DPL,?V0 + 2
   \   000041   85..83       MOV     DPH,?V0 + 3
   \   000044   12....       LCALL   ?Subroutine0 & 0xFFFF
   \                     ??CrossCallReturnLabel_0:
   \   000047   F9           MOV     R1,A
   \   000048   E8           MOV     A,R0
   \   000049   C3           CLR     C
   \   00004A   95..         SUBB    A,?V0 + 6
   \   00004C   F8           MOV     R0,A
   \   00004D   E9           MOV     A,R1
   \   00004E   95..         SUBB    A,?V0 + 7
   \   000050   F9           MOV     R1,A
   \   000051   7A02         MOV     R2,#0x2
   \   000053   7B00         MOV     R3,#0x0
   \   000055   12....       LCALL   ?S_DIV_MOD
   \   000058   88..         MOV     ?V0 + 0,R0
   \   00005A   89..         MOV     ?V0 + 1,R1
   \   00005C   EC           MOV     A,R4
   \   00005D   25..         ADD     A,?V0 + 0
   \   00005F   F5..         MOV     ?V0 + 0,A
   \   000061   ED           MOV     A,R5
   \   000062   35..         ADDC    A,?V0 + 1
   \   000064   8023         SJMP    ??GUI__CalcTextRect_3
     43                break;
     44              case GUI_TA_RIGHT:
     45                xPos = pTextRectIn->x1 - TextWidth + 1;
   \                     ??GUI__CalcTextRect_1:
   \   000066   85..82       MOV     DPL,?V0 + 2
   \   000069   85..83       MOV     DPH,?V0 + 3
   \   00006C   A3           INC     DPTR
   \   00006D   A3           INC     DPTR
   \   00006E   A3           INC     DPTR
   \   00006F   A3           INC     DPTR
   \   000070   E0           MOVX    A,@DPTR
   \   000071   C3           CLR     C
   \   000072   95..         SUBB    A,?V0 + 6
   \   000074   F8           MOV     R0,A
   \   000075   A3           INC     DPTR
   \   000076   E0           MOVX    A,@DPTR
   \   000077   95..         SUBB    A,?V0 + 7
   \   000079   F9           MOV     R1,A
   \   00007A   E8           MOV     A,R0
   \   00007B   2401         ADD     A,#0x1
   \   00007D   F5..         MOV     ?V0 + 0,A
   \   00007F   E9           MOV     A,R1
   \   000080   3400         ADDC    A,#0x0
   \   000082   8005         SJMP    ??GUI__CalcTextRect_3
     46                break;
     47              default:
     48                xPos = pTextRectIn->x0;
   \                     ??GUI__CalcTextRect_2:
   \   000084   E0           MOVX    A,@DPTR
   \   000085   F5..         MOV     ?V0 + 0,A
   \   000087   A3           INC     DPTR
   \   000088   E0           MOVX    A,@DPTR
   \                     ??GUI__CalcTextRect_3:
   \   000089   F5..         MOV     ?V0 + 1,A
     49              }
     50          
     51              /* Calculate Y-pos of text*/
     52              TextHeight = GUI_GetFontDistY();
   \   00008B                ; Setup parameters for call to function GUI_GetFontDistY
   \   00008B   12....       LCALL   ??GUI_GetFontDistY?relay
   \   00008E   8A..         MOV     ?V0 + 8,R2
   \   000090   8B..         MOV     ?V0 + 9,R3
   \   000092   AC..         MOV     R4,?V0 + 8
   \   000094   AD..         MOV     R5,?V0 + 9
     53              switch (TextAlign & GUI_TA_VERTICAL) {
   \   000096   EE           MOV     A,R6
   \   000097   540C         ANL     A,#0xc
   \   000099   24FC         ADD     A,#-0x4
   \   00009B   6048         JZ      ??GUI__CalcTextRect_4
   \   00009D   24F8         ADD     A,#-0x8
   \   00009F   85..82       MOV     DPL,?V0 + 2
   \   0000A2   85..83       MOV     DPH,?V0 + 3
   \   0000A5   A3           INC     DPTR
   \   0000A6   A3           INC     DPTR
   \   0000A7   7049         JNZ     ??GUI__CalcTextRect_5
     54              case GUI_TA_VCENTER:
     55                yPos = pTextRectIn->y0 + ((pTextRectIn->y1 - pTextRectIn->y0 + 1) - TextHeight) / 2;
   \   0000A9   E0           MOVX    A,@DPTR
   \   0000AA   FE           MOV     R6,A
   \   0000AB   A3           INC     DPTR
   \   0000AC   E0           MOVX    A,@DPTR
   \   0000AD   FF           MOV     R7,A
   \   0000AE   85..82       MOV     DPL,?V0 + 2
   \   0000B1   85..83       MOV     DPH,?V0 + 3
   \   0000B4   A3           INC     DPTR
   \   0000B5   A3           INC     DPTR
   \   0000B6   A3           INC     DPTR
   \   0000B7   A3           INC     DPTR
   \   0000B8   A3           INC     DPTR
   \   0000B9   A3           INC     DPTR
   \   0000BA   E0           MOVX    A,@DPTR
   \   0000BB   C3           CLR     C
   \   0000BC   9E           SUBB    A,R6
   \   0000BD   F8           MOV     R0,A
   \   0000BE   A3           INC     DPTR
   \   0000BF   E0           MOVX    A,@DPTR
   \   0000C0   9F           SUBB    A,R7
   \   0000C1   F9           MOV     R1,A
   \   0000C2   E8           MOV     A,R0
   \   0000C3   2401         ADD     A,#0x1
   \   0000C5   08           INC     R0
   \   0000C6   E9           MOV     A,R1
   \   0000C7   3400         ADDC    A,#0x0
   \   0000C9   F9           MOV     R1,A
   \   0000CA   E8           MOV     A,R0
   \   0000CB   C3           CLR     C
   \   0000CC   9C           SUBB    A,R4
   \   0000CD   F8           MOV     R0,A
   \   0000CE   E9           MOV     A,R1
   \   0000CF   9D           SUBB    A,R5
   \   0000D0   F9           MOV     R1,A
   \   0000D1   7A02         MOV     R2,#0x2
   \   0000D3   7B00         MOV     R3,#0x0
   \   0000D5   12....       LCALL   ?S_DIV_MOD
   \   0000D8   88..         MOV     ?V0 + 2,R0
   \   0000DA   89..         MOV     ?V0 + 3,R1
   \   0000DC   EE           MOV     A,R6
   \   0000DD   25..         ADD     A,?V0 + 2
   \   0000DF   F8           MOV     R0,A
   \   0000E0   EF           MOV     A,R7
   \   0000E1   35..         ADDC    A,?V0 + 3
   \   0000E3   8011         SJMP    ??GUI__CalcTextRect_6
     56                break;
     57              case GUI_TA_BOTTOM:
     58                yPos = pTextRectIn->y1 - TextHeight + 1;
   \                     ??GUI__CalcTextRect_4:
   \   0000E5   85..82       MOV     DPL,?V0 + 2
   \   0000E8   85..83       MOV     DPH,?V0 + 3
   \   0000EB   A3           INC     DPTR
   \   0000EC   A3           INC     DPTR
   \   0000ED   12....       LCALL   ?Subroutine0 & 0xFFFF
   \                     ??CrossCallReturnLabel_1:
   \   0000F0   8004         SJMP    ??GUI__CalcTextRect_6
     59                break;
     60              case GUI_TA_BASELINE:
     61              default:
     62                yPos = pTextRectIn->y0;
   \                     ??GUI__CalcTextRect_5:
   \   0000F2   E0           MOVX    A,@DPTR
   \   0000F3   F8           MOV     R0,A
   \   0000F4   A3           INC     DPTR
   \   0000F5   E0           MOVX    A,@DPTR
   \                     ??GUI__CalcTextRect_6:
   \   0000F6   F9           MOV     R1,A
     63              }
     64          
     65              /* Return text rectangle */
     66              pTextRectOut->x0 = xPos;
   \   0000F7   85..82       MOV     DPL,?V0 + 4
   \   0000FA   85..83       MOV     DPH,?V0 + 5
   \   0000FD   E5..         MOV     A,?V0 + 0
   \   0000FF   F0           MOVX    @DPTR,A
   \   000100   A3           INC     DPTR
   \   000101   E5..         MOV     A,?V0 + 1
   \   000103   F0           MOVX    @DPTR,A
     67              pTextRectOut->y0 = yPos;
   \   000104   85..82       MOV     DPL,?V0 + 4
   \   000107   85..83       MOV     DPH,?V0 + 5
   \   00010A   A3           INC     DPTR
   \   00010B   A3           INC     DPTR
   \   00010C   E8           MOV     A,R0
   \   00010D   F0           MOVX    @DPTR,A
   \   00010E   A3           INC     DPTR
   \   00010F   E9           MOV     A,R1
   \   000110   F0           MOVX    @DPTR,A
     68              pTextRectOut->x1 = xPos + TextWidth  - 1;
   \   000111   E5..         MOV     A,?V0 + 0
   \   000113   25..         ADD     A,?V0 + 6
   \   000115   FA           MOV     R2,A
   \   000116   E5..         MOV     A,?V0 + 1
   \   000118   35..         ADDC    A,?V0 + 7
   \   00011A   FB           MOV     R3,A
   \   00011B   EA           MOV     A,R2
   \   00011C   24FF         ADD     A,#-0x1
   \   00011E   1A           DEC     R2
   \   00011F   EB           MOV     A,R3
   \   000120   34FF         ADDC    A,#-0x1
   \   000122   FB           MOV     R3,A
   \   000123   85..82       MOV     DPL,?V0 + 4
   \   000126   85..83       MOV     DPH,?V0 + 5
   \   000129   A3           INC     DPTR
   \   00012A   A3           INC     DPTR
   \   00012B   A3           INC     DPTR
   \   00012C   A3           INC     DPTR
   \   00012D   EA           MOV     A,R2
   \   00012E   F0           MOVX    @DPTR,A
   \   00012F   A3           INC     DPTR
   \   000130   EB           MOV     A,R3
   \   000131   F0           MOVX    @DPTR,A
     69              pTextRectOut->y1 = yPos + TextHeight - 1;
   \   000132   E8           MOV     A,R0
   \   000133   2C           ADD     A,R4
   \   000134   F8           MOV     R0,A
   \   000135   E9           MOV     A,R1
   \   000136   3D           ADDC    A,R5
   \   000137   F9           MOV     R1,A
   \   000138   E8           MOV     A,R0
   \   000139   24FF         ADD     A,#-0x1
   \   00013B   18           DEC     R0
   \   00013C   E9           MOV     A,R1
   \   00013D   34FF         ADDC    A,#-0x1
   \   00013F   F9           MOV     R1,A
   \   000140   85..82       MOV     DPL,?V0 + 4
   \   000143   85..83       MOV     DPH,?V0 + 5
   \   000146   A3           INC     DPTR
   \   000147   A3           INC     DPTR
   \   000148   A3           INC     DPTR
   \   000149   A3           INC     DPTR
   \   00014A   A3           INC     DPTR
   \   00014B   A3           INC     DPTR
   \   00014C   E8           MOV     A,R0
   \   00014D   F0           MOVX    @DPTR,A
   \   00014E   A3           INC     DPTR
   \   00014F   E9           MOV     A,R1
   \   000150   F0           MOVX    @DPTR,A
   \   000151   800D         SJMP    ??GUI__CalcTextRect_7
     70            } else {
     71              *pTextRectOut = *pTextRectIn;
   \                     ??GUI__CalcTextRect_0:
   \   000153   8C82         MOV     DPL,R4
   \   000155   8D83         MOV     DPH,R5
   \   000157   AC..         MOV     R4,?V0 + 4
   \   000159   AD..         MOV     R5,?V0 + 5
   \   00015B   7408         MOV     A,#0x8
   \   00015D   12....       LCALL   ?MOVE_LONG8_XDATA_XDATA
     72            }
     73          }
   \                     ??GUI__CalcTextRect_7:
   \   000160   7F0A         MOV     R7,#0xa
   \   000162   02....       LJMP    ?BANKED_LEAVE_XDATA

   \                                 In  segment BANKED_CODE, align 1, keep-with-next
   \                     ?Subroutine0:
   \   000000   A3           INC     DPTR
   \   000001   A3           INC     DPTR
   \   000002   A3           INC     DPTR
   \   000003   A3           INC     DPTR
   \   000004   E0           MOVX    A,@DPTR
   \   000005   C3           CLR     C
   \   000006   9C           SUBB    A,R4
   \   000007   F8           MOV     R0,A
   \   000008   A3           INC     DPTR
   \   000009   E0           MOVX    A,@DPTR
   \   00000A   9D           SUBB    A,R5
   \   00000B   F9           MOV     R1,A
   \   00000C   E8           MOV     A,R0
   \   00000D   2401         ADD     A,#0x1
   \   00000F   08           INC     R0
   \   000010   E9           MOV     A,R1
   \   000011   3400         ADDC    A,#0x0
   \   000013   22           RET

   \                                 In  segment BANK_RELAYS, align 1
   \                     ??GUI__CalcTextRect?relay:
   \   000000   12....       LCALL   ?BDISPATCH
   \   000003   ......       DC24    GUI__CalcTextRect
     74          
     75          /*************************** End of file ****************************/

   Maximum stack usage in bytes:

     Function                ISTACK PSTACK XSTACK
     --------                ------ ------ ------
     GUI__CalcTextRect           0      0     22
       -> GUI_GetStringDistX     0      0     36
       -> GUI_GetFontDistY       0      0     36


   Segment part sizes:

     Function/Label            Bytes
     --------------            -----
     GUI__CalcTextRect          357
     ?Subroutine0                20
     ??GUI__CalcTextRect?relay    6

 
 377 bytes in segment BANKED_CODE
   6 bytes in segment BANK_RELAYS
 
 383 bytes of CODE memory

Errors: none
Warnings: none
