///////////////////////////////////////////////////////////////////////////////
//                                                                            /
// IAR C/C++ Compiler V8.10.1.10194/W32 for 8051        14/Jun/2016  16:18:12 /
// Copyright 2004-2011 IAR Systems AB.                                        /
//                                                                            /
//    Core               =  plain                                             /
//    Code model         =  banked                                            /
//    Data model         =  large                                             /
//    Calling convention =  xdata reentrant                                   /
//    Constant location  =  data_rom                                          /
//    Dptr setup         =  1,16                                              /
//    Source file        =  F:\¹âÅÌ×ÊÁÏ\ETC-WSNÎïÁªÍø¹âÅÌ×ÊÁÏ210\ZigBeeÍøÂç\W /
//                          SN-CSÔ´Âë\ZStack-CC2530-2.5.1a\Components\uCGUI\C /
//                          ore\GUI_DispStringInRect.c                        /
//    Command line       =  -f F:\¹âÅÌ×ÊÁÏ\ETC-WSNÎïÁªÍø¹âÅÌ×ÊÁÏ210\ZigBeeÍøÂ /
//                          ç\WSN-CSÔ´Âë\ZStack-CC2530-2.5.1a\Projects\zstack /
//                          \Utilities\SerialApp\CC2530DB\..\..\..\Tools\CC25 /
//                          30DB\f8wCoord.cfg (-DCPU32MHZ -DROOT=__near_func  /
//                          -DMAC_CFG_APP_PENDING_QUEUE=TRUE                  /
//                          -DMAC_CFG_TX_DATA_MAX=5 -DMAC_CFG_TX_MAX=8        /
//                          -DMAC_CFG_RX_MAX=5 -DZDO_COORDINATOR -DRTR_NWK)   /
//                          -f F:\¹âÅÌ×ÊÁÏ\ETC-WSNÎïÁªÍø¹âÅÌ×ÊÁÏ210\ZigBeeÍøÂ /
//                          ç\WSN-CSÔ´Âë\ZStack-CC2530-2.5.1a\Projects\zstack /
//                          \Utilities\SerialApp\CC2530DB\..\..\..\Tools\CC25 /
//                          30DB\f8wConfig.cfg (-DZIGBEEPRO -DSECURE=0        /
//                          -DZG_SECURE_DYNAMIC=0 -DREFLECTOR                 /
//                          -DDEFAULT_CHANLIST=0x00000800                     /
//                          -DZDAPP_CONFIG_PAN_ID=0x1001                      /
//                          -DNWK_START_DELAY=100 -DEXTENDED_JOINING_RANDOM_M /
//                          ASK=0x007F -DBEACON_REQUEST_DELAY=100             /
//                          -DBEACON_REQ_DELAY_MASK=0x00FF                    /
//                          -DLINK_STATUS_JITTER_MASK=0x007F                  /
//                          -DROUTE_EXPIRY_TIME=30 -DAPSC_ACK_WAIT_DURATION_P /
//                          OLLED=3000 -DNWK_INDIRECT_MSG_TIMEOUT=7           /
//                          -DMAX_RREQ_ENTRIES=8 -DAPSC_MAX_FRAME_RETRIES=3   /
//                          -DNWK_MAX_DATA_RETRIES=2                          /
//                          -DMAX_POLL_FAILURE_RETRIES=2 -DMAX_BCAST=9        /
//                          -DAPS_MAX_GROUPS=16 -DMAX_RTG_ENTRIES=40          /
//                          -DNWK_MAX_BINDING_ENTRIES=4                       /
//                          -DMAX_BINDING_CLUSTER_IDS=4                       /
//                          "-DDEFAULT_KEY={0x01, 0x03, 0x05, 0x07, 0x09,     /
//                          0x0B, 0x0D, 0x0F, 0x00, 0x02, 0x04, 0x06, 0x08,   /
//                          0x0A, 0x0C, 0x0D}" -DMAC_MAX_FRAME_SIZE=116       /
//                          -DZDNWKMGR_MIN_TRANSMISSIONS=20 "-DCONST=const    /
//                          __code" -DGENERIC=__generic                       /
//                          -DRFD_RCVC_ALWAYS_ON=FALSE -DPOLL_RATE=1000       /
//                          -DQUEUED_POLL_RATE=100 -DRESPONSE_POLL_RATE=100)  /
//                          -DREJOIN_POLL_RATE=440 F:\¹âÅÌ×ÊÁÏ\ETC-WSNÎïÁªÍø¹ /
//                          âÅÌ×ÊÁÏ210\ZigBeeÍøÂç\WSN-CSÔ´Âë\ZStack-CC2530-2. /
//                          5.1a\Components\uCGUI\Core\GUI_DispStringInRect.c /
//                           -D HAL_UART=TRUE -D SERIAL_APP_PORT=0 -D COOR    /
//                          -D LCD_SUPPORTED -D NV_INIT -lC                   /
//                          F:\¹âÅÌ×ÊÁÏ\ETC-WSNÎïÁªÍø¹âÅÌ×ÊÁÏ210\ZigBeeÍøÂç\W /
//                          SN-CSÔ´Âë\ZStack-CC2530-2.5.1a\Projects\zstack\Ut /
//                          ilities\SerialApp\CC2530DB\CoordinatorEB\List\    /
//                          -lA F:\¹âÅÌ×ÊÁÏ\ETC-WSNÎïÁªÍø¹âÅÌ×ÊÁÏ210\ZigBeeÍø /
//                          Âç\WSN-CSÔ´Âë\ZStack-CC2530-2.5.1a\Projects\zstac /
//                          k\Utilities\SerialApp\CC2530DB\CoordinatorEB\List /
//                          \ --diag_suppress Pe001,Pa010 -o                  /
//                          F:\¹âÅÌ×ÊÁÏ\ETC-WSNÎïÁªÍø¹âÅÌ×ÊÁÏ210\ZigBeeÍøÂç\W /
//                          SN-CSÔ´Âë\ZStack-CC2530-2.5.1a\Projects\zstack\Ut /
//                          ilities\SerialApp\CC2530DB\CoordinatorEB\Obj\ -e  /
//                          --no_code_motion --debug --core=plain             /
//                          --dptr=16,1 --data_model=large                    /
//                          --code_model=banked --calling_convention=xdata_re /
//                          entrant --place_constants=data_rom                /
//                          --nr_virtual_regs 16 -I                           /
//                          F:\¹âÅÌ×ÊÁÏ\ETC-WSNÎïÁªÍø¹âÅÌ×ÊÁÏ210\ZigBeeÍøÂç\W /
//                          SN-CSÔ´Âë\ZStack-CC2530-2.5.1a\Projects\zstack\Ut /
//                          ilities\SerialApp\CC2530DB\ -I                    /
//                          F:\¹âÅÌ×ÊÁÏ\ETC-WSNÎïÁªÍø¹âÅÌ×ÊÁÏ210\ZigBeeÍøÂç\W /
//                          SN-CSÔ´Âë\ZStack-CC2530-2.5.1a\Projects\zstack\Ut /
//                          ilities\SerialApp\CC2530DB\..\Public\ -I          /
//                          F:\¹âÅÌ×ÊÁÏ\ETC-WSNÎïÁªÍø¹âÅÌ×ÊÁÏ210\ZigBeeÍøÂç\W /
//                          SN-CSÔ´Âë\ZStack-CC2530-2.5.1a\Projects\zstack\Ut /
//                          ilities\SerialApp\CC2530DB\..\..\..\..\..\Compone /
//                          nts\uCGUI\Core\ -I F:\¹âÅÌ×ÊÁÏ\ETC-WSNÎïÁªÍø¹âÅÌ× /
//                          ÊÁÏ210\ZigBeeÍøÂç\WSN-CSÔ´Âë\ZStack-CC2530-2.5.1a /
//                          \Projects\zstack\Utilities\SerialApp\CC2530DB\..\ /
//                          ..\..\..\..\Components\uCGUI\MultiLayer\ -I       /
//                          F:\¹âÅÌ×ÊÁÏ\ETC-WSNÎïÁªÍø¹âÅÌ×ÊÁÏ210\ZigBeeÍøÂç\W /
//                          SN-CSÔ´Âë\ZStack-CC2530-2.5.1a\Projects\zstack\Ut /
//                          ilities\SerialApp\CC2530DB\..\..\..\..\..\Compone /
//                          nts\uCGUI\Config\ -I F:\¹âÅÌ×ÊÁÏ\ETC-WSNÎïÁªÍø¹âÅ /
//                          Ì×ÊÁÏ210\ZigBeeÍøÂç\WSN-CSÔ´Âë\ZStack-CC2530-2.5. /
//                          1a\Projects\zstack\Utilities\SerialApp\CC2530DB\. /
//                          .\Coordinator\ -I F:\¹âÅÌ×ÊÁÏ\ETC-WSNÎïÁªÍø¹âÅÌ×Ê /
//                          ÁÏ210\ZigBeeÍøÂç\WSN-CSÔ´Âë\ZStack-CC2530-2.5.1a\ /
//                          Projects\zstack\Utilities\SerialApp\CC2530DB\..\. /
//                          .\..\ZMain\TI2530DB\ -I                           /
//                          F:\¹âÅÌ×ÊÁÏ\ETC-WSNÎïÁªÍø¹âÅÌ×ÊÁÏ210\ZigBeeÍøÂç\W /
//                          SN-CSÔ´Âë\ZStack-CC2530-2.5.1a\Projects\zstack\Ut /
//                          ilities\SerialApp\CC2530DB\..\..\..\..\..\Compone /
//                          nts\hal\include\ -I F:\¹âÅÌ×ÊÁÏ\ETC-WSNÎïÁªÍø¹âÅÌ /
//                          ×ÊÁÏ210\ZigBeeÍøÂç\WSN-CSÔ´Âë\ZStack-CC2530-2.5.1 /
//                          a\Projects\zstack\Utilities\SerialApp\CC2530DB\.. /
//                          \..\..\..\..\Components\hal\target\CC2530EB\ -I   /
//                          F:\¹âÅÌ×ÊÁÏ\ETC-WSNÎïÁªÍø¹âÅÌ×ÊÁÏ210\ZigBeeÍøÂç\W /
//                          SN-CSÔ´Âë\ZStack-CC2530-2.5.1a\Projects\zstack\Ut /
//                          ilities\SerialApp\CC2530DB\..\..\..\..\..\Compone /
//                          nts\mac\include\ -I F:\¹âÅÌ×ÊÁÏ\ETC-WSNÎïÁªÍø¹âÅÌ /
//                          ×ÊÁÏ210\ZigBeeÍøÂç\WSN-CSÔ´Âë\ZStack-CC2530-2.5.1 /
//                          a\Projects\zstack\Utilities\SerialApp\CC2530DB\.. /
//                          \..\..\..\..\Components\mac\high_level\ -I        /
//                          F:\¹âÅÌ×ÊÁÏ\ETC-WSNÎïÁªÍø¹âÅÌ×ÊÁÏ210\ZigBeeÍøÂç\W /
//                          SN-CSÔ´Âë\ZStack-CC2530-2.5.1a\Projects\zstack\Ut /
//                          ilities\SerialApp\CC2530DB\..\..\..\..\..\Compone /
//                          nts\mac\low_level\srf04\ -I                       /
//                          F:\¹âÅÌ×ÊÁÏ\ETC-WSNÎïÁªÍø¹âÅÌ×ÊÁÏ210\ZigBeeÍøÂç\W /
//                          SN-CSÔ´Âë\ZStack-CC2530-2.5.1a\Projects\zstack\Ut /
//                          ilities\SerialApp\CC2530DB\..\..\..\..\..\Compone /
//                          nts\mac\low_level\srf04\single_chip\ -I           /
//                          F:\¹âÅÌ×ÊÁÏ\ETC-WSNÎïÁªÍø¹âÅÌ×ÊÁÏ210\ZigBeeÍøÂç\W /
//                          SN-CSÔ´Âë\ZStack-CC2530-2.5.1a\Projects\zstack\Ut /
//                          ilities\SerialApp\CC2530DB\..\..\..\..\..\Compone /
//                          nts\mt\ -I F:\¹âÅÌ×ÊÁÏ\ETC-WSNÎïÁªÍø¹âÅÌ×ÊÁÏ210\Z /
//                          igBeeÍøÂç\WSN-CSÔ´Âë\ZStack-CC2530-2.5.1a\Project /
//                          s\zstack\Utilities\SerialApp\CC2530DB\..\..\..\.. /
//                          \..\Components\osal\include\ -I                   /
//                          F:\¹âÅÌ×ÊÁÏ\ETC-WSNÎïÁªÍø¹âÅÌ×ÊÁÏ210\ZigBeeÍøÂç\W /
//                          SN-CSÔ´Âë\ZStack-CC2530-2.5.1a\Projects\zstack\Ut /
//                          ilities\SerialApp\CC2530DB\..\..\..\..\..\Compone /
//                          nts\services\saddr\ -I F:\¹âÅÌ×ÊÁÏ\ETC-WSNÎïÁªÍø¹ /
//                          âÅÌ×ÊÁÏ210\ZigBeeÍøÂç\WSN-CSÔ´Âë\ZStack-CC2530-2. /
//                          5.1a\Projects\zstack\Utilities\SerialApp\CC2530DB /
//                          \..\..\..\..\..\Components\services\sdata\ -I     /
//                          F:\¹âÅÌ×ÊÁÏ\ETC-WSNÎïÁªÍø¹âÅÌ×ÊÁÏ210\ZigBeeÍøÂç\W /
//                          SN-CSÔ´Âë\ZStack-CC2530-2.5.1a\Projects\zstack\Ut /
//                          ilities\SerialApp\CC2530DB\..\..\..\..\..\Compone /
//                          nts\stack\af\ -I F:\¹âÅÌ×ÊÁÏ\ETC-WSNÎïÁªÍø¹âÅÌ×ÊÁ /
//                          Ï210\ZigBeeÍøÂç\WSN-CSÔ´Âë\ZStack-CC2530-2.5.1a\P /
//                          rojects\zstack\Utilities\SerialApp\CC2530DB\..\.. /
//                          \..\..\..\Components\stack\nwk\ -I                /
//                          F:\¹âÅÌ×ÊÁÏ\ETC-WSNÎïÁªÍø¹âÅÌ×ÊÁÏ210\ZigBeeÍøÂç\W /
//                          SN-CSÔ´Âë\ZStack-CC2530-2.5.1a\Projects\zstack\Ut /
//                          ilities\SerialApp\CC2530DB\..\..\..\..\..\Compone /
//                          nts\stack\sapi\ -I F:\¹âÅÌ×ÊÁÏ\ETC-WSNÎïÁªÍø¹âÅÌ× /
//                          ÊÁÏ210\ZigBeeÍøÂç\WSN-CSÔ´Âë\ZStack-CC2530-2.5.1a /
//                          \Projects\zstack\Utilities\SerialApp\CC2530DB\..\ /
//                          ..\..\..\..\Components\stack\sec\ -I              /
//                          F:\¹âÅÌ×ÊÁÏ\ETC-WSNÎïÁªÍø¹âÅÌ×ÊÁÏ210\ZigBeeÍøÂç\W /
//                          SN-CSÔ´Âë\ZStack-CC2530-2.5.1a\Projects\zstack\Ut /
//                          ilities\SerialApp\CC2530DB\..\..\..\..\..\Compone /
//                          nts\stack\sys\ -I F:\¹âÅÌ×ÊÁÏ\ETC-WSNÎïÁªÍø¹âÅÌ×Ê /
//                          ÁÏ210\ZigBeeÍøÂç\WSN-CSÔ´Âë\ZStack-CC2530-2.5.1a\ /
//                          Projects\zstack\Utilities\SerialApp\CC2530DB\..\. /
//                          .\..\..\..\Components\stack\zdo\ -I               /
//                          F:\¹âÅÌ×ÊÁÏ\ETC-WSNÎïÁªÍø¹âÅÌ×ÊÁÏ210\ZigBeeÍøÂç\W /
//                          SN-CSÔ´Âë\ZStack-CC2530-2.5.1a\Projects\zstack\Ut /
//                          ilities\SerialApp\CC2530DB\..\..\..\..\..\Compone /
//                          nts\zmac\ -I F:\¹âÅÌ×ÊÁÏ\ETC-WSNÎïÁªÍø¹âÅÌ×ÊÁÏ210 /
//                          \ZigBeeÍøÂç\WSN-CSÔ´Âë\ZStack-CC2530-2.5.1a\Proje /
//                          cts\zstack\Utilities\SerialApp\CC2530DB\..\..\..\ /
//                          ..\..\Components\zmac\f8w\ -Ohz                   /
//                          --require_prototypes                              /
//    List file          =  F:\¹âÅÌ×ÊÁÏ\ETC-WSNÎïÁªÍø¹âÅÌ×ÊÁÏ210\ZigBeeÍøÂç\W /
//                          SN-CSÔ´Âë\ZStack-CC2530-2.5.1a\Projects\zstack\Ut /
//                          ilities\SerialApp\CC2530DB\CoordinatorEB\List\GUI /
//                          _DispStringInRect.s51                             /
//                                                                            /
//                                                                            /
///////////////////////////////////////////////////////////////////////////////

        NAME GUI_DispStringInRect

        RTMODEL "__SystemLibrary", "CLib"
        RTMODEL "__calling_convention", "xdata_reentrant"
        RTMODEL "__code_model", "banked"
        RTMODEL "__core", "plain"
        RTMODEL "__data_model", "large"
        RTMODEL "__dptr_size", "16"
        RTMODEL "__extended_stack", "disabled"
        RTMODEL "__location_for_constants", "data"
        RTMODEL "__number_of_dptrs", "1"
        RTMODEL "__rt_version", "1"

        RSEG DOVERLAY:DATA:NOROOT(0)
        RSEG IOVERLAY:IDATA:NOROOT(0)
        RSEG ISTACK:IDATA:NOROOT(0)
        RSEG PSTACK:XDATA:NOROOT(0)
        RSEG XSTACK:XDATA:NOROOT(0)

        EXTERN ?ALLOC_XSTACK8
        EXTERN ?BANKED_ENTER_XDATA
        EXTERN ?BANKED_LEAVE_XDATA
        EXTERN ?BDISPATCH
        EXTERN ?DEALLOC_XSTACK8
        EXTERN ?MOVE_LONG8_XDATA_XDATA
        EXTERN ?PUSH_XSTACK_I_TWO
        EXTERN ?S_DIV_MOD
        EXTERN ?V0
        EXTERN ?XSP
        EXTERN ?XSTACK_DISP0_8

        PUBLIC ??GUI_DispStringInRect?relay
        FUNCTION ??GUI_DispStringInRect?relay,0203H
        PUBLIC ??GUI_DispStringInRectMax?relay
        FUNCTION ??GUI_DispStringInRectMax?relay,0203H
        PUBLIC ??GUI__DispStringInRect?relay
        FUNCTION ??GUI__DispStringInRect?relay,0203H
        PUBLIC GUI_DispStringInRect
        FUNCTION GUI_DispStringInRect,021203H
        ARGFRAME XSTACK, 2, STACK
        LOCFRAME XSTACK, 16, STACK
        PUBLIC GUI_DispStringInRectMax
        FUNCTION GUI_DispStringInRectMax,021203H
        ARGFRAME XSTACK, 16, STACK
        ARGFRAME IOVERLAY, 0, STATIC
        ARGFRAME DOVERLAY, 0, STATIC
        LOCFRAME ISTACK, 2, STACK
        LOCFRAME XSTACK, 37, STACK
        PUBLIC GUI__DispStringInRect
        FUNCTION GUI__DispStringInRect,021203H
        ARGFRAME XSTACK, 37, STACK
        ARGFRAME IOVERLAY, 0, STATIC
        ARGFRAME DOVERLAY, 0, STATIC
        LOCFRAME ISTACK, 4, STACK
        LOCFRAME XSTACK, 46, STACK
        PUBWEAK _A_IEN0
        
        CFI Names cfiNames0
        CFI StackFrame CFA_SP SP IDATA
        CFI StackFrame CFA_PSP16 PSP16 XDATA
        CFI StackFrame CFA_XSP16 XSP16 XDATA
        CFI StaticOverlayFrame CFA_IOVERLAY IOVERLAY
        CFI StaticOverlayFrame CFA_DOVERLAY DOVERLAY
        CFI Resource `PSW.CY`:1, `B.BR0`:1, `B.BR1`:1, `B.BR2`:1, `B.BR3`:1
        CFI Resource `B.BR4`:1, `B.BR5`:1, `B.BR6`:1, `B.BR7`:1, `VB.BR8`:1
        CFI Resource `VB.BR9`:1, `VB.BR10`:1, `VB.BR11`:1, `VB.BR12`:1
        CFI Resource `VB.BR13`:1, `VB.BR14`:1, `VB.BR15`:1, VB:8, B:8, A:8
        CFI Resource PSW:8, DPL0:8, DPH0:8, R0:8, R1:8, R2:8, R3:8, R4:8, R5:8
        CFI Resource R6:8, R7:8, V0:8, V1:8, V2:8, V3:8, V4:8, V5:8, V6:8, V7:8
        CFI Resource V8:8, V9:8, V10:8, V11:8, V12:8, V13:8, V14:8, V15:8, SP:8
        CFI Resource PSPH:8, PSPL:8, PSP16:16, XSPH:8, XSPL:8, XSP16:16
        CFI VirtualResource ?RET:24
        CFI Resource ?BRET_EXT:8
        CFI VirtualResource ?RET_HIGH:8, ?RET_LOW:8
        CFI ResourceParts PSP16 PSPH, PSPL
        CFI ResourceParts XSP16 XSPH, XSPL
        CFI ResourceParts ?RET ?BRET_EXT, ?RET_HIGH, ?RET_LOW
        CFI EndNames cfiNames0
        
        CFI Common cfiCommon0 Using cfiNames0
        CFI CodeAlign 1
        CFI DataAlign -1
        CFI ReturnAddress ?RET CODE
        CFI CFA_DOVERLAY Used
        CFI CFA_IOVERLAY Used
        CFI CFA_SP SP+-3
        CFI CFA_PSP16 PSP16+0
        CFI CFA_XSP16 XSP16+0
        CFI `PSW.CY` SameValue
        CFI `B.BR0` SameValue
        CFI `B.BR1` SameValue
        CFI `B.BR2` SameValue
        CFI `B.BR3` SameValue
        CFI `B.BR4` SameValue
        CFI `B.BR5` SameValue
        CFI `B.BR6` SameValue
        CFI `B.BR7` SameValue
        CFI `VB.BR8` SameValue
        CFI `VB.BR9` SameValue
        CFI `VB.BR10` SameValue
        CFI `VB.BR11` SameValue
        CFI `VB.BR12` SameValue
        CFI `VB.BR13` SameValue
        CFI `VB.BR14` SameValue
        CFI `VB.BR15` SameValue
        CFI VB SameValue
        CFI B Undefined
        CFI A Undefined
        CFI PSW SameValue
        CFI DPL0 SameValue
        CFI DPH0 SameValue
        CFI R0 Undefined
        CFI R1 Undefined
        CFI R2 Undefined
        CFI R3 Undefined
        CFI R4 Undefined
        CFI R5 Undefined
        CFI R6 SameValue
        CFI R7 SameValue
        CFI V0 SameValue
        CFI V1 SameValue
        CFI V2 SameValue
        CFI V3 SameValue
        CFI V4 SameValue
        CFI V5 SameValue
        CFI V6 SameValue
        CFI V7 SameValue
        CFI V8 SameValue
        CFI V9 SameValue
        CFI V10 SameValue
        CFI V11 SameValue
        CFI V12 SameValue
        CFI V13 SameValue
        CFI V14 SameValue
        CFI V15 SameValue
        CFI PSPH Undefined
        CFI PSPL Undefined
        CFI XSPH Undefined
        CFI XSPL Undefined
        CFI ?RET Concat
        CFI ?BRET_EXT Frame(CFA_SP, 3)
        CFI ?RET_HIGH Frame(CFA_SP, 2)
        CFI ?RET_LOW Frame(CFA_SP, 1)
        CFI EndCommon cfiCommon0
        
        
        CFI Common cfiCommon1 Using cfiNames0
        CFI CodeAlign 1
        CFI DataAlign -1
        CFI ReturnAddress ?RET CODE
        CFI CFA_DOVERLAY Used
        CFI CFA_IOVERLAY Used
        CFI CFA_SP SP+-2
        CFI CFA_PSP16 PSP16+0
        CFI CFA_XSP16 XSP16+0
        CFI `PSW.CY` SameValue
        CFI `B.BR0` SameValue
        CFI `B.BR1` SameValue
        CFI `B.BR2` SameValue
        CFI `B.BR3` SameValue
        CFI `B.BR4` SameValue
        CFI `B.BR5` SameValue
        CFI `B.BR6` SameValue
        CFI `B.BR7` SameValue
        CFI `VB.BR8` SameValue
        CFI `VB.BR9` SameValue
        CFI `VB.BR10` SameValue
        CFI `VB.BR11` SameValue
        CFI `VB.BR12` SameValue
        CFI `VB.BR13` SameValue
        CFI `VB.BR14` SameValue
        CFI `VB.BR15` SameValue
        CFI VB SameValue
        CFI B SameValue
        CFI A SameValue
        CFI PSW SameValue
        CFI DPL0 SameValue
        CFI DPH0 SameValue
        CFI R0 SameValue
        CFI R1 SameValue
        CFI R2 SameValue
        CFI R3 SameValue
        CFI R4 SameValue
        CFI R5 SameValue
        CFI R6 SameValue
        CFI R7 SameValue
        CFI V0 SameValue
        CFI V1 SameValue
        CFI V2 SameValue
        CFI V3 SameValue
        CFI V4 SameValue
        CFI V5 SameValue
        CFI V6 SameValue
        CFI V7 SameValue
        CFI V8 SameValue
        CFI V9 SameValue
        CFI V10 SameValue
        CFI V11 SameValue
        CFI V12 SameValue
        CFI V13 SameValue
        CFI V14 SameValue
        CFI V15 SameValue
        CFI PSPH Undefined
        CFI PSPL Undefined
        CFI XSPH Undefined
        CFI XSPL Undefined
        CFI ?RET Concat
        CFI ?BRET_EXT SameValue
        CFI ?RET_HIGH Frame(CFA_SP, 2)
        CFI ?RET_LOW Frame(CFA_SP, 1)
        CFI EndCommon cfiCommon1
        
GUI_GetFontSizeY    SYMBOL "GUI_GetFontSizeY"
GUI_GetClientRect   SYMBOL "GUI_GetClientRect"
GUI__GetLineNumChars SYMBOL "GUI__GetLineNumChars"
GUI_UC__NumChars2NumBytes SYMBOL "GUI_UC__NumChars2NumBytes"
GUI__HandleEOLine   SYMBOL "GUI__HandleEOLine"
GUI__GetLineDistX   SYMBOL "GUI__GetLineDistX"
GUI__DispLine       SYMBOL "GUI__DispLine"
GUI_GetFontDistY    SYMBOL "GUI_GetFontDistY"
GUI__IntersectRects SYMBOL "GUI__IntersectRects"
LCD_SetClipRectEx   SYMBOL "LCD_SetClipRectEx"
??GUI_GetClientRect?relay SYMBOL "?relay", GUI_GetClientRect
??GUI_GetFontDistY?relay SYMBOL "?relay", GUI_GetFontDistY
??GUI_GetFontSizeY?relay SYMBOL "?relay", GUI_GetFontSizeY
??GUI_UC__NumChars2NumBytes?relay SYMBOL "?relay", GUI_UC__NumChars2NumBytes
??GUI__DispLine?relay SYMBOL "?relay", GUI__DispLine
??GUI__GetLineDistX?relay SYMBOL "?relay", GUI__GetLineDistX
??GUI__GetLineNumChars?relay SYMBOL "?relay", GUI__GetLineNumChars
??GUI__HandleEOLine?relay SYMBOL "?relay", GUI__HandleEOLine
??GUI__IntersectRects?relay SYMBOL "?relay", GUI__IntersectRects
??LCD_SetClipRectEx?relay SYMBOL "?relay", LCD_SetClipRectEx
GUI_DispStringInRect SYMBOL "GUI_DispStringInRect"
??GUI_DispStringInRect?relay SYMBOL "?relay", GUI_DispStringInRect
GUI_DispStringInRectMax SYMBOL "GUI_DispStringInRectMax"
??GUI_DispStringInRectMax?relay SYMBOL "?relay", GUI_DispStringInRectMax
GUI__DispStringInRect SYMBOL "GUI__DispStringInRect"
??GUI__DispStringInRect?relay SYMBOL "?relay", GUI__DispStringInRect

        EXTERN GUI_GetFontSizeY
        FUNCTION GUI_GetFontSizeY,0202H
        ARGFRAME ISTACK, 0, STACK
        ARGFRAME PSTACK, 0, STACK
        ARGFRAME XSTACK, 44, STACK
        ARGFRAME IOVERLAY, 0, STATIC
        ARGFRAME DOVERLAY, 0, STATIC
        EXTERN GUI_GetClientRect
        FUNCTION GUI_GetClientRect,0202H
        ARGFRAME ISTACK, 0, STACK
        ARGFRAME PSTACK, 0, STACK
        ARGFRAME XSTACK, 44, STACK
        ARGFRAME IOVERLAY, 0, STATIC
        ARGFRAME DOVERLAY, 0, STATIC
        EXTERN GUI__GetLineNumChars
        FUNCTION GUI__GetLineNumChars,0202H
        ARGFRAME ISTACK, 0, STACK
        ARGFRAME PSTACK, 0, STACK
        ARGFRAME XSTACK, 44, STACK
        ARGFRAME IOVERLAY, 0, STATIC
        ARGFRAME DOVERLAY, 0, STATIC
        EXTERN GUI_UC__NumChars2NumBytes
        FUNCTION GUI_UC__NumChars2NumBytes,0202H
        ARGFRAME ISTACK, 0, STACK
        ARGFRAME PSTACK, 0, STACK
        ARGFRAME XSTACK, 44, STACK
        ARGFRAME IOVERLAY, 0, STATIC
        ARGFRAME DOVERLAY, 0, STATIC
        EXTERN GUI__HandleEOLine
        FUNCTION GUI__HandleEOLine,0202H
        ARGFRAME ISTACK, 0, STACK
        ARGFRAME PSTACK, 0, STACK
        ARGFRAME XSTACK, 44, STACK
        ARGFRAME IOVERLAY, 0, STATIC
        ARGFRAME DOVERLAY, 0, STATIC
        EXTERN GUI__GetLineDistX
        FUNCTION GUI__GetLineDistX,0202H
        ARGFRAME ISTACK, 0, STACK
        ARGFRAME PSTACK, 0, STACK
        ARGFRAME XSTACK, 44, STACK
        ARGFRAME IOVERLAY, 0, STATIC
        ARGFRAME DOVERLAY, 0, STATIC
        EXTERN GUI__DispLine
        FUNCTION GUI__DispLine,0202H
        ARGFRAME ISTACK, 0, STACK
        ARGFRAME PSTACK, 0, STACK
        ARGFRAME XSTACK, 46, STACK
        ARGFRAME IOVERLAY, 0, STATIC
        ARGFRAME DOVERLAY, 0, STATIC
        EXTERN GUI_GetFontDistY
        FUNCTION GUI_GetFontDistY,0202H
        ARGFRAME ISTACK, 0, STACK
        ARGFRAME PSTACK, 0, STACK
        ARGFRAME XSTACK, 44, STACK
        ARGFRAME IOVERLAY, 0, STATIC
        ARGFRAME DOVERLAY, 0, STATIC
        EXTERN GUI__IntersectRects
        FUNCTION GUI__IntersectRects,0202H
        ARGFRAME ISTACK, 0, STACK
        ARGFRAME PSTACK, 0, STACK
        ARGFRAME XSTACK, 35, STACK
        ARGFRAME IOVERLAY, 0, STATIC
        ARGFRAME DOVERLAY, 0, STATIC
        EXTERN LCD_SetClipRectEx
        FUNCTION LCD_SetClipRectEx,0202H
        ARGFRAME ISTACK, 0, STACK
        ARGFRAME PSTACK, 0, STACK
        ARGFRAME XSTACK, 33, STACK
        ARGFRAME IOVERLAY, 0, STATIC
        ARGFRAME DOVERLAY, 0, STATIC
        EXTERN ??GUI_GetClientRect?relay
        FUNCTION ??GUI_GetClientRect?relay,00H
        EXTERN ??GUI_GetFontDistY?relay
        FUNCTION ??GUI_GetFontDistY?relay,00H
        EXTERN ??GUI_GetFontSizeY?relay
        FUNCTION ??GUI_GetFontSizeY?relay,00H
        EXTERN ??GUI_UC__NumChars2NumBytes?relay
        FUNCTION ??GUI_UC__NumChars2NumBytes?relay,00H
        EXTERN ??GUI__DispLine?relay
        FUNCTION ??GUI__DispLine?relay,00H
        EXTERN ??GUI__GetLineDistX?relay
        FUNCTION ??GUI__GetLineDistX?relay,00H
        EXTERN ??GUI__GetLineNumChars?relay
        FUNCTION ??GUI__GetLineNumChars?relay,00H
        EXTERN ??GUI__HandleEOLine?relay
        FUNCTION ??GUI__HandleEOLine?relay,00H
        EXTERN ??GUI__IntersectRects?relay
        FUNCTION ??GUI__IntersectRects?relay,00H
        EXTERN ??LCD_SetClipRectEx?relay
        FUNCTION ??LCD_SetClipRectEx?relay,00H
        EXTERN GUI_Context

// F:\¹âÅÌ×ÊÁÏ\ETC-WSNÎïÁªÍø¹âÅÌ×ÊÁÏ210\ZigBeeÍøÂç\WSN-CSÔ´Âë\ZStack-CC2530-2.5.1a\Components\uCGUI\Core\GUI_DispStringInRect.c
//    1 /*
//    2 *********************************************************************************************************
//    3 *                                                uC/GUI
//    4 *                        Universal graphic software for embedded applications
//    5 *
//    6 *                       (c) Copyright 2002, Micrium Inc., Weston, FL
//    7 *                       (c) Copyright 2002, SEGGER Microcontroller Systeme GmbH
//    8 *
//    9 *              µC/GUI is protected by international copyright laws. Knowledge of the
//   10 *              source code may not be used to write a similar product. This file may
//   11 *              only be used in accordance with a license and should not be redistributed
//   12 *              in any way. We appreciate your understanding and fairness.
//   13 *
//   14 ----------------------------------------------------------------------
//   15 File        : GUI_DispStringInRect.c
//   16 Purpose     : Implementation of GUI_DispStringInRect
//   17 ---------------------------END-OF-HEADER------------------------------
//   18 */
//   19 
//   20 #include <stddef.h>           /* needed for definition of NULL */
//   21 #include <stdio.h>
//   22 #include "GUI_Protected.h"

        ASEGN SFR_AN:DATA:NOROOT,0a8H
// union <unnamed> volatile __sfr _A_IEN0
_A_IEN0:
        DATA8
        DS 1
//   23 #if GUI_WINSUPPORT
//   24   #include "WM.h"
//   25 #endif
//   26  
//   27 /*********************************************************************
//   28 *
//   29 *       Public code
//   30 *
//   31 **********************************************************************
//   32 */
//   33 /*********************************************************************
//   34 *
//   35 *       GUI__DispStringInRect
//   36 */

        RSEG BANKED_CODE:CODE:NOROOT(0)
//   37 void GUI__DispStringInRect(const char GUI_UNI_PTR *s, GUI_RECT* pRect, int TextAlign, int MaxNumChars) {
GUI__DispStringInRect:
        CFI Block cfiBlock0 Using cfiCommon0
        CFI Function GUI__DispStringInRect
        CODE
        FUNCALL GUI__DispStringInRect, GUI_GetFontSizeY
        LOCFRAME ISTACK, 0, STACK
        LOCFRAME PSTACK, 0, STACK
        LOCFRAME XSTACK, 44, STACK
        LOCFRAME IOVERLAY, 0, STATIC
        LOCFRAME DOVERLAY, 0, STATIC
        ARGFRAME ISTACK, 0, STACK
        ARGFRAME PSTACK, 0, STACK
        ARGFRAME XSTACK, 44, STACK
        ARGFRAME IOVERLAY, 0, STATIC
        ARGFRAME DOVERLAY, 0, STATIC
        FUNCALL GUI__DispStringInRect, GUI_GetClientRect
        LOCFRAME ISTACK, 0, STACK
        LOCFRAME PSTACK, 0, STACK
        LOCFRAME XSTACK, 44, STACK
        LOCFRAME IOVERLAY, 0, STATIC
        LOCFRAME DOVERLAY, 0, STATIC
        ARGFRAME ISTACK, 0, STACK
        ARGFRAME PSTACK, 0, STACK
        ARGFRAME XSTACK, 44, STACK
        ARGFRAME IOVERLAY, 0, STATIC
        ARGFRAME DOVERLAY, 0, STATIC
        FUNCALL GUI__DispStringInRect, GUI__GetLineNumChars
        LOCFRAME ISTACK, 0, STACK
        LOCFRAME PSTACK, 0, STACK
        LOCFRAME XSTACK, 44, STACK
        LOCFRAME IOVERLAY, 0, STATIC
        LOCFRAME DOVERLAY, 0, STATIC
        ARGFRAME ISTACK, 0, STACK
        ARGFRAME PSTACK, 0, STACK
        ARGFRAME XSTACK, 44, STACK
        ARGFRAME IOVERLAY, 0, STATIC
        ARGFRAME DOVERLAY, 0, STATIC
        FUNCALL GUI__DispStringInRect, GUI_UC__NumChars2NumBytes
        LOCFRAME ISTACK, 0, STACK
        LOCFRAME PSTACK, 0, STACK
        LOCFRAME XSTACK, 44, STACK
        LOCFRAME IOVERLAY, 0, STATIC
        LOCFRAME DOVERLAY, 0, STATIC
        ARGFRAME ISTACK, 0, STACK
        ARGFRAME PSTACK, 0, STACK
        ARGFRAME XSTACK, 44, STACK
        ARGFRAME IOVERLAY, 0, STATIC
        ARGFRAME DOVERLAY, 0, STATIC
        FUNCALL GUI__DispStringInRect, GUI__HandleEOLine
        LOCFRAME ISTACK, 0, STACK
        LOCFRAME PSTACK, 0, STACK
        LOCFRAME XSTACK, 44, STACK
        LOCFRAME IOVERLAY, 0, STATIC
        LOCFRAME DOVERLAY, 0, STATIC
        ARGFRAME ISTACK, 0, STACK
        ARGFRAME PSTACK, 0, STACK
        ARGFRAME XSTACK, 44, STACK
        ARGFRAME IOVERLAY, 0, STATIC
        ARGFRAME DOVERLAY, 0, STATIC
        FUNCALL GUI__DispStringInRect, GUI__GetLineNumChars
        LOCFRAME ISTACK, 0, STACK
        LOCFRAME PSTACK, 0, STACK
        LOCFRAME XSTACK, 44, STACK
        LOCFRAME IOVERLAY, 0, STATIC
        LOCFRAME DOVERLAY, 0, STATIC
        ARGFRAME ISTACK, 0, STACK
        ARGFRAME PSTACK, 0, STACK
        ARGFRAME XSTACK, 44, STACK
        ARGFRAME IOVERLAY, 0, STATIC
        ARGFRAME DOVERLAY, 0, STATIC
        FUNCALL GUI__DispStringInRect, GUI__GetLineDistX
        LOCFRAME ISTACK, 0, STACK
        LOCFRAME PSTACK, 0, STACK
        LOCFRAME XSTACK, 44, STACK
        LOCFRAME IOVERLAY, 0, STATIC
        LOCFRAME DOVERLAY, 0, STATIC
        ARGFRAME ISTACK, 0, STACK
        ARGFRAME PSTACK, 0, STACK
        ARGFRAME XSTACK, 44, STACK
        ARGFRAME IOVERLAY, 0, STATIC
        ARGFRAME DOVERLAY, 0, STATIC
        FUNCALL GUI__DispStringInRect, GUI__DispLine
        LOCFRAME ISTACK, 0, STACK
        LOCFRAME PSTACK, 0, STACK
        LOCFRAME XSTACK, 46, STACK
        LOCFRAME IOVERLAY, 0, STATIC
        LOCFRAME DOVERLAY, 0, STATIC
        ARGFRAME ISTACK, 0, STACK
        ARGFRAME PSTACK, 0, STACK
        ARGFRAME XSTACK, 46, STACK
        ARGFRAME IOVERLAY, 0, STATIC
        ARGFRAME DOVERLAY, 0, STATIC
        FUNCALL GUI__DispStringInRect, GUI_UC__NumChars2NumBytes
        LOCFRAME ISTACK, 0, STACK
        LOCFRAME PSTACK, 0, STACK
        LOCFRAME XSTACK, 44, STACK
        LOCFRAME IOVERLAY, 0, STATIC
        LOCFRAME DOVERLAY, 0, STATIC
        ARGFRAME ISTACK, 0, STACK
        ARGFRAME PSTACK, 0, STACK
        ARGFRAME XSTACK, 44, STACK
        ARGFRAME IOVERLAY, 0, STATIC
        ARGFRAME DOVERLAY, 0, STATIC
        FUNCALL GUI__DispStringInRect, GUI_GetFontDistY
        LOCFRAME ISTACK, 0, STACK
        LOCFRAME PSTACK, 0, STACK
        LOCFRAME XSTACK, 44, STACK
        LOCFRAME IOVERLAY, 0, STATIC
        LOCFRAME DOVERLAY, 0, STATIC
        ARGFRAME ISTACK, 0, STACK
        ARGFRAME PSTACK, 0, STACK
        ARGFRAME XSTACK, 44, STACK
        ARGFRAME IOVERLAY, 0, STATIC
        ARGFRAME DOVERLAY, 0, STATIC
        FUNCALL GUI__DispStringInRect, GUI__HandleEOLine
        LOCFRAME ISTACK, 0, STACK
        LOCFRAME PSTACK, 0, STACK
        LOCFRAME XSTACK, 44, STACK
        LOCFRAME IOVERLAY, 0, STATIC
        LOCFRAME DOVERLAY, 0, STATIC
        ARGFRAME ISTACK, 0, STACK
        ARGFRAME PSTACK, 0, STACK
        ARGFRAME XSTACK, 44, STACK
        ARGFRAME IOVERLAY, 0, STATIC
        ARGFRAME DOVERLAY, 0, STATIC
        MOV     A,#-0x18
        LCALL   ?BANKED_ENTER_XDATA
        CFI DPH0 load(1, XDATA, add(CFA_XSP16, literal(-1)))
        CFI DPL0 load(1, XDATA, add(CFA_XSP16, literal(-2)))
        CFI ?BRET_EXT load(1, XDATA, add(CFA_XSP16, literal(-3)))
        CFI ?RET_HIGH load(1, XDATA, add(CFA_XSP16, literal(-4)))
        CFI ?RET_LOW load(1, XDATA, add(CFA_XSP16, literal(-5)))
        CFI R7 load(1, XDATA, add(CFA_XSP16, literal(-6)))
        CFI V15 load(1, XDATA, add(CFA_XSP16, literal(-7)))
        CFI V14 load(1, XDATA, add(CFA_XSP16, literal(-8)))
        CFI V13 load(1, XDATA, add(CFA_XSP16, literal(-9)))
        CFI V12 load(1, XDATA, add(CFA_XSP16, literal(-10)))
        CFI V11 load(1, XDATA, add(CFA_XSP16, literal(-11)))
        CFI V10 load(1, XDATA, add(CFA_XSP16, literal(-12)))
        CFI V9 load(1, XDATA, add(CFA_XSP16, literal(-13)))
        CFI V8 load(1, XDATA, add(CFA_XSP16, literal(-14)))
        CFI V7 load(1, XDATA, add(CFA_XSP16, literal(-15)))
        CFI V6 load(1, XDATA, add(CFA_XSP16, literal(-16)))
        CFI V5 load(1, XDATA, add(CFA_XSP16, literal(-17)))
        CFI V4 load(1, XDATA, add(CFA_XSP16, literal(-18)))
        CFI V3 load(1, XDATA, add(CFA_XSP16, literal(-19)))
        CFI V2 load(1, XDATA, add(CFA_XSP16, literal(-20)))
        CFI V1 load(1, XDATA, add(CFA_XSP16, literal(-21)))
        CFI V0 load(1, XDATA, add(CFA_XSP16, literal(-22)))
        CFI VB load(1, XDATA, add(CFA_XSP16, literal(-23)))
        CFI R6 load(1, XDATA, add(CFA_XSP16, literal(-24)))
        CFI CFA_SP SP+0
        CFI CFA_XSP16 add(XSP16, 24)
        ; Saved register size: 24
        ; Auto size: 20
        MOV     A,#-0x14
        LCALL   ?ALLOC_XSTACK8
        CFI CFA_XSP16 add(XSP16, 44)
        MOV     DPL,?XSP + 0
        MOV     DPH,?XSP + 1
        MOV     A,R2
        MOVX    @DPTR,A
        INC     DPTR
        MOV     A,R3
        MOVX    @DPTR,A
        MOV     ?V0 + 2,R4
        MOV     ?V0 + 3,R5
        MOV     A,#0x2c
        LCALL   ?XSTACK_DISP0_8
        MOVX    A,@DPTR
        MOV     ?V0 + 4,A
        MOV     A,#0x2e
        LCALL   ?XSTACK_DISP0_8
        MOVX    A,@DPTR
        MOV     ?V0 + 14,A
        INC     DPTR
        MOVX    A,@DPTR
        MOV     ?V0 + 15,A
//   38   GUI_RECT r;
//   39   GUI_RECT rLine;
//   40   int y = 0;
        MOV     R6,#0x0
        MOV     R7,#0x0
//   41   const char GUI_UNI_PTR *sOrg =s;
        MOV     DPL,?XSP + 0
        MOV     DPH,?XSP + 1
        MOVX    A,@DPTR
        MOV     R0,A
        INC     DPTR
        MOVX    A,@DPTR
        MOV     R1,A
        MOV     A,#0xa
        LCALL   ?XSTACK_DISP0_8
        MOV     A,R0
        MOVX    @DPTR,A
        INC     DPTR
        MOV     A,R1
        MOVX    @DPTR,A
//   42   int FontYSize;
//   43   int xLine = 0;
        MOV     ?V0 + 0,R6
        MOV     ?V0 + 1,R6
//   44   int LineLen;
//   45   int NumCharsRem;           /* Number of remaining characters */
//   46   FontYSize = GUI_GetFontSizeY();
        ; Setup parameters for call to function GUI_GetFontSizeY
        LCALL   ??GUI_GetFontSizeY?relay
        MOV     ?V0 + 6,R2
        MOV     ?V0 + 7,R3
//   47   if (pRect) {
        MOV     A,?V0 + 2
        ORL     A,?V0 + 3
        JZ      ??GUI__DispStringInRect_0
//   48     r = *pRect;
        MOV     DPL,?V0 + 2
        MOV     DPH,?V0 + 3
        PUSH    DPL
        CFI CFA_SP SP+-1
        PUSH    DPH
        CFI CFA_SP SP+-2
        MOV     A,#0x2
        LCALL   ?XSTACK_DISP0_8
        MOV     R4,DPL
        MOV     R5,DPH
        POP     DPH
        CFI CFA_SP SP+-1
        POP     DPL
        CFI CFA_SP SP+0
        MOV     A,#0x8
        LCALL   ?MOVE_LONG8_XDATA_XDATA
        SJMP    ??GUI__DispStringInRect_1
//   49   } else {
//   50     GUI_GetClientRect(&r);
??GUI__DispStringInRect_0:
        ; Setup parameters for call to function GUI_GetClientRect
        MOV     A,#0x2
        LCALL   ?XSTACK_DISP0_8
        MOV     R2,DPL
        MOV     R3,DPH
        LCALL   ??GUI_GetClientRect?relay
//   51   }
//   52   /* handle vertical alignment */
//   53   if ((TextAlign & GUI_TA_VERTICAL) == GUI_TA_TOP) {
??GUI__DispStringInRect_1:
        MOV     A,?V0 + 4
        ANL     A,#0xc
        JNZ     ??GUI__DispStringInRect_2
//   54 		y = r.y0;
        MOV     A,#0x4
        LCALL   ?XSTACK_DISP0_8
        MOVX    A,@DPTR
        MOV     R6,A
        INC     DPTR
        MOVX    A,@DPTR
        LJMP    ??GUI__DispStringInRect_3 & 0xFFFF
//   55   } else {
//   56     int NumLines;
//   57     /* Count the number of lines */
//   58     for (NumCharsRem = MaxNumChars, NumLines = 1; NumCharsRem ;NumLines++) {
??GUI__DispStringInRect_2:
        MOV     ?V0 + 10,?V0 + 14
        MOV     ?V0 + 11,?V0 + 15
        MOV     ?V0 + 2,#0x1
        MOV     ?V0 + 3,R6
        SJMP    ??GUI__DispStringInRect_4
??GUI__DispStringInRect_5:
        MOV     A,?V0 + 2
        ADD     A,#0x1
        MOV     ?V0 + 2,A
        MOV     A,?V0 + 3
        ADDC    A,#0x0
        MOV     ?V0 + 3,A
??GUI__DispStringInRect_4:
        MOV     A,?V0 + 10
        ORL     A,?V0 + 11
        JZ      ??GUI__DispStringInRect_6
//   59       LineLen = GUI__GetLineNumChars(s, NumCharsRem);
        ; Setup parameters for call to function GUI__GetLineNumChars
        LCALL   ?Subroutine0 & 0xFFFF
//   60       NumCharsRem -= LineLen;
//   61       s += GUI_UC__NumChars2NumBytes(s, LineLen);
??CrossCallReturnLabel_0:
        LCALL   ??GUI_UC__NumChars2NumBytes?relay
        MOV     ?V0 + 8,R2
        MOV     ?V0 + 9,R3
        MOV     R0,?V0 + 8
        MOV     R1,?V0 + 9
        LCALL   ?Subroutine1 & 0xFFFF
//   62       if (GUI__HandleEOLine(&s))
??CrossCallReturnLabel_2:
        ; Setup parameters for call to function GUI__HandleEOLine
        MOV     DPL,?XSP + 0
        MOV     DPH,?XSP + 1
        MOV     R2,DPL
        MOV     R3,DPH
        LCALL   ??GUI__HandleEOLine?relay
        MOV     ?V0 + 9,R3
        MOV     A,R2
        ORL     A,?V0 + 9
        JZ      ??GUI__DispStringInRect_5
//   63         break;
//   64     }
//   65     /* Do the vertical alignment */
//   66     switch (TextAlign & GUI_TA_VERTICAL) {
??GUI__DispStringInRect_6:
        MOV     A,?V0 + 4
        ANL     A,#0xc
        ADD     A,#-0x4
        JZ      ??GUI__DispStringInRect_7
        ADD     A,#-0x4
        JZ      ??GUI__DispStringInRect_7
        ADD     A,#-0x4
        JZ      ??GUI__DispStringInRect_8
        SJMP    ??GUI__DispStringInRect_9
//   67 	  case GUI_TA_BASELINE:
//   68 	  case GUI_TA_BOTTOM:
//   69 	  y = r.y1 -NumLines * FontYSize+1;
??GUI__DispStringInRect_7:
        MOV     A,#0x8
        LCALL   ?XSTACK_DISP0_8
        MOV     A,?V0 + 2
        MOV     B,?V0 + 6
        MUL     AB
        XCH     A,?V0 + 2
        MOV     R0,B
        MOV     B,?V0 + 7
        MUL     AB
        ADD     A,R0
        MOV     R0,A
        MOV     B,?V0 + 6
        MOV     A,?V0 + 3
        MUL     AB
        ADD     A,R0
        MOV     ?V0 + 3,A
        MOVX    A,@DPTR
        CLR     C
        SUBB    A,?V0 + 2
        MOV     R0,A
        INC     DPTR
        MOVX    A,@DPTR
        SUBB    A,?V0 + 3
        MOV     R1,A
        MOV     A,R0
        ADD     A,#0x1
        MOV     R6,A
        MOV     A,R1
        ADDC    A,#0x0
        SJMP    ??GUI__DispStringInRect_3
//   70       break;
//   71 	  case GUI_TA_VCENTER:
//   72 		  y = r.y0+(r.y1-r.y0+1 -NumLines * FontYSize) /2;
??GUI__DispStringInRect_8:
        MOV     A,#0x4
        LCALL   ?XSTACK_DISP0_8
        MOVX    A,@DPTR
        MOV     R4,A
        INC     DPTR
        MOVX    A,@DPTR
        MOV     R5,A
        MOV     A,#0x8
        LCALL   ?XSTACK_DISP0_8
        LCALL   ?Subroutine2 & 0xFFFF
??CrossCallReturnLabel_4:
        INC     R0
        MOV     A,R1
        ADDC    A,#0x0
        MOV     R1,A
        MOV     A,?V0 + 2
        MOV     B,?V0 + 6
        MUL     AB
        XCH     A,?V0 + 2
        MOV     R2,B
        MOV     B,?V0 + 7
        MUL     AB
        ADD     A,R2
        MOV     R2,A
        MOV     B,?V0 + 6
        MOV     A,?V0 + 3
        MUL     AB
        ADD     A,R2
        MOV     ?V0 + 3,A
        MOV     A,R0
        CLR     C
        SUBB    A,?V0 + 2
        MOV     R0,A
        MOV     A,R1
        SUBB    A,?V0 + 3
        MOV     R1,A
        MOV     R2,#0x2
        MOV     R3,#0x0
        LCALL   ?S_DIV_MOD
        MOV     ?V0 + 2,R0
        MOV     ?V0 + 3,R1
        MOV     A,R4
        ADD     A,?V0 + 2
        MOV     R6,A
        MOV     A,R5
        ADDC    A,?V0 + 3
??GUI__DispStringInRect_3:
        MOV     R7,A
//   73       break;
//   74 	  }
//   75   }
//   76   /* Output string */
//   77   for (NumCharsRem = MaxNumChars, s = sOrg; NumCharsRem;) {
??GUI__DispStringInRect_9:
        MOV     ?V0 + 10,?V0 + 14
        MOV     ?V0 + 11,?V0 + 15
        MOV     A,#0xa
        LCALL   ?XSTACK_DISP0_8
        MOVX    A,@DPTR
        MOV     R0,A
        INC     DPTR
        MOVX    A,@DPTR
        MOV     R1,A
        MOV     DPL,?XSP + 0
        MOV     DPH,?XSP + 1
        MOV     A,R0
        MOVX    @DPTR,A
        INC     DPTR
        MOV     A,R1
        MOVX    @DPTR,A
??GUI__DispStringInRect_10:
        MOV     A,?V0 + 10
        ORL     A,?V0 + 11
        JNZ     $+5
        LJMP    ??GUI__DispStringInRect_11 & 0xFFFF
//   78     int xLineSize;
//   79     LineLen = GUI__GetLineNumChars(s, NumCharsRem);
        ; Setup parameters for call to function GUI__GetLineNumChars
        LCALL   ?Subroutine0 & 0xFFFF
//   80     NumCharsRem -= LineLen;
//   81     xLineSize = GUI__GetLineDistX(s, LineLen);
??CrossCallReturnLabel_1:
        LCALL   ??GUI__GetLineDistX?relay
        MOV     ?V0 + 2,R2
        MOV     ?V0 + 3,R3
        MOV     R4,?V0 + 2
        MOV     R5,?V0 + 3
//   82     switch (TextAlign & GUI_TA_HORIZONTAL) {
        MOV     A,?V0 + 4
        ANL     A,#0x3
        JZ      ??GUI__DispStringInRect_12
        DEC     A
        JZ      ??GUI__DispStringInRect_13
        DEC     A
        JNZ     ??GUI__DispStringInRect_14
//   83     case GUI_TA_HCENTER:
//   84       xLine = r.x0+(r.x1-r.x0-xLineSize)/2; break;
        MOV     A,#0x2
        LCALL   ?XSTACK_DISP0_8
        PUSH    DPL
        CFI CFA_SP SP+-1
        PUSH    DPH
        CFI CFA_SP SP+-2
        MOV     A,#0x6
        LCALL   ?XSTACK_DISP0_8
        PUSH    DPL
        CFI CFA_SP SP+-3
        PUSH    DPH
        CFI CFA_SP SP+-4
        MOV     A,#0x2
        LCALL   ?XSTACK_DISP0_8
        MOVX    A,@DPTR
        MOV     R0,A
        INC     DPTR
        MOVX    A,@DPTR
        MOV     R1,A
        POP     DPH
        CFI CFA_SP SP+-3
        POP     DPL
        CFI CFA_SP SP+-2
        MOVX    A,@DPTR
        CLR     C
        SUBB    A,R0
        MOV     R0,A
        INC     DPTR
        MOVX    A,@DPTR
        SUBB    A,R1
        MOV     R1,A
        MOV     A,R0
        CLR     C
        SUBB    A,R4
        MOV     R0,A
        MOV     A,R1
        SUBB    A,R5
        MOV     R1,A
        MOV     R2,#0x2
        MOV     R3,#0x0
        LCALL   ?S_DIV_MOD
        MOV     ?V0 + 0,R0
        MOV     ?V0 + 1,R1
        POP     DPH
        CFI CFA_SP SP+-1
        POP     DPL
        CFI CFA_SP SP+0
        MOVX    A,@DPTR
        ADD     A,?V0 + 0
        MOV     ?V0 + 0,A
        INC     DPTR
        MOVX    A,@DPTR
        ADDC    A,?V0 + 1
        SJMP    ??GUI__DispStringInRect_15
//   85     case GUI_TA_LEFT:
//   86       xLine = r.x0; break;
??GUI__DispStringInRect_12:
        MOV     A,#0x2
        LCALL   ?XSTACK_DISP0_8
        MOVX    A,@DPTR
        MOV     ?V0 + 0,A
        INC     DPTR
        MOVX    A,@DPTR
        SJMP    ??GUI__DispStringInRect_15
//   87     case GUI_TA_RIGHT:
//   88       xLine = r.x1 -xLineSize + 1;
??GUI__DispStringInRect_13:
        MOV     A,#0x6
        LCALL   ?XSTACK_DISP0_8
        LCALL   ?Subroutine2 & 0xFFFF
//   89     }
??CrossCallReturnLabel_5:
        MOV     ?V0 + 0,A
        MOV     A,R1
        ADDC    A,#0x0
??GUI__DispStringInRect_15:
        MOV     ?V0 + 1,A
//   90     rLine.x0 = GUI_Context.DispPosX = xLine;
??GUI__DispStringInRect_14:
        MOV     DPTR,#GUI_Context + 27
        MOV     A,?V0 + 0
        MOVX    @DPTR,A
        INC     DPTR
        MOV     A,?V0 + 1
        MOVX    @DPTR,A
        MOV     A,#0xc
        LCALL   ?XSTACK_DISP0_8
        MOV     A,?V0 + 0
        MOVX    @DPTR,A
        INC     DPTR
        MOV     A,?V0 + 1
        MOVX    @DPTR,A
//   91     rLine.x1 = rLine.x0 + xLineSize-1;
        MOV     A,#0xc
        LCALL   ?XSTACK_DISP0_8
        MOVX    A,@DPTR
        ADD     A,R4
        MOV     R0,A
        INC     DPTR
        MOVX    A,@DPTR
        ADDC    A,R5
        MOV     R1,A
        MOV     A,R0
        ADD     A,#-0x1
        DEC     R0
        MOV     A,R1
        ADDC    A,#-0x1
        MOV     R1,A
        MOV     A,#0x10
        LCALL   ?XSTACK_DISP0_8
        MOV     A,R0
        MOVX    @DPTR,A
        INC     DPTR
        MOV     A,R1
        MOVX    @DPTR,A
//   92     rLine.y0 = GUI_Context.DispPosY = y;
        MOV     DPTR,#GUI_Context + 29
        MOV     A,R6
        MOVX    @DPTR,A
        INC     DPTR
        MOV     A,R7
        MOVX    @DPTR,A
        MOV     A,#0xe
        LCALL   ?XSTACK_DISP0_8
        MOV     A,R6
        MOVX    @DPTR,A
        INC     DPTR
        MOV     A,R7
        MOVX    @DPTR,A
//   93     rLine.y1 = y + FontYSize-1;
        MOV     A,R6
        ADD     A,?V0 + 6
        MOV     R0,A
        MOV     A,R7
        ADDC    A,?V0 + 7
        MOV     R1,A
        MOV     A,R0
        ADD     A,#-0x1
        DEC     R0
        MOV     A,R1
        ADDC    A,#-0x1
        MOV     R1,A
        MOV     A,#0x12
        LCALL   ?XSTACK_DISP0_8
        MOV     A,R0
        MOVX    @DPTR,A
        INC     DPTR
        MOV     A,R1
        MOVX    @DPTR,A
//   94     GUI__DispLine(s, LineLen, &rLine);
        ; Setup parameters for call to function GUI__DispLine
        MOV     A,#0xc
        LCALL   ?XSTACK_DISP0_8
        MOV     ?V0 + 2,DPL
        MOV     ?V0 + 3,DPH
        MOV     R0,#?V0 + 2
        LCALL   ?PUSH_XSTACK_I_TWO
        CFI CFA_XSP16 add(XSP16, 46)
        MOV     R4,?V0 + 8
        MOV     R5,?V0 + 9
        MOV     A,#0x2
        LCALL   ?XSTACK_DISP0_8
        LCALL   ??Subroutine5_0 & 0xFFFF
??CrossCallReturnLabel_6:
        LCALL   ??GUI__DispLine?relay
        MOV     A,#0x2
        LCALL   ?DEALLOC_XSTACK8
        CFI CFA_XSP16 add(XSP16, 44)
//   95     s += GUI_UC__NumChars2NumBytes(s, LineLen);
        ; Setup parameters for call to function GUI_UC__NumChars2NumBytes
        LCALL   ?Subroutine3 & 0xFFFF
??CrossCallReturnLabel_8:
        LCALL   ??GUI_UC__NumChars2NumBytes?relay
        MOV     ?V0 + 2,R2
        MOV     ?V0 + 3,R3
        MOV     R0,?V0 + 2
        MOV     R1,?V0 + 3
        LCALL   ?Subroutine1 & 0xFFFF
//   96     y += GUI_GetFontDistY();
??CrossCallReturnLabel_3:
        ; Setup parameters for call to function GUI_GetFontDistY
        LCALL   ??GUI_GetFontDistY?relay
        MOV     ?V0 + 2,R2
        MOV     ?V0 + 3,R3
        MOV     A,R6
        ADD     A,?V0 + 2
        MOV     R6,A
        MOV     A,R7
        ADDC    A,?V0 + 3
        MOV     R7,A
//   97     if (GUI__HandleEOLine(&s))
        ; Setup parameters for call to function GUI__HandleEOLine
        MOV     DPL,?XSP + 0
        MOV     DPH,?XSP + 1
        MOV     R2,DPL
        MOV     R3,DPH
        LCALL   ??GUI__HandleEOLine?relay
        MOV     ?V0 + 3,R3
        MOV     A,R2
        ORL     A,?V0 + 3
        JNZ     $+5
        LJMP    ??GUI__DispStringInRect_10 & 0xFFFF
//   98       break;
//   99   }
//  100 }
??GUI__DispStringInRect_11:
        MOV     A,#0x14
        LCALL   ?DEALLOC_XSTACK8
        CFI CFA_XSP16 add(XSP16, 24)
        MOV     R7,#0x10
        LJMP    ?BANKED_LEAVE_XDATA
        CFI EndBlock cfiBlock0

        RSEG BANKED_CODE:CODE:NOROOT(0)
?Subroutine2:
        CFI Block cfiCond1 Using cfiCommon0
        CFI NoFunction
        CFI Conditional ??CrossCallReturnLabel_4
        CFI R6 load(1, XDATA, add(CFA_XSP16, literal(-24)))
        CFI VB load(1, XDATA, add(CFA_XSP16, literal(-23)))
        CFI V0 load(1, XDATA, add(CFA_XSP16, literal(-22)))
        CFI V1 load(1, XDATA, add(CFA_XSP16, literal(-21)))
        CFI V2 load(1, XDATA, add(CFA_XSP16, literal(-20)))
        CFI V3 load(1, XDATA, add(CFA_XSP16, literal(-19)))
        CFI V4 load(1, XDATA, add(CFA_XSP16, literal(-18)))
        CFI V5 load(1, XDATA, add(CFA_XSP16, literal(-17)))
        CFI V6 load(1, XDATA, add(CFA_XSP16, literal(-16)))
        CFI V7 load(1, XDATA, add(CFA_XSP16, literal(-15)))
        CFI V8 load(1, XDATA, add(CFA_XSP16, literal(-14)))
        CFI V9 load(1, XDATA, add(CFA_XSP16, literal(-13)))
        CFI V10 load(1, XDATA, add(CFA_XSP16, literal(-12)))
        CFI V11 load(1, XDATA, add(CFA_XSP16, literal(-11)))
        CFI V12 load(1, XDATA, add(CFA_XSP16, literal(-10)))
        CFI V13 load(1, XDATA, add(CFA_XSP16, literal(-9)))
        CFI V14 load(1, XDATA, add(CFA_XSP16, literal(-8)))
        CFI V15 load(1, XDATA, add(CFA_XSP16, literal(-7)))
        CFI R7 load(1, XDATA, add(CFA_XSP16, literal(-6)))
        CFI ?RET_LOW load(1, XDATA, add(CFA_XSP16, literal(-5)))
        CFI ?RET_HIGH load(1, XDATA, add(CFA_XSP16, literal(-4)))
        CFI ?BRET_EXT load(1, XDATA, add(CFA_XSP16, literal(-3)))
        CFI DPL0 load(1, XDATA, add(CFA_XSP16, literal(-2)))
        CFI DPH0 load(1, XDATA, add(CFA_XSP16, literal(-1)))
        CFI CFA_SP SP+0
        CFI CFA_XSP16 add(XSP16, 44)
        CFI Block cfiCond2 Using cfiCommon0
        CFI (cfiCond2) NoFunction
        CFI (cfiCond2) Conditional ??CrossCallReturnLabel_5
        CFI (cfiCond2) R6 load(1, XDATA, add(CFA_XSP16, literal(-24)))
        CFI (cfiCond2) VB load(1, XDATA, add(CFA_XSP16, literal(-23)))
        CFI (cfiCond2) V0 load(1, XDATA, add(CFA_XSP16, literal(-22)))
        CFI (cfiCond2) V1 load(1, XDATA, add(CFA_XSP16, literal(-21)))
        CFI (cfiCond2) V2 load(1, XDATA, add(CFA_XSP16, literal(-20)))
        CFI (cfiCond2) V3 load(1, XDATA, add(CFA_XSP16, literal(-19)))
        CFI (cfiCond2) V4 load(1, XDATA, add(CFA_XSP16, literal(-18)))
        CFI (cfiCond2) V5 load(1, XDATA, add(CFA_XSP16, literal(-17)))
        CFI (cfiCond2) V6 load(1, XDATA, add(CFA_XSP16, literal(-16)))
        CFI (cfiCond2) V7 load(1, XDATA, add(CFA_XSP16, literal(-15)))
        CFI (cfiCond2) V8 load(1, XDATA, add(CFA_XSP16, literal(-14)))
        CFI (cfiCond2) V9 load(1, XDATA, add(CFA_XSP16, literal(-13)))
        CFI (cfiCond2) V10 load(1, XDATA, add(CFA_XSP16, literal(-12)))
        CFI (cfiCond2) V11 load(1, XDATA, add(CFA_XSP16, literal(-11)))
        CFI (cfiCond2) V12 load(1, XDATA, add(CFA_XSP16, literal(-10)))
        CFI (cfiCond2) V13 load(1, XDATA, add(CFA_XSP16, literal(-9)))
        CFI (cfiCond2) V14 load(1, XDATA, add(CFA_XSP16, literal(-8)))
        CFI (cfiCond2) V15 load(1, XDATA, add(CFA_XSP16, literal(-7)))
        CFI (cfiCond2) R7 load(1, XDATA, add(CFA_XSP16, literal(-6)))
        CFI (cfiCond2) ?RET_LOW load(1, XDATA, add(CFA_XSP16, literal(-5)))
        CFI (cfiCond2) ?RET_HIGH load(1, XDATA, add(CFA_XSP16, literal(-4)))
        CFI (cfiCond2) ?BRET_EXT load(1, XDATA, add(CFA_XSP16, literal(-3)))
        CFI (cfiCond2) DPL0 load(1, XDATA, add(CFA_XSP16, literal(-2)))
        CFI (cfiCond2) DPH0 load(1, XDATA, add(CFA_XSP16, literal(-1)))
        CFI (cfiCond2) CFA_SP SP+0
        CFI (cfiCond2) CFA_XSP16 add(XSP16, 44)
        CFI Block cfiPicker3 Using cfiCommon1
        CFI (cfiPicker3) NoFunction
        CFI (cfiPicker3) Picker
        MOVX    A,@DPTR
        CLR     C
        SUBB    A,R4
        MOV     R0,A
        INC     DPTR
        MOVX    A,@DPTR
        SUBB    A,R5
        MOV     R1,A
        MOV     A,R0
        ADD     A,#0x1
        RET
        CFI EndBlock cfiCond1
        CFI EndBlock cfiCond2
        CFI EndBlock cfiPicker3

        RSEG BANKED_CODE:CODE:NOROOT(0)
?Subroutine1:
        CFI Block cfiCond4 Using cfiCommon0
        CFI NoFunction
        CFI Conditional ??CrossCallReturnLabel_2
        CFI R6 load(1, XDATA, add(CFA_XSP16, literal(-24)))
        CFI VB load(1, XDATA, add(CFA_XSP16, literal(-23)))
        CFI V0 load(1, XDATA, add(CFA_XSP16, literal(-22)))
        CFI V1 load(1, XDATA, add(CFA_XSP16, literal(-21)))
        CFI V2 load(1, XDATA, add(CFA_XSP16, literal(-20)))
        CFI V3 load(1, XDATA, add(CFA_XSP16, literal(-19)))
        CFI V4 load(1, XDATA, add(CFA_XSP16, literal(-18)))
        CFI V5 load(1, XDATA, add(CFA_XSP16, literal(-17)))
        CFI V6 load(1, XDATA, add(CFA_XSP16, literal(-16)))
        CFI V7 load(1, XDATA, add(CFA_XSP16, literal(-15)))
        CFI V8 load(1, XDATA, add(CFA_XSP16, literal(-14)))
        CFI V9 load(1, XDATA, add(CFA_XSP16, literal(-13)))
        CFI V10 load(1, XDATA, add(CFA_XSP16, literal(-12)))
        CFI V11 load(1, XDATA, add(CFA_XSP16, literal(-11)))
        CFI V12 load(1, XDATA, add(CFA_XSP16, literal(-10)))
        CFI V13 load(1, XDATA, add(CFA_XSP16, literal(-9)))
        CFI V14 load(1, XDATA, add(CFA_XSP16, literal(-8)))
        CFI V15 load(1, XDATA, add(CFA_XSP16, literal(-7)))
        CFI R7 load(1, XDATA, add(CFA_XSP16, literal(-6)))
        CFI ?RET_LOW load(1, XDATA, add(CFA_XSP16, literal(-5)))
        CFI ?RET_HIGH load(1, XDATA, add(CFA_XSP16, literal(-4)))
        CFI ?BRET_EXT load(1, XDATA, add(CFA_XSP16, literal(-3)))
        CFI DPL0 load(1, XDATA, add(CFA_XSP16, literal(-2)))
        CFI DPH0 load(1, XDATA, add(CFA_XSP16, literal(-1)))
        CFI CFA_SP SP+0
        CFI CFA_XSP16 add(XSP16, 44)
        CFI Block cfiCond5 Using cfiCommon0
        CFI (cfiCond5) NoFunction
        CFI (cfiCond5) Conditional ??CrossCallReturnLabel_3
        CFI (cfiCond5) R6 load(1, XDATA, add(CFA_XSP16, literal(-24)))
        CFI (cfiCond5) VB load(1, XDATA, add(CFA_XSP16, literal(-23)))
        CFI (cfiCond5) V0 load(1, XDATA, add(CFA_XSP16, literal(-22)))
        CFI (cfiCond5) V1 load(1, XDATA, add(CFA_XSP16, literal(-21)))
        CFI (cfiCond5) V2 load(1, XDATA, add(CFA_XSP16, literal(-20)))
        CFI (cfiCond5) V3 load(1, XDATA, add(CFA_XSP16, literal(-19)))
        CFI (cfiCond5) V4 load(1, XDATA, add(CFA_XSP16, literal(-18)))
        CFI (cfiCond5) V5 load(1, XDATA, add(CFA_XSP16, literal(-17)))
        CFI (cfiCond5) V6 load(1, XDATA, add(CFA_XSP16, literal(-16)))
        CFI (cfiCond5) V7 load(1, XDATA, add(CFA_XSP16, literal(-15)))
        CFI (cfiCond5) V8 load(1, XDATA, add(CFA_XSP16, literal(-14)))
        CFI (cfiCond5) V9 load(1, XDATA, add(CFA_XSP16, literal(-13)))
        CFI (cfiCond5) V10 load(1, XDATA, add(CFA_XSP16, literal(-12)))
        CFI (cfiCond5) V11 load(1, XDATA, add(CFA_XSP16, literal(-11)))
        CFI (cfiCond5) V12 load(1, XDATA, add(CFA_XSP16, literal(-10)))
        CFI (cfiCond5) V13 load(1, XDATA, add(CFA_XSP16, literal(-9)))
        CFI (cfiCond5) V14 load(1, XDATA, add(CFA_XSP16, literal(-8)))
        CFI (cfiCond5) V15 load(1, XDATA, add(CFA_XSP16, literal(-7)))
        CFI (cfiCond5) R7 load(1, XDATA, add(CFA_XSP16, literal(-6)))
        CFI (cfiCond5) ?RET_LOW load(1, XDATA, add(CFA_XSP16, literal(-5)))
        CFI (cfiCond5) ?RET_HIGH load(1, XDATA, add(CFA_XSP16, literal(-4)))
        CFI (cfiCond5) ?BRET_EXT load(1, XDATA, add(CFA_XSP16, literal(-3)))
        CFI (cfiCond5) DPL0 load(1, XDATA, add(CFA_XSP16, literal(-2)))
        CFI (cfiCond5) DPH0 load(1, XDATA, add(CFA_XSP16, literal(-1)))
        CFI (cfiCond5) CFA_SP SP+0
        CFI (cfiCond5) CFA_XSP16 add(XSP16, 44)
        CFI Block cfiPicker6 Using cfiCommon1
        CFI (cfiPicker6) NoFunction
        CFI (cfiPicker6) Picker
        MOV     DPL,?XSP + 0
        MOV     DPH,?XSP + 1
        MOVX    A,@DPTR
        ADD     A,R0
        MOV     R0,A
        INC     DPTR
        MOVX    A,@DPTR
        ADDC    A,R1
        MOV     R1,A
        MOV     DPL,?XSP + 0
        MOV     DPH,?XSP + 1
        MOV     A,R0
        MOVX    @DPTR,A
        INC     DPTR
        MOV     A,R1
        MOVX    @DPTR,A
        RET
        CFI EndBlock cfiCond4
        CFI EndBlock cfiCond5
        CFI EndBlock cfiPicker6

        RSEG BANKED_CODE:CODE:NOROOT(0)
?Subroutine0:
        CFI Block cfiCond7 Using cfiCommon0
        CFI NoFunction
        CFI Conditional ??CrossCallReturnLabel_0
        CFI R6 load(1, XDATA, add(CFA_XSP16, literal(-24)))
        CFI VB load(1, XDATA, add(CFA_XSP16, literal(-23)))
        CFI V0 load(1, XDATA, add(CFA_XSP16, literal(-22)))
        CFI V1 load(1, XDATA, add(CFA_XSP16, literal(-21)))
        CFI V2 load(1, XDATA, add(CFA_XSP16, literal(-20)))
        CFI V3 load(1, XDATA, add(CFA_XSP16, literal(-19)))
        CFI V4 load(1, XDATA, add(CFA_XSP16, literal(-18)))
        CFI V5 load(1, XDATA, add(CFA_XSP16, literal(-17)))
        CFI V6 load(1, XDATA, add(CFA_XSP16, literal(-16)))
        CFI V7 load(1, XDATA, add(CFA_XSP16, literal(-15)))
        CFI V8 load(1, XDATA, add(CFA_XSP16, literal(-14)))
        CFI V9 load(1, XDATA, add(CFA_XSP16, literal(-13)))
        CFI V10 load(1, XDATA, add(CFA_XSP16, literal(-12)))
        CFI V11 load(1, XDATA, add(CFA_XSP16, literal(-11)))
        CFI V12 load(1, XDATA, add(CFA_XSP16, literal(-10)))
        CFI V13 load(1, XDATA, add(CFA_XSP16, literal(-9)))
        CFI V14 load(1, XDATA, add(CFA_XSP16, literal(-8)))
        CFI V15 load(1, XDATA, add(CFA_XSP16, literal(-7)))
        CFI R7 load(1, XDATA, add(CFA_XSP16, literal(-6)))
        CFI ?RET_LOW load(1, XDATA, add(CFA_XSP16, literal(-5)))
        CFI ?RET_HIGH load(1, XDATA, add(CFA_XSP16, literal(-4)))
        CFI ?BRET_EXT load(1, XDATA, add(CFA_XSP16, literal(-3)))
        CFI DPL0 load(1, XDATA, add(CFA_XSP16, literal(-2)))
        CFI DPH0 load(1, XDATA, add(CFA_XSP16, literal(-1)))
        CFI CFA_SP SP+0
        CFI CFA_XSP16 add(XSP16, 44)
        CFI Block cfiCond8 Using cfiCommon0
        CFI (cfiCond8) NoFunction
        CFI (cfiCond8) Conditional ??CrossCallReturnLabel_1
        CFI (cfiCond8) R6 load(1, XDATA, add(CFA_XSP16, literal(-24)))
        CFI (cfiCond8) VB load(1, XDATA, add(CFA_XSP16, literal(-23)))
        CFI (cfiCond8) V0 load(1, XDATA, add(CFA_XSP16, literal(-22)))
        CFI (cfiCond8) V1 load(1, XDATA, add(CFA_XSP16, literal(-21)))
        CFI (cfiCond8) V2 load(1, XDATA, add(CFA_XSP16, literal(-20)))
        CFI (cfiCond8) V3 load(1, XDATA, add(CFA_XSP16, literal(-19)))
        CFI (cfiCond8) V4 load(1, XDATA, add(CFA_XSP16, literal(-18)))
        CFI (cfiCond8) V5 load(1, XDATA, add(CFA_XSP16, literal(-17)))
        CFI (cfiCond8) V6 load(1, XDATA, add(CFA_XSP16, literal(-16)))
        CFI (cfiCond8) V7 load(1, XDATA, add(CFA_XSP16, literal(-15)))
        CFI (cfiCond8) V8 load(1, XDATA, add(CFA_XSP16, literal(-14)))
        CFI (cfiCond8) V9 load(1, XDATA, add(CFA_XSP16, literal(-13)))
        CFI (cfiCond8) V10 load(1, XDATA, add(CFA_XSP16, literal(-12)))
        CFI (cfiCond8) V11 load(1, XDATA, add(CFA_XSP16, literal(-11)))
        CFI (cfiCond8) V12 load(1, XDATA, add(CFA_XSP16, literal(-10)))
        CFI (cfiCond8) V13 load(1, XDATA, add(CFA_XSP16, literal(-9)))
        CFI (cfiCond8) V14 load(1, XDATA, add(CFA_XSP16, literal(-8)))
        CFI (cfiCond8) V15 load(1, XDATA, add(CFA_XSP16, literal(-7)))
        CFI (cfiCond8) R7 load(1, XDATA, add(CFA_XSP16, literal(-6)))
        CFI (cfiCond8) ?RET_LOW load(1, XDATA, add(CFA_XSP16, literal(-5)))
        CFI (cfiCond8) ?RET_HIGH load(1, XDATA, add(CFA_XSP16, literal(-4)))
        CFI (cfiCond8) ?BRET_EXT load(1, XDATA, add(CFA_XSP16, literal(-3)))
        CFI (cfiCond8) DPL0 load(1, XDATA, add(CFA_XSP16, literal(-2)))
        CFI (cfiCond8) DPH0 load(1, XDATA, add(CFA_XSP16, literal(-1)))
        CFI (cfiCond8) CFA_SP SP+0
        CFI (cfiCond8) CFA_XSP16 add(XSP16, 44)
        CFI Block cfiPicker9 Using cfiCommon1
        CFI (cfiPicker9) NoFunction
        CFI (cfiPicker9) Picker
        MOV     R4,?V0 + 10
        MOV     R5,?V0 + 11
        LCALL   ??Subroutine4_0 & 0xFFFF
??CrossCallReturnLabel_7:
        LCALL   ??GUI__GetLineNumChars?relay
        MOV     ?V0 + 8,R2
        MOV     ?V0 + 9,R3
        CLR     C
        MOV     A,?V0 + 10
        SUBB    A,?V0 + 8
        MOV     ?V0 + 10,A
        MOV     A,?V0 + 11
        SUBB    A,?V0 + 9
        MOV     ?V0 + 11,A
        ; Setup parameters for call to function GUI_UC__NumChars2NumBytes
        ; Setup parameters for call to function GUI__GetLineDistX
        LCALL   ?Subroutine3 & 0xFFFF
??CrossCallReturnLabel_9:
        RET
        CFI EndBlock cfiCond7
        CFI EndBlock cfiCond8
        CFI EndBlock cfiPicker9

        RSEG BANKED_CODE:CODE:NOROOT(0)
?Subroutine3:
        CFI Block cfiCond10 Using cfiCommon0
        CFI NoFunction
        CFI Conditional ??CrossCallReturnLabel_8
        CFI R6 load(1, XDATA, add(CFA_XSP16, literal(-24)))
        CFI VB load(1, XDATA, add(CFA_XSP16, literal(-23)))
        CFI V0 load(1, XDATA, add(CFA_XSP16, literal(-22)))
        CFI V1 load(1, XDATA, add(CFA_XSP16, literal(-21)))
        CFI V2 load(1, XDATA, add(CFA_XSP16, literal(-20)))
        CFI V3 load(1, XDATA, add(CFA_XSP16, literal(-19)))
        CFI V4 load(1, XDATA, add(CFA_XSP16, literal(-18)))
        CFI V5 load(1, XDATA, add(CFA_XSP16, literal(-17)))
        CFI V6 load(1, XDATA, add(CFA_XSP16, literal(-16)))
        CFI V7 load(1, XDATA, add(CFA_XSP16, literal(-15)))
        CFI V8 load(1, XDATA, add(CFA_XSP16, literal(-14)))
        CFI V9 load(1, XDATA, add(CFA_XSP16, literal(-13)))
        CFI V10 load(1, XDATA, add(CFA_XSP16, literal(-12)))
        CFI V11 load(1, XDATA, add(CFA_XSP16, literal(-11)))
        CFI V12 load(1, XDATA, add(CFA_XSP16, literal(-10)))
        CFI V13 load(1, XDATA, add(CFA_XSP16, literal(-9)))
        CFI V14 load(1, XDATA, add(CFA_XSP16, literal(-8)))
        CFI V15 load(1, XDATA, add(CFA_XSP16, literal(-7)))
        CFI R7 load(1, XDATA, add(CFA_XSP16, literal(-6)))
        CFI ?RET_LOW load(1, XDATA, add(CFA_XSP16, literal(-5)))
        CFI ?RET_HIGH load(1, XDATA, add(CFA_XSP16, literal(-4)))
        CFI ?BRET_EXT load(1, XDATA, add(CFA_XSP16, literal(-3)))
        CFI DPL0 load(1, XDATA, add(CFA_XSP16, literal(-2)))
        CFI DPH0 load(1, XDATA, add(CFA_XSP16, literal(-1)))
        CFI CFA_SP SP+0
        CFI CFA_XSP16 add(XSP16, 44)
        CFI Block cfiCond11 Using cfiCommon0
        CFI (cfiCond11) NoFunction
        CFI (cfiCond11) Conditional ??CrossCallReturnLabel_9, ??CrossCallReturnLabel_0
        CFI (cfiCond11) R6 load(1, XDATA, add(CFA_XSP16, literal(-24)))
        CFI (cfiCond11) VB load(1, XDATA, add(CFA_XSP16, literal(-23)))
        CFI (cfiCond11) V0 load(1, XDATA, add(CFA_XSP16, literal(-22)))
        CFI (cfiCond11) V1 load(1, XDATA, add(CFA_XSP16, literal(-21)))
        CFI (cfiCond11) V2 load(1, XDATA, add(CFA_XSP16, literal(-20)))
        CFI (cfiCond11) V3 load(1, XDATA, add(CFA_XSP16, literal(-19)))
        CFI (cfiCond11) V4 load(1, XDATA, add(CFA_XSP16, literal(-18)))
        CFI (cfiCond11) V5 load(1, XDATA, add(CFA_XSP16, literal(-17)))
        CFI (cfiCond11) V6 load(1, XDATA, add(CFA_XSP16, literal(-16)))
        CFI (cfiCond11) V7 load(1, XDATA, add(CFA_XSP16, literal(-15)))
        CFI (cfiCond11) V8 load(1, XDATA, add(CFA_XSP16, literal(-14)))
        CFI (cfiCond11) V9 load(1, XDATA, add(CFA_XSP16, literal(-13)))
        CFI (cfiCond11) V10 load(1, XDATA, add(CFA_XSP16, literal(-12)))
        CFI (cfiCond11) V11 load(1, XDATA, add(CFA_XSP16, literal(-11)))
        CFI (cfiCond11) V12 load(1, XDATA, add(CFA_XSP16, literal(-10)))
        CFI (cfiCond11) V13 load(1, XDATA, add(CFA_XSP16, literal(-9)))
        CFI (cfiCond11) V14 load(1, XDATA, add(CFA_XSP16, literal(-8)))
        CFI (cfiCond11) V15 load(1, XDATA, add(CFA_XSP16, literal(-7)))
        CFI (cfiCond11) R7 load(1, XDATA, add(CFA_XSP16, literal(-6)))
        CFI (cfiCond11) ?RET_LOW load(1, XDATA, add(CFA_XSP16, literal(-5)))
        CFI (cfiCond11) ?RET_HIGH load(1, XDATA, add(CFA_XSP16, literal(-4)))
        CFI (cfiCond11) ?BRET_EXT load(1, XDATA, add(CFA_XSP16, literal(-3)))
        CFI (cfiCond11) DPL0 load(1, XDATA, add(CFA_XSP16, literal(-2)))
        CFI (cfiCond11) DPH0 load(1, XDATA, add(CFA_XSP16, literal(-1)))
        CFI (cfiCond11) CFA_SP SP+0
        CFI (cfiCond11) CFA_XSP16 add(XSP16, 44)
        CFI Block cfiCond12 Using cfiCommon0
        CFI (cfiCond12) NoFunction
        CFI (cfiCond12) Conditional ??CrossCallReturnLabel_9, ??CrossCallReturnLabel_1
        CFI (cfiCond12) R6 load(1, XDATA, add(CFA_XSP16, literal(-24)))
        CFI (cfiCond12) VB load(1, XDATA, add(CFA_XSP16, literal(-23)))
        CFI (cfiCond12) V0 load(1, XDATA, add(CFA_XSP16, literal(-22)))
        CFI (cfiCond12) V1 load(1, XDATA, add(CFA_XSP16, literal(-21)))
        CFI (cfiCond12) V2 load(1, XDATA, add(CFA_XSP16, literal(-20)))
        CFI (cfiCond12) V3 load(1, XDATA, add(CFA_XSP16, literal(-19)))
        CFI (cfiCond12) V4 load(1, XDATA, add(CFA_XSP16, literal(-18)))
        CFI (cfiCond12) V5 load(1, XDATA, add(CFA_XSP16, literal(-17)))
        CFI (cfiCond12) V6 load(1, XDATA, add(CFA_XSP16, literal(-16)))
        CFI (cfiCond12) V7 load(1, XDATA, add(CFA_XSP16, literal(-15)))
        CFI (cfiCond12) V8 load(1, XDATA, add(CFA_XSP16, literal(-14)))
        CFI (cfiCond12) V9 load(1, XDATA, add(CFA_XSP16, literal(-13)))
        CFI (cfiCond12) V10 load(1, XDATA, add(CFA_XSP16, literal(-12)))
        CFI (cfiCond12) V11 load(1, XDATA, add(CFA_XSP16, literal(-11)))
        CFI (cfiCond12) V12 load(1, XDATA, add(CFA_XSP16, literal(-10)))
        CFI (cfiCond12) V13 load(1, XDATA, add(CFA_XSP16, literal(-9)))
        CFI (cfiCond12) V14 load(1, XDATA, add(CFA_XSP16, literal(-8)))
        CFI (cfiCond12) V15 load(1, XDATA, add(CFA_XSP16, literal(-7)))
        CFI (cfiCond12) R7 load(1, XDATA, add(CFA_XSP16, literal(-6)))
        CFI (cfiCond12) ?RET_LOW load(1, XDATA, add(CFA_XSP16, literal(-5)))
        CFI (cfiCond12) ?RET_HIGH load(1, XDATA, add(CFA_XSP16, literal(-4)))
        CFI (cfiCond12) ?BRET_EXT load(1, XDATA, add(CFA_XSP16, literal(-3)))
        CFI (cfiCond12) DPL0 load(1, XDATA, add(CFA_XSP16, literal(-2)))
        CFI (cfiCond12) DPH0 load(1, XDATA, add(CFA_XSP16, literal(-1)))
        CFI (cfiCond12) CFA_SP SP+0
        CFI (cfiCond12) CFA_XSP16 add(XSP16, 44)
        CFI Block cfiPicker13 Using cfiCommon1
        CFI (cfiPicker13) NoFunction
        CFI (cfiPicker13) Picker
        MOV     R4,?V0 + 8
        MOV     R5,?V0 + 9
        CFI EndBlock cfiCond10
        CFI EndBlock cfiCond11
        CFI EndBlock cfiCond12
        CFI EndBlock cfiPicker13
        REQUIRE ??Subroutine4_0
        ; // Fall through to label ??Subroutine4_0

        RSEG BANKED_CODE:CODE:NOROOT(0)
??Subroutine4_0:
        CFI Block cfiCond14 Using cfiCommon0
        CFI NoFunction
        CFI Conditional ??CrossCallReturnLabel_7, ??CrossCallReturnLabel_0
        CFI R6 load(1, XDATA, add(CFA_XSP16, literal(-24)))
        CFI VB load(1, XDATA, add(CFA_XSP16, literal(-23)))
        CFI V0 load(1, XDATA, add(CFA_XSP16, literal(-22)))
        CFI V1 load(1, XDATA, add(CFA_XSP16, literal(-21)))
        CFI V2 load(1, XDATA, add(CFA_XSP16, literal(-20)))
        CFI V3 load(1, XDATA, add(CFA_XSP16, literal(-19)))
        CFI V4 load(1, XDATA, add(CFA_XSP16, literal(-18)))
        CFI V5 load(1, XDATA, add(CFA_XSP16, literal(-17)))
        CFI V6 load(1, XDATA, add(CFA_XSP16, literal(-16)))
        CFI V7 load(1, XDATA, add(CFA_XSP16, literal(-15)))
        CFI V8 load(1, XDATA, add(CFA_XSP16, literal(-14)))
        CFI V9 load(1, XDATA, add(CFA_XSP16, literal(-13)))
        CFI V10 load(1, XDATA, add(CFA_XSP16, literal(-12)))
        CFI V11 load(1, XDATA, add(CFA_XSP16, literal(-11)))
        CFI V12 load(1, XDATA, add(CFA_XSP16, literal(-10)))
        CFI V13 load(1, XDATA, add(CFA_XSP16, literal(-9)))
        CFI V14 load(1, XDATA, add(CFA_XSP16, literal(-8)))
        CFI V15 load(1, XDATA, add(CFA_XSP16, literal(-7)))
        CFI R7 load(1, XDATA, add(CFA_XSP16, literal(-6)))
        CFI ?RET_LOW load(1, XDATA, add(CFA_XSP16, literal(-5)))
        CFI ?RET_HIGH load(1, XDATA, add(CFA_XSP16, literal(-4)))
        CFI ?BRET_EXT load(1, XDATA, add(CFA_XSP16, literal(-3)))
        CFI DPL0 load(1, XDATA, add(CFA_XSP16, literal(-2)))
        CFI DPH0 load(1, XDATA, add(CFA_XSP16, literal(-1)))
        CFI CFA_SP SP+0
        CFI CFA_XSP16 add(XSP16, 44)
        CFI Block cfiCond15 Using cfiCommon0
        CFI (cfiCond15) NoFunction
        CFI (cfiCond15) Conditional ??CrossCallReturnLabel_7, ??CrossCallReturnLabel_1
        CFI (cfiCond15) R6 load(1, XDATA, add(CFA_XSP16, literal(-24)))
        CFI (cfiCond15) VB load(1, XDATA, add(CFA_XSP16, literal(-23)))
        CFI (cfiCond15) V0 load(1, XDATA, add(CFA_XSP16, literal(-22)))
        CFI (cfiCond15) V1 load(1, XDATA, add(CFA_XSP16, literal(-21)))
        CFI (cfiCond15) V2 load(1, XDATA, add(CFA_XSP16, literal(-20)))
        CFI (cfiCond15) V3 load(1, XDATA, add(CFA_XSP16, literal(-19)))
        CFI (cfiCond15) V4 load(1, XDATA, add(CFA_XSP16, literal(-18)))
        CFI (cfiCond15) V5 load(1, XDATA, add(CFA_XSP16, literal(-17)))
        CFI (cfiCond15) V6 load(1, XDATA, add(CFA_XSP16, literal(-16)))
        CFI (cfiCond15) V7 load(1, XDATA, add(CFA_XSP16, literal(-15)))
        CFI (cfiCond15) V8 load(1, XDATA, add(CFA_XSP16, literal(-14)))
        CFI (cfiCond15) V9 load(1, XDATA, add(CFA_XSP16, literal(-13)))
        CFI (cfiCond15) V10 load(1, XDATA, add(CFA_XSP16, literal(-12)))
        CFI (cfiCond15) V11 load(1, XDATA, add(CFA_XSP16, literal(-11)))
        CFI (cfiCond15) V12 load(1, XDATA, add(CFA_XSP16, literal(-10)))
        CFI (cfiCond15) V13 load(1, XDATA, add(CFA_XSP16, literal(-9)))
        CFI (cfiCond15) V14 load(1, XDATA, add(CFA_XSP16, literal(-8)))
        CFI (cfiCond15) V15 load(1, XDATA, add(CFA_XSP16, literal(-7)))
        CFI (cfiCond15) R7 load(1, XDATA, add(CFA_XSP16, literal(-6)))
        CFI (cfiCond15) ?RET_LOW load(1, XDATA, add(CFA_XSP16, literal(-5)))
        CFI (cfiCond15) ?RET_HIGH load(1, XDATA, add(CFA_XSP16, literal(-4)))
        CFI (cfiCond15) ?BRET_EXT load(1, XDATA, add(CFA_XSP16, literal(-3)))
        CFI (cfiCond15) DPL0 load(1, XDATA, add(CFA_XSP16, literal(-2)))
        CFI (cfiCond15) DPH0 load(1, XDATA, add(CFA_XSP16, literal(-1)))
        CFI (cfiCond15) CFA_SP SP+0
        CFI (cfiCond15) CFA_XSP16 add(XSP16, 44)
        CFI Block cfiCond16 Using cfiCommon0
        CFI (cfiCond16) NoFunction
        CFI (cfiCond16) Conditional ??CrossCallReturnLabel_8
        CFI (cfiCond16) R6 load(1, XDATA, add(CFA_XSP16, literal(-24)))
        CFI (cfiCond16) VB load(1, XDATA, add(CFA_XSP16, literal(-23)))
        CFI (cfiCond16) V0 load(1, XDATA, add(CFA_XSP16, literal(-22)))
        CFI (cfiCond16) V1 load(1, XDATA, add(CFA_XSP16, literal(-21)))
        CFI (cfiCond16) V2 load(1, XDATA, add(CFA_XSP16, literal(-20)))
        CFI (cfiCond16) V3 load(1, XDATA, add(CFA_XSP16, literal(-19)))
        CFI (cfiCond16) V4 load(1, XDATA, add(CFA_XSP16, literal(-18)))
        CFI (cfiCond16) V5 load(1, XDATA, add(CFA_XSP16, literal(-17)))
        CFI (cfiCond16) V6 load(1, XDATA, add(CFA_XSP16, literal(-16)))
        CFI (cfiCond16) V7 load(1, XDATA, add(CFA_XSP16, literal(-15)))
        CFI (cfiCond16) V8 load(1, XDATA, add(CFA_XSP16, literal(-14)))
        CFI (cfiCond16) V9 load(1, XDATA, add(CFA_XSP16, literal(-13)))
        CFI (cfiCond16) V10 load(1, XDATA, add(CFA_XSP16, literal(-12)))
        CFI (cfiCond16) V11 load(1, XDATA, add(CFA_XSP16, literal(-11)))
        CFI (cfiCond16) V12 load(1, XDATA, add(CFA_XSP16, literal(-10)))
        CFI (cfiCond16) V13 load(1, XDATA, add(CFA_XSP16, literal(-9)))
        CFI (cfiCond16) V14 load(1, XDATA, add(CFA_XSP16, literal(-8)))
        CFI (cfiCond16) V15 load(1, XDATA, add(CFA_XSP16, literal(-7)))
        CFI (cfiCond16) R7 load(1, XDATA, add(CFA_XSP16, literal(-6)))
        CFI (cfiCond16) ?RET_LOW load(1, XDATA, add(CFA_XSP16, literal(-5)))
        CFI (cfiCond16) ?RET_HIGH load(1, XDATA, add(CFA_XSP16, literal(-4)))
        CFI (cfiCond16) ?BRET_EXT load(1, XDATA, add(CFA_XSP16, literal(-3)))
        CFI (cfiCond16) DPL0 load(1, XDATA, add(CFA_XSP16, literal(-2)))
        CFI (cfiCond16) DPH0 load(1, XDATA, add(CFA_XSP16, literal(-1)))
        CFI (cfiCond16) CFA_SP SP+0
        CFI (cfiCond16) CFA_XSP16 add(XSP16, 44)
        CFI Block cfiCond17 Using cfiCommon0
        CFI (cfiCond17) NoFunction
        CFI (cfiCond17) Conditional ??CrossCallReturnLabel_9, ??CrossCallReturnLabel_0
        CFI (cfiCond17) R6 load(1, XDATA, add(CFA_XSP16, literal(-24)))
        CFI (cfiCond17) VB load(1, XDATA, add(CFA_XSP16, literal(-23)))
        CFI (cfiCond17) V0 load(1, XDATA, add(CFA_XSP16, literal(-22)))
        CFI (cfiCond17) V1 load(1, XDATA, add(CFA_XSP16, literal(-21)))
        CFI (cfiCond17) V2 load(1, XDATA, add(CFA_XSP16, literal(-20)))
        CFI (cfiCond17) V3 load(1, XDATA, add(CFA_XSP16, literal(-19)))
        CFI (cfiCond17) V4 load(1, XDATA, add(CFA_XSP16, literal(-18)))
        CFI (cfiCond17) V5 load(1, XDATA, add(CFA_XSP16, literal(-17)))
        CFI (cfiCond17) V6 load(1, XDATA, add(CFA_XSP16, literal(-16)))
        CFI (cfiCond17) V7 load(1, XDATA, add(CFA_XSP16, literal(-15)))
        CFI (cfiCond17) V8 load(1, XDATA, add(CFA_XSP16, literal(-14)))
        CFI (cfiCond17) V9 load(1, XDATA, add(CFA_XSP16, literal(-13)))
        CFI (cfiCond17) V10 load(1, XDATA, add(CFA_XSP16, literal(-12)))
        CFI (cfiCond17) V11 load(1, XDATA, add(CFA_XSP16, literal(-11)))
        CFI (cfiCond17) V12 load(1, XDATA, add(CFA_XSP16, literal(-10)))
        CFI (cfiCond17) V13 load(1, XDATA, add(CFA_XSP16, literal(-9)))
        CFI (cfiCond17) V14 load(1, XDATA, add(CFA_XSP16, literal(-8)))
        CFI (cfiCond17) V15 load(1, XDATA, add(CFA_XSP16, literal(-7)))
        CFI (cfiCond17) R7 load(1, XDATA, add(CFA_XSP16, literal(-6)))
        CFI (cfiCond17) ?RET_LOW load(1, XDATA, add(CFA_XSP16, literal(-5)))
        CFI (cfiCond17) ?RET_HIGH load(1, XDATA, add(CFA_XSP16, literal(-4)))
        CFI (cfiCond17) ?BRET_EXT load(1, XDATA, add(CFA_XSP16, literal(-3)))
        CFI (cfiCond17) DPL0 load(1, XDATA, add(CFA_XSP16, literal(-2)))
        CFI (cfiCond17) DPH0 load(1, XDATA, add(CFA_XSP16, literal(-1)))
        CFI (cfiCond17) CFA_SP SP+0
        CFI (cfiCond17) CFA_XSP16 add(XSP16, 44)
        CFI Block cfiCond18 Using cfiCommon0
        CFI (cfiCond18) NoFunction
        CFI (cfiCond18) Conditional ??CrossCallReturnLabel_9, ??CrossCallReturnLabel_1
        CFI (cfiCond18) R6 load(1, XDATA, add(CFA_XSP16, literal(-24)))
        CFI (cfiCond18) VB load(1, XDATA, add(CFA_XSP16, literal(-23)))
        CFI (cfiCond18) V0 load(1, XDATA, add(CFA_XSP16, literal(-22)))
        CFI (cfiCond18) V1 load(1, XDATA, add(CFA_XSP16, literal(-21)))
        CFI (cfiCond18) V2 load(1, XDATA, add(CFA_XSP16, literal(-20)))
        CFI (cfiCond18) V3 load(1, XDATA, add(CFA_XSP16, literal(-19)))
        CFI (cfiCond18) V4 load(1, XDATA, add(CFA_XSP16, literal(-18)))
        CFI (cfiCond18) V5 load(1, XDATA, add(CFA_XSP16, literal(-17)))
        CFI (cfiCond18) V6 load(1, XDATA, add(CFA_XSP16, literal(-16)))
        CFI (cfiCond18) V7 load(1, XDATA, add(CFA_XSP16, literal(-15)))
        CFI (cfiCond18) V8 load(1, XDATA, add(CFA_XSP16, literal(-14)))
        CFI (cfiCond18) V9 load(1, XDATA, add(CFA_XSP16, literal(-13)))
        CFI (cfiCond18) V10 load(1, XDATA, add(CFA_XSP16, literal(-12)))
        CFI (cfiCond18) V11 load(1, XDATA, add(CFA_XSP16, literal(-11)))
        CFI (cfiCond18) V12 load(1, XDATA, add(CFA_XSP16, literal(-10)))
        CFI (cfiCond18) V13 load(1, XDATA, add(CFA_XSP16, literal(-9)))
        CFI (cfiCond18) V14 load(1, XDATA, add(CFA_XSP16, literal(-8)))
        CFI (cfiCond18) V15 load(1, XDATA, add(CFA_XSP16, literal(-7)))
        CFI (cfiCond18) R7 load(1, XDATA, add(CFA_XSP16, literal(-6)))
        CFI (cfiCond18) ?RET_LOW load(1, XDATA, add(CFA_XSP16, literal(-5)))
        CFI (cfiCond18) ?RET_HIGH load(1, XDATA, add(CFA_XSP16, literal(-4)))
        CFI (cfiCond18) ?BRET_EXT load(1, XDATA, add(CFA_XSP16, literal(-3)))
        CFI (cfiCond18) DPL0 load(1, XDATA, add(CFA_XSP16, literal(-2)))
        CFI (cfiCond18) DPH0 load(1, XDATA, add(CFA_XSP16, literal(-1)))
        CFI (cfiCond18) CFA_SP SP+0
        CFI (cfiCond18) CFA_XSP16 add(XSP16, 44)
        CFI Block cfiPicker19 Using cfiCommon1
        CFI (cfiPicker19) NoFunction
        CFI (cfiPicker19) Picker
        MOV     DPL,?XSP + 0
        MOV     DPH,?XSP + 1
        CFI EndBlock cfiCond14
        CFI EndBlock cfiCond15
        CFI EndBlock cfiCond16
        CFI EndBlock cfiCond17
        CFI EndBlock cfiCond18
        CFI EndBlock cfiPicker19
        REQUIRE ??Subroutine5_0
        ; // Fall through to label ??Subroutine5_0

        RSEG BANKED_CODE:CODE:NOROOT(0)
??Subroutine5_0:
        CFI Block cfiCond20 Using cfiCommon0
        CFI NoFunction
        CFI Conditional ??CrossCallReturnLabel_6
        CFI R6 load(1, XDATA, add(CFA_XSP16, literal(-24)))
        CFI VB load(1, XDATA, add(CFA_XSP16, literal(-23)))
        CFI V0 load(1, XDATA, add(CFA_XSP16, literal(-22)))
        CFI V1 load(1, XDATA, add(CFA_XSP16, literal(-21)))
        CFI V2 load(1, XDATA, add(CFA_XSP16, literal(-20)))
        CFI V3 load(1, XDATA, add(CFA_XSP16, literal(-19)))
        CFI V4 load(1, XDATA, add(CFA_XSP16, literal(-18)))
        CFI V5 load(1, XDATA, add(CFA_XSP16, literal(-17)))
        CFI V6 load(1, XDATA, add(CFA_XSP16, literal(-16)))
        CFI V7 load(1, XDATA, add(CFA_XSP16, literal(-15)))
        CFI V8 load(1, XDATA, add(CFA_XSP16, literal(-14)))
        CFI V9 load(1, XDATA, add(CFA_XSP16, literal(-13)))
        CFI V10 load(1, XDATA, add(CFA_XSP16, literal(-12)))
        CFI V11 load(1, XDATA, add(CFA_XSP16, literal(-11)))
        CFI V12 load(1, XDATA, add(CFA_XSP16, literal(-10)))
        CFI V13 load(1, XDATA, add(CFA_XSP16, literal(-9)))
        CFI V14 load(1, XDATA, add(CFA_XSP16, literal(-8)))
        CFI V15 load(1, XDATA, add(CFA_XSP16, literal(-7)))
        CFI R7 load(1, XDATA, add(CFA_XSP16, literal(-6)))
        CFI ?RET_LOW load(1, XDATA, add(CFA_XSP16, literal(-5)))
        CFI ?RET_HIGH load(1, XDATA, add(CFA_XSP16, literal(-4)))
        CFI ?BRET_EXT load(1, XDATA, add(CFA_XSP16, literal(-3)))
        CFI DPL0 load(1, XDATA, add(CFA_XSP16, literal(-2)))
        CFI DPH0 load(1, XDATA, add(CFA_XSP16, literal(-1)))
        CFI CFA_SP SP+0
        CFI CFA_XSP16 add(XSP16, 46)
        CFI Block cfiCond21 Using cfiCommon0
        CFI (cfiCond21) NoFunction
        CFI (cfiCond21) Conditional ??CrossCallReturnLabel_7, ??CrossCallReturnLabel_0
        CFI (cfiCond21) R6 load(1, XDATA, add(CFA_XSP16, literal(-24)))
        CFI (cfiCond21) VB load(1, XDATA, add(CFA_XSP16, literal(-23)))
        CFI (cfiCond21) V0 load(1, XDATA, add(CFA_XSP16, literal(-22)))
        CFI (cfiCond21) V1 load(1, XDATA, add(CFA_XSP16, literal(-21)))
        CFI (cfiCond21) V2 load(1, XDATA, add(CFA_XSP16, literal(-20)))
        CFI (cfiCond21) V3 load(1, XDATA, add(CFA_XSP16, literal(-19)))
        CFI (cfiCond21) V4 load(1, XDATA, add(CFA_XSP16, literal(-18)))
        CFI (cfiCond21) V5 load(1, XDATA, add(CFA_XSP16, literal(-17)))
        CFI (cfiCond21) V6 load(1, XDATA, add(CFA_XSP16, literal(-16)))
        CFI (cfiCond21) V7 load(1, XDATA, add(CFA_XSP16, literal(-15)))
        CFI (cfiCond21) V8 load(1, XDATA, add(CFA_XSP16, literal(-14)))
        CFI (cfiCond21) V9 load(1, XDATA, add(CFA_XSP16, literal(-13)))
        CFI (cfiCond21) V10 load(1, XDATA, add(CFA_XSP16, literal(-12)))
        CFI (cfiCond21) V11 load(1, XDATA, add(CFA_XSP16, literal(-11)))
        CFI (cfiCond21) V12 load(1, XDATA, add(CFA_XSP16, literal(-10)))
        CFI (cfiCond21) V13 load(1, XDATA, add(CFA_XSP16, literal(-9)))
        CFI (cfiCond21) V14 load(1, XDATA, add(CFA_XSP16, literal(-8)))
        CFI (cfiCond21) V15 load(1, XDATA, add(CFA_XSP16, literal(-7)))
        CFI (cfiCond21) R7 load(1, XDATA, add(CFA_XSP16, literal(-6)))
        CFI (cfiCond21) ?RET_LOW load(1, XDATA, add(CFA_XSP16, literal(-5)))
        CFI (cfiCond21) ?RET_HIGH load(1, XDATA, add(CFA_XSP16, literal(-4)))
        CFI (cfiCond21) ?BRET_EXT load(1, XDATA, add(CFA_XSP16, literal(-3)))
        CFI (cfiCond21) DPL0 load(1, XDATA, add(CFA_XSP16, literal(-2)))
        CFI (cfiCond21) DPH0 load(1, XDATA, add(CFA_XSP16, literal(-1)))
        CFI (cfiCond21) CFA_SP SP+0
        CFI (cfiCond21) CFA_XSP16 add(XSP16, 44)
        CFI Block cfiCond22 Using cfiCommon0
        CFI (cfiCond22) NoFunction
        CFI (cfiCond22) Conditional ??CrossCallReturnLabel_7, ??CrossCallReturnLabel_1
        CFI (cfiCond22) R6 load(1, XDATA, add(CFA_XSP16, literal(-24)))
        CFI (cfiCond22) VB load(1, XDATA, add(CFA_XSP16, literal(-23)))
        CFI (cfiCond22) V0 load(1, XDATA, add(CFA_XSP16, literal(-22)))
        CFI (cfiCond22) V1 load(1, XDATA, add(CFA_XSP16, literal(-21)))
        CFI (cfiCond22) V2 load(1, XDATA, add(CFA_XSP16, literal(-20)))
        CFI (cfiCond22) V3 load(1, XDATA, add(CFA_XSP16, literal(-19)))
        CFI (cfiCond22) V4 load(1, XDATA, add(CFA_XSP16, literal(-18)))
        CFI (cfiCond22) V5 load(1, XDATA, add(CFA_XSP16, literal(-17)))
        CFI (cfiCond22) V6 load(1, XDATA, add(CFA_XSP16, literal(-16)))
        CFI (cfiCond22) V7 load(1, XDATA, add(CFA_XSP16, literal(-15)))
        CFI (cfiCond22) V8 load(1, XDATA, add(CFA_XSP16, literal(-14)))
        CFI (cfiCond22) V9 load(1, XDATA, add(CFA_XSP16, literal(-13)))
        CFI (cfiCond22) V10 load(1, XDATA, add(CFA_XSP16, literal(-12)))
        CFI (cfiCond22) V11 load(1, XDATA, add(CFA_XSP16, literal(-11)))
        CFI (cfiCond22) V12 load(1, XDATA, add(CFA_XSP16, literal(-10)))
        CFI (cfiCond22) V13 load(1, XDATA, add(CFA_XSP16, literal(-9)))
        CFI (cfiCond22) V14 load(1, XDATA, add(CFA_XSP16, literal(-8)))
        CFI (cfiCond22) V15 load(1, XDATA, add(CFA_XSP16, literal(-7)))
        CFI (cfiCond22) R7 load(1, XDATA, add(CFA_XSP16, literal(-6)))
        CFI (cfiCond22) ?RET_LOW load(1, XDATA, add(CFA_XSP16, literal(-5)))
        CFI (cfiCond22) ?RET_HIGH load(1, XDATA, add(CFA_XSP16, literal(-4)))
        CFI (cfiCond22) ?BRET_EXT load(1, XDATA, add(CFA_XSP16, literal(-3)))
        CFI (cfiCond22) DPL0 load(1, XDATA, add(CFA_XSP16, literal(-2)))
        CFI (cfiCond22) DPH0 load(1, XDATA, add(CFA_XSP16, literal(-1)))
        CFI (cfiCond22) CFA_SP SP+0
        CFI (cfiCond22) CFA_XSP16 add(XSP16, 44)
        CFI Block cfiCond23 Using cfiCommon0
        CFI (cfiCond23) NoFunction
        CFI (cfiCond23) Conditional ??CrossCallReturnLabel_8
        CFI (cfiCond23) R6 load(1, XDATA, add(CFA_XSP16, literal(-24)))
        CFI (cfiCond23) VB load(1, XDATA, add(CFA_XSP16, literal(-23)))
        CFI (cfiCond23) V0 load(1, XDATA, add(CFA_XSP16, literal(-22)))
        CFI (cfiCond23) V1 load(1, XDATA, add(CFA_XSP16, literal(-21)))
        CFI (cfiCond23) V2 load(1, XDATA, add(CFA_XSP16, literal(-20)))
        CFI (cfiCond23) V3 load(1, XDATA, add(CFA_XSP16, literal(-19)))
        CFI (cfiCond23) V4 load(1, XDATA, add(CFA_XSP16, literal(-18)))
        CFI (cfiCond23) V5 load(1, XDATA, add(CFA_XSP16, literal(-17)))
        CFI (cfiCond23) V6 load(1, XDATA, add(CFA_XSP16, literal(-16)))
        CFI (cfiCond23) V7 load(1, XDATA, add(CFA_XSP16, literal(-15)))
        CFI (cfiCond23) V8 load(1, XDATA, add(CFA_XSP16, literal(-14)))
        CFI (cfiCond23) V9 load(1, XDATA, add(CFA_XSP16, literal(-13)))
        CFI (cfiCond23) V10 load(1, XDATA, add(CFA_XSP16, literal(-12)))
        CFI (cfiCond23) V11 load(1, XDATA, add(CFA_XSP16, literal(-11)))
        CFI (cfiCond23) V12 load(1, XDATA, add(CFA_XSP16, literal(-10)))
        CFI (cfiCond23) V13 load(1, XDATA, add(CFA_XSP16, literal(-9)))
        CFI (cfiCond23) V14 load(1, XDATA, add(CFA_XSP16, literal(-8)))
        CFI (cfiCond23) V15 load(1, XDATA, add(CFA_XSP16, literal(-7)))
        CFI (cfiCond23) R7 load(1, XDATA, add(CFA_XSP16, literal(-6)))
        CFI (cfiCond23) ?RET_LOW load(1, XDATA, add(CFA_XSP16, literal(-5)))
        CFI (cfiCond23) ?RET_HIGH load(1, XDATA, add(CFA_XSP16, literal(-4)))
        CFI (cfiCond23) ?BRET_EXT load(1, XDATA, add(CFA_XSP16, literal(-3)))
        CFI (cfiCond23) DPL0 load(1, XDATA, add(CFA_XSP16, literal(-2)))
        CFI (cfiCond23) DPH0 load(1, XDATA, add(CFA_XSP16, literal(-1)))
        CFI (cfiCond23) CFA_SP SP+0
        CFI (cfiCond23) CFA_XSP16 add(XSP16, 44)
        CFI Block cfiCond24 Using cfiCommon0
        CFI (cfiCond24) NoFunction
        CFI (cfiCond24) Conditional ??CrossCallReturnLabel_9, ??CrossCallReturnLabel_0
        CFI (cfiCond24) R6 load(1, XDATA, add(CFA_XSP16, literal(-24)))
        CFI (cfiCond24) VB load(1, XDATA, add(CFA_XSP16, literal(-23)))
        CFI (cfiCond24) V0 load(1, XDATA, add(CFA_XSP16, literal(-22)))
        CFI (cfiCond24) V1 load(1, XDATA, add(CFA_XSP16, literal(-21)))
        CFI (cfiCond24) V2 load(1, XDATA, add(CFA_XSP16, literal(-20)))
        CFI (cfiCond24) V3 load(1, XDATA, add(CFA_XSP16, literal(-19)))
        CFI (cfiCond24) V4 load(1, XDATA, add(CFA_XSP16, literal(-18)))
        CFI (cfiCond24) V5 load(1, XDATA, add(CFA_XSP16, literal(-17)))
        CFI (cfiCond24) V6 load(1, XDATA, add(CFA_XSP16, literal(-16)))
        CFI (cfiCond24) V7 load(1, XDATA, add(CFA_XSP16, literal(-15)))
        CFI (cfiCond24) V8 load(1, XDATA, add(CFA_XSP16, literal(-14)))
        CFI (cfiCond24) V9 load(1, XDATA, add(CFA_XSP16, literal(-13)))
        CFI (cfiCond24) V10 load(1, XDATA, add(CFA_XSP16, literal(-12)))
        CFI (cfiCond24) V11 load(1, XDATA, add(CFA_XSP16, literal(-11)))
        CFI (cfiCond24) V12 load(1, XDATA, add(CFA_XSP16, literal(-10)))
        CFI (cfiCond24) V13 load(1, XDATA, add(CFA_XSP16, literal(-9)))
        CFI (cfiCond24) V14 load(1, XDATA, add(CFA_XSP16, literal(-8)))
        CFI (cfiCond24) V15 load(1, XDATA, add(CFA_XSP16, literal(-7)))
        CFI (cfiCond24) R7 load(1, XDATA, add(CFA_XSP16, literal(-6)))
        CFI (cfiCond24) ?RET_LOW load(1, XDATA, add(CFA_XSP16, literal(-5)))
        CFI (cfiCond24) ?RET_HIGH load(1, XDATA, add(CFA_XSP16, literal(-4)))
        CFI (cfiCond24) ?BRET_EXT load(1, XDATA, add(CFA_XSP16, literal(-3)))
        CFI (cfiCond24) DPL0 load(1, XDATA, add(CFA_XSP16, literal(-2)))
        CFI (cfiCond24) DPH0 load(1, XDATA, add(CFA_XSP16, literal(-1)))
        CFI (cfiCond24) CFA_SP SP+0
        CFI (cfiCond24) CFA_XSP16 add(XSP16, 44)
        CFI Block cfiCond25 Using cfiCommon0
        CFI (cfiCond25) NoFunction
        CFI (cfiCond25) Conditional ??CrossCallReturnLabel_9, ??CrossCallReturnLabel_1
        CFI (cfiCond25) R6 load(1, XDATA, add(CFA_XSP16, literal(-24)))
        CFI (cfiCond25) VB load(1, XDATA, add(CFA_XSP16, literal(-23)))
        CFI (cfiCond25) V0 load(1, XDATA, add(CFA_XSP16, literal(-22)))
        CFI (cfiCond25) V1 load(1, XDATA, add(CFA_XSP16, literal(-21)))
        CFI (cfiCond25) V2 load(1, XDATA, add(CFA_XSP16, literal(-20)))
        CFI (cfiCond25) V3 load(1, XDATA, add(CFA_XSP16, literal(-19)))
        CFI (cfiCond25) V4 load(1, XDATA, add(CFA_XSP16, literal(-18)))
        CFI (cfiCond25) V5 load(1, XDATA, add(CFA_XSP16, literal(-17)))
        CFI (cfiCond25) V6 load(1, XDATA, add(CFA_XSP16, literal(-16)))
        CFI (cfiCond25) V7 load(1, XDATA, add(CFA_XSP16, literal(-15)))
        CFI (cfiCond25) V8 load(1, XDATA, add(CFA_XSP16, literal(-14)))
        CFI (cfiCond25) V9 load(1, XDATA, add(CFA_XSP16, literal(-13)))
        CFI (cfiCond25) V10 load(1, XDATA, add(CFA_XSP16, literal(-12)))
        CFI (cfiCond25) V11 load(1, XDATA, add(CFA_XSP16, literal(-11)))
        CFI (cfiCond25) V12 load(1, XDATA, add(CFA_XSP16, literal(-10)))
        CFI (cfiCond25) V13 load(1, XDATA, add(CFA_XSP16, literal(-9)))
        CFI (cfiCond25) V14 load(1, XDATA, add(CFA_XSP16, literal(-8)))
        CFI (cfiCond25) V15 load(1, XDATA, add(CFA_XSP16, literal(-7)))
        CFI (cfiCond25) R7 load(1, XDATA, add(CFA_XSP16, literal(-6)))
        CFI (cfiCond25) ?RET_LOW load(1, XDATA, add(CFA_XSP16, literal(-5)))
        CFI (cfiCond25) ?RET_HIGH load(1, XDATA, add(CFA_XSP16, literal(-4)))
        CFI (cfiCond25) ?BRET_EXT load(1, XDATA, add(CFA_XSP16, literal(-3)))
        CFI (cfiCond25) DPL0 load(1, XDATA, add(CFA_XSP16, literal(-2)))
        CFI (cfiCond25) DPH0 load(1, XDATA, add(CFA_XSP16, literal(-1)))
        CFI (cfiCond25) CFA_SP SP+0
        CFI (cfiCond25) CFA_XSP16 add(XSP16, 44)
        CFI Block cfiPicker26 Using cfiCommon1
        CFI (cfiPicker26) NoFunction
        CFI (cfiPicker26) Picker
        MOVX    A,@DPTR
        MOV     R2,A
        INC     DPTR
        MOVX    A,@DPTR
        MOV     R3,A
        RET
        CFI EndBlock cfiCond20
        CFI EndBlock cfiCond21
        CFI EndBlock cfiCond22
        CFI EndBlock cfiCond23
        CFI EndBlock cfiCond24
        CFI EndBlock cfiCond25
        CFI EndBlock cfiPicker26
//  101 
//  102 /*********************************************************************
//  103 *
//  104 *       GUI_DispStringInRectMax
//  105 */
//  106 #if (GUI_WINSUPPORT)
//  107 void GUI_DispStringInRectMax(const char GUI_UNI_PTR *s, GUI_RECT* pRect, int TextAlign, int MaxLen) {
//  108   if (s) {
//  109     const GUI_RECT *pOldClipRect = NULL;
//  110     GUI_RECT r;
//  111     GUI_LOCK();
//  112     if (pRect) {
//  113       pOldClipRect = WM_SetUserClipRect(pRect);
//  114       if (pOldClipRect) {
//  115         GUI__IntersectRects(&r, pRect, pOldClipRect);
//  116         WM_SetUserClipRect(&r);
//  117       }
//  118     }
//  119     GUI__DispStringInRect(s, pRect, TextAlign, MaxLen);
//  120     WM_SetUserClipRect(pOldClipRect);
//  121     GUI_UNLOCK();
//  122   }
//  123 }
//  124 
//  125 #else
//  126 

        RSEG BANKED_CODE:CODE:NOROOT(0)
//  127 void GUI_DispStringInRectMax(const char GUI_UNI_PTR *s, GUI_RECT* pRect, int TextAlign, int MaxLen) {
GUI_DispStringInRectMax:
        CFI Block cfiBlock27 Using cfiCommon0
        CFI Function GUI_DispStringInRectMax
        CODE
        FUNCALL GUI_DispStringInRectMax, GUI__IntersectRects
        LOCFRAME ISTACK, 0, STACK
        LOCFRAME PSTACK, 0, STACK
        LOCFRAME XSTACK, 35, STACK
        LOCFRAME IOVERLAY, 0, STATIC
        LOCFRAME DOVERLAY, 0, STATIC
        ARGFRAME ISTACK, 0, STACK
        ARGFRAME PSTACK, 0, STACK
        ARGFRAME XSTACK, 35, STACK
        ARGFRAME IOVERLAY, 0, STATIC
        ARGFRAME DOVERLAY, 0, STATIC
        FUNCALL GUI_DispStringInRectMax, LCD_SetClipRectEx
        LOCFRAME ISTACK, 0, STACK
        LOCFRAME PSTACK, 0, STACK
        LOCFRAME XSTACK, 33, STACK
        LOCFRAME IOVERLAY, 0, STATIC
        LOCFRAME DOVERLAY, 0, STATIC
        ARGFRAME ISTACK, 0, STACK
        ARGFRAME PSTACK, 0, STACK
        ARGFRAME XSTACK, 33, STACK
        ARGFRAME IOVERLAY, 0, STATIC
        ARGFRAME DOVERLAY, 0, STATIC
        FUNCALL GUI_DispStringInRectMax, GUI__DispStringInRect
        LOCFRAME ISTACK, 0, STACK
        LOCFRAME PSTACK, 0, STACK
        LOCFRAME XSTACK, 37, STACK
        LOCFRAME IOVERLAY, 0, STATIC
        LOCFRAME DOVERLAY, 0, STATIC
        ARGFRAME ISTACK, 0, STACK
        ARGFRAME PSTACK, 0, STACK
        ARGFRAME XSTACK, 37, STACK
        ARGFRAME IOVERLAY, 0, STATIC
        ARGFRAME DOVERLAY, 0, STATIC
        FUNCALL GUI_DispStringInRectMax, LCD_SetClipRectEx
        LOCFRAME ISTACK, 0, STACK
        LOCFRAME PSTACK, 0, STACK
        LOCFRAME XSTACK, 33, STACK
        LOCFRAME IOVERLAY, 0, STATIC
        LOCFRAME DOVERLAY, 0, STATIC
        ARGFRAME ISTACK, 0, STACK
        ARGFRAME PSTACK, 0, STACK
        ARGFRAME XSTACK, 33, STACK
        ARGFRAME IOVERLAY, 0, STATIC
        ARGFRAME DOVERLAY, 0, STATIC
        MOV     A,#-0x11
        LCALL   ?BANKED_ENTER_XDATA
        CFI DPH0 load(1, XDATA, add(CFA_XSP16, literal(-1)))
        CFI DPL0 load(1, XDATA, add(CFA_XSP16, literal(-2)))
        CFI ?BRET_EXT load(1, XDATA, add(CFA_XSP16, literal(-3)))
        CFI ?RET_HIGH load(1, XDATA, add(CFA_XSP16, literal(-4)))
        CFI ?RET_LOW load(1, XDATA, add(CFA_XSP16, literal(-5)))
        CFI R7 load(1, XDATA, add(CFA_XSP16, literal(-6)))
        CFI V8 load(1, XDATA, add(CFA_XSP16, literal(-7)))
        CFI V7 load(1, XDATA, add(CFA_XSP16, literal(-8)))
        CFI V6 load(1, XDATA, add(CFA_XSP16, literal(-9)))
        CFI V5 load(1, XDATA, add(CFA_XSP16, literal(-10)))
        CFI V4 load(1, XDATA, add(CFA_XSP16, literal(-11)))
        CFI V3 load(1, XDATA, add(CFA_XSP16, literal(-12)))
        CFI V2 load(1, XDATA, add(CFA_XSP16, literal(-13)))
        CFI V1 load(1, XDATA, add(CFA_XSP16, literal(-14)))
        CFI V0 load(1, XDATA, add(CFA_XSP16, literal(-15)))
        CFI VB load(1, XDATA, add(CFA_XSP16, literal(-16)))
        CFI R6 load(1, XDATA, add(CFA_XSP16, literal(-17)))
        CFI CFA_SP SP+0
        CFI CFA_XSP16 add(XSP16, 17)
        ; Saved register size: 17
        ; Auto size: 16
        MOV     A,#-0x10
        LCALL   ?ALLOC_XSTACK8
        CFI CFA_XSP16 add(XSP16, 33)
        MOV     ?V0 + 0,R2
        MOV     ?V0 + 1,R3
        MOV     A,R4
        MOV     R6,A
        MOV     A,R5
        MOV     R7,A
        MOV     A,#0x21
        LCALL   ?XSTACK_DISP0_8
        MOVX    A,@DPTR
        MOV     ?V0 + 4,A
        INC     DPTR
        MOVX    A,@DPTR
        MOV     ?V0 + 5,A
        MOV     A,#0x23
        LCALL   ?XSTACK_DISP0_8
        MOVX    A,@DPTR
        MOV     ?V0 + 6,A
        INC     DPTR
        MOVX    A,@DPTR
        MOV     ?V0 + 7,A
//  128   GUI_RECT Rect_Old, r;
//  129   halIntState_t state;
//  130   if (s && pRect) {
        MOV     A,R2
        ORL     A,?V0 + 1
        JNZ     $+5
        LJMP    ??GUI_DispStringInRectMax_0 & 0xFFFF
        MOV     A,R6
        ORL     A,R7
        JZ      ??GUI_DispStringInRectMax_0
//  131     GUI_LOCK(state);
        MOV     A,0xa8
        MOV     ?V0 + 8,A
        CLR     0xa8.7
//  132     Rect_Old = GUI_Context.ClipRect;
        MOV     DPTR,#GUI_Context + 4
        PUSH    DPL
        CFI CFA_SP SP+-1
        MOV     DPL,?XSP + 0
        MOV     DPH,?XSP + 1
        MOV     R4,DPL
        MOV     R5,DPH
        MOV     DPH,#((GUI_Context + 4) >> 8) & 0xff
        POP     DPL
        CFI CFA_SP SP+0
        MOV     A,#0x8
        LCALL   ?MOVE_LONG8_XDATA_XDATA
//  133     GUI__IntersectRects(&r, pRect, &Rect_Old);
        ; Setup parameters for call to function GUI__IntersectRects
        MOV     DPL,?XSP + 0
        MOV     DPH,?XSP + 1
        MOV     ?V0 + 2,DPL
        MOV     ?V0 + 3,DPH
        MOV     R0,#?V0 + 2
        LCALL   ?PUSH_XSTACK_I_TWO
        CFI CFA_XSP16 add(XSP16, 35)
        MOV     A,R6
        MOV     R4,A
        MOV     A,R7
        MOV     R5,A
        MOV     A,#0xa
        LCALL   ?XSTACK_DISP0_8
        MOV     R2,DPL
        MOV     R3,DPH
        LCALL   ??GUI__IntersectRects?relay
        MOV     A,#0x2
        LCALL   ?DEALLOC_XSTACK8
        CFI CFA_XSP16 add(XSP16, 33)
//  134     LCD_SetClipRectEx(&r);
        ; Setup parameters for call to function LCD_SetClipRectEx
        MOV     A,#0x8
        LCALL   ?XSTACK_DISP0_8
        MOV     R2,DPL
        MOV     R3,DPH
        LCALL   ??LCD_SetClipRectEx?relay
//  135     GUI__DispStringInRect(s, pRect, TextAlign, MaxLen);
        ; Setup parameters for call to function GUI__DispStringInRect
        MOV     R0,#?V0 + 6
        LCALL   ?PUSH_XSTACK_I_TWO
        CFI CFA_XSP16 add(XSP16, 35)
        MOV     R0,#?V0 + 4
        LCALL   ?PUSH_XSTACK_I_TWO
        CFI CFA_XSP16 add(XSP16, 37)
        MOV     A,R6
        MOV     R4,A
        MOV     A,R7
        MOV     R5,A
        MOV     R2,?V0 + 0
        MOV     R3,?V0 + 1
        LCALL   ??GUI__DispStringInRect?relay
        MOV     A,#0x4
        LCALL   ?DEALLOC_XSTACK8
        CFI CFA_XSP16 add(XSP16, 33)
//  136     LCD_SetClipRectEx(&Rect_Old);
        ; Setup parameters for call to function LCD_SetClipRectEx
        MOV     DPL,?XSP + 0
        MOV     DPH,?XSP + 1
        MOV     R2,DPL
        MOV     R3,DPH
        LCALL   ??LCD_SetClipRectEx?relay
//  137     GUI_UNLOCK(state);
        MOV     A,?V0 + 8
        MOV     C,0xE0 /* A   */.7
        MOV     0xa8.7,C
//  138   }
//  139 }
??GUI_DispStringInRectMax_0:
        MOV     A,#0x10
        LCALL   ?DEALLOC_XSTACK8
        CFI CFA_XSP16 add(XSP16, 17)
        MOV     R7,#0x9
        LJMP    ?BANKED_LEAVE_XDATA
        CFI EndBlock cfiBlock27
        REQUIRE _A_IEN0
//  140 #endif
//  141 
//  142 /*********************************************************************
//  143 *
//  144 *       GUI_DispStringInRect
//  145 */

        RSEG BANKED_CODE:CODE:NOROOT(0)
//  146 void GUI_DispStringInRect(const char GUI_UNI_PTR *s, GUI_RECT* pRect, int TextAlign) {
GUI_DispStringInRect:
        CFI Block cfiBlock28 Using cfiCommon0
        CFI Function GUI_DispStringInRect
        CODE
        FUNCALL GUI_DispStringInRect, GUI_DispStringInRectMax
        LOCFRAME ISTACK, 0, STACK
        LOCFRAME PSTACK, 0, STACK
        LOCFRAME XSTACK, 16, STACK
        LOCFRAME IOVERLAY, 0, STATIC
        LOCFRAME DOVERLAY, 0, STATIC
        ARGFRAME ISTACK, 0, STACK
        ARGFRAME PSTACK, 0, STACK
        ARGFRAME XSTACK, 16, STACK
        ARGFRAME IOVERLAY, 0, STATIC
        ARGFRAME DOVERLAY, 0, STATIC
        MOV     A,#-0xc
        LCALL   ?BANKED_ENTER_XDATA
        CFI DPH0 load(1, XDATA, add(CFA_XSP16, literal(-1)))
        CFI DPL0 load(1, XDATA, add(CFA_XSP16, literal(-2)))
        CFI ?BRET_EXT load(1, XDATA, add(CFA_XSP16, literal(-3)))
        CFI ?RET_HIGH load(1, XDATA, add(CFA_XSP16, literal(-4)))
        CFI ?RET_LOW load(1, XDATA, add(CFA_XSP16, literal(-5)))
        CFI R7 load(1, XDATA, add(CFA_XSP16, literal(-6)))
        CFI V3 load(1, XDATA, add(CFA_XSP16, literal(-7)))
        CFI V2 load(1, XDATA, add(CFA_XSP16, literal(-8)))
        CFI V1 load(1, XDATA, add(CFA_XSP16, literal(-9)))
        CFI V0 load(1, XDATA, add(CFA_XSP16, literal(-10)))
        CFI VB load(1, XDATA, add(CFA_XSP16, literal(-11)))
        CFI R6 load(1, XDATA, add(CFA_XSP16, literal(-12)))
        CFI CFA_SP SP+0
        CFI CFA_XSP16 add(XSP16, 12)
        ; Saved register size: 12
        ; Auto size: 0
        MOV     A,#0xc
        LCALL   ?XSTACK_DISP0_8
        MOVX    A,@DPTR
        MOV     ?V0 + 0,A
        INC     DPTR
        MOVX    A,@DPTR
        MOV     ?V0 + 1,A
//  147   GUI_DispStringInRectMax(s, pRect, TextAlign, 0x7fff);
        ; Setup parameters for call to function GUI_DispStringInRectMax
        MOV     ?V0 + 2,#-0x1
        MOV     ?V0 + 3,#0x7f
        MOV     R0,#?V0 + 2
        LCALL   ?PUSH_XSTACK_I_TWO
        CFI CFA_XSP16 add(XSP16, 14)
        MOV     R0,#?V0 + 0
        LCALL   ?PUSH_XSTACK_I_TWO
        CFI CFA_XSP16 add(XSP16, 16)
        LCALL   ??GUI_DispStringInRectMax?relay
        MOV     A,#0x4
        LCALL   ?DEALLOC_XSTACK8
        CFI CFA_XSP16 add(XSP16, 12)
//  148 }
        MOV     R7,#0x4
        LJMP    ?BANKED_LEAVE_XDATA
        CFI EndBlock cfiBlock28

        RSEG BANK_RELAYS:CODE:REORDER:NOROOT(0)
??GUI__DispStringInRect?relay:
        LCALL   ?BDISPATCH
        DATA
        DC24    GUI__DispStringInRect

        RSEG BANK_RELAYS:CODE:REORDER:NOROOT(0)
??GUI_DispStringInRectMax?relay:
        LCALL   ?BDISPATCH
        DATA
        DC24    GUI_DispStringInRectMax

        RSEG BANK_RELAYS:CODE:REORDER:NOROOT(0)
??GUI_DispStringInRect?relay:
        LCALL   ?BDISPATCH
        DATA
        DC24    GUI_DispStringInRect

        END
//  149 
//  150 /*************************** End of file ****************************/
// 
// 1 037 bytes in segment BANKED_CODE
//    18 bytes in segment BANK_RELAYS
//     1 byte  in segment SFR_AN
// 
// 1 055 bytes of CODE memory
//     0 bytes of DATA memory (+ 1 byte shared)
//
//Errors: none
//Warnings: none
