###############################################################################
#                                                                             #
# IAR C/C++ Compiler V8.10.1.10194/W32 for 8051         14/Jun/2016  16:18:06 #
# Copyright 2004-2011 IAR Systems AB.                                         #
#                                                                             #
#    Core               =  plain                                              #
#    Code model         =  banked                                             #
#    Data model         =  large                                              #
#    Calling convention =  xdata reentrant                                    #
#    Constant location  =  data_rom                                           #
#    Dptr setup         =  1,16                                               #
#    Source file        =  F:\¹âÅÌ×ÊÁÏ\ETC-WSNÎïÁªÍø¹âÅÌ×ÊÁÏ210\ZigBeeÍøÂç\WS #
#                          N-CSÔ´Âë\ZStack-CC2530-2.5.1a\Components\uCGUI\Cor #
#                          e\GUI_DispString.c                                 #
#    Command line       =  -f F:\¹âÅÌ×ÊÁÏ\ETC-WSNÎïÁªÍø¹âÅÌ×ÊÁÏ210\ZigBeeÍøÂç #
#                          \WSN-CSÔ´Âë\ZStack-CC2530-2.5.1a\Projects\zstack\U #
#                          tilities\SerialApp\CC2530DB\..\..\..\Tools\CC2530D #
#                          B\f8wCoord.cfg (-DCPU32MHZ -DROOT=__near_func      #
#                          -DMAC_CFG_APP_PENDING_QUEUE=TRUE                   #
#                          -DMAC_CFG_TX_DATA_MAX=5 -DMAC_CFG_TX_MAX=8         #
#                          -DMAC_CFG_RX_MAX=5 -DZDO_COORDINATOR -DRTR_NWK)    #
#                          -f F:\¹âÅÌ×ÊÁÏ\ETC-WSNÎïÁªÍø¹âÅÌ×ÊÁÏ210\ZigBeeÍøÂç #
#                          \WSN-CSÔ´Âë\ZStack-CC2530-2.5.1a\Projects\zstack\U #
#                          tilities\SerialApp\CC2530DB\..\..\..\Tools\CC2530D #
#                          B\f8wConfig.cfg (-DZIGBEEPRO -DSECURE=0            #
#                          -DZG_SECURE_DYNAMIC=0 -DREFLECTOR                  #
#                          -DDEFAULT_CHANLIST=0x00000800                      #
#                          -DZDAPP_CONFIG_PAN_ID=0x1001                       #
#                          -DNWK_START_DELAY=100 -DEXTENDED_JOINING_RANDOM_MA #
#                          SK=0x007F -DBEACON_REQUEST_DELAY=100               #
#                          -DBEACON_REQ_DELAY_MASK=0x00FF                     #
#                          -DLINK_STATUS_JITTER_MASK=0x007F                   #
#                          -DROUTE_EXPIRY_TIME=30 -DAPSC_ACK_WAIT_DURATION_PO #
#                          LLED=3000 -DNWK_INDIRECT_MSG_TIMEOUT=7             #
#                          -DMAX_RREQ_ENTRIES=8 -DAPSC_MAX_FRAME_RETRIES=3    #
#                          -DNWK_MAX_DATA_RETRIES=2                           #
#                          -DMAX_POLL_FAILURE_RETRIES=2 -DMAX_BCAST=9         #
#                          -DAPS_MAX_GROUPS=16 -DMAX_RTG_ENTRIES=40           #
#                          -DNWK_MAX_BINDING_ENTRIES=4                        #
#                          -DMAX_BINDING_CLUSTER_IDS=4 "-DDEFAULT_KEY={0x01,  #
#                          0x03, 0x05, 0x07, 0x09, 0x0B, 0x0D, 0x0F, 0x00,    #
#                          0x02, 0x04, 0x06, 0x08, 0x0A, 0x0C, 0x0D}"         #
#                          -DMAC_MAX_FRAME_SIZE=116                           #
#                          -DZDNWKMGR_MIN_TRANSMISSIONS=20 "-DCONST=const     #
#                          __code" -DGENERIC=__generic                        #
#                          -DRFD_RCVC_ALWAYS_ON=FALSE -DPOLL_RATE=1000        #
#                          -DQUEUED_POLL_RATE=100 -DRESPONSE_POLL_RATE=100)   #
#                          -DREJOIN_POLL_RATE=440 F:\¹âÅÌ×ÊÁÏ\ETC-WSNÎïÁªÍø¹â #
#                          ÅÌ×ÊÁÏ210\ZigBeeÍøÂç\WSN-CSÔ´Âë\ZStack-CC2530-2.5. #
#                          1a\Components\uCGUI\Core\GUI_DispString.c -D       #
#                          HAL_UART=TRUE -D SERIAL_APP_PORT=0 -D COOR -D      #
#                          LCD_SUPPORTED -D NV_INIT -lC                       #
#                          F:\¹âÅÌ×ÊÁÏ\ETC-WSNÎïÁªÍø¹âÅÌ×ÊÁÏ210\ZigBeeÍøÂç\WS #
#                          N-CSÔ´Âë\ZStack-CC2530-2.5.1a\Projects\zstack\Util #
#                          ities\SerialApp\CC2530DB\CoordinatorEB\List\ -lA   #
#                          F:\¹âÅÌ×ÊÁÏ\ETC-WSNÎïÁªÍø¹âÅÌ×ÊÁÏ210\ZigBeeÍøÂç\WS #
#                          N-CSÔ´Âë\ZStack-CC2530-2.5.1a\Projects\zstack\Util #
#                          ities\SerialApp\CC2530DB\CoordinatorEB\List\       #
#                          --diag_suppress Pe001,Pa010 -o                     #
#                          F:\¹âÅÌ×ÊÁÏ\ETC-WSNÎïÁªÍø¹âÅÌ×ÊÁÏ210\ZigBeeÍøÂç\WS #
#                          N-CSÔ´Âë\ZStack-CC2530-2.5.1a\Projects\zstack\Util #
#                          ities\SerialApp\CC2530DB\CoordinatorEB\Obj\ -e     #
#                          --no_code_motion --debug --core=plain --dptr=16,1  #
#                          --data_model=large --code_model=banked             #
#                          --calling_convention=xdata_reentrant               #
#                          --place_constants=data_rom --nr_virtual_regs 16    #
#                          -I F:\¹âÅÌ×ÊÁÏ\ETC-WSNÎïÁªÍø¹âÅÌ×ÊÁÏ210\ZigBeeÍøÂç #
#                          \WSN-CSÔ´Âë\ZStack-CC2530-2.5.1a\Projects\zstack\U #
#                          tilities\SerialApp\CC2530DB\ -I                    #
#                          F:\¹âÅÌ×ÊÁÏ\ETC-WSNÎïÁªÍø¹âÅÌ×ÊÁÏ210\ZigBeeÍøÂç\WS #
#                          N-CSÔ´Âë\ZStack-CC2530-2.5.1a\Projects\zstack\Util #
#                          ities\SerialApp\CC2530DB\..\Public\ -I             #
#                          F:\¹âÅÌ×ÊÁÏ\ETC-WSNÎïÁªÍø¹âÅÌ×ÊÁÏ210\ZigBeeÍøÂç\WS #
#                          N-CSÔ´Âë\ZStack-CC2530-2.5.1a\Projects\zstack\Util #
#                          ities\SerialApp\CC2530DB\..\..\..\..\..\Components #
#                          \uCGUI\Core\ -I F:\¹âÅÌ×ÊÁÏ\ETC-WSNÎïÁªÍø¹âÅÌ×ÊÁÏ2 #
#                          10\ZigBeeÍøÂç\WSN-CSÔ´Âë\ZStack-CC2530-2.5.1a\Proj #
#                          ects\zstack\Utilities\SerialApp\CC2530DB\..\..\..\ #
#                          ..\..\Components\uCGUI\MultiLayer\ -I              #
#                          F:\¹âÅÌ×ÊÁÏ\ETC-WSNÎïÁªÍø¹âÅÌ×ÊÁÏ210\ZigBeeÍøÂç\WS #
#                          N-CSÔ´Âë\ZStack-CC2530-2.5.1a\Projects\zstack\Util #
#                          ities\SerialApp\CC2530DB\..\..\..\..\..\Components #
#                          \uCGUI\Config\ -I F:\¹âÅÌ×ÊÁÏ\ETC-WSNÎïÁªÍø¹âÅÌ×ÊÁ #
#                          Ï210\ZigBeeÍøÂç\WSN-CSÔ´Âë\ZStack-CC2530-2.5.1a\Pr #
#                          ojects\zstack\Utilities\SerialApp\CC2530DB\..\Coor #
#                          dinator\ -I F:\¹âÅÌ×ÊÁÏ\ETC-WSNÎïÁªÍø¹âÅÌ×ÊÁÏ210\Z #
#                          igBeeÍøÂç\WSN-CSÔ´Âë\ZStack-CC2530-2.5.1a\Projects #
#                          \zstack\Utilities\SerialApp\CC2530DB\..\..\..\ZMai #
#                          n\TI2530DB\ -I F:\¹âÅÌ×ÊÁÏ\ETC-WSNÎïÁªÍø¹âÅÌ×ÊÁÏ21 #
#                          0\ZigBeeÍøÂç\WSN-CSÔ´Âë\ZStack-CC2530-2.5.1a\Proje #
#                          cts\zstack\Utilities\SerialApp\CC2530DB\..\..\..\. #
#                          .\..\Components\hal\include\ -I                    #
#                          F:\¹âÅÌ×ÊÁÏ\ETC-WSNÎïÁªÍø¹âÅÌ×ÊÁÏ210\ZigBeeÍøÂç\WS #
#                          N-CSÔ´Âë\ZStack-CC2530-2.5.1a\Projects\zstack\Util #
#                          ities\SerialApp\CC2530DB\..\..\..\..\..\Components #
#                          \hal\target\CC2530EB\ -I                           #
#                          F:\¹âÅÌ×ÊÁÏ\ETC-WSNÎïÁªÍø¹âÅÌ×ÊÁÏ210\ZigBeeÍøÂç\WS #
#                          N-CSÔ´Âë\ZStack-CC2530-2.5.1a\Projects\zstack\Util #
#                          ities\SerialApp\CC2530DB\..\..\..\..\..\Components #
#                          \mac\include\ -I F:\¹âÅÌ×ÊÁÏ\ETC-WSNÎïÁªÍø¹âÅÌ×ÊÁÏ #
#                          210\ZigBeeÍøÂç\WSN-CSÔ´Âë\ZStack-CC2530-2.5.1a\Pro #
#                          jects\zstack\Utilities\SerialApp\CC2530DB\..\..\.. #
#                          \..\..\Components\mac\high_level\ -I               #
#                          F:\¹âÅÌ×ÊÁÏ\ETC-WSNÎïÁªÍø¹âÅÌ×ÊÁÏ210\ZigBeeÍøÂç\WS #
#                          N-CSÔ´Âë\ZStack-CC2530-2.5.1a\Projects\zstack\Util #
#                          ities\SerialApp\CC2530DB\..\..\..\..\..\Components #
#                          \mac\low_level\srf04\ -I                           #
#                          F:\¹âÅÌ×ÊÁÏ\ETC-WSNÎïÁªÍø¹âÅÌ×ÊÁÏ210\ZigBeeÍøÂç\WS #
#                          N-CSÔ´Âë\ZStack-CC2530-2.5.1a\Projects\zstack\Util #
#                          ities\SerialApp\CC2530DB\..\..\..\..\..\Components #
#                          \mac\low_level\srf04\single_chip\ -I               #
#                          F:\¹âÅÌ×ÊÁÏ\ETC-WSNÎïÁªÍø¹âÅÌ×ÊÁÏ210\ZigBeeÍøÂç\WS #
#                          N-CSÔ´Âë\ZStack-CC2530-2.5.1a\Projects\zstack\Util #
#                          ities\SerialApp\CC2530DB\..\..\..\..\..\Components #
#                          \mt\ -I F:\¹âÅÌ×ÊÁÏ\ETC-WSNÎïÁªÍø¹âÅÌ×ÊÁÏ210\ZigBe #
#                          eÍøÂç\WSN-CSÔ´Âë\ZStack-CC2530-2.5.1a\Projects\zst #
#                          ack\Utilities\SerialApp\CC2530DB\..\..\..\..\..\Co #
#                          mponents\osal\include\ -I                          #
#                          F:\¹âÅÌ×ÊÁÏ\ETC-WSNÎïÁªÍø¹âÅÌ×ÊÁÏ210\ZigBeeÍøÂç\WS #
#                          N-CSÔ´Âë\ZStack-CC2530-2.5.1a\Projects\zstack\Util #
#                          ities\SerialApp\CC2530DB\..\..\..\..\..\Components #
#                          \services\saddr\ -I F:\¹âÅÌ×ÊÁÏ\ETC-WSNÎïÁªÍø¹âÅÌ× #
#                          ÊÁÏ210\ZigBeeÍøÂç\WSN-CSÔ´Âë\ZStack-CC2530-2.5.1a\ #
#                          Projects\zstack\Utilities\SerialApp\CC2530DB\..\.. #
#                          \..\..\..\Components\services\sdata\ -I            #
#                          F:\¹âÅÌ×ÊÁÏ\ETC-WSNÎïÁªÍø¹âÅÌ×ÊÁÏ210\ZigBeeÍøÂç\WS #
#                          N-CSÔ´Âë\ZStack-CC2530-2.5.1a\Projects\zstack\Util #
#                          ities\SerialApp\CC2530DB\..\..\..\..\..\Components #
#                          \stack\af\ -I F:\¹âÅÌ×ÊÁÏ\ETC-WSNÎïÁªÍø¹âÅÌ×ÊÁÏ210 #
#                          \ZigBeeÍøÂç\WSN-CSÔ´Âë\ZStack-CC2530-2.5.1a\Projec #
#                          ts\zstack\Utilities\SerialApp\CC2530DB\..\..\..\.. #
#                          \..\Components\stack\nwk\ -I                       #
#                          F:\¹âÅÌ×ÊÁÏ\ETC-WSNÎïÁªÍø¹âÅÌ×ÊÁÏ210\ZigBeeÍøÂç\WS #
#                          N-CSÔ´Âë\ZStack-CC2530-2.5.1a\Projects\zstack\Util #
#                          ities\SerialApp\CC2530DB\..\..\..\..\..\Components #
#                          \stack\sapi\ -I F:\¹âÅÌ×ÊÁÏ\ETC-WSNÎïÁªÍø¹âÅÌ×ÊÁÏ2 #
#                          10\ZigBeeÍøÂç\WSN-CSÔ´Âë\ZStack-CC2530-2.5.1a\Proj #
#                          ects\zstack\Utilities\SerialApp\CC2530DB\..\..\..\ #
#                          ..\..\Components\stack\sec\ -I                     #
#                          F:\¹âÅÌ×ÊÁÏ\ETC-WSNÎïÁªÍø¹âÅÌ×ÊÁÏ210\ZigBeeÍøÂç\WS #
#                          N-CSÔ´Âë\ZStack-CC2530-2.5.1a\Projects\zstack\Util #
#                          ities\SerialApp\CC2530DB\..\..\..\..\..\Components #
#                          \stack\sys\ -I F:\¹âÅÌ×ÊÁÏ\ETC-WSNÎïÁªÍø¹âÅÌ×ÊÁÏ21 #
#                          0\ZigBeeÍøÂç\WSN-CSÔ´Âë\ZStack-CC2530-2.5.1a\Proje #
#                          cts\zstack\Utilities\SerialApp\CC2530DB\..\..\..\. #
#                          .\..\Components\stack\zdo\ -I                      #
#                          F:\¹âÅÌ×ÊÁÏ\ETC-WSNÎïÁªÍø¹âÅÌ×ÊÁÏ210\ZigBeeÍøÂç\WS #
#                          N-CSÔ´Âë\ZStack-CC2530-2.5.1a\Projects\zstack\Util #
#                          ities\SerialApp\CC2530DB\..\..\..\..\..\Components #
#                          \zmac\ -I F:\¹âÅÌ×ÊÁÏ\ETC-WSNÎïÁªÍø¹âÅÌ×ÊÁÏ210\Zig #
#                          BeeÍøÂç\WSN-CSÔ´Âë\ZStack-CC2530-2.5.1a\Projects\z #
#                          stack\Utilities\SerialApp\CC2530DB\..\..\..\..\..\ #
#                          Components\zmac\f8w\ -Ohz --require_prototypes     #
#    List file          =  F:\¹âÅÌ×ÊÁÏ\ETC-WSNÎïÁªÍø¹âÅÌ×ÊÁÏ210\ZigBeeÍøÂç\WS #
#                          N-CSÔ´Âë\ZStack-CC2530-2.5.1a\Projects\zstack\Util #
#                          ities\SerialApp\CC2530DB\CoordinatorEB\List\GUI_Di #
#                          spString.lst                                       #
#    Object file        =  F:\¹âÅÌ×ÊÁÏ\ETC-WSNÎïÁªÍø¹âÅÌ×ÊÁÏ210\ZigBeeÍøÂç\WS #
#                          N-CSÔ´Âë\ZStack-CC2530-2.5.1a\Projects\zstack\Util #
#                          ities\SerialApp\CC2530DB\CoordinatorEB\Obj\GUI_Dis #
#                          pString.r51                                        #
#                                                                             #
#                                                                             #
###############################################################################

F:\¹âÅÌ×ÊÁÏ\ETC-WSNÎïÁªÍø¹âÅÌ×ÊÁÏ210\ZigBeeÍøÂç\WSN-CSÔ´Âë\ZStack-CC2530-2.5.1a\Components\uCGUI\Core\GUI_DispString.c
      1          /*
      2          *********************************************************************************************************
      3          *                                                uC/GUI
      4          *                        Universal graphic software for embedded applications
      5          *
      6          *                       (c) Copyright 2002, Micrium Inc., Weston, FL
      7          *                       (c) Copyright 2002, SEGGER Microcontroller Systeme GmbH
      8          *
      9          *              µC/GUI is protected by international copyright laws. Knowledge of the
     10          *              source code may not be used to write a similar product. This file may
     11          *              only be used in accordance with a license and should not be redistributed
     12          *              in any way. We appreciate your understanding and fairness.
     13          *
     14          ----------------------------------------------------------------------
     15          File        : GUI_DispString.C
     16          Purpose     : Implementation of GUI_DispString function.
     17          ---------------------------END-OF-HEADER------------------------------
     18          */
     19          
     20          #include <stddef.h>           /* needed for definition of NULL */
     21          #include <stdio.h>
     22          #include "GUI_Protected.h"

   \                                 In  segment SFR_AN, at 0xa8
   \   union <unnamed> volatile __sfr _A_IEN0
   \                     _A_IEN0:
   \   000000                DS 1
     23           
     24          /*********************************************************************
     25          *
     26          *       Public code
     27          *
     28          **********************************************************************
     29          */
     30          /*********************************************************************
     31          *
     32          *       GUI_DispString
     33          */

   \                                 In  segment BANKED_CODE, align 1, keep-with-next
     34          void GUI_DispString(const char GUI_UNI_PTR *s) {
   \                     GUI_DispString:
   \   000000   74EA         MOV     A,#-0x16
   \   000002   12....       LCALL   ?BANKED_ENTER_XDATA
   \   000005                ; Saved register size: 22
   \   000005                ; Auto size: 8
   \   000005   74F8         MOV     A,#-0x8
   \   000007   12....       LCALL   ?ALLOC_XSTACK8
   \   00000A   EA           MOV     A,R2
   \   00000B   FE           MOV     R6,A
   \   00000C   EB           MOV     A,R3
   \   00000D   FF           MOV     R7,A
     35            int xAdjust, yAdjust, xOrg;
     36            int FontSizeY;
     37            if (!s)
   \   00000E   EE           MOV     A,R6
   \   00000F   4F           ORL     A,R7
   \   000010   7003         JNZ     $+5
   \   000012   02....       LJMP    ??GUI_DispString_0 & 0xFFFF
     38              return;
     39            halIntState_t state;
     40            GUI_LOCK(state);
   \   000015   A2AF         MOV     C,0xa8.7
   \   000017   E4           CLR     A
   \   000018   33           RLC     A
   \   000019   F5..         MOV     ?V0 + 8,A
   \   00001B   C2AF         CLR     0xa8.7
     41            FontSizeY = GUI_GetFontDistY();
   \   00001D                ; Setup parameters for call to function GUI_GetFontDistY
   \   00001D   12....       LCALL   ??GUI_GetFontDistY?relay
   \   000020   8A..         MOV     ?V0 + 6,R2
   \   000022   8B..         MOV     ?V0 + 7,R3
     42            xOrg = GUI_Context.DispPosX;
   \   000024   90....       MOV     DPTR,#GUI_Context + 27
   \   000027   E0           MOVX    A,@DPTR
   \   000028   F5..         MOV     ?V0 + 10,A
   \   00002A   A3           INC     DPTR
   \   00002B   E0           MOVX    A,@DPTR
   \   00002C   F5..         MOV     ?V0 + 11,A
     43           /* Adjust vertical position */
     44            yAdjust = GUI_GetYAdjust();
   \   00002E                ; Setup parameters for call to function GUI_GetYAdjust
   \   00002E   12....       LCALL   ??GUI_GetYAdjust?relay
   \   000031   8A..         MOV     ?V0 + 4,R2
   \   000033   8B..         MOV     ?V0 + 5,R3
     45            GUI_Context.DispPosY -= yAdjust;
   \   000035   90....       MOV     DPTR,#GUI_Context + 29
   \   000038   C3           CLR     C
   \   000039   E0           MOVX    A,@DPTR
   \   00003A   95..         SUBB    A,?V0 + 4
   \   00003C   F0           MOVX    @DPTR,A
   \   00003D   A3           INC     DPTR
   \   00003E   E0           MOVX    A,@DPTR
   \   00003F   95..         SUBB    A,?V0 + 5
   \   000041   F0           MOVX    @DPTR,A
   \   000042   8005         SJMP    ??GUI_DispString_1
     46            for (; *s; s++) {
   \                     ??GUI_DispString_2:
   \   000044   A3           INC     DPTR
   \   000045   AE82         MOV     R6,DPL
   \   000047   AF83         MOV     R7,DPH
   \                     ??GUI_DispString_1:
   \   000049   8E82         MOV     DPL,R6
   \   00004B   8F83         MOV     DPH,R7
   \   00004D   E0           MOVX    A,@DPTR
   \   00004E   7003         JNZ     $+5
   \   000050   02....       LJMP    ??GUI_DispString_3 & 0xFFFF
     47              GUI_RECT r;
     48              int LineNumChars = GUI__GetLineNumChars(s, 0x7fff);
   \   000053                ; Setup parameters for call to function GUI__GetLineNumChars
   \   000053   7CFF         MOV     R4,#-0x1
   \   000055   7D7F         MOV     R5,#0x7f
   \   000057   EE           MOV     A,R6
   \   000058   FA           MOV     R2,A
   \   000059   EF           MOV     A,R7
   \   00005A   FB           MOV     R3,A
   \   00005B   12....       LCALL   ??GUI__GetLineNumChars?relay
   \   00005E   8A..         MOV     ?V0 + 0,R2
   \   000060   8B..         MOV     ?V0 + 1,R3
     49              int xLineSize    = GUI__GetLineDistX(s, LineNumChars);
   \   000062                ; Setup parameters for call to function GUI__GetLineDistX
   \   000062   AC..         MOV     R4,?V0 + 0
   \   000064   AD..         MOV     R5,?V0 + 1
   \   000066   EE           MOV     A,R6
   \   000067   FA           MOV     R2,A
   \   000068   EF           MOV     A,R7
   \   000069   FB           MOV     R3,A
   \   00006A   12....       LCALL   ??GUI__GetLineDistX?relay
   \   00006D   8A..         MOV     ?V0 + 2,R2
   \   00006F   8B..         MOV     ?V0 + 3,R3
     50            /* Check if x-position needs to be changed due to h-alignment */
     51              switch (GUI_Context.TextAlign & GUI_TA_HORIZONTAL) { 
   \   000071   90....       MOV     DPTR,#GUI_Context + 37
   \   000074   E0           MOVX    A,@DPTR
   \   000075   5403         ANL     A,#0x3
   \   000077   14           DEC     A
   \   000078   6010         JZ      ??GUI_DispString_4
   \   00007A   14           DEC     A
   \   00007B   7013         JNZ     ??GUI_DispString_5
     52                case GUI_TA_CENTER: xAdjust = xLineSize / 2; break;
   \   00007D   A8..         MOV     R0,?V0 + 2
   \   00007F   A9..         MOV     R1,?V0 + 3
   \   000081   7A02         MOV     R2,#0x2
   \   000083   7B00         MOV     R3,#0x0
   \   000085   12....       LCALL   ?S_DIV_MOD
   \   000088   800A         SJMP    ??GUI_DispString_6
     53                case GUI_TA_RIGHT:  xAdjust = xLineSize; break;
   \                     ??GUI_DispString_4:
   \   00008A   A8..         MOV     R0,?V0 + 2
   \   00008C   A9..         MOV     R1,?V0 + 3
   \   00008E   8004         SJMP    ??GUI_DispString_6
     54                default:            xAdjust = 0;
   \                     ??GUI_DispString_5:
   \   000090   7800         MOV     R0,#0x0
   \   000092   7900         MOV     R1,#0x0
     55              }
     56              r.x0 = GUI_Context.DispPosX -= xAdjust;
   \                     ??GUI_DispString_6:
   \   000094   90....       MOV     DPTR,#GUI_Context + 27
   \   000097   C3           CLR     C
   \   000098   E0           MOVX    A,@DPTR
   \   000099   98           SUBB    A,R0
   \   00009A   F0           MOVX    @DPTR,A
   \   00009B   A3           INC     DPTR
   \   00009C   E0           MOVX    A,@DPTR
   \   00009D   99           SUBB    A,R1
   \   00009E   F0           MOVX    @DPTR,A
   \   00009F   90....       MOV     DPTR,#GUI_Context + 27
   \   0000A2   12....       LCALL   ?Subroutine1 & 0xFFFF
   \                     ??CrossCallReturnLabel_2:
   \   0000A5   85..82       MOV     DPL,?XSP + 0
   \   0000A8   85..83       MOV     DPH,?XSP + 1
   \   0000AB   12....       LCALL   ?Subroutine0 & 0xFFFF
     57              r.x1 = r.x0 + xLineSize - 1;    
   \                     ??CrossCallReturnLabel_0:
   \   0000AE   12....       LCALL   ?Subroutine2 & 0xFFFF
   \                     ??CrossCallReturnLabel_6:
   \   0000B1   E8           MOV     A,R0
   \   0000B2   24FF         ADD     A,#-0x1
   \   0000B4   18           DEC     R0
   \   0000B5   E9           MOV     A,R1
   \   0000B6   34FF         ADDC    A,#-0x1
   \   0000B8   F9           MOV     R1,A
   \   0000B9   7404         MOV     A,#0x4
   \   0000BB   12....       LCALL   ?XSTACK_DISP0_8
   \   0000BE   E8           MOV     A,R0
   \   0000BF   F0           MOVX    @DPTR,A
   \   0000C0   A3           INC     DPTR
   \   0000C1   E9           MOV     A,R1
   \   0000C2   F0           MOVX    @DPTR,A
     58              r.y0 = GUI_Context.DispPosY;
   \   0000C3   90....       MOV     DPTR,#GUI_Context + 29
   \   0000C6   12....       LCALL   ?Subroutine1 & 0xFFFF
   \                     ??CrossCallReturnLabel_3:
   \   0000C9   7402         MOV     A,#0x2
   \   0000CB   12....       LCALL   ?XSTACK_DISP0_8
   \   0000CE   E8           MOV     A,R0
   \   0000CF   F0           MOVX    @DPTR,A
   \   0000D0   A3           INC     DPTR
   \   0000D1   E9           MOV     A,R1
   \   0000D2   F0           MOVX    @DPTR,A
     59              r.y1 = r.y0 + FontSizeY - 1;    
   \   0000D3   E8           MOV     A,R0
   \   0000D4   25..         ADD     A,?V0 + 6
   \   0000D6   F8           MOV     R0,A
   \   0000D7   E9           MOV     A,R1
   \   0000D8   35..         ADDC    A,?V0 + 7
   \   0000DA   F9           MOV     R1,A
   \   0000DB   E8           MOV     A,R0
   \   0000DC   24FF         ADD     A,#-0x1
   \   0000DE   18           DEC     R0
   \   0000DF   E9           MOV     A,R1
   \   0000E0   34FF         ADDC    A,#-0x1
   \   0000E2   F9           MOV     R1,A
   \   0000E3   7406         MOV     A,#0x6
   \   0000E5   12....       LCALL   ?XSTACK_DISP0_8
   \   0000E8   12....       LCALL   ?Subroutine0 & 0xFFFF
     60              GUI__DispLine(s, LineNumChars, &r);
   \                     ??CrossCallReturnLabel_1:
   \   0000EB   8582..       MOV     ?V0 + 12,DPL
   \   0000EE   8583..       MOV     ?V0 + 13,DPH
   \   0000F1   78..         MOV     R0,#?V0 + 12
   \   0000F3   12....       LCALL   ?PUSH_XSTACK_I_TWO
   \   0000F6   AC..         MOV     R4,?V0 + 0
   \   0000F8   AD..         MOV     R5,?V0 + 1
   \   0000FA   EE           MOV     A,R6
   \   0000FB   FA           MOV     R2,A
   \   0000FC   EF           MOV     A,R7
   \   0000FD   FB           MOV     R3,A
   \   0000FE   12....       LCALL   ??GUI__DispLine?relay
   \   000101   7402         MOV     A,#0x2
   \   000103   12....       LCALL   ?DEALLOC_XSTACK8
     61              GUI_Context.DispPosY = r.y0;
   \   000106   7402         MOV     A,#0x2
   \   000108   12....       LCALL   ?XSTACK_DISP0_8
   \   00010B   12....       LCALL   ?Subroutine1 & 0xFFFF
   \                     ??CrossCallReturnLabel_4:
   \   00010E   90....       MOV     DPTR,#GUI_Context + 29
   \   000111   E8           MOV     A,R0
   \   000112   F0           MOVX    @DPTR,A
   \   000113   A3           INC     DPTR
   \   000114   E9           MOV     A,R1
   \   000115   F0           MOVX    @DPTR,A
     62              s += GUI_UC__NumChars2NumBytes(s, LineNumChars);
   \   000116                ; Setup parameters for call to function GUI_UC__NumChars2NumBytes
   \   000116   AC..         MOV     R4,?V0 + 0
   \   000118   AD..         MOV     R5,?V0 + 1
   \   00011A   EE           MOV     A,R6
   \   00011B   FA           MOV     R2,A
   \   00011C   EF           MOV     A,R7
   \   00011D   FB           MOV     R3,A
   \   00011E   12....       LCALL   ??GUI_UC__NumChars2NumBytes?relay
   \   000121   8A..         MOV     ?V0 + 0,R2
   \   000123   8B..         MOV     ?V0 + 1,R3
   \   000125   EE           MOV     A,R6
   \   000126   25..         ADD     A,?V0 + 0
   \   000128   FE           MOV     R6,A
   \   000129   EF           MOV     A,R7
   \   00012A   35..         ADDC    A,?V0 + 1
   \   00012C   FF           MOV     R7,A
     63              if ((*s == '\n') || (*s == '\r')) {
   \   00012D   8E82         MOV     DPL,R6
   \   00012F   8F83         MOV     DPH,R7
   \   000131   E0           MOVX    A,@DPTR
   \   000132   640A         XRL     A,#0xa
   \   000134   6005         JZ      ??GUI_DispString_7
   \   000136   E0           MOVX    A,@DPTR
   \   000137   640D         XRL     A,#0xd
   \   000139   7039         JNZ     ??GUI_DispString_8
     64                switch (GUI_Context.TextAlign & GUI_TA_HORIZONTAL) { 
   \                     ??GUI_DispString_7:
   \   00013B   90....       MOV     DPTR,#GUI_Context + 37
   \   00013E   E0           MOVX    A,@DPTR
   \   00013F   5403         ANL     A,#0x3
   \   000141   14           DEC     A
   \   000142   6003         JZ      ??GUI_DispString_9
   \   000144   14           DEC     A
   \   000145   700B         JNZ     ??GUI_DispString_10
     65                case GUI_TA_CENTER:
     66                case GUI_TA_RIGHT:
     67                  GUI_Context.DispPosX = xOrg;
   \                     ??GUI_DispString_9:
   \   000147   90....       MOV     DPTR,#GUI_Context + 27
   \   00014A   E5..         MOV     A,?V0 + 10
   \   00014C   F0           MOVX    @DPTR,A
   \   00014D   A3           INC     DPTR
   \   00014E   E5..         MOV     A,?V0 + 11
   \   000150   800B         SJMP    ??GUI_DispString_11
     68                  break;
     69                default:
     70                  GUI_Context.DispPosX = GUI_Context.LBorder;
   \                     ??GUI_DispString_10:
   \   000152   90....       MOV     DPTR,#GUI_Context + 25
   \   000155   12....       LCALL   ?Subroutine1 & 0xFFFF
   \                     ??CrossCallReturnLabel_5:
   \   000158   A3           INC     DPTR
   \   000159   E8           MOV     A,R0
   \   00015A   F0           MOVX    @DPTR,A
   \   00015B   A3           INC     DPTR
   \   00015C   E9           MOV     A,R1
   \                     ??GUI_DispString_11:
   \   00015D   F0           MOVX    @DPTR,A
     71                  break;
     72                }
     73                if (*s == '\n')
   \   00015E   8E82         MOV     DPL,R6
   \   000160   8F83         MOV     DPH,R7
   \   000162   E0           MOVX    A,@DPTR
   \   000163   640A         XRL     A,#0xa
   \   000165   701E         JNZ     ??GUI_DispString_12
     74                  GUI_Context.DispPosY += FontSizeY;
   \   000167   90....       MOV     DPTR,#GUI_Context + 29
   \   00016A   E0           MOVX    A,@DPTR
   \   00016B   25..         ADD     A,?V0 + 6
   \   00016D   F0           MOVX    @DPTR,A
   \   00016E   A3           INC     DPTR
   \   00016F   E0           MOVX    A,@DPTR
   \   000170   35..         ADDC    A,?V0 + 7
   \   000172   8010         SJMP    ??GUI_DispString_13
     75              } else {
     76                GUI_Context.DispPosX = r.x0 + xLineSize;
   \                     ??GUI_DispString_8:
   \   000174   85..82       MOV     DPL,?XSP + 0
   \   000177   85..83       MOV     DPH,?XSP + 1
   \   00017A   12....       LCALL   ?Subroutine2 & 0xFFFF
     77              }
   \                     ??CrossCallReturnLabel_7:
   \   00017D   90....       MOV     DPTR,#GUI_Context + 27
   \   000180   E8           MOV     A,R0
   \   000181   F0           MOVX    @DPTR,A
   \   000182   A3           INC     DPTR
   \   000183   E9           MOV     A,R1
   \                     ??GUI_DispString_13:
   \   000184   F0           MOVX    @DPTR,A
     78              if (*s == 0)    /* end of string (last line) reached ? */
   \                     ??GUI_DispString_12:
   \   000185   8E82         MOV     DPL,R6
   \   000187   8F83         MOV     DPH,R7
   \   000189   E0           MOVX    A,@DPTR
   \   00018A   6003         JZ      $+5
   \   00018C   02....       LJMP    ??GUI_DispString_2 & 0xFFFF
     79                break;
     80            }
     81            GUI_Context.DispPosY += yAdjust;
   \                     ??GUI_DispString_3:
   \   00018F   90....       MOV     DPTR,#GUI_Context + 29
   \   000192   E0           MOVX    A,@DPTR
   \   000193   25..         ADD     A,?V0 + 4
   \   000195   F0           MOVX    @DPTR,A
   \   000196   A3           INC     DPTR
   \   000197   E0           MOVX    A,@DPTR
   \   000198   35..         ADDC    A,?V0 + 5
   \   00019A   F0           MOVX    @DPTR,A
     82            GUI_Context.TextAlign &= ~GUI_TA_HORIZONTAL;
   \   00019B   90....       MOV     DPTR,#GUI_Context + 37
   \   00019E   E0           MOVX    A,@DPTR
   \   00019F   54FC         ANL     A,#0xfc
   \   0001A1   F0           MOVX    @DPTR,A
     83            GUI_UNLOCK(state);
   \   0001A2   E5..         MOV     A,?V0 + 8
   \   0001A4   A2E0         MOV     C,0xE0 /* A   */.0
   \   0001A6   92AF         MOV     0xa8.7,C
     84          }
   \                     ??GUI_DispString_0:
   \   0001A8   7408         MOV     A,#0x8
   \   0001AA   12....       LCALL   ?DEALLOC_XSTACK8
   \   0001AD   7F0E         MOV     R7,#0xe
   \   0001AF   02....       LJMP    ?BANKED_LEAVE_XDATA
   \   0001B2                REQUIRE _A_IEN0

   \                                 In  segment BANKED_CODE, align 1, keep-with-next
   \                     ?Subroutine2:
   \   000000   E0           MOVX    A,@DPTR
   \   000001   25..         ADD     A,?V0 + 2
   \   000003   F8           MOV     R0,A
   \   000004   A3           INC     DPTR
   \   000005   E0           MOVX    A,@DPTR
   \   000006   35..         ADDC    A,?V0 + 3
   \   000008   F9           MOV     R1,A
   \   000009   22           RET

   \                                 In  segment BANKED_CODE, align 1, keep-with-next
   \                     ?Subroutine1:
   \   000000   E0           MOVX    A,@DPTR
   \   000001   F8           MOV     R0,A
   \   000002   A3           INC     DPTR
   \   000003   E0           MOVX    A,@DPTR
   \   000004   F9           MOV     R1,A
   \   000005   22           RET

   \                                 In  segment BANKED_CODE, align 1, keep-with-next
   \                     ?Subroutine0:
   \   000000   E8           MOV     A,R0
   \   000001   F0           MOVX    @DPTR,A
   \   000002   A3           INC     DPTR
   \   000003   E9           MOV     A,R1
   \   000004   F0           MOVX    @DPTR,A
   \   000005                ; Setup parameters for call to function GUI__DispLine
   \   000005   85..82       MOV     DPL,?XSP + 0
   \   000008   85..83       MOV     DPH,?XSP + 1
   \   00000B   22           RET

   \                                 In  segment BANK_RELAYS, align 1
   \                     ??GUI_DispString?relay:
   \   000000   12....       LCALL   ?BDISPATCH
   \   000003   ......       DC24    GUI_DispString
     85          
     86          /*************************** End of file ****************************/

   Maximum stack usage in bytes:

     Function                       ISTACK PSTACK XSTACK
     --------                       ------ ------ ------
     GUI_DispString                     0      0     32
       -> GUI_GetFontDistY              0      0     60
       -> GUI_GetYAdjust                0      0     60
       -> GUI__GetLineNumChars          0      0     60
       -> GUI__GetLineDistX             0      0     60
       -> GUI__DispLine                 0      0     64
       -> GUI_UC__NumChars2NumBytes     0      0     60


   Segment part sizes:

     Function/Label         Bytes
     --------------         -----
     _A_IEN0                   1
     GUI_DispString          434
     ?Subroutine2             10
     ?Subroutine1              6
     ?Subroutine0             12
     ??GUI_DispString?relay    6

 
 462 bytes in segment BANKED_CODE
   6 bytes in segment BANK_RELAYS
   1 byte  in segment SFR_AN
 
 468 bytes of CODE memory
   0 bytes of DATA memory (+ 1 byte shared)

Errors: none
Warnings: none
