###############################################################################
#                                                                             #
# IAR C/C++ Compiler V8.10.1.10194/W32 for 8051         14/Jun/2016  16:18:15 #
# Copyright 2004-2011 IAR Systems AB.                                         #
#                                                                             #
#    Core               =  plain                                              #
#    Code model         =  banked                                             #
#    Data model         =  large                                              #
#    Calling convention =  xdata reentrant                                    #
#    Constant location  =  data_rom                                           #
#    Dptr setup         =  1,16                                               #
#    Source file        =  F:\¹âÅÌ×ÊÁÏ\ETC-WSNÎïÁªÍø¹âÅÌ×ÊÁÏ210\ZigBeeÍøÂç\WS #
#                          N-CSÔ´Âë\ZStack-CC2530-2.5.1a\Components\uCGUI\Cor #
#                          e\GUIValf.c                                        #
#    Command line       =  -f F:\¹âÅÌ×ÊÁÏ\ETC-WSNÎïÁªÍø¹âÅÌ×ÊÁÏ210\ZigBeeÍøÂç #
#                          \WSN-CSÔ´Âë\ZStack-CC2530-2.5.1a\Projects\zstack\U #
#                          tilities\SerialApp\CC2530DB\..\..\..\Tools\CC2530D #
#                          B\f8wCoord.cfg (-DCPU32MHZ -DROOT=__near_func      #
#                          -DMAC_CFG_APP_PENDING_QUEUE=TRUE                   #
#                          -DMAC_CFG_TX_DATA_MAX=5 -DMAC_CFG_TX_MAX=8         #
#                          -DMAC_CFG_RX_MAX=5 -DZDO_COORDINATOR -DRTR_NWK)    #
#                          -f F:\¹âÅÌ×ÊÁÏ\ETC-WSNÎïÁªÍø¹âÅÌ×ÊÁÏ210\ZigBeeÍøÂç #
#                          \WSN-CSÔ´Âë\ZStack-CC2530-2.5.1a\Projects\zstack\U #
#                          tilities\SerialApp\CC2530DB\..\..\..\Tools\CC2530D #
#                          B\f8wConfig.cfg (-DZIGBEEPRO -DSECURE=0            #
#                          -DZG_SECURE_DYNAMIC=0 -DREFLECTOR                  #
#                          -DDEFAULT_CHANLIST=0x00000800                      #
#                          -DZDAPP_CONFIG_PAN_ID=0x1001                       #
#                          -DNWK_START_DELAY=100 -DEXTENDED_JOINING_RANDOM_MA #
#                          SK=0x007F -DBEACON_REQUEST_DELAY=100               #
#                          -DBEACON_REQ_DELAY_MASK=0x00FF                     #
#                          -DLINK_STATUS_JITTER_MASK=0x007F                   #
#                          -DROUTE_EXPIRY_TIME=30 -DAPSC_ACK_WAIT_DURATION_PO #
#                          LLED=3000 -DNWK_INDIRECT_MSG_TIMEOUT=7             #
#                          -DMAX_RREQ_ENTRIES=8 -DAPSC_MAX_FRAME_RETRIES=3    #
#                          -DNWK_MAX_DATA_RETRIES=2                           #
#                          -DMAX_POLL_FAILURE_RETRIES=2 -DMAX_BCAST=9         #
#                          -DAPS_MAX_GROUPS=16 -DMAX_RTG_ENTRIES=40           #
#                          -DNWK_MAX_BINDING_ENTRIES=4                        #
#                          -DMAX_BINDING_CLUSTER_IDS=4 "-DDEFAULT_KEY={0x01,  #
#                          0x03, 0x05, 0x07, 0x09, 0x0B, 0x0D, 0x0F, 0x00,    #
#                          0x02, 0x04, 0x06, 0x08, 0x0A, 0x0C, 0x0D}"         #
#                          -DMAC_MAX_FRAME_SIZE=116                           #
#                          -DZDNWKMGR_MIN_TRANSMISSIONS=20 "-DCONST=const     #
#                          __code" -DGENERIC=__generic                        #
#                          -DRFD_RCVC_ALWAYS_ON=FALSE -DPOLL_RATE=1000        #
#                          -DQUEUED_POLL_RATE=100 -DRESPONSE_POLL_RATE=100)   #
#                          -DREJOIN_POLL_RATE=440 F:\¹âÅÌ×ÊÁÏ\ETC-WSNÎïÁªÍø¹â #
#                          ÅÌ×ÊÁÏ210\ZigBeeÍøÂç\WSN-CSÔ´Âë\ZStack-CC2530-2.5. #
#                          1a\Components\uCGUI\Core\GUIValf.c -D              #
#                          HAL_UART=TRUE -D SERIAL_APP_PORT=0 -D COOR -D      #
#                          LCD_SUPPORTED -D NV_INIT -lC                       #
#                          F:\¹âÅÌ×ÊÁÏ\ETC-WSNÎïÁªÍø¹âÅÌ×ÊÁÏ210\ZigBeeÍøÂç\WS #
#                          N-CSÔ´Âë\ZStack-CC2530-2.5.1a\Projects\zstack\Util #
#                          ities\SerialApp\CC2530DB\CoordinatorEB\List\ -lA   #
#                          F:\¹âÅÌ×ÊÁÏ\ETC-WSNÎïÁªÍø¹âÅÌ×ÊÁÏ210\ZigBeeÍøÂç\WS #
#                          N-CSÔ´Âë\ZStack-CC2530-2.5.1a\Projects\zstack\Util #
#                          ities\SerialApp\CC2530DB\CoordinatorEB\List\       #
#                          --diag_suppress Pe001,Pa010 -o                     #
#                          F:\¹âÅÌ×ÊÁÏ\ETC-WSNÎïÁªÍø¹âÅÌ×ÊÁÏ210\ZigBeeÍøÂç\WS #
#                          N-CSÔ´Âë\ZStack-CC2530-2.5.1a\Projects\zstack\Util #
#                          ities\SerialApp\CC2530DB\CoordinatorEB\Obj\ -e     #
#                          --no_code_motion --debug --core=plain --dptr=16,1  #
#                          --data_model=large --code_model=banked             #
#                          --calling_convention=xdata_reentrant               #
#                          --place_constants=data_rom --nr_virtual_regs 16    #
#                          -I F:\¹âÅÌ×ÊÁÏ\ETC-WSNÎïÁªÍø¹âÅÌ×ÊÁÏ210\ZigBeeÍøÂç #
#                          \WSN-CSÔ´Âë\ZStack-CC2530-2.5.1a\Projects\zstack\U #
#                          tilities\SerialApp\CC2530DB\ -I                    #
#                          F:\¹âÅÌ×ÊÁÏ\ETC-WSNÎïÁªÍø¹âÅÌ×ÊÁÏ210\ZigBeeÍøÂç\WS #
#                          N-CSÔ´Âë\ZStack-CC2530-2.5.1a\Projects\zstack\Util #
#                          ities\SerialApp\CC2530DB\..\Public\ -I             #
#                          F:\¹âÅÌ×ÊÁÏ\ETC-WSNÎïÁªÍø¹âÅÌ×ÊÁÏ210\ZigBeeÍøÂç\WS #
#                          N-CSÔ´Âë\ZStack-CC2530-2.5.1a\Projects\zstack\Util #
#                          ities\SerialApp\CC2530DB\..\..\..\..\..\Components #
#                          \uCGUI\Core\ -I F:\¹âÅÌ×ÊÁÏ\ETC-WSNÎïÁªÍø¹âÅÌ×ÊÁÏ2 #
#                          10\ZigBeeÍøÂç\WSN-CSÔ´Âë\ZStack-CC2530-2.5.1a\Proj #
#                          ects\zstack\Utilities\SerialApp\CC2530DB\..\..\..\ #
#                          ..\..\Components\uCGUI\MultiLayer\ -I              #
#                          F:\¹âÅÌ×ÊÁÏ\ETC-WSNÎïÁªÍø¹âÅÌ×ÊÁÏ210\ZigBeeÍøÂç\WS #
#                          N-CSÔ´Âë\ZStack-CC2530-2.5.1a\Projects\zstack\Util #
#                          ities\SerialApp\CC2530DB\..\..\..\..\..\Components #
#                          \uCGUI\Config\ -I F:\¹âÅÌ×ÊÁÏ\ETC-WSNÎïÁªÍø¹âÅÌ×ÊÁ #
#                          Ï210\ZigBeeÍøÂç\WSN-CSÔ´Âë\ZStack-CC2530-2.5.1a\Pr #
#                          ojects\zstack\Utilities\SerialApp\CC2530DB\..\Coor #
#                          dinator\ -I F:\¹âÅÌ×ÊÁÏ\ETC-WSNÎïÁªÍø¹âÅÌ×ÊÁÏ210\Z #
#                          igBeeÍøÂç\WSN-CSÔ´Âë\ZStack-CC2530-2.5.1a\Projects #
#                          \zstack\Utilities\SerialApp\CC2530DB\..\..\..\ZMai #
#                          n\TI2530DB\ -I F:\¹âÅÌ×ÊÁÏ\ETC-WSNÎïÁªÍø¹âÅÌ×ÊÁÏ21 #
#                          0\ZigBeeÍøÂç\WSN-CSÔ´Âë\ZStack-CC2530-2.5.1a\Proje #
#                          cts\zstack\Utilities\SerialApp\CC2530DB\..\..\..\. #
#                          .\..\Components\hal\include\ -I                    #
#                          F:\¹âÅÌ×ÊÁÏ\ETC-WSNÎïÁªÍø¹âÅÌ×ÊÁÏ210\ZigBeeÍøÂç\WS #
#                          N-CSÔ´Âë\ZStack-CC2530-2.5.1a\Projects\zstack\Util #
#                          ities\SerialApp\CC2530DB\..\..\..\..\..\Components #
#                          \hal\target\CC2530EB\ -I                           #
#                          F:\¹âÅÌ×ÊÁÏ\ETC-WSNÎïÁªÍø¹âÅÌ×ÊÁÏ210\ZigBeeÍøÂç\WS #
#                          N-CSÔ´Âë\ZStack-CC2530-2.5.1a\Projects\zstack\Util #
#                          ities\SerialApp\CC2530DB\..\..\..\..\..\Components #
#                          \mac\include\ -I F:\¹âÅÌ×ÊÁÏ\ETC-WSNÎïÁªÍø¹âÅÌ×ÊÁÏ #
#                          210\ZigBeeÍøÂç\WSN-CSÔ´Âë\ZStack-CC2530-2.5.1a\Pro #
#                          jects\zstack\Utilities\SerialApp\CC2530DB\..\..\.. #
#                          \..\..\Components\mac\high_level\ -I               #
#                          F:\¹âÅÌ×ÊÁÏ\ETC-WSNÎïÁªÍø¹âÅÌ×ÊÁÏ210\ZigBeeÍøÂç\WS #
#                          N-CSÔ´Âë\ZStack-CC2530-2.5.1a\Projects\zstack\Util #
#                          ities\SerialApp\CC2530DB\..\..\..\..\..\Components #
#                          \mac\low_level\srf04\ -I                           #
#                          F:\¹âÅÌ×ÊÁÏ\ETC-WSNÎïÁªÍø¹âÅÌ×ÊÁÏ210\ZigBeeÍøÂç\WS #
#                          N-CSÔ´Âë\ZStack-CC2530-2.5.1a\Projects\zstack\Util #
#                          ities\SerialApp\CC2530DB\..\..\..\..\..\Components #
#                          \mac\low_level\srf04\single_chip\ -I               #
#                          F:\¹âÅÌ×ÊÁÏ\ETC-WSNÎïÁªÍø¹âÅÌ×ÊÁÏ210\ZigBeeÍøÂç\WS #
#                          N-CSÔ´Âë\ZStack-CC2530-2.5.1a\Projects\zstack\Util #
#                          ities\SerialApp\CC2530DB\..\..\..\..\..\Components #
#                          \mt\ -I F:\¹âÅÌ×ÊÁÏ\ETC-WSNÎïÁªÍø¹âÅÌ×ÊÁÏ210\ZigBe #
#                          eÍøÂç\WSN-CSÔ´Âë\ZStack-CC2530-2.5.1a\Projects\zst #
#                          ack\Utilities\SerialApp\CC2530DB\..\..\..\..\..\Co #
#                          mponents\osal\include\ -I                          #
#                          F:\¹âÅÌ×ÊÁÏ\ETC-WSNÎïÁªÍø¹âÅÌ×ÊÁÏ210\ZigBeeÍøÂç\WS #
#                          N-CSÔ´Âë\ZStack-CC2530-2.5.1a\Projects\zstack\Util #
#                          ities\SerialApp\CC2530DB\..\..\..\..\..\Components #
#                          \services\saddr\ -I F:\¹âÅÌ×ÊÁÏ\ETC-WSNÎïÁªÍø¹âÅÌ× #
#                          ÊÁÏ210\ZigBeeÍøÂç\WSN-CSÔ´Âë\ZStack-CC2530-2.5.1a\ #
#                          Projects\zstack\Utilities\SerialApp\CC2530DB\..\.. #
#                          \..\..\..\Components\services\sdata\ -I            #
#                          F:\¹âÅÌ×ÊÁÏ\ETC-WSNÎïÁªÍø¹âÅÌ×ÊÁÏ210\ZigBeeÍøÂç\WS #
#                          N-CSÔ´Âë\ZStack-CC2530-2.5.1a\Projects\zstack\Util #
#                          ities\SerialApp\CC2530DB\..\..\..\..\..\Components #
#                          \stack\af\ -I F:\¹âÅÌ×ÊÁÏ\ETC-WSNÎïÁªÍø¹âÅÌ×ÊÁÏ210 #
#                          \ZigBeeÍøÂç\WSN-CSÔ´Âë\ZStack-CC2530-2.5.1a\Projec #
#                          ts\zstack\Utilities\SerialApp\CC2530DB\..\..\..\.. #
#                          \..\Components\stack\nwk\ -I                       #
#                          F:\¹âÅÌ×ÊÁÏ\ETC-WSNÎïÁªÍø¹âÅÌ×ÊÁÏ210\ZigBeeÍøÂç\WS #
#                          N-CSÔ´Âë\ZStack-CC2530-2.5.1a\Projects\zstack\Util #
#                          ities\SerialApp\CC2530DB\..\..\..\..\..\Components #
#                          \stack\sapi\ -I F:\¹âÅÌ×ÊÁÏ\ETC-WSNÎïÁªÍø¹âÅÌ×ÊÁÏ2 #
#                          10\ZigBeeÍøÂç\WSN-CSÔ´Âë\ZStack-CC2530-2.5.1a\Proj #
#                          ects\zstack\Utilities\SerialApp\CC2530DB\..\..\..\ #
#                          ..\..\Components\stack\sec\ -I                     #
#                          F:\¹âÅÌ×ÊÁÏ\ETC-WSNÎïÁªÍø¹âÅÌ×ÊÁÏ210\ZigBeeÍøÂç\WS #
#                          N-CSÔ´Âë\ZStack-CC2530-2.5.1a\Projects\zstack\Util #
#                          ities\SerialApp\CC2530DB\..\..\..\..\..\Components #
#                          \stack\sys\ -I F:\¹âÅÌ×ÊÁÏ\ETC-WSNÎïÁªÍø¹âÅÌ×ÊÁÏ21 #
#                          0\ZigBeeÍøÂç\WSN-CSÔ´Âë\ZStack-CC2530-2.5.1a\Proje #
#                          cts\zstack\Utilities\SerialApp\CC2530DB\..\..\..\. #
#                          .\..\Components\stack\zdo\ -I                      #
#                          F:\¹âÅÌ×ÊÁÏ\ETC-WSNÎïÁªÍø¹âÅÌ×ÊÁÏ210\ZigBeeÍøÂç\WS #
#                          N-CSÔ´Âë\ZStack-CC2530-2.5.1a\Projects\zstack\Util #
#                          ities\SerialApp\CC2530DB\..\..\..\..\..\Components #
#                          \zmac\ -I F:\¹âÅÌ×ÊÁÏ\ETC-WSNÎïÁªÍø¹âÅÌ×ÊÁÏ210\Zig #
#                          BeeÍøÂç\WSN-CSÔ´Âë\ZStack-CC2530-2.5.1a\Projects\z #
#                          stack\Utilities\SerialApp\CC2530DB\..\..\..\..\..\ #
#                          Components\zmac\f8w\ -Ohz --require_prototypes     #
#    List file          =  F:\¹âÅÌ×ÊÁÏ\ETC-WSNÎïÁªÍø¹âÅÌ×ÊÁÏ210\ZigBeeÍøÂç\WS #
#                          N-CSÔ´Âë\ZStack-CC2530-2.5.1a\Projects\zstack\Util #
#                          ities\SerialApp\CC2530DB\CoordinatorEB\List\GUIVal #
#                          f.lst                                              #
#    Object file        =  F:\¹âÅÌ×ÊÁÏ\ETC-WSNÎïÁªÍø¹âÅÌ×ÊÁÏ210\ZigBeeÍøÂç\WS #
#                          N-CSÔ´Âë\ZStack-CC2530-2.5.1a\Projects\zstack\Util #
#                          ities\SerialApp\CC2530DB\CoordinatorEB\Obj\GUIValf #
#                          .r51                                               #
#                                                                             #
#                                                                             #
###############################################################################

F:\¹âÅÌ×ÊÁÏ\ETC-WSNÎïÁªÍø¹âÅÌ×ÊÁÏ210\ZigBeeÍøÂç\WSN-CSÔ´Âë\ZStack-CC2530-2.5.1a\Components\uCGUI\Core\GUIValf.c
      1          /*
      2          *********************************************************************************************************
      3          *                                                uC/GUI
      4          *                        Universal graphic software for embedded applications
      5          *
      6          *                       (c) Copyright 2002, Micrium Inc., Weston, FL
      7          *                       (c) Copyright 2002, SEGGER Microcontroller Systeme GmbH
      8          *
      9          *              µC/GUI is protected by international copyright laws. Knowledge of the
     10          *              source code may not be used to write a similar product. This file may
     11          *              only be used in accordance with a license and should not be redistributed
     12          *              in any way. We appreciate your understanding and fairness.
     13          *
     14          ----------------------------------------------------------------------
     15          File        : GUIValF.C
     16          Purpose     : Displaying floating point values
     17          ---------------------------END-OF-HEADER------------------------------
     18          */
     19          
     20          #include "GUI_Protected.h"
     21          #include "math.h"
     22          
     23          /*********************************************************************
     24          *
     25          *       Static code
     26          *
     27          **********************************************************************
     28          */
     29          /*********************************************************************
     30          *
     31          *       _DispFloatFix
     32          */

   \                                 In  segment BANKED_CODE, align 1, keep-with-next
     33          static void _DispFloatFix(float f, char Len, char Decs, int DrawPlusSign) {
   \                     _DispFloatFix:
   \   000000   74EE         MOV     A,#-0x12
   \   000002   12....       LCALL   ?BANKED_ENTER_XDATA
   \   000005                ; Saved register size: 18
   \   000005                ; Auto size: 0
   \   000005   8A..         MOV     ?V0 + 4,R2
   \   000007   8B..         MOV     ?V0 + 5,R3
   \   000009   8C..         MOV     ?V0 + 6,R4
   \   00000B   8D..         MOV     ?V0 + 7,R5
   \   00000D   E9           MOV     A,R1
   \   00000E   FE           MOV     R6,A
   \   00000F   7412         MOV     A,#0x12
   \   000011   12....       LCALL   ?XSTACK_DISP0_8
   \   000014   E0           MOVX    A,@DPTR
   \   000015   FF           MOV     R7,A
   \   000016   7413         MOV     A,#0x13
   \   000018   12....       LCALL   ?XSTACK_DISP0_8
   \   00001B   E0           MOVX    A,@DPTR
   \   00001C   F5..         MOV     ?V0 + 8,A
   \   00001E   A3           INC     DPTR
   \   00001F   E0           MOVX    A,@DPTR
   \   000020   F5..         MOV     ?V0 + 9,A
     34            f *= GUI_Pow10[(unsigned)Decs];
     35            f += 0.5;
     36            f = (float) floor (f);
   \   000022                ; Setup parameters for call to function floor
   \   000022   8F..         MOV     ?V0 + 0,R7
   \   000024   75..00       MOV     ?V0 + 1,#0x0
   \   000027   7402         MOV     A,#0x2
   \   000029   78..         MOV     R0,#?V0 + 0
   \   00002B   12....       LCALL   ?S_SHL
   \   00002E   74..         MOV     A,#GUI_Pow10 & 0xff
   \   000030   25..         ADD     A,?V0 + 0
   \   000032   F582         MOV     DPL,A
   \   000034   74..         MOV     A,#(GUI_Pow10 >> 8) & 0xff
   \   000036   35..         ADDC    A,?V0 + 1
   \   000038   F583         MOV     DPH,A
   \   00003A   78..         MOV     R0,#?V0 + 0
   \   00003C   12....       LCALL   ?L_MOV_X
   \   00003F   78..         MOV     R0,#?V0 + 0
   \   000041   12....       LCALL   ?UL_TO_FLT
   \   000044   78..         MOV     R0,#?V0 + 0
   \   000046   79..         MOV     R1,#?V0 + 4
   \   000048   12....       LCALL   ?FLT_MUL
   \   00004B   90....       MOV     DPTR,#__Constant_3f000000
   \   00004E   78..         MOV     R0,#?V0 + 4
   \   000050   12....       LCALL   ?L_MOV_X
   \   000053   78..         MOV     R0,#?V0 + 0
   \   000055   79..         MOV     R1,#?V0 + 4
   \   000057   12....       LCALL   ?FLT_ADD
   \   00005A   AA..         MOV     R2,?V0 + 0
   \   00005C   AB..         MOV     R3,?V0 + 1
   \   00005E   AC..         MOV     R4,?V0 + 2
   \   000060   AD..         MOV     R5,?V0 + 3
   \   000062   12....       LCALL   ??floor?relay
   \   000065   8A..         MOV     ?V0 + 4,R2
   \   000067   8B..         MOV     ?V0 + 5,R3
   \   000069   8C..         MOV     ?V0 + 6,R4
   \   00006B   8D..         MOV     ?V0 + 7,R5
     37            if (DrawPlusSign) {
   \   00006D   E5..         MOV     A,?V0 + 8
   \   00006F   45..         ORL     A,?V0 + 9
   \   000071   601C         JZ      ??_DispFloatFix_0
     38              GUI_DispSDecShift((long)f, Len, Decs);
   \   000073                ; Setup parameters for call to function GUI_DispSDecShift
   \   000073   EF           MOV     A,R7
   \   000074   F5..         MOV     ?V0 + 0,A
   \   000076   78..         MOV     R0,#?V0 + 0
   \   000078   12....       LCALL   ?PUSH_XSTACK_I_ONE
   \   00007B   EE           MOV     A,R6
   \   00007C   F9           MOV     R1,A
   \   00007D   78..         MOV     R0,#?V0 + 4
   \   00007F   12....       LCALL   ?FLT_TO_L
   \   000082   AA..         MOV     R2,?V0 + 4
   \   000084   AB..         MOV     R3,?V0 + 5
   \   000086   AC..         MOV     R4,?V0 + 6
   \   000088   AD..         MOV     R5,?V0 + 7
   \   00008A   12....       LCALL   ??GUI_DispSDecShift?relay
   \   00008D   801A         SJMP    ??_DispFloatFix_1
     39            } else {
     40              GUI_DispDecShift((long)f, Len, Decs);
   \                     ??_DispFloatFix_0:
   \   00008F                ; Setup parameters for call to function GUI_DispDecShift
   \   00008F   EF           MOV     A,R7
   \   000090   F5..         MOV     ?V0 + 0,A
   \   000092   78..         MOV     R0,#?V0 + 0
   \   000094   12....       LCALL   ?PUSH_XSTACK_I_ONE
   \   000097   EE           MOV     A,R6
   \   000098   F9           MOV     R1,A
   \   000099   78..         MOV     R0,#?V0 + 4
   \   00009B   12....       LCALL   ?FLT_TO_L
   \   00009E   AA..         MOV     R2,?V0 + 4
   \   0000A0   AB..         MOV     R3,?V0 + 5
   \   0000A2   AC..         MOV     R4,?V0 + 6
   \   0000A4   AD..         MOV     R5,?V0 + 7
   \   0000A6   12....       LCALL   ??GUI_DispDecShift?relay
   \                     ??_DispFloatFix_1:
   \   0000A9   7401         MOV     A,#0x1
     41            }
   \   0000AB                REQUIRE ?Subroutine0
   \   0000AB                ; // Fall through to label ?Subroutine0
     42          }

   \                                 In  segment BANKED_CODE, align 1, keep-with-next
   \                     ?Subroutine0:
   \   000000   12....       LCALL   ?DEALLOC_XSTACK8
   \   000003   7F0A         MOV     R7,#0xa
   \   000005   02....       LJMP    ?BANKED_LEAVE_XDATA
     43          
     44          /*********************************************************************
     45          *
     46          *       Public code
     47          *
     48          **********************************************************************
     49          */
     50          /*********************************************************************
     51          *
     52          *       GUI_DispFloatFix
     53          */

   \                                 In  segment BANKED_CODE, align 1, keep-with-next
     54          void GUI_DispFloatFix(float f, char Len, char Decs) {
   \                     GUI_DispFloatFix:
   \   000000   74F2         MOV     A,#-0xe
   \   000002   12....       LCALL   ?BANKED_ENTER_XDATA
   \   000005                ; Saved register size: 14
   \   000005                ; Auto size: 0
   \   000005   E9           MOV     A,R1
   \   000006   FE           MOV     R6,A
   \   000007   740E         MOV     A,#0xe
   \   000009   12....       LCALL   ?XSTACK_DISP0_8
   \   00000C   E0           MOVX    A,@DPTR
   \   00000D   F9           MOV     R1,A
     55            _DispFloatFix(f, Len, Decs, 0);
   \   00000E                ; Setup parameters for call to function _DispFloatFix
   \   00000E   E4           CLR     A
   \   00000F   F5..         MOV     ?V0 + 4,A
   \   000011   F5..         MOV     ?V0 + 5,A
   \   000013                REQUIRE ?Subroutine1
   \   000013                ; // Fall through to label ?Subroutine1
     56          }

   \                                 In  segment BANKED_CODE, align 1, keep-with-next
   \                     ?Subroutine1:
   \   000000   78..         MOV     R0,#?V0 + 4
   \   000002   12....       LCALL   ?PUSH_XSTACK_I_TWO
   \   000005   E9           MOV     A,R1
   \   000006   F5..         MOV     ?V0 + 4,A
   \   000008   78..         MOV     R0,#?V0 + 4
   \   00000A   12....       LCALL   ?PUSH_XSTACK_I_ONE
   \   00000D   EE           MOV     A,R6
   \   00000E   F9           MOV     R1,A
   \   00000F   12....       LCALL   ??_DispFloatFix?relay
   \   000012   7403         MOV     A,#0x3
   \   000014   12....       LCALL   ?DEALLOC_XSTACK8
   \   000017   7F06         MOV     R7,#0x6
   \   000019   02....       LJMP    ?BANKED_LEAVE_XDATA
     57          
     58          /*********************************************************************
     59          *
     60          *       GUI_DispFloatMin
     61          */

   \                                 In  segment BANKED_CODE, align 1, keep-with-next
     62          void GUI_DispFloatMin(float f, char Fract) {
   \                     GUI_DispFloatMin:
   \   000000   74F0         MOV     A,#-0x10
   \   000002   12....       LCALL   ?BANKED_ENTER_XDATA
   \   000005                ; Saved register size: 16
   \   000005                ; Auto size: 0
   \   000005   8A..         MOV     ?V0 + 4,R2
   \   000007   8B..         MOV     ?V0 + 5,R3
   \   000009   8C..         MOV     ?V0 + 6,R4
   \   00000B   8D..         MOV     ?V0 + 7,R5
   \   00000D   E9           MOV     A,R1
   \   00000E   FE           MOV     R6,A
     63            char Len;
     64            Len = GUI_Long2Len((long)f);
   \   00000F                ; Setup parameters for call to function GUI_Long2Len
   \   00000F   8A..         MOV     ?V0 + 0,R2
   \   000011   8B..         MOV     ?V0 + 1,R3
   \   000013   8C..         MOV     ?V0 + 2,R4
   \   000015   8D..         MOV     ?V0 + 3,R5
   \   000017   78..         MOV     R0,#?V0 + 0
   \   000019   12....       LCALL   ?FLT_TO_L
   \   00001C   12....       LCALL   ?Subroutine3 & 0xFFFF
     65            if ((f < 0) && (f > -1)) { /* If value < 0 and > -1 (e.g. -0.123) increment length by 1 */
   \                     ??CrossCallReturnLabel_0:
   \   00001F   12....       LCALL   ?L_MOV_X
   \   000022   78..         MOV     R0,#?V0 + 4
   \   000024   79..         MOV     R1,#?V0 + 0
   \   000026   12....       LCALL   ?FLT_LT
   \   000029   5012         JNC     ??GUI_DispFloatMin_0
   \   00002B   90....       MOV     DPTR,#__Constant_bf7ffffe
   \   00002E   78..         MOV     R0,#?V0 + 0
   \   000030   12....       LCALL   ?L_MOV_X
   \   000033   78..         MOV     R0,#?V0 + 4
   \   000035   79..         MOV     R1,#?V0 + 0
   \   000037   12....       LCALL   ?FLT_GE
   \   00003A   5001         JNC     ??GUI_DispFloatMin_0
     66              Len++;
   \   00003C   0C           INC     R4
     67            }
     68            _DispFloatFix(f, (char)(Len + Fract + (Fract ? 1 : 0)), (char)Fract, 0);
   \                     ??GUI_DispFloatMin_0:
   \   00003D   EE           MOV     A,R6
   \   00003E   6004         JZ      ??GUI_DispFloatMin_1
   \   000040   7A01         MOV     R2,#0x1
   \   000042   8002         SJMP    ??GUI_DispFloatMin_2
   \                     ??GUI_DispFloatMin_1:
   \   000044   7A00         MOV     R2,#0x0
   \                     ??GUI_DispFloatMin_2:
   \   000046                ; Setup parameters for call to function _DispFloatFix
   \   000046   E4           CLR     A
   \   000047   F5..         MOV     ?V0 + 0,A
   \   000049   F5..         MOV     ?V0 + 1,A
   \   00004B                REQUIRE ?Subroutine2
   \   00004B                ; // Fall through to label ?Subroutine2
     69          }

   \                                 In  segment BANKED_CODE, align 1, keep-with-next
   \                     ?Subroutine2:
   \   000000   78..         MOV     R0,#?V0 + 0
   \   000002   12....       LCALL   ?PUSH_XSTACK_I_TWO
   \   000005   EE           MOV     A,R6
   \   000006   F5..         MOV     ?V0 + 0,A
   \   000008   78..         MOV     R0,#?V0 + 0
   \   00000A   12....       LCALL   ?PUSH_XSTACK_I_ONE
   \   00000D   EC           MOV     A,R4
   \   00000E   2E           ADD     A,R6
   \   00000F   2A           ADD     A,R2
   \   000010   F9           MOV     R1,A
   \   000011   AA..         MOV     R2,?V0 + 4
   \   000013   AB..         MOV     R3,?V0 + 5
   \   000015   AC..         MOV     R4,?V0 + 6
   \   000017   AD..         MOV     R5,?V0 + 7
   \   000019   12....       LCALL   ??_DispFloatFix?relay
   \   00001C   7403         MOV     A,#0x3
   \   00001E   12....       LCALL   ?DEALLOC_XSTACK8
   \   000021   7F08         MOV     R7,#0x8
   \   000023   02....       LJMP    ?BANKED_LEAVE_XDATA

   \                                 In  segment BANKED_CODE, align 1, keep-with-next
   \                     ?Subroutine3:
   \   000000   AA..         MOV     R2,?V0 + 0
   \   000002   AB..         MOV     R3,?V0 + 1
   \   000004   AC..         MOV     R4,?V0 + 2
   \   000006   AD..         MOV     R5,?V0 + 3
   \   000008   12....       LCALL   ??GUI_Long2Len?relay
   \   00000B   EA           MOV     A,R2
   \   00000C   FC           MOV     R4,A
   \   00000D   90....       MOV     DPTR,#__Constant_0
   \   000010   78..         MOV     R0,#?V0 + 0
   \   000012   22           RET
     70          
     71          /*********************************************************************
     72          *
     73          *       GUI_DispFloat
     74          */

   \                                 In  segment BANKED_CODE, align 1, keep-with-next
     75          void GUI_DispFloat(float f, char Len) {
   \                     GUI_DispFloat:
   \   000000   74EE         MOV     A,#-0x12
   \   000002   12....       LCALL   ?BANKED_ENTER_XDATA
   \   000005                ; Saved register size: 18
   \   000005                ; Auto size: 0
   \   000005   8A..         MOV     ?V0 + 4,R2
   \   000007   8B..         MOV     ?V0 + 5,R3
   \   000009   8C..         MOV     ?V0 + 6,R4
   \   00000B   8D..         MOV     ?V0 + 7,R5
   \   00000D   E9           MOV     A,R1
   \   00000E   FE           MOV     R6,A
     76            int Decs;
     77            Decs =  Len - GUI_Long2Len((long)f)-1;
   \   00000F                ; Setup parameters for call to function GUI_Long2Len
   \   00000F   8A..         MOV     ?V0 + 0,R2
   \   000011   8B..         MOV     ?V0 + 1,R3
   \   000013   8C..         MOV     ?V0 + 2,R4
   \   000015   8D..         MOV     ?V0 + 3,R5
   \   000017   78..         MOV     R0,#?V0 + 0
   \   000019   12....       LCALL   ?FLT_TO_L
   \   00001C   AA..         MOV     R2,?V0 + 0
   \   00001E   AB..         MOV     R3,?V0 + 1
   \   000020   AC..         MOV     R4,?V0 + 2
   \   000022   AD..         MOV     R5,?V0 + 3
   \   000024   12....       LCALL   ??GUI_Long2Len?relay
   \   000027   8A..         MOV     ?V0 + 0,R2
   \   000029   8B..         MOV     ?V0 + 1,R3
   \   00002B   EE           MOV     A,R6
   \   00002C   C3           CLR     C
   \   00002D   95..         SUBB    A,?V0 + 0
   \   00002F   F8           MOV     R0,A
   \   000030   E4           CLR     A
   \   000031   95..         SUBB    A,?V0 + 1
   \   000033   F9           MOV     R1,A
   \   000034   E8           MOV     A,R0
   \   000035   24FF         ADD     A,#-0x1
   \   000037   FA           MOV     R2,A
   \   000038   E9           MOV     A,R1
   \   000039   34FF         ADDC    A,#-0x1
   \   00003B   FB           MOV     R3,A
     78            if ((f < 0) && (f > -1)) { /* If value < 0 and > -1 (e.g. -0.123) decrement Decs */
   \   00003C   90....       MOV     DPTR,#__Constant_0
   \   00003F   78..         MOV     R0,#?V0 + 0
   \   000041   12....       LCALL   ?L_MOV_X
   \   000044   78..         MOV     R0,#?V0 + 4
   \   000046   79..         MOV     R1,#?V0 + 0
   \   000048   12....       LCALL   ?FLT_LT
   \   00004B   5019         JNC     ??GUI_DispFloat_0
   \   00004D   90....       MOV     DPTR,#__Constant_bf7ffffe
   \   000050   78..         MOV     R0,#?V0 + 0
   \   000052   12....       LCALL   ?L_MOV_X
   \   000055   78..         MOV     R0,#?V0 + 4
   \   000057   79..         MOV     R1,#?V0 + 0
   \   000059   12....       LCALL   ?FLT_GE
   \   00005C   5008         JNC     ??GUI_DispFloat_0
     79              Decs--;
   \   00005E   EA           MOV     A,R2
   \   00005F   24FF         ADD     A,#-0x1
   \   000061   1A           DEC     R2
   \   000062   EB           MOV     A,R3
   \   000063   34FF         ADDC    A,#-0x1
   \   000065   FB           MOV     R3,A
     80            }
     81            if (Decs<0)
   \                     ??GUI_DispFloat_0:
   \   000066   C3           CLR     C
   \   000067   EB           MOV     A,R3
   \   000068   9400         SUBB    A,#0x0
   \   00006A   A2D2         MOV     C,0xD0 /* PSW */.2
   \   00006C   65D0         XRL     A,PSW
   \   00006E   33           RLC     A
   \   00006F   5002         JNC     ??GUI_DispFloat_1
     82              Decs =0;
   \   000071   7A00         MOV     R2,#0x0
     83            _DispFloatFix(f, Len, (char)Decs, 0);
   \                     ??GUI_DispFloat_1:
   \   000073                ; Setup parameters for call to function _DispFloatFix
   \   000073   E4           CLR     A
   \   000074   F5..         MOV     ?V0 + 0,A
   \   000076   F5..         MOV     ?V0 + 1,A
   \   000078   78..         MOV     R0,#?V0 + 0
   \   00007A   12....       LCALL   ?PUSH_XSTACK_I_TWO
   \   00007D   EA           MOV     A,R2
   \   00007E   F5..         MOV     ?V0 + 0,A
   \   000080   78..         MOV     R0,#?V0 + 0
   \   000082   12....       LCALL   ?PUSH_XSTACK_I_ONE
   \   000085   EE           MOV     A,R6
   \   000086   F9           MOV     R1,A
   \   000087   AA..         MOV     R2,?V0 + 4
   \   000089   AB..         MOV     R3,?V0 + 5
   \   00008B   AC..         MOV     R4,?V0 + 6
   \   00008D   AD..         MOV     R5,?V0 + 7
   \   00008F   12....       LCALL   ??_DispFloatFix?relay
   \   000092   7403         MOV     A,#0x3
   \   000094   02....       LJMP    ?Subroutine0 & 0xFFFF
     84          }
     85          
     86          /*********************************************************************
     87          *
     88          *       GUI_DispSFloatFix
     89          */

   \                                 In  segment BANKED_CODE, align 1, keep-with-next
     90          void GUI_DispSFloatFix(float f, char Len, char Fract) {
   \                     GUI_DispSFloatFix:
   \   000000   74F2         MOV     A,#-0xe
   \   000002   12....       LCALL   ?BANKED_ENTER_XDATA
   \   000005                ; Saved register size: 14
   \   000005                ; Auto size: 0
   \   000005   E9           MOV     A,R1
   \   000006   FE           MOV     R6,A
   \   000007   740E         MOV     A,#0xe
   \   000009   12....       LCALL   ?XSTACK_DISP0_8
   \   00000C   E0           MOVX    A,@DPTR
   \   00000D   F9           MOV     R1,A
     91            _DispFloatFix (f, Len, Fract, 1);
   \   00000E                ; Setup parameters for call to function _DispFloatFix
   \   00000E   75..01       MOV     ?V0 + 4,#0x1
   \   000011   75..00       MOV     ?V0 + 5,#0x0
   \   000014   02....       LJMP    ?Subroutine1 & 0xFFFF
     92          }
     93          
     94          /*********************************************************************
     95          *
     96          *       GUI_DispSFloatMin
     97          */

   \                                 In  segment BANKED_CODE, align 1, keep-with-next
     98          void GUI_DispSFloatMin(float f, char Fract) {
   \                     GUI_DispSFloatMin:
   \   000000   74F0         MOV     A,#-0x10
   \   000002   12....       LCALL   ?BANKED_ENTER_XDATA
   \   000005                ; Saved register size: 16
   \   000005                ; Auto size: 0
   \   000005   8A..         MOV     ?V0 + 4,R2
   \   000007   8B..         MOV     ?V0 + 5,R3
   \   000009   8C..         MOV     ?V0 + 6,R4
   \   00000B   8D..         MOV     ?V0 + 7,R5
   \   00000D   E9           MOV     A,R1
   \   00000E   FE           MOV     R6,A
     99            char Len;
    100            Len = GUI_Long2Len((long)f);
   \   00000F                ; Setup parameters for call to function GUI_Long2Len
   \   00000F   8A..         MOV     ?V0 + 0,R2
   \   000011   8B..         MOV     ?V0 + 1,R3
   \   000013   8C..         MOV     ?V0 + 2,R4
   \   000015   8D..         MOV     ?V0 + 3,R5
   \   000017   78..         MOV     R0,#?V0 + 0
   \   000019   12....       LCALL   ?FLT_TO_L
   \   00001C   12....       LCALL   ?Subroutine3 & 0xFFFF
    101            if ((f < 0) && (f > -1)) { /* If value < 0 and > -1 (e.g. -0.123) increment length by 1 */
   \                     ??CrossCallReturnLabel_1:
   \   00001F   12....       LCALL   ?L_MOV_X
   \   000022   78..         MOV     R0,#?V0 + 4
   \   000024   79..         MOV     R1,#?V0 + 0
   \   000026   12....       LCALL   ?FLT_LT
   \   000029   5012         JNC     ??GUI_DispSFloatMin_0
   \   00002B   90....       MOV     DPTR,#__Constant_bf7ffffe
   \   00002E   78..         MOV     R0,#?V0 + 0
   \   000030   12....       LCALL   ?L_MOV_X
   \   000033   78..         MOV     R0,#?V0 + 4
   \   000035   79..         MOV     R1,#?V0 + 0
   \   000037   12....       LCALL   ?FLT_GE
   \   00003A   5001         JNC     ??GUI_DispSFloatMin_0
    102              Len++;
   \   00003C   0C           INC     R4
    103            }
    104            if (f>0) {
   \                     ??GUI_DispSFloatMin_0:
   \   00003D   90....       MOV     DPTR,#__Constant_1
   \   000040   78..         MOV     R0,#?V0 + 0
   \   000042   12....       LCALL   ?L_MOV_X
   \   000045   78..         MOV     R0,#?V0 + 4
   \   000047   79..         MOV     R1,#?V0 + 0
   \   000049   12....       LCALL   ?FLT_GE
   \   00004C   5001         JNC     ??GUI_DispSFloatMin_1
    105              Len++;
   \   00004E   0C           INC     R4
    106            }
    107            _DispFloatFix(f, (char)(Len + Fract + (Fract ? 1 : 0)), (char)Fract, 1);
   \                     ??GUI_DispSFloatMin_1:
   \   00004F   EE           MOV     A,R6
   \   000050   6004         JZ      ??GUI_DispSFloatMin_2
   \   000052   7A01         MOV     R2,#0x1
   \   000054   8002         SJMP    ??GUI_DispSFloatMin_3
   \                     ??GUI_DispSFloatMin_2:
   \   000056   7A00         MOV     R2,#0x0
   \                     ??GUI_DispSFloatMin_3:
   \   000058                ; Setup parameters for call to function _DispFloatFix
   \   000058   75..01       MOV     ?V0 + 0,#0x1
   \   00005B   75..00       MOV     ?V0 + 1,#0x0
   \   00005E   02....       LJMP    ?Subroutine2 & 0xFFFF
    108          }

   \                                 In  segment XDATA_ROM_C, align 1
   \                     __Constant_3f000000:
   \   000000   0000003F     DD 3F000000H

   \                                 In  segment XDATA_ROM_C, align 1
   \                     __Constant_0:
   \   000000   00000000     DD 0H

   \                                 In  segment XDATA_ROM_C, align 1
   \                     __Constant_bf7ffffe:
   \   000000   FEFF7FBF     DD 0BF7FFFFEH

   \                                 In  segment XDATA_ROM_C, align 1
   \                     __Constant_1:
   \   000000   01000000     DD 1H

   \                                 In  segment BANK_RELAYS, align 1
   \                     ??_DispFloatFix?relay:
   \   000000   12....       LCALL   ?BDISPATCH
   \   000003   ......       DC24    _DispFloatFix

   \                                 In  segment BANK_RELAYS, align 1
   \                     ??GUI_DispFloatFix?relay:
   \   000000   12....       LCALL   ?BDISPATCH
   \   000003   ......       DC24    GUI_DispFloatFix

   \                                 In  segment BANK_RELAYS, align 1
   \                     ??GUI_DispFloatMin?relay:
   \   000000   12....       LCALL   ?BDISPATCH
   \   000003   ......       DC24    GUI_DispFloatMin

   \                                 In  segment BANK_RELAYS, align 1
   \                     ??GUI_DispFloat?relay:
   \   000000   12....       LCALL   ?BDISPATCH
   \   000003   ......       DC24    GUI_DispFloat

   \                                 In  segment BANK_RELAYS, align 1
   \                     ??GUI_DispSFloatFix?relay:
   \   000000   12....       LCALL   ?BDISPATCH
   \   000003   ......       DC24    GUI_DispSFloatFix

   \                                 In  segment BANK_RELAYS, align 1
   \                     ??GUI_DispSFloatMin?relay:
   \   000000   12....       LCALL   ?BDISPATCH
   \   000003   ......       DC24    GUI_DispSFloatMin
    109          
    110          /*************************** End of file ****************************/

   Maximum stack usage in bytes:

     Function               ISTACK PSTACK XSTACK
     --------               ------ ------ ------
     GUI_DispFloat              0      0     21
       -> GUI_Long2Len          0      0     36
       -> _DispFloatFix         0      0     42
     GUI_DispFloatFix           0      0     18
       -> _DispFloatFix         0      0     34
     GUI_DispFloatMin           0      0     19
       -> GUI_Long2Len          0      0     32
       -> _DispFloatFix         0      0     38
     GUI_DispSFloatFix          0      0     18
       -> _DispFloatFix         0      0     34
     GUI_DispSFloatMin          0      0     19
       -> GUI_Long2Len          0      0     32
       -> _DispFloatFix         0      0     38
     _DispFloatFix              0      0     40
       -> floor                 0      0     36
       -> GUI_DispSDecShift     0      0     38
       -> GUI_DispDecShift      0      0     38


   Segment part sizes:

     Function/Label            Bytes
     --------------            -----
     _DispFloatFix              171
     ?Subroutine0                 8
     GUI_DispFloatFix            19
     ?Subroutine1                28
     GUI_DispFloatMin            75
     ?Subroutine2                38
     ?Subroutine3                19
     GUI_DispFloat              151
     GUI_DispSFloatFix           23
     GUI_DispSFloatMin           97
     __Constant_3f000000          4
     __Constant_0                 4
     __Constant_bf7ffffe          4
     __Constant_1                 4
     ??_DispFloatFix?relay        6
     ??GUI_DispFloatFix?relay     6
     ??GUI_DispFloatMin?relay     6
     ??GUI_DispFloat?relay        6
     ??GUI_DispSFloatFix?relay    6
     ??GUI_DispSFloatMin?relay    6

 
 629 bytes in segment BANKED_CODE
  36 bytes in segment BANK_RELAYS
  16 bytes in segment XDATA_ROM_C
 
 665 bytes of CODE  memory
   0 bytes of CONST memory (+ 16 bytes shared)

Errors: none
Warnings: none
