///////////////////////////////////////////////////////////////////////////////
//                                                                            /
// IAR C/C++ Compiler V8.10.1.10194/W32 for 8051        10/Jul/2018  15:41:23 /
// Copyright 2004-2011 IAR Systems AB.                                        /
//                                                                            /
//    Core               =  plain                                             /
//    Code model         =  banked                                            /
//    Data model         =  large                                             /
//    Calling convention =  xdata reentrant                                   /
//    Constant location  =  data_rom                                          /
//    Dptr setup         =  1,16                                              /
//    Source file        =  E:\123\´óÈý\Éú²úÊµÏ°\Àý³Ì\Àý³Ì\Ë«»ú\WSN_ZigBee\Co /
//                          mponents\stack\zdo\ZDNwkMgr.c                     /
//    Command line       =  -f E:\123\´óÈý\Éú²úÊµÏ°\Àý³Ì\Àý³Ì\Ë«»ú\WSN_ZigBee /
//                          \Projects\zstack\Utilities\SerialApp\CC2530DB\..\ /
//                          ..\..\Tools\CC2530DB\f8wRouter.cfg (-DCPU32MHZ    /
//                          -DROOT=__near_func -DMAC_CFG_APP_PENDING_QUEUE=TR /
//                          UE -DRTR_NWK -DBLINK_LEDS) -f                     /
//                          E:\123\´óÈý\Éú²úÊµÏ°\Àý³Ì\Àý³Ì\Ë«»ú\WSN_ZigBee\Pr /
//                          ojects\zstack\Utilities\SerialApp\CC2530DB\..\..\ /
//                          ..\Tools\CC2530DB\f8wConfig.cfg (-DSECURE=0       /
//                          -DZG_SECURE_DYNAMIC=0 -DREFLECTOR                 /
//                          -DDEFAULT_CHANLIST=0x00000800                     /
//                          -DZDAPP_CONFIG_PAN_ID=0xFFF1                      /
//                          -DNWK_START_DELAY=100 -DEXTENDED_JOINING_RANDOM_M /
//                          ASK=0x007F -DBEACON_REQUEST_DELAY=100             /
//                          -DBEACON_REQ_DELAY_MASK=0x00FF                    /
//                          -DROUTE_EXPIRY_TIME=30 -DAPSC_ACK_WAIT_DURATION_P /
//                          OLLED=3000 -DNWK_INDIRECT_MSG_TIMEOUT=7           /
//                          -DMAX_RREQ_ENTRIES=8 -DAPSC_MAX_FRAME_RETRIES=3   /
//                          -DNWK_MAX_DATA_RETRIES=2                          /
//                          -DMAX_POLL_FAILURE_RETRIES=2 -DMAX_BCAST=9        /
//                          -DAPS_MAX_GROUPS=16 -DMAX_RTG_ENTRIES=40          /
//                          -DNWK_MAX_BINDING_ENTRIES=4                       /
//                          -DMAX_BINDING_CLUSTER_IDS=4                       /
//                          "-DDEFAULT_KEY={0x01, 0x03, 0x05, 0x07, 0x09,     /
//                          0x0B, 0x0D, 0x0F, 0x00, 0x02, 0x04, 0x06, 0x08,   /
//                          0x0A, 0x0C, 0x0D}" -DMAC_MAX_FRAME_SIZE=116       /
//                          "-DCONST=const __code" -DGENERIC=__generic        /
//                          -DRFD_RCVC_ALWAYS_ON=FALSE -DPOLL_RATE=1000       /
//                          -DQUEUED_POLL_RATE=100 -DRESPONSE_POLL_RATE=100)  /
//                          -DREJOIN_POLL_RATE=440 E:\123\´óÈý\Éú²úÊµÏ°\Àý³Ì\ /
//                          Àý³Ì\Ë«»ú\WSN_ZigBee\Components\stack\zdo\ZDNwkMg /
//                          r.c -D ZIGBEEPRO -D HAL_UART=TRUE -D              /
//                          SERIAL_APP_PORT=0 -D LCD_SUPPORTED -lC            /
//                          E:\123\´óÈý\Éú²úÊµÏ°\Àý³Ì\Àý³Ì\Ë«»ú\WSN_ZigBee\Pr /
//                          ojects\zstack\Utilities\SerialApp\CC2530DB\Router /
//                          EB-Pro\List\ -lA E:\123\´óÈý\Éú²úÊµÏ°\Àý³Ì\Àý³Ì\Ë /
//                          «»ú\WSN_ZigBee\Projects\zstack\Utilities\SerialAp /
//                          p\CC2530DB\RouterEB-Pro\List\ --diag_suppress     /
//                          Pe001,Pa010 -o E:\123\´óÈý\Éú²úÊµÏ°\Àý³Ì\Àý³Ì\Ë«» /
//                          ú\WSN_ZigBee\Projects\zstack\Utilities\SerialApp\ /
//                          CC2530DB\RouterEB-Pro\Obj\ -e --debug             /
//                          --core=plain --dptr=16,1 --data_model=large       /
//                          --code_model=banked --calling_convention=xdata_re /
//                          entrant --place_constants=data_rom                /
//                          --nr_virtual_regs 8 -I E:\123\´óÈý\Éú²úÊµÏ°\Àý³Ì\ /
//                          Àý³Ì\Ë«»ú\WSN_ZigBee\Projects\zstack\Utilities\Se /
//                          rialApp\CC2530DB\ -I E:\123\´óÈý\Éú²úÊµÏ°\Àý³Ì\Àý /
//                          ³Ì\Ë«»ú\WSN_ZigBee\Projects\zstack\Utilities\Seri /
//                          alApp\CC2530DB\..\SOURCE\ -I                      /
//                          E:\123\´óÈý\Éú²úÊµÏ°\Àý³Ì\Àý³Ì\Ë«»ú\WSN_ZigBee\Pr /
//                          ojects\zstack\Utilities\SerialApp\CC2530DB\..\..\ /
//                          ..\ZMAIN\TI2530DB\ -I E:\123\´óÈý\Éú²úÊµÏ°\Àý³Ì\À /
//                          ý³Ì\Ë«»ú\WSN_ZigBee\Projects\zstack\Utilities\Ser /
//                          ialApp\CC2530DB\..\..\..\..\..\COMPONENTS\MT\ -I  /
//                          E:\123\´óÈý\Éú²úÊµÏ°\Àý³Ì\Àý³Ì\Ë«»ú\WSN_ZigBee\Pr /
//                          ojects\zstack\Utilities\SerialApp\CC2530DB\..\..\ /
//                          ..\..\..\COMPONENTS\HAL\INCLUDE\ -I               /
//                          E:\123\´óÈý\Éú²úÊµÏ°\Àý³Ì\Àý³Ì\Ë«»ú\WSN_ZigBee\Pr /
//                          ojects\zstack\Utilities\SerialApp\CC2530DB\..\..\ /
//                          ..\..\..\COMPONENTS\HAL\TARGET\CC2530EB\ -I       /
//                          E:\123\´óÈý\Éú²úÊµÏ°\Àý³Ì\Àý³Ì\Ë«»ú\WSN_ZigBee\Pr /
//                          ojects\zstack\Utilities\SerialApp\CC2530DB\..\..\ /
//                          ..\..\..\COMPONENTS\OSAL\MCU\CCSOC\ -I            /
//                          E:\123\´óÈý\Éú²úÊµÏ°\Àý³Ì\Àý³Ì\Ë«»ú\WSN_ZigBee\Pr /
//                          ojects\zstack\Utilities\SerialApp\CC2530DB\..\..\ /
//                          ..\..\..\COMPONENTS\OSAL\INCLUDE\ -I              /
//                          E:\123\´óÈý\Éú²úÊµÏ°\Àý³Ì\Àý³Ì\Ë«»ú\WSN_ZigBee\Pr /
//                          ojects\zstack\Utilities\SerialApp\CC2530DB\..\..\ /
//                          ..\..\..\COMPONENTS\STACK\AF\ -I                  /
//                          E:\123\´óÈý\Éú²úÊµÏ°\Àý³Ì\Àý³Ì\Ë«»ú\WSN_ZigBee\Pr /
//                          ojects\zstack\Utilities\SerialApp\CC2530DB\..\..\ /
//                          ..\..\..\COMPONENTS\STACK\NWK\ -I                 /
//                          E:\123\´óÈý\Éú²úÊµÏ°\Àý³Ì\Àý³Ì\Ë«»ú\WSN_ZigBee\Pr /
//                          ojects\zstack\Utilities\SerialApp\CC2530DB\..\..\ /
//                          ..\..\..\COMPONENTS\STACK\SEC\ -I                 /
//                          E:\123\´óÈý\Éú²úÊµÏ°\Àý³Ì\Àý³Ì\Ë«»ú\WSN_ZigBee\Pr /
//                          ojects\zstack\Utilities\SerialApp\CC2530DB\..\..\ /
//                          ..\..\..\COMPONENTS\STACK\SAPI\ -I                /
//                          E:\123\´óÈý\Éú²úÊµÏ°\Àý³Ì\Àý³Ì\Ë«»ú\WSN_ZigBee\Pr /
//                          ojects\zstack\Utilities\SerialApp\CC2530DB\..\..\ /
//                          ..\..\..\COMPONENTS\STACK\SYS\ -I                 /
//                          E:\123\´óÈý\Éú²úÊµÏ°\Àý³Ì\Àý³Ì\Ë«»ú\WSN_ZigBee\Pr /
//                          ojects\zstack\Utilities\SerialApp\CC2530DB\..\..\ /
//                          ..\..\..\COMPONENTS\STACK\ZDO\ -I                 /
//                          E:\123\´óÈý\Éú²úÊµÏ°\Àý³Ì\Àý³Ì\Ë«»ú\WSN_ZigBee\Pr /
//                          ojects\zstack\Utilities\SerialApp\CC2530DB\..\..\ /
//                          ..\..\..\COMPONENTS\ZMAC\F8W\ -I                  /
//                          E:\123\´óÈý\Éú²úÊµÏ°\Àý³Ì\Àý³Ì\Ë«»ú\WSN_ZigBee\Pr /
//                          ojects\zstack\Utilities\SerialApp\CC2530DB\..\..\ /
//                          ..\..\..\COMPONENTS\ZMAC\ -I                      /
//                          E:\123\´óÈý\Éú²úÊµÏ°\Àý³Ì\Àý³Ì\Ë«»ú\WSN_ZigBee\Pr /
//                          ojects\zstack\Utilities\SerialApp\CC2530DB\..\..\ /
//                          ..\..\..\COMPONENTS\SERVICES\SADDR\ -I            /
//                          E:\123\´óÈý\Éú²úÊµÏ°\Àý³Ì\Àý³Ì\Ë«»ú\WSN_ZigBee\Pr /
//                          ojects\zstack\Utilities\SerialApp\CC2530DB\..\..\ /
//                          ..\..\..\COMPONENTS\SERVICES\SDATA\ -I            /
//                          E:\123\´óÈý\Éú²úÊµÏ°\Àý³Ì\Àý³Ì\Ë«»ú\WSN_ZigBee\Pr /
//                          ojects\zstack\Utilities\SerialApp\CC2530DB\..\..\ /
//                          ..\..\..\COMPONENTS\MAC\INCLUDE\ -I               /
//                          E:\123\´óÈý\Éú²úÊµÏ°\Àý³Ì\Àý³Ì\Ë«»ú\WSN_ZigBee\Pr /
//                          ojects\zstack\Utilities\SerialApp\CC2530DB\..\..\ /
//                          ..\..\..\COMPONENTS\MAC\HIGH_LEVEL\ -I            /
//                          E:\123\´óÈý\Éú²úÊµÏ°\Àý³Ì\Àý³Ì\Ë«»ú\WSN_ZigBee\Pr /
//                          ojects\zstack\Utilities\SerialApp\CC2530DB\..\..\ /
//                          ..\..\..\COMPONENTS\MAC\LOW_LEVEL\srf04\ -I       /
//                          E:\123\´óÈý\Éú²úÊµÏ°\Àý³Ì\Àý³Ì\Ë«»ú\WSN_ZigBee\Pr /
//                          ojects\zstack\Utilities\SerialApp\CC2530DB\..\..\ /
//                          ..\..\..\COMPONENTS\MAC\LOW_LEVEL\srf04\SINGLE_CH /
//                          IP\ -Ohz --require_prototypes                     /
//    List file          =  E:\123\´óÈý\Éú²úÊµÏ°\Àý³Ì\Àý³Ì\Ë«»ú\WSN_ZigBee\Pr /
//                          ojects\zstack\Utilities\SerialApp\CC2530DB\Router /
//                          EB-Pro\List\ZDNwkMgr.s51                          /
//                                                                            /
//                                                                            /
///////////////////////////////////////////////////////////////////////////////

        NAME ZDNwkMgr

        RTMODEL "__SystemLibrary", "CLib"
        RTMODEL "__calling_convention", "xdata_reentrant"
        RTMODEL "__code_model", "banked"
        RTMODEL "__core", "plain"
        RTMODEL "__data_model", "large"
        RTMODEL "__dptr_size", "16"
        RTMODEL "__extended_stack", "disabled"
        RTMODEL "__location_for_constants", "data"
        RTMODEL "__number_of_dptrs", "1"
        RTMODEL "__rt_version", "1"

        RSEG DOVERLAY:DATA:NOROOT(0)
        RSEG IOVERLAY:IDATA:NOROOT(0)
        RSEG ISTACK:IDATA:NOROOT(0)
        RSEG PSTACK:XDATA:NOROOT(0)
        RSEG XSTACK:XDATA:NOROOT(0)

        EXTERN ?ALLOC_XSTACK8
        EXTERN ?BANKED_ENTER_XDATA
        EXTERN ?BANKED_LEAVE_XDATA
        EXTERN ?BDISPATCH
        EXTERN ?BRET
        EXTERN ?DEALLOC_XSTACK8
        EXTERN ?L_AND_X
        EXTERN ?L_EQ_X
        EXTERN ?L_MOV_X
        EXTERN ?L_SHL
        EXTERN ?MOVE_LONG8_XDATA_XDATA
        EXTERN ?PUSH_XSTACK8_X_FOUR
        EXTERN ?PUSH_XSTACK8_X_TWO
        EXTERN ?PUSH_XSTACK_I_ONE
        EXTERN ?PUSH_XSTACK_I_THREE
        EXTERN ?PUSH_XSTACK_I_TWO
        EXTERN ?US_SWITCH_SPARSE
        EXTERN ?V0
        EXTERN ?XLOAD_R2345
        EXTERN ?XSP
        EXTERN ?XSTACK_DISP0_8
        EXTERN ?XSTORE_R2345
        EXTERN __INIT_XDATA_Z

        FUNCTION ??ZDNwkMgr_BuildAndSendUpdateNotify?relay,0203H
        FUNCTION ??ZDNwkMgr_CheckForChannelInterference?relay,0203H
        PUBLIC ??ZDNwkMgr_EDScanConfirmCB?relay
        FUNCTION ??ZDNwkMgr_EDScanConfirmCB?relay,0203H
        PUBLIC ??ZDNwkMgr_Init?relay
        FUNCTION ??ZDNwkMgr_Init?relay,0203H
        PUBLIC ??ZDNwkMgr_ProcessDataConfirm?relay
        FUNCTION ??ZDNwkMgr_ProcessDataConfirm?relay,0203H
        FUNCTION ??ZDNwkMgr_ProcessMgmtNwkUpdateReq?relay,0203H
        PUBLIC ??ZDNwkMgr_ProcessServerDiscRsp?relay
        FUNCTION ??ZDNwkMgr_ProcessServerDiscRsp?relay,0203H
        PUBLIC ??ZDNwkMgr_ReportChannelInterference?relay
        FUNCTION ??ZDNwkMgr_ReportChannelInterference?relay,0203H
        PUBLIC ??ZDNwkMgr_SetNwkManagerAddr?relay
        FUNCTION ??ZDNwkMgr_SetNwkManagerAddr?relay,0203H
        PUBLIC ??ZDNwkMgr_event_loop?relay
        FUNCTION ??ZDNwkMgr_event_loop?relay,0203H
        PUBLIC NwkMgrStr_1
        PUBLIC NwkMgrStr_2
        PUBLIC NwkMgrStr_3
        PUBLIC NwkMgrStr_4
        FUNCTION ZDNwkMgr_BuildAndSendUpdateNotify,021203H
        ARGFRAME XSTACK, 19, STACK
        ARGFRAME IOVERLAY, 0, STATIC
        ARGFRAME DOVERLAY, 0, STATIC
        LOCFRAME ISTACK, 1, STACK
        LOCFRAME XSTACK, 35, STACK
        FUNCTION ZDNwkMgr_CheckForChannelInterference,021203H
        ARGFRAME XSTACK, 14, STACK
        ARGFRAME IOVERLAY, 0, STATIC
        ARGFRAME DOVERLAY, 0, STATIC
        LOCFRAME XSTACK, 17, STACK
        PUBLIC ZDNwkMgr_EDScanConfirmCB
        FUNCTION ZDNwkMgr_EDScanConfirmCB,021603H
        ARGFRAME XSTACK, 0, STACK
        LOCFRAME ISTACK, 1, STACK
        LOCFRAME XSTACK, 15, STACK
        PUBLIC ZDNwkMgr_Init
        FUNCTION ZDNwkMgr_Init,021203H
        ARGFRAME XSTACK, 0, STACK
        LOCFRAME XSTACK, 9, STACK
        PUBLIC ZDNwkMgr_MgmtNwkUpdateNotifyAddr
        PUBLIC ZDNwkMgr_MgmtNwkUpdateNotifyTransSeq
        PUBLIC ZDNwkMgr_MgmtNwkUpdateReq
        PUBLIC ZDNwkMgr_NewChannel
        PUBLIC ZDNwkMgr_NumUpdateNotifySent
        PUBLIC ZDNwkMgr_ProcessDataConfirm
        FUNCTION ZDNwkMgr_ProcessDataConfirm,021603H
        ARGFRAME XSTACK, 0, STACK
        LOCFRAME ISTACK, 2, STACK
        FUNCTION ZDNwkMgr_ProcessMgmtNwkUpdateReq,021203H
        ARGFRAME XSTACK, 14, STACK
        ARGFRAME IOVERLAY, 0, STATIC
        ARGFRAME DOVERLAY, 0, STATIC
        LOCFRAME ISTACK, 2, STACK
        LOCFRAME XSTACK, 33, STACK
        PUBLIC ZDNwkMgr_ProcessServerDiscRsp
        FUNCTION ZDNwkMgr_ProcessServerDiscRsp,021203H
        ARGFRAME XSTACK, 14, STACK
        ARGFRAME IOVERLAY, 0, STATIC
        ARGFRAME DOVERLAY, 0, STATIC
        LOCFRAME XSTACK, 12, STACK
        PUBLIC ZDNwkMgr_ReportChannelInterference
        FUNCTION ZDNwkMgr_ReportChannelInterference,021603H
        ARGFRAME XSTACK, 0, STACK
        LOCFRAME XSTACK, 10, STACK
        PUBLIC ZDNwkMgr_SetNwkManagerAddr
        FUNCTION ZDNwkMgr_SetNwkManagerAddr,021203H
        ARGFRAME XSTACK, 21, STACK
        ARGFRAME IOVERLAY, 0, STATIC
        ARGFRAME DOVERLAY, 0, STATIC
        LOCFRAME ISTACK, 2, STACK
        PUBLIC ZDNwkMgr_TaskID
        PUBLIC ZDNwkMgr_TotalTransmissions
        PUBLIC ZDNwkMgr_TxFailures
        PUBLIC ZDNwkMgr_UpdateNotifyTimer
        PUBLIC ZDNwkMgr_WaitingForNotifyConfirm
        PUBLIC ZDNwkMgr_event_loop
        FUNCTION ZDNwkMgr_event_loop,0a1203H
        ARGFRAME XSTACK, 0, STACK
        LOCFRAME XSTACK, 19, STACK
        PUBWEAK __Constant_0
        PUBWEAK __Constant_7fff800
        PUBLIC pZDNwkMgr_EDScanConfirmCB
        PUBLIC pZDNwkMgr_NetworkReportCB
        PUBLIC pZDNwkMgr_NetworkUpdateCB
        PUBLIC pZDNwkMgr_ProcessDataConfirm
        PUBLIC pZDNwkMgr_ReportChannelInterference
        
        CFI Names cfiNames0
        CFI StackFrame CFA_SP SP IDATA
        CFI StackFrame CFA_PSP16 PSP16 XDATA
        CFI StackFrame CFA_XSP16 XSP16 XDATA
        CFI StaticOverlayFrame CFA_IOVERLAY IOVERLAY
        CFI StaticOverlayFrame CFA_DOVERLAY DOVERLAY
        CFI Resource `PSW.CY`:1, `B.BR0`:1, `B.BR1`:1, `B.BR2`:1, `B.BR3`:1
        CFI Resource `B.BR4`:1, `B.BR5`:1, `B.BR6`:1, `B.BR7`:1, `VB.BR8`:1
        CFI Resource `VB.BR9`:1, `VB.BR10`:1, `VB.BR11`:1, `VB.BR12`:1
        CFI Resource `VB.BR13`:1, `VB.BR14`:1, `VB.BR15`:1, VB:8, B:8, A:8
        CFI Resource PSW:8, DPL0:8, DPH0:8, R0:8, R1:8, R2:8, R3:8, R4:8, R5:8
        CFI Resource R6:8, R7:8, V0:8, V1:8, V2:8, V3:8, V4:8, V5:8, V6:8, V7:8
        CFI Resource SP:8, PSPH:8, PSPL:8, PSP16:16, XSPH:8, XSPL:8, XSP16:16
        CFI VirtualResource ?RET:24
        CFI Resource ?BRET_EXT:8
        CFI VirtualResource ?RET_HIGH:8, ?RET_LOW:8
        CFI ResourceParts PSP16 PSPH, PSPL
        CFI ResourceParts XSP16 XSPH, XSPL
        CFI ResourceParts ?RET ?BRET_EXT, ?RET_HIGH, ?RET_LOW
        CFI EndNames cfiNames0
        
        CFI Common cfiCommon0 Using cfiNames0
        CFI CodeAlign 1
        CFI DataAlign -1
        CFI ReturnAddress ?RET CODE
        CFI CFA_DOVERLAY Used
        CFI CFA_IOVERLAY Used
        CFI CFA_SP SP+-3
        CFI CFA_PSP16 PSP16+0
        CFI CFA_XSP16 XSP16+0
        CFI `PSW.CY` SameValue
        CFI `B.BR0` SameValue
        CFI `B.BR1` SameValue
        CFI `B.BR2` SameValue
        CFI `B.BR3` SameValue
        CFI `B.BR4` SameValue
        CFI `B.BR5` SameValue
        CFI `B.BR6` SameValue
        CFI `B.BR7` SameValue
        CFI `VB.BR8` SameValue
        CFI `VB.BR9` SameValue
        CFI `VB.BR10` SameValue
        CFI `VB.BR11` SameValue
        CFI `VB.BR12` SameValue
        CFI `VB.BR13` SameValue
        CFI `VB.BR14` SameValue
        CFI `VB.BR15` SameValue
        CFI VB SameValue
        CFI B Undefined
        CFI A Undefined
        CFI PSW SameValue
        CFI DPL0 SameValue
        CFI DPH0 SameValue
        CFI R0 Undefined
        CFI R1 Undefined
        CFI R2 Undefined
        CFI R3 Undefined
        CFI R4 Undefined
        CFI R5 Undefined
        CFI R6 SameValue
        CFI R7 SameValue
        CFI V0 SameValue
        CFI V1 SameValue
        CFI V2 SameValue
        CFI V3 SameValue
        CFI V4 SameValue
        CFI V5 SameValue
        CFI V6 SameValue
        CFI V7 SameValue
        CFI PSPH Undefined
        CFI PSPL Undefined
        CFI XSPH Undefined
        CFI XSPL Undefined
        CFI ?RET Concat
        CFI ?BRET_EXT Frame(CFA_SP, 3)
        CFI ?RET_HIGH Frame(CFA_SP, 2)
        CFI ?RET_LOW Frame(CFA_SP, 1)
        CFI EndCommon cfiCommon0
        
        
        CFI Common cfiCommon1 Using cfiNames0
        CFI CodeAlign 1
        CFI DataAlign -1
        CFI ReturnAddress ?RET CODE
        CFI CFA_DOVERLAY Used
        CFI CFA_IOVERLAY Used
        CFI CFA_SP SP+-2
        CFI CFA_PSP16 PSP16+0
        CFI CFA_XSP16 XSP16+0
        CFI `PSW.CY` SameValue
        CFI `B.BR0` SameValue
        CFI `B.BR1` SameValue
        CFI `B.BR2` SameValue
        CFI `B.BR3` SameValue
        CFI `B.BR4` SameValue
        CFI `B.BR5` SameValue
        CFI `B.BR6` SameValue
        CFI `B.BR7` SameValue
        CFI `VB.BR8` SameValue
        CFI `VB.BR9` SameValue
        CFI `VB.BR10` SameValue
        CFI `VB.BR11` SameValue
        CFI `VB.BR12` SameValue
        CFI `VB.BR13` SameValue
        CFI `VB.BR14` SameValue
        CFI `VB.BR15` SameValue
        CFI VB SameValue
        CFI B SameValue
        CFI A SameValue
        CFI PSW SameValue
        CFI DPL0 SameValue
        CFI DPH0 SameValue
        CFI R0 SameValue
        CFI R1 SameValue
        CFI R2 SameValue
        CFI R3 SameValue
        CFI R4 SameValue
        CFI R5 SameValue
        CFI R6 SameValue
        CFI R7 SameValue
        CFI V0 SameValue
        CFI V1 SameValue
        CFI V2 SameValue
        CFI V3 SameValue
        CFI V4 SameValue
        CFI V5 SameValue
        CFI V6 SameValue
        CFI V7 SameValue
        CFI PSPH Undefined
        CFI PSPL Undefined
        CFI XSPH Undefined
        CFI XSPL Undefined
        CFI ?RET Concat
        CFI ?BRET_EXT SameValue
        CFI ?RET_HIGH Frame(CFA_SP, 2)
        CFI ?RET_LOW Frame(CFA_SP, 1)
        CFI EndCommon cfiCommon1
        
ZDO_RegisterForZDOMsg SYMBOL "ZDO_RegisterForZDOMsg"
osal_msg_receive    SYMBOL "osal_msg_receive"
nwkTransmissionFailures SYMBOL "nwkTransmissionFailures"
osal_start_timerEx  SYMBOL "osal_start_timerEx"
osal_msg_deallocate SYMBOL "osal_msg_deallocate"
NLME_EDScanRequest  SYMBOL "NLME_EDScanRequest"
ZMacSetReq          SYMBOL "ZMacSetReq"
ZDApp_NwkStateUpdateCB SYMBOL "ZDApp_NwkStateUpdateCB"
ZDO_ParseMgmtNwkUpdateReq SYMBOL "ZDO_ParseMgmtNwkUpdateReq"
NLME_SetUpdateID    SYMBOL "NLME_SetUpdateID"
ZDP_MgmtNwkUpdateNotify SYMBOL "ZDP_MgmtNwkUpdateNotify"
ZDO_ParseServerDiscRsp SYMBOL "ZDO_ParseServerDiscRsp"
HalLcdWriteString   SYMBOL "HalLcdWriteString"
HalLcdWriteStringValueValue SYMBOL "HalLcdWriteStringValueValue"
osal_mem_alloc      SYMBOL "osal_mem_alloc"
osal_mem_free       SYMBOL "osal_mem_free"
osal_msg_allocate   SYMBOL "osal_msg_allocate"
osal_msg_send       SYMBOL "osal_msg_send"
osal_memcpy         SYMBOL "osal_memcpy"
??HalLcdWriteString?relay SYMBOL "?relay", HalLcdWriteString
??HalLcdWriteStringValueValue?relay SYMBOL "?relay", HalLcdWriteStringValueValue
??NLME_EDScanRequest?relay SYMBOL "?relay", NLME_EDScanRequest
??NLME_SetUpdateID?relay SYMBOL "?relay", NLME_SetUpdateID
??ZDApp_NwkStateUpdateCB?relay SYMBOL "?relay", ZDApp_NwkStateUpdateCB
??ZDO_ParseMgmtNwkUpdateReq?relay SYMBOL "?relay", ZDO_ParseMgmtNwkUpdateReq
??ZDO_ParseServerDiscRsp?relay SYMBOL "?relay", ZDO_ParseServerDiscRsp
??ZDO_RegisterForZDOMsg?relay SYMBOL "?relay", ZDO_RegisterForZDOMsg
??ZDP_MgmtNwkUpdateNotify?relay SYMBOL "?relay", ZDP_MgmtNwkUpdateNotify
??ZMacSetReq?relay  SYMBOL "?relay", ZMacSetReq
??nwkTransmissionFailures?relay SYMBOL "?relay", nwkTransmissionFailures
??osal_mem_alloc?relay SYMBOL "?relay", osal_mem_alloc
??osal_mem_free?relay SYMBOL "?relay", osal_mem_free
??osal_memcpy?relay SYMBOL "?relay", osal_memcpy
??osal_msg_allocate?relay SYMBOL "?relay", osal_msg_allocate
??osal_msg_deallocate?relay SYMBOL "?relay", osal_msg_deallocate
??osal_msg_receive?relay SYMBOL "?relay", osal_msg_receive
??osal_msg_send?relay SYMBOL "?relay", osal_msg_send
??osal_start_timerEx?relay SYMBOL "?relay", osal_start_timerEx
ZDNwkMgr_EDScanConfirmCB SYMBOL "ZDNwkMgr_EDScanConfirmCB"
??ZDNwkMgr_EDScanConfirmCB?relay SYMBOL "?relay", ZDNwkMgr_EDScanConfirmCB
ZDNwkMgr_Init       SYMBOL "ZDNwkMgr_Init"
??ZDNwkMgr_Init?relay SYMBOL "?relay", ZDNwkMgr_Init
ZDNwkMgr_ProcessDataConfirm SYMBOL "ZDNwkMgr_ProcessDataConfirm"
??ZDNwkMgr_ProcessDataConfirm?relay SYMBOL "?relay", ZDNwkMgr_ProcessDataConfirm
ZDNwkMgr_ProcessServerDiscRsp SYMBOL "ZDNwkMgr_ProcessServerDiscRsp"
??ZDNwkMgr_ProcessServerDiscRsp?relay SYMBOL "?relay", ZDNwkMgr_ProcessServerDiscRsp
ZDNwkMgr_ReportChannelInterference SYMBOL "ZDNwkMgr_ReportChannelInterference"
??ZDNwkMgr_ReportChannelInterference?relay SYMBOL "?relay", ZDNwkMgr_ReportChannelInterference
ZDNwkMgr_SetNwkManagerAddr SYMBOL "ZDNwkMgr_SetNwkManagerAddr"
??ZDNwkMgr_SetNwkManagerAddr?relay SYMBOL "?relay", ZDNwkMgr_SetNwkManagerAddr
ZDNwkMgr_event_loop SYMBOL "ZDNwkMgr_event_loop"
??ZDNwkMgr_event_loop?relay SYMBOL "?relay", ZDNwkMgr_event_loop

        EXTERN ZDO_RegisterForZDOMsg
        FUNCTION ZDO_RegisterForZDOMsg,0202H
        ARGFRAME ISTACK, 0, STACK
        ARGFRAME PSTACK, 0, STACK
        ARGFRAME XSTACK, 9, STACK
        ARGFRAME IOVERLAY, 0, STATIC
        ARGFRAME DOVERLAY, 0, STATIC
        EXTERN osal_msg_receive
        FUNCTION osal_msg_receive,0202H
        ARGFRAME ISTACK, 0, STACK
        ARGFRAME PSTACK, 0, STACK
        ARGFRAME XSTACK, 14, STACK
        ARGFRAME IOVERLAY, 0, STATIC
        ARGFRAME DOVERLAY, 0, STATIC
        EXTERN nwkTransmissionFailures
        FUNCTION nwkTransmissionFailures,0202H
        ARGFRAME ISTACK, 2, STACK
        ARGFRAME PSTACK, 0, STACK
        ARGFRAME XSTACK, 14, STACK
        ARGFRAME IOVERLAY, 0, STATIC
        ARGFRAME DOVERLAY, 0, STATIC
        EXTERN osal_start_timerEx
        FUNCTION osal_start_timerEx,0202H
        ARGFRAME ISTACK, 0, STACK
        ARGFRAME PSTACK, 0, STACK
        ARGFRAME XSTACK, 21, STACK
        ARGFRAME IOVERLAY, 0, STATIC
        ARGFRAME DOVERLAY, 0, STATIC
        EXTERN osal_msg_deallocate
        FUNCTION osal_msg_deallocate,0202H
        ARGFRAME ISTACK, 0, STACK
        ARGFRAME PSTACK, 0, STACK
        ARGFRAME XSTACK, 14, STACK
        ARGFRAME IOVERLAY, 0, STATIC
        ARGFRAME DOVERLAY, 0, STATIC
        EXTERN NLME_EDScanRequest
        FUNCTION NLME_EDScanRequest,0202H
        ARGFRAME ISTACK, 0, STACK
        ARGFRAME PSTACK, 0, STACK
        ARGFRAME XSTACK, 21, STACK
        ARGFRAME IOVERLAY, 0, STATIC
        ARGFRAME DOVERLAY, 0, STATIC
        EXTERN ZMacSetReq
        FUNCTION ZMacSetReq,0202H
        ARGFRAME ISTACK, 0, STACK
        ARGFRAME PSTACK, 0, STACK
        ARGFRAME XSTACK, 14, STACK
        ARGFRAME IOVERLAY, 0, STATIC
        ARGFRAME DOVERLAY, 0, STATIC
        EXTERN ZDApp_NwkStateUpdateCB
        FUNCTION ZDApp_NwkStateUpdateCB,0202H
        ARGFRAME ISTACK, 2, STACK
        ARGFRAME PSTACK, 0, STACK
        ARGFRAME XSTACK, 21, STACK
        ARGFRAME IOVERLAY, 0, STATIC
        ARGFRAME DOVERLAY, 0, STATIC
        EXTERN ZDO_ParseMgmtNwkUpdateReq
        FUNCTION ZDO_ParseMgmtNwkUpdateReq,0202H
        ARGFRAME ISTACK, 0, STACK
        ARGFRAME PSTACK, 0, STACK
        ARGFRAME XSTACK, 21, STACK
        ARGFRAME IOVERLAY, 0, STATIC
        ARGFRAME DOVERLAY, 0, STATIC
        EXTERN NLME_SetUpdateID
        FUNCTION NLME_SetUpdateID,0202H
        ARGFRAME ISTACK, 0, STACK
        ARGFRAME PSTACK, 0, STACK
        ARGFRAME XSTACK, 21, STACK
        ARGFRAME IOVERLAY, 0, STATIC
        ARGFRAME DOVERLAY, 0, STATIC
        EXTERN ZDP_MgmtNwkUpdateNotify
        FUNCTION ZDP_MgmtNwkUpdateNotify,0202H
        ARGFRAME ISTACK, 0, STACK
        ARGFRAME PSTACK, 0, STACK
        ARGFRAME XSTACK, 35, STACK
        ARGFRAME IOVERLAY, 0, STATIC
        ARGFRAME DOVERLAY, 0, STATIC
        EXTERN ZDO_ParseServerDiscRsp
        FUNCTION ZDO_ParseServerDiscRsp,0202H
        ARGFRAME ISTACK, 0, STACK
        ARGFRAME PSTACK, 0, STACK
        ARGFRAME XSTACK, 12, STACK
        ARGFRAME IOVERLAY, 0, STATIC
        ARGFRAME DOVERLAY, 0, STATIC
        EXTERN HalLcdWriteString
        FUNCTION HalLcdWriteString,0202H
        ARGFRAME ISTACK, 0, STACK
        ARGFRAME PSTACK, 0, STACK
        ARGFRAME XSTACK, 12, STACK
        ARGFRAME IOVERLAY, 0, STATIC
        ARGFRAME DOVERLAY, 0, STATIC
        EXTERN HalLcdWriteStringValueValue
        FUNCTION HalLcdWriteStringValueValue,0202H
        ARGFRAME ISTACK, 0, STACK
        ARGFRAME PSTACK, 0, STACK
        ARGFRAME XSTACK, 16, STACK
        ARGFRAME IOVERLAY, 0, STATIC
        ARGFRAME DOVERLAY, 0, STATIC
        EXTERN osal_mem_alloc
        FUNCTION osal_mem_alloc,0202H
        ARGFRAME ISTACK, 0, STACK
        ARGFRAME PSTACK, 0, STACK
        ARGFRAME XSTACK, 23, STACK
        ARGFRAME IOVERLAY, 0, STATIC
        ARGFRAME DOVERLAY, 0, STATIC
        EXTERN osal_mem_free
        FUNCTION osal_mem_free,0202H
        ARGFRAME ISTACK, 0, STACK
        ARGFRAME PSTACK, 0, STACK
        ARGFRAME XSTACK, 23, STACK
        ARGFRAME IOVERLAY, 0, STATIC
        ARGFRAME DOVERLAY, 0, STATIC
        EXTERN osal_msg_allocate
        FUNCTION osal_msg_allocate,0202H
        ARGFRAME ISTACK, 0, STACK
        ARGFRAME PSTACK, 0, STACK
        ARGFRAME XSTACK, 12, STACK
        ARGFRAME IOVERLAY, 0, STATIC
        ARGFRAME DOVERLAY, 0, STATIC
        EXTERN osal_msg_send
        FUNCTION osal_msg_send,0202H
        ARGFRAME ISTACK, 0, STACK
        ARGFRAME PSTACK, 0, STACK
        ARGFRAME XSTACK, 12, STACK
        ARGFRAME IOVERLAY, 0, STATIC
        ARGFRAME DOVERLAY, 0, STATIC
        EXTERN osal_memcpy
        FUNCTION osal_memcpy,0202H
        ARGFRAME ISTACK, 0, STACK
        ARGFRAME PSTACK, 0, STACK
        ARGFRAME XSTACK, 15, STACK
        ARGFRAME IOVERLAY, 0, STATIC
        ARGFRAME DOVERLAY, 0, STATIC
        EXTERN ??HalLcdWriteString?relay
        FUNCTION ??HalLcdWriteString?relay,00H
        EXTERN ??HalLcdWriteStringValueValue?relay
        FUNCTION ??HalLcdWriteStringValueValue?relay,00H
        EXTERN ??NLME_EDScanRequest?relay
        FUNCTION ??NLME_EDScanRequest?relay,00H
        EXTERN ??NLME_SetUpdateID?relay
        FUNCTION ??NLME_SetUpdateID?relay,00H
        EXTERN ??ZDApp_NwkStateUpdateCB?relay
        FUNCTION ??ZDApp_NwkStateUpdateCB?relay,00H
        EXTERN ??ZDO_ParseMgmtNwkUpdateReq?relay
        FUNCTION ??ZDO_ParseMgmtNwkUpdateReq?relay,00H
        EXTERN ??ZDO_ParseServerDiscRsp?relay
        FUNCTION ??ZDO_ParseServerDiscRsp?relay,00H
        EXTERN ??ZDO_RegisterForZDOMsg?relay
        FUNCTION ??ZDO_RegisterForZDOMsg?relay,00H
        EXTERN ??ZDP_MgmtNwkUpdateNotify?relay
        FUNCTION ??ZDP_MgmtNwkUpdateNotify?relay,00H
        EXTERN ??ZMacSetReq?relay
        FUNCTION ??ZMacSetReq?relay,00H
        EXTERN ??nwkTransmissionFailures?relay
        FUNCTION ??nwkTransmissionFailures?relay,00H
        EXTERN ??osal_mem_alloc?relay
        FUNCTION ??osal_mem_alloc?relay,00H
        EXTERN ??osal_mem_free?relay
        FUNCTION ??osal_mem_free?relay,00H
        EXTERN ??osal_memcpy?relay
        FUNCTION ??osal_memcpy?relay,00H
        EXTERN ??osal_msg_allocate?relay
        FUNCTION ??osal_msg_allocate?relay,00H
        EXTERN ??osal_msg_deallocate?relay
        FUNCTION ??osal_msg_deallocate?relay,00H
        EXTERN ??osal_msg_receive?relay
        FUNCTION ??osal_msg_receive?relay,00H
        EXTERN ??osal_msg_send?relay
        FUNCTION ??osal_msg_send?relay,00H
        EXTERN ??osal_start_timerEx?relay
        FUNCTION ??osal_start_timerEx?relay,00H
        EXTERN _NIB

// E:\123\´óÈý\Éú²úÊµÏ°\Àý³Ì\Àý³Ì\Ë«»ú\WSN_ZigBee\Components\stack\zdo\ZDNwkMgr.c
//    1 /**************************************************************************************************
//    2   Filename:       ZDNwkMgr.c
//    3   Revised:        $Date: 2007-10-17 15:38:45 -0700 (Wed, 17 Oct 2007) $
//    4   Revision:       $Revision: 15716 $
//    5 
//    6   Description:    The ZigBee Network Manager.
//    7 
//    8 
//    9   Copyright 2007 Texas Instruments Incorporated. All rights reserved.
//   10 
//   11   IMPORTANT: Your use of this Software is limited to those specific rights
//   12   granted under the terms of a software license agreement between the user
//   13   who downloaded the software, his/her employer (which must be your employer)
//   14   and Texas Instruments Incorporated (the "License").  You may not use this
//   15   Software unless you agree to abide by the terms of the License. The License
//   16   limits your use, and you acknowledge, that the Software may not be modified,
//   17   copied or distributed unless embedded on a Texas Instruments microcontroller
//   18   or used solely and exclusively in conjunction with a Texas Instruments radio
//   19   frequency transceiver, which is integrated into your product.  Other than for
//   20   the foregoing purpose, you may not use, reproduce, copy, prepare derivative
//   21   works of, modify, distribute, perform, display or sell this Software and/or
//   22   its documentation for any purpose.
//   23 
//   24   YOU FURTHER ACKNOWLEDGE AND AGREE THAT THE SOFTWARE AND DOCUMENTATION ARE
//   25   PROVIDED “AS IS” WITHOUT WARRANTY OF ANY KIND, EITHER EXPRESS OR IMPLIED, 
//   26   INCLUDING WITHOUT LIMITATION, ANY WARRANTY OF MERCHANTABILITY, TITLE, 
//   27   NON-INFRINGEMENT AND FITNESS FOR A PARTICULAR PURPOSE. IN NO EVENT SHALL
//   28   TEXAS INSTRUMENTS OR ITS LICENSORS BE LIABLE OR OBLIGATED UNDER CONTRACT,
//   29   NEGLIGENCE, STRICT LIABILITY, CONTRIBUTION, BREACH OF WARRANTY, OR OTHER
//   30   LEGAL EQUITABLE THEORY ANY DIRECT OR INDIRECT DAMAGES OR EXPENSES
//   31   INCLUDING BUT NOT LIMITED TO ANY INCIDENTAL, SPECIAL, INDIRECT, PUNITIVE
//   32   OR CONSEQUENTIAL DAMAGES, LOST PROFITS OR LOST DATA, COST OF PROCUREMENT
//   33   OF SUBSTITUTE GOODS, TECHNOLOGY, SERVICES, OR ANY CLAIMS BY THIRD PARTIES
//   34   (INCLUDING BUT NOT LIMITED TO ANY DEFENSE THEREOF), OR OTHER SIMILAR COSTS.
//   35 
//   36   Should you have any questions regarding your right to use this Software,
//   37   contact Texas Instruments Incorporated at www.TI.com. 
//   38 **************************************************************************************************/
//   39 
//   40 #ifdef __cplusplus
//   41 extern "C"
//   42 {
//   43 #endif
//   44 
//   45 /******************************************************************************
//   46  * INCLUDES
//   47  */
//   48 #include "ZComdef.h"
//   49 #include "nwk_util.h"
//   50 #include "ZDApp.h"
//   51 #include "ZDObject.h"
//   52 #include "ZGlobals.h"
//   53 #include "ZDNwkMgr.h"
//   54 
//   55 #if defined( MT_ZDO_FUNC )
//   56   #include "MT_ZDO.h"
//   57 #endif
//   58   
//   59 #if defined ( LCD_SUPPORTED )
//   60   #include "OnBoard.h"
//   61 #endif
//   62 
//   63 /* HAL */
//   64 #include "hal_lcd.h"
//   65   
//   66 /******************************************************************************
//   67  * CONSTANTS
//   68  */
//   69 
//   70 #define ONE_MINUTE             60000  // 1(m) * 60(s) * 1000(ms)
//   71 
//   72 #if defined ( LCD_SUPPORTED )

        RSEG XDATA_ROM_C:CONST:REORDER:NOROOT(0)
        DATA8
//   73   const char NwkMgrStr_1[]     = "NM-fail not hi";
NwkMgrStr_1:
        DB "NM-fail not hi"

        RSEG XDATA_ROM_C:CONST:REORDER:NOROOT(0)
        DATA8
//   74   const char NwkMgrStr_2[]     = "NM-cur<last fail";
NwkMgrStr_2:
        DB "NM-cur<last fail"

        RSEG XDATA_ROM_C:CONST:REORDER:NOROOT(0)
        DATA8
//   75   const char NwkMgrStr_3[]     = "NM-energy too hi";
NwkMgrStr_3:
        DB "NM-energy too hi"

        RSEG XDATA_ROM_C:CONST:REORDER:NOROOT(0)
        DATA8
//   76   const char NwkMgrStr_4[]     = "NM-energy not up";
NwkMgrStr_4:
        DB "NM-energy not up"
//   77 #endif
//   78   
//   79 /******************************************************************************
//   80  * TYPEDEFS
//   81  */
//   82 
//   83 /*********************************************************************
//   84  * GLOBAL VARIABLES
//   85  */
//   86   
//   87 // Task ID for internal task/event processing. This variable will be
//   88 // received when ZDNwkMgr_Init() is called.

        RSEG XDATA_Z:XDATA:NOROOT(0)
        DATA8
//   89 uint8 ZDNwkMgr_TaskID = 0;
ZDNwkMgr_TaskID:
        DS 1
        REQUIRE __INIT_XDATA_Z
//   90 
//   91 /******************************************************************************
//   92  * LOCAL VARIABLES
//   93  */
//   94 
//   95 // Frequency Agility variables

        RSEG XDATA_Z:XDATA:NOROOT(0)
        DATA8
//   96 uint8 ZDNwkMgr_MgmtNwkUpdateNotifyTransSeq = 0;
ZDNwkMgr_MgmtNwkUpdateNotifyTransSeq:
        DS 1
        REQUIRE __INIT_XDATA_Z

        RSEG XDATA_Z:XDATA:NOROOT(0)
        DATA8
//   97 zAddrType_t ZDNwkMgr_MgmtNwkUpdateNotifyAddr;
ZDNwkMgr_MgmtNwkUpdateNotifyAddr:
        DS 9
        REQUIRE __INIT_XDATA_Z

        RSEG XDATA_Z:XDATA:NOROOT(0)
        DATA16
//   98 uint16 ZDNwkMgr_UpdateNotifyTimer = 0;
ZDNwkMgr_UpdateNotifyTimer:
        DS 2
        REQUIRE __INIT_XDATA_Z

        RSEG XDATA_Z:XDATA:NOROOT(0)
        DATA8
//   99 uint8  ZDNwkMgr_NumUpdateNotifySent = 0;
ZDNwkMgr_NumUpdateNotifySent:
        DS 1
        REQUIRE __INIT_XDATA_Z

        RSEG XDATA_Z:XDATA:NOROOT(0)
        DATA8
//  100 uint8  ZDNwkMgr_WaitingForNotifyConfirm = FALSE;
ZDNwkMgr_WaitingForNotifyConfirm:
        DS 1
        REQUIRE __INIT_XDATA_Z

        RSEG XDATA_Z:XDATA:NOROOT(0)
        DATA16
//  101 uint16 ZDNwkMgr_TotalTransmissions;
ZDNwkMgr_TotalTransmissions:
        DS 2
        REQUIRE __INIT_XDATA_Z

        RSEG XDATA_Z:XDATA:NOROOT(0)
        DATA16
//  102 uint16 ZDNwkMgr_TxFailures;
ZDNwkMgr_TxFailures:
        DS 2
        REQUIRE __INIT_XDATA_Z
//  103 

        RSEG XDATA_Z:XDATA:NOROOT(0)
        DATA8
//  104 ZDO_MgmtNwkUpdateReq_t ZDNwkMgr_MgmtNwkUpdateReq;
ZDNwkMgr_MgmtNwkUpdateReq:
        DS 9
        REQUIRE __INIT_XDATA_Z
//  105   
//  106 #if defined ( NWK_MANAGER )
//  107 uint16 ZDNwkMgr_UpdateRequestTimer = 0;
//  108 uint8  ZDNwkMgr_LastChannelEnergy = 0;
//  109 uint16 ZDNwkMgr_LastChannelFailureRate = 0;
//  110 #endif // NWK_MANAGER
//  111 

        RSEG XDATA_Z:XDATA:NOROOT(0)
        DATA8
//  112 uint8 ZDNwkMgr_NewChannel;
ZDNwkMgr_NewChannel:
        DS 1
        REQUIRE __INIT_XDATA_Z
//  113 
//  114 // PAN ID Conflict variables
//  115 #if defined ( NWK_MANAGER )
//  116 uint8 ZDNwkMgr_PanIdUpdateInProgress = FALSE;
//  117 #endif // NWK_MANAGER
//  118 
//  119 /*********************************************************************
//  120  * GLOBAL FUNCTIONS
//  121  */
//  122 // Freguency Agility functions

        RSEG XDATA_Z:XDATA:NOROOT(0)
        DATA16
//  123 void (*pZDNwkMgr_ReportChannelInterference)( NLME_ChanInterference_t *chanInterference ) = NULL;
pZDNwkMgr_ReportChannelInterference:
        DS 2
        REQUIRE __INIT_XDATA_Z

        RSEG XDATA_Z:XDATA:NOROOT(0)
        DATA16
//  124 void (*pZDNwkMgr_ProcessDataConfirm)( afDataConfirm_t *afDataConfirm ) = NULL;
pZDNwkMgr_ProcessDataConfirm:
        DS 2
        REQUIRE __INIT_XDATA_Z

        RSEG XDATA_Z:XDATA:NOROOT(0)
        DATA16
//  125 void (*pZDNwkMgr_EDScanConfirmCB)( NLME_EDScanConfirm_t *EDScanConfirm ) = NULL;
pZDNwkMgr_EDScanConfirmCB:
        DS 2
        REQUIRE __INIT_XDATA_Z
//  126 
//  127 // PAN ID Conflict functions

        RSEG XDATA_Z:XDATA:NOROOT(0)
        DATA16
//  128 void (*pZDNwkMgr_NetworkReportCB)( ZDNwkMgr_NetworkReport_t *pReport ) = NULL;
pZDNwkMgr_NetworkReportCB:
        DS 2
        REQUIRE __INIT_XDATA_Z

        RSEG XDATA_Z:XDATA:NOROOT(0)
        DATA16
//  129 void (*pZDNwkMgr_NetworkUpdateCB)( ZDNwkMgr_NetworkUpdate_t *pUpdate ) = NULL;
pZDNwkMgr_NetworkUpdateCB:
        DS 2
        REQUIRE __INIT_XDATA_Z
//  130 
//  131 /******************************************************************************
//  132  * LOCAL FUNCTIONS
//  133  */
//  134 
//  135 void ZDNwkMgr_ProcessServerDiscRsp( zdoIncomingMsg_t *inMsg );
//  136 void ZDNwkMgr_SetNwkManagerAddr( uint16 nwkManagerAddr );
//  137 
//  138 // Frequency Agility functions
//  139 static void ZDNwkMgr_ProcessMsgCBs( zdoIncomingMsg_t *inMsg );
//  140 
//  141 static void ZDNwkMgr_ProcessMgmtNwkUpdateReq( zdoIncomingMsg_t *inMsg );
//  142 static void ZDNwkMgr_ProcessChannelInterference( ZDNwkMgr_ChanInterference_t *pChanInterference );
//  143 static void ZDNwkMgr_ProcessEDScanConfirm( ZDNwkMgr_EDScanConfirm_t *pEDScanConfirm );
//  144 static void ZDNwkMgr_CheckForChannelInterference( ZDNwkMgr_EDScanConfirm_t *pEDScanConfirm );
//  145 static void ZDNwkMgr_BuildAndSendUpdateNotify( uint8 TransSeq, zAddrType_t *dstAddr,
//  146                                                uint16 totalTransmissions, uint16 txFailures,
//  147                                                ZDNwkMgr_EDScanConfirm_t *pEDScanConfirm, uint8 txOptions );
//  148 void ZDNwkMgr_EDScanConfirmCB( NLME_EDScanConfirm_t *EDScanConfirm );
//  149 void ZDNwkMgr_ProcessDataConfirm( afDataConfirm_t *afDataConfirm );
//  150 void ZDNwkMgr_ReportChannelInterference( NLME_ChanInterference_t *chanInterference );
//  151 
//  152 #if defined ( NWK_MANAGER )
//  153 static void ZDNwkMgr_ProcessMgmtNwkUpdateNotify( zdoIncomingMsg_t *inMsg );
//  154 static void ZDNwkMgr_CheckForChannelChange( ZDO_MgmtNwkUpdateNotify_t *pNotify );
//  155 #endif // NWK_MANAGER
//  156 
//  157 // PAN ID Conflict functions
//  158 #if defined ( NWK_MANAGER )
//  159 void ZDNwkMgr_NetworkReportCB( ZDNwkMgr_NetworkReport_t *pReport );
//  160 void ZDNwkMgr_NetworkUpdateCB( ZDNwkMgr_NetworkUpdate_t *pUpdate );
//  161 
//  162 void ZDNwkMgr_ProcessNetworkReport( ZDNwkMgr_NetworkReport_t *pNetworkReport );
//  163 void ZDNwkMgr_ProcessNetworkUpdate( ZDNwkMgr_NetworkUpdate_t *pNetworkUpdate );
//  164 #endif // NWK_MANAGER
//  165 
//  166 /*********************************************************************
//  167  * @fn      ZDNwkMgr_Init
//  168  *
//  169  * @brief   Initialization function for the Network Manager Task.
//  170  *          This is called during initialization and should contain
//  171  *          any application specific initialization (ie. hardware
//  172  *          initialization/setup, table initialization, power up
//  173  *          notificaiton ... ).
//  174  *
//  175  * @param   task_id - the ID assigned by OSAL.  This ID should be
//  176  *                    used to send messages and set timers.
//  177  *
//  178  * @return  none
//  179  */

        RSEG BANKED_CODE:CODE:NOROOT(0)
//  180 void ZDNwkMgr_Init( byte task_id )
ZDNwkMgr_Init:
        CFI Block cfiBlock0 Using cfiCommon0
        CFI Function ZDNwkMgr_Init
        CODE
//  181 {
        FUNCALL ZDNwkMgr_Init, ZDO_RegisterForZDOMsg
        LOCFRAME ISTACK, 0, STACK
        LOCFRAME PSTACK, 0, STACK
        LOCFRAME XSTACK, 9, STACK
        LOCFRAME IOVERLAY, 0, STATIC
        LOCFRAME DOVERLAY, 0, STATIC
        ARGFRAME ISTACK, 0, STACK
        ARGFRAME PSTACK, 0, STACK
        ARGFRAME XSTACK, 9, STACK
        ARGFRAME IOVERLAY, 0, STATIC
        ARGFRAME DOVERLAY, 0, STATIC
        FUNCALL ZDNwkMgr_Init, ZDO_RegisterForZDOMsg
        LOCFRAME ISTACK, 0, STACK
        LOCFRAME PSTACK, 0, STACK
        LOCFRAME XSTACK, 9, STACK
        LOCFRAME IOVERLAY, 0, STATIC
        LOCFRAME DOVERLAY, 0, STATIC
        ARGFRAME ISTACK, 0, STACK
        ARGFRAME PSTACK, 0, STACK
        ARGFRAME XSTACK, 9, STACK
        ARGFRAME IOVERLAY, 0, STATIC
        ARGFRAME DOVERLAY, 0, STATIC
        MOV     A,#-0x9
        LCALL   ?BANKED_ENTER_XDATA
        CFI DPH0 load(1, XDATA, add(CFA_XSP16, literal(-1)))
        CFI DPL0 load(1, XDATA, add(CFA_XSP16, literal(-2)))
        CFI ?BRET_EXT load(1, XDATA, add(CFA_XSP16, literal(-3)))
        CFI ?RET_HIGH load(1, XDATA, add(CFA_XSP16, literal(-4)))
        CFI ?RET_LOW load(1, XDATA, add(CFA_XSP16, literal(-5)))
        CFI R7 load(1, XDATA, add(CFA_XSP16, literal(-6)))
        CFI V0 load(1, XDATA, add(CFA_XSP16, literal(-7)))
        CFI VB load(1, XDATA, add(CFA_XSP16, literal(-8)))
        CFI R6 load(1, XDATA, add(CFA_XSP16, literal(-9)))
        CFI CFA_SP SP+0
        CFI CFA_XSP16 add(XSP16, 9)
        ; Saved register size: 9
        ; Auto size: 0
        MOV     A,R1
//  182   // Save the task ID
//  183   ZDNwkMgr_TaskID = task_id;
        MOV     DPTR,#ZDNwkMgr_TaskID
        MOVX    @DPTR,A
//  184 
//  185   ZDO_RegisterForZDOMsg( ZDNwkMgr_TaskID, Server_Discovery_rsp );
        ; Setup parameters for call to function ZDO_RegisterForZDOMsg
        MOV     R2,#0x15
        MOV     R3,#-0x80
        LCALL   ??ZDO_RegisterForZDOMsg?relay
//  186 
//  187   // Frequecy Agility initialization
//  188   ZDO_RegisterForZDOMsg( ZDNwkMgr_TaskID, Mgmt_NWK_Update_req );
        ; Setup parameters for call to function ZDO_RegisterForZDOMsg
        MOV     R2,#0x38
        MOV     R3,#0x0
        MOV     DPTR,#ZDNwkMgr_TaskID
        MOVX    A,@DPTR
        MOV     R1,A
        LCALL   ??ZDO_RegisterForZDOMsg?relay
//  189 #if defined ( NWK_MANAGER )
//  190   ZDO_RegisterForZDOMsg( ZDNwkMgr_TaskID, Mgmt_NWK_Update_notify );
//  191 #endif // NWK_MANAGER
//  192 
//  193   pZDNwkMgr_EDScanConfirmCB = ZDNwkMgr_EDScanConfirmCB;
        MOV     DPTR,#pZDNwkMgr_EDScanConfirmCB
        MOV     A,#??ZDNwkMgr_EDScanConfirmCB?relay & 0xff
        MOVX    @DPTR,A
        INC     DPTR
        MOV     A,#(??ZDNwkMgr_EDScanConfirmCB?relay >> 8) & 0xff
        MOVX    @DPTR,A
//  194   pZDNwkMgr_ProcessDataConfirm = ZDNwkMgr_ProcessDataConfirm;
        MOV     DPTR,#pZDNwkMgr_ProcessDataConfirm
        MOV     A,#??ZDNwkMgr_ProcessDataConfirm?relay & 0xff
        MOVX    @DPTR,A
        INC     DPTR
        MOV     A,#(??ZDNwkMgr_ProcessDataConfirm?relay >> 8) & 0xff
        MOVX    @DPTR,A
//  195   pZDNwkMgr_ReportChannelInterference = ZDNwkMgr_ReportChannelInterference;
        MOV     DPTR,#pZDNwkMgr_ReportChannelInterference
        MOV     A,#??ZDNwkMgr_ReportChannelInterference?relay & 0xff
        MOVX    @DPTR,A
        INC     DPTR
        MOV     A,#(??ZDNwkMgr_ReportChannelInterference?relay >> 8) & 0xff
        MOVX    @DPTR,A
//  196   
//  197   // PAN ID Conflict initialization
//  198 #if defined ( NWK_MANAGER )
//  199   pZDNwkMgr_NetworkReportCB = ZDNwkMgr_NetworkReportCB;
//  200   pZDNwkMgr_NetworkUpdateCB = ZDNwkMgr_NetworkUpdateCB;
//  201 #endif // NWK_MANAGER
//  202   
//  203   ZDNwkMgr_MgmtNwkUpdateNotifyAddr.addrMode = Addr16Bit;
        MOV     DPTR,#ZDNwkMgr_MgmtNwkUpdateNotifyAddr + 8
        MOV     A,#0x2
        MOVX    @DPTR,A
//  204   ZDNwkMgr_MgmtNwkUpdateNotifyAddr.addr.shortAddr = INVALID_NODE_ADDR;
        MOV     DPTR,#ZDNwkMgr_MgmtNwkUpdateNotifyAddr
        MOV     A,#-0x2
        MOVX    @DPTR,A
        INC     DPTR
        INC     A
        MOVX    @DPTR,A
        CFI EndBlock cfiBlock0
//  205 }
        REQUIRE ?Subroutine0
        ; // Fall through to label ?Subroutine0

        RSEG BANKED_CODE:CODE:NOROOT(0)
?Subroutine0:
        CFI Block cfiBlock1 Using cfiCommon0
        CFI NoFunction
        CFI CFA_SP SP+0
        CFI CFA_XSP16 add(XSP16, 9)
        CFI VB load(1, XDATA, add(CFA_XSP16, literal(-8)))
        CFI DPL0 load(1, XDATA, add(CFA_XSP16, literal(-2)))
        CFI DPH0 load(1, XDATA, add(CFA_XSP16, literal(-1)))
        CFI R6 load(1, XDATA, add(CFA_XSP16, literal(-9)))
        CFI R7 load(1, XDATA, add(CFA_XSP16, literal(-6)))
        CFI V0 load(1, XDATA, add(CFA_XSP16, literal(-7)))
        CFI ?BRET_EXT load(1, XDATA, add(CFA_XSP16, literal(-3)))
        CFI ?RET_HIGH load(1, XDATA, add(CFA_XSP16, literal(-4)))
        CFI ?RET_LOW load(1, XDATA, add(CFA_XSP16, literal(-5)))
        MOV     R7,#0x1
        LJMP    ?BANKED_LEAVE_XDATA
        CFI EndBlock cfiBlock1
//  206 
//  207 /*********************************************************************
//  208  * @fn      ZDNwkMgr_event_loop
//  209  *
//  210  * @brief   Main event loop for the Network Manager task. This function
//  211  *          is called to process all events for the task.  Events
//  212  *          include timers, messages and any other user defined events.
//  213  *
//  214  * @param   task_id  - The OSAL assigned task ID.
//  215  * @param   events - events to process.  This is a bit map and can
//  216  *                   contain more than one event.
//  217  *
//  218  * @return  none
//  219  */

        RSEG BANKED_CODE:CODE:NOROOT(0)
//  220 UINT16 ZDNwkMgr_event_loop( byte task_id, UINT16 events )
ZDNwkMgr_event_loop:
        CFI Block cfiBlock2 Using cfiCommon0
        CFI Function ZDNwkMgr_event_loop
        CODE
//  221 {
        FUNCALL ZDNwkMgr_event_loop, osal_msg_receive
        LOCFRAME ISTACK, 0, STACK
        LOCFRAME PSTACK, 0, STACK
        LOCFRAME XSTACK, 14, STACK
        LOCFRAME IOVERLAY, 0, STATIC
        LOCFRAME DOVERLAY, 0, STATIC
        ARGFRAME ISTACK, 0, STACK
        ARGFRAME PSTACK, 0, STACK
        ARGFRAME XSTACK, 14, STACK
        ARGFRAME IOVERLAY, 0, STATIC
        ARGFRAME DOVERLAY, 0, STATIC
        FUNCALL ZDNwkMgr_event_loop, nwkTransmissionFailures
        LOCFRAME ISTACK, 0, STACK
        LOCFRAME PSTACK, 0, STACK
        LOCFRAME XSTACK, 14, STACK
        LOCFRAME IOVERLAY, 0, STATIC
        LOCFRAME DOVERLAY, 0, STATIC
        ARGFRAME ISTACK, 0, STACK
        ARGFRAME PSTACK, 0, STACK
        ARGFRAME XSTACK, 14, STACK
        ARGFRAME IOVERLAY, 0, STATIC
        ARGFRAME DOVERLAY, 0, STATIC
        FUNCALL ZDNwkMgr_event_loop, ZDNwkMgr_BuildAndSendUpdateNotify
        LOCFRAME ISTACK, 0, STACK
        LOCFRAME PSTACK, 0, STACK
        LOCFRAME XSTACK, 19, STACK
        LOCFRAME IOVERLAY, 0, STATIC
        LOCFRAME DOVERLAY, 0, STATIC
        ARGFRAME ISTACK, 0, STACK
        ARGFRAME PSTACK, 0, STACK
        ARGFRAME XSTACK, 19, STACK
        ARGFRAME IOVERLAY, 0, STATIC
        ARGFRAME DOVERLAY, 0, STATIC
        FUNCALL ZDNwkMgr_event_loop, osal_start_timerEx
        LOCFRAME ISTACK, 0, STACK
        LOCFRAME PSTACK, 0, STACK
        LOCFRAME XSTACK, 14, STACK
        LOCFRAME IOVERLAY, 0, STATIC
        LOCFRAME DOVERLAY, 0, STATIC
        ARGFRAME ISTACK, 0, STACK
        ARGFRAME PSTACK, 0, STACK
        ARGFRAME XSTACK, 14, STACK
        ARGFRAME IOVERLAY, 0, STATIC
        ARGFRAME DOVERLAY, 0, STATIC
        FUNCALL ZDNwkMgr_event_loop, osal_msg_deallocate
        LOCFRAME ISTACK, 0, STACK
        LOCFRAME PSTACK, 0, STACK
        LOCFRAME XSTACK, 14, STACK
        LOCFRAME IOVERLAY, 0, STATIC
        LOCFRAME DOVERLAY, 0, STATIC
        ARGFRAME ISTACK, 0, STACK
        ARGFRAME PSTACK, 0, STACK
        ARGFRAME XSTACK, 14, STACK
        ARGFRAME IOVERLAY, 0, STATIC
        ARGFRAME DOVERLAY, 0, STATIC
        FUNCALL ZDNwkMgr_event_loop, osal_msg_receive
        LOCFRAME ISTACK, 0, STACK
        LOCFRAME PSTACK, 0, STACK
        LOCFRAME XSTACK, 14, STACK
        LOCFRAME IOVERLAY, 0, STATIC
        LOCFRAME DOVERLAY, 0, STATIC
        ARGFRAME ISTACK, 0, STACK
        ARGFRAME PSTACK, 0, STACK
        ARGFRAME XSTACK, 14, STACK
        ARGFRAME IOVERLAY, 0, STATIC
        ARGFRAME DOVERLAY, 0, STATIC
        FUNCALL ZDNwkMgr_event_loop, ZDNwkMgr_ProcessServerDiscRsp
        LOCFRAME ISTACK, 0, STACK
        LOCFRAME PSTACK, 0, STACK
        LOCFRAME XSTACK, 14, STACK
        LOCFRAME IOVERLAY, 0, STATIC
        LOCFRAME DOVERLAY, 0, STATIC
        ARGFRAME ISTACK, 0, STACK
        ARGFRAME PSTACK, 0, STACK
        ARGFRAME XSTACK, 14, STACK
        ARGFRAME IOVERLAY, 0, STATIC
        ARGFRAME DOVERLAY, 0, STATIC
        FUNCALL ZDNwkMgr_event_loop, ZDNwkMgr_ProcessMgmtNwkUpdateReq
        LOCFRAME ISTACK, 0, STACK
        LOCFRAME PSTACK, 0, STACK
        LOCFRAME XSTACK, 14, STACK
        LOCFRAME IOVERLAY, 0, STATIC
        LOCFRAME DOVERLAY, 0, STATIC
        ARGFRAME ISTACK, 0, STACK
        ARGFRAME PSTACK, 0, STACK
        ARGFRAME XSTACK, 14, STACK
        ARGFRAME IOVERLAY, 0, STATIC
        ARGFRAME DOVERLAY, 0, STATIC
        FUNCALL ZDNwkMgr_event_loop, NLME_EDScanRequest
        LOCFRAME ISTACK, 0, STACK
        LOCFRAME PSTACK, 0, STACK
        LOCFRAME XSTACK, 14, STACK
        LOCFRAME IOVERLAY, 0, STATIC
        LOCFRAME DOVERLAY, 0, STATIC
        ARGFRAME ISTACK, 0, STACK
        ARGFRAME PSTACK, 0, STACK
        ARGFRAME XSTACK, 14, STACK
        ARGFRAME IOVERLAY, 0, STATIC
        ARGFRAME DOVERLAY, 0, STATIC
        FUNCALL ZDNwkMgr_event_loop, ZDNwkMgr_CheckForChannelInterference
        LOCFRAME ISTACK, 0, STACK
        LOCFRAME PSTACK, 0, STACK
        LOCFRAME XSTACK, 14, STACK
        LOCFRAME IOVERLAY, 0, STATIC
        LOCFRAME DOVERLAY, 0, STATIC
        ARGFRAME ISTACK, 0, STACK
        ARGFRAME PSTACK, 0, STACK
        ARGFRAME XSTACK, 14, STACK
        ARGFRAME IOVERLAY, 0, STATIC
        ARGFRAME DOVERLAY, 0, STATIC
        FUNCALL ZDNwkMgr_event_loop, ZMacSetReq
        LOCFRAME ISTACK, 0, STACK
        LOCFRAME PSTACK, 0, STACK
        LOCFRAME XSTACK, 14, STACK
        LOCFRAME IOVERLAY, 0, STATIC
        LOCFRAME DOVERLAY, 0, STATIC
        ARGFRAME ISTACK, 0, STACK
        ARGFRAME PSTACK, 0, STACK
        ARGFRAME XSTACK, 14, STACK
        ARGFRAME IOVERLAY, 0, STATIC
        ARGFRAME DOVERLAY, 0, STATIC
        FUNCALL ZDNwkMgr_event_loop, ZDApp_NwkStateUpdateCB
        LOCFRAME ISTACK, 0, STACK
        LOCFRAME PSTACK, 0, STACK
        LOCFRAME XSTACK, 14, STACK
        LOCFRAME IOVERLAY, 0, STATIC
        LOCFRAME DOVERLAY, 0, STATIC
        ARGFRAME ISTACK, 0, STACK
        ARGFRAME PSTACK, 0, STACK
        ARGFRAME XSTACK, 14, STACK
        ARGFRAME IOVERLAY, 0, STATIC
        ARGFRAME DOVERLAY, 0, STATIC
        FUNCALL ZDNwkMgr_event_loop, nwkTransmissionFailures
        LOCFRAME ISTACK, 0, STACK
        LOCFRAME PSTACK, 0, STACK
        LOCFRAME XSTACK, 14, STACK
        LOCFRAME IOVERLAY, 0, STATIC
        LOCFRAME DOVERLAY, 0, STATIC
        ARGFRAME ISTACK, 0, STACK
        ARGFRAME PSTACK, 0, STACK
        ARGFRAME XSTACK, 14, STACK
        ARGFRAME IOVERLAY, 0, STATIC
        ARGFRAME DOVERLAY, 0, STATIC
        FUNCALL ZDNwkMgr_event_loop, osal_start_timerEx
        LOCFRAME ISTACK, 0, STACK
        LOCFRAME PSTACK, 0, STACK
        LOCFRAME XSTACK, 14, STACK
        LOCFRAME IOVERLAY, 0, STATIC
        LOCFRAME DOVERLAY, 0, STATIC
        ARGFRAME ISTACK, 0, STACK
        ARGFRAME PSTACK, 0, STACK
        ARGFRAME XSTACK, 14, STACK
        ARGFRAME IOVERLAY, 0, STATIC
        ARGFRAME DOVERLAY, 0, STATIC
        FUNCALL ZDNwkMgr_event_loop, NLME_EDScanRequest
        LOCFRAME ISTACK, 0, STACK
        LOCFRAME PSTACK, 0, STACK
        LOCFRAME XSTACK, 14, STACK
        LOCFRAME IOVERLAY, 0, STATIC
        LOCFRAME DOVERLAY, 0, STATIC
        ARGFRAME ISTACK, 0, STACK
        ARGFRAME PSTACK, 0, STACK
        ARGFRAME XSTACK, 14, STACK
        ARGFRAME IOVERLAY, 0, STATIC
        ARGFRAME DOVERLAY, 0, STATIC
        MOV     A,#-0xe
        LCALL   ?BANKED_ENTER_XDATA
        CFI DPH0 load(1, XDATA, add(CFA_XSP16, literal(-1)))
        CFI DPL0 load(1, XDATA, add(CFA_XSP16, literal(-2)))
        CFI ?BRET_EXT load(1, XDATA, add(CFA_XSP16, literal(-3)))
        CFI ?RET_HIGH load(1, XDATA, add(CFA_XSP16, literal(-4)))
        CFI ?RET_LOW load(1, XDATA, add(CFA_XSP16, literal(-5)))
        CFI R7 load(1, XDATA, add(CFA_XSP16, literal(-6)))
        CFI V5 load(1, XDATA, add(CFA_XSP16, literal(-7)))
        CFI V4 load(1, XDATA, add(CFA_XSP16, literal(-8)))
        CFI V3 load(1, XDATA, add(CFA_XSP16, literal(-9)))
        CFI V2 load(1, XDATA, add(CFA_XSP16, literal(-10)))
        CFI V1 load(1, XDATA, add(CFA_XSP16, literal(-11)))
        CFI V0 load(1, XDATA, add(CFA_XSP16, literal(-12)))
        CFI VB load(1, XDATA, add(CFA_XSP16, literal(-13)))
        CFI R6 load(1, XDATA, add(CFA_XSP16, literal(-14)))
        CFI CFA_SP SP+0
        CFI CFA_XSP16 add(XSP16, 14)
        ; Saved register size: 14
        ; Auto size: 0
        MOV     A,R2
        MOV     R6,A
        MOV     A,R3
        MOV     R7,A
//  222   osal_event_hdr_t *msgPtr;
//  223   (void)task_id;  // Intentionally unreferenced parameter
//  224 
//  225   if ( events & SYS_EVENT_MSG )
        ANL     A,#0x80
        JNZ     $+5
        LJMP    ??ZDNwkMgr_event_loop_0 & 0xFFFF
//  226   {
//  227     msgPtr = (osal_event_hdr_t *)osal_msg_receive( ZDNwkMgr_TaskID );
        ; Setup parameters for call to function osal_msg_receive
        SJMP    ??ZDNwkMgr_event_loop_1
??ZDNwkMgr_event_loop_2:
        ; Setup parameters for call to function nwkTransmissionFailures
//  228     while ( msgPtr )
//  229     {
//  230       switch ( msgPtr->event )
//  231       {
//  232         case ZDO_CB_MSG:
//  233           // ZDO sends the message that we registered for
//  234           ZDNwkMgr_ProcessMsgCBs( (zdoIncomingMsg_t *)msgPtr );
//  235           break;
//  236          
//  237         case NM_CHANNEL_INTERFERE:
//  238           // NWK layer sends the message when it detectes Channel Interference
//  239           ZDNwkMgr_ProcessChannelInterference( (ZDNwkMgr_ChanInterference_t *)msgPtr );
//  240           break;
//  241    
//  242         case NM_ED_SCAN_CONFIRM:
//  243           // NWK layer sends the message when it receives an ED scan confirmation
//  244           ZDNwkMgr_ProcessEDScanConfirm( (ZDNwkMgr_EDScanConfirm_t *)msgPtr );
        MOV     R1,#0x0
        LCALL   ??nwkTransmissionFailures?relay
        MOV     ?V0 + 2,R2
        MOV     ?V0 + 3,R3
        ; Setup parameters for call to function ZDNwkMgr_BuildAndSendUpdateNotify
        MOV     ?V0 + 4,#0x0
        MOV     R0,#?V0 + 4
        LCALL   ?PUSH_XSTACK_I_ONE
        CFI CFA_XSP16 add(XSP16, 15)
        MOV     R0,#?V0 + 0
        LCALL   ?PUSH_XSTACK_I_TWO
        CFI CFA_XSP16 add(XSP16, 17)
        MOV     R0,#?V0 + 2
        LCALL   ?PUSH_XSTACK_I_TWO
        CFI CFA_XSP16 add(XSP16, 19)
        MOV     DPTR,#_NIB + 107
        LCALL   ?Subroutine10 & 0xFFFF
??CrossCallReturnLabel_8:
        MOV     DPTR,#ZDNwkMgr_MgmtNwkUpdateNotifyTransSeq
        MOVX    A,@DPTR
        MOV     R1,A
        LCALL   ??ZDNwkMgr_BuildAndSendUpdateNotify?relay
        MOV     A,#0x5
        LCALL   ?DEALLOC_XSTACK8
        CFI CFA_XSP16 add(XSP16, 14)
        MOV     DPTR,#ZDNwkMgr_MgmtNwkUpdateReq + 5
        MOVX    A,@DPTR
        JZ      ??CrossCallReturnLabel_31
        ; Setup parameters for call to function osal_start_timerEx
        MOV     R4,#0x32
        MOV     R5,#0x0
        MOV     R2,#0x8
        LCALL   ?Subroutine8 & 0xFFFF
//  245           break;
//  246 #if defined ( NWK_MANAGER )
//  247         case ZDO_NETWORK_REPORT:
//  248           // NWK layer sends this message when it receives a Network Report message
//  249           ZDNwkMgr_ProcessNetworkReport( (ZDNwkMgr_NetworkReport_t *)msgPtr );
//  250           break;
//  251        
//  252         case ZDO_NETWORK_UPDATE:
//  253           // NKW layer sends this message when it receives a Network Update message
//  254           ZDNwkMgr_ProcessNetworkUpdate( (ZDNwkMgr_NetworkUpdate_t *)msgPtr );
//  255           break;
//  256 #endif // NWK_MANAGER         
//  257         default:
//  258           break;
//  259       }
//  260 
//  261       // Release the memory
//  262       osal_msg_deallocate( (uint8 *)msgPtr );
??CrossCallReturnLabel_31:
        ; Setup parameters for call to function osal_msg_deallocate
        MOV     R2,?V0 + 0
        MOV     R3,?V0 + 1
        LCALL   ??osal_msg_deallocate?relay
//  263 
//  264       // Next
//  265       msgPtr = (osal_event_hdr_t *)osal_msg_receive( ZDNwkMgr_TaskID );
        ; Setup parameters for call to function osal_msg_receive
??ZDNwkMgr_event_loop_1:
        MOV     DPTR,#ZDNwkMgr_TaskID
        MOVX    A,@DPTR
        MOV     R1,A
        LCALL   ??osal_msg_receive?relay
        MOV     ?V0 + 0,R2
        MOV     ?V0 + 1,R3
        MOV     A,?V0 + 0
        ORL     A,?V0 + 1
        JNZ     $+5
        LJMP    ??ZDNwkMgr_event_loop_3 & 0xFFFF
        MOV     DPL,?V0 + 0
        MOV     DPH,?V0 + 1
        MOVX    A,@DPTR
        ADD     A,#-0x31
        JZ      ??ZDNwkMgr_event_loop_4
        DEC     A
        JZ      ??ZDNwkMgr_event_loop_5
        ADD     A,#0x5f
        JNZ     ??CrossCallReturnLabel_31
        MOV     A,?V0 + 0
        ADD     A,#0xc
        MOV     DPL,A
        MOV     A,?V0 + 1
        ADDC    A,#0x0
        MOV     DPH,A
        MOVX    A,@DPTR
        MOV     ?V0 + 2,A
        INC     DPTR
        MOVX    A,@DPTR
        MOV     ?V0 + 3,A
        MOV     R0,#?V0 + 2
        LCALL   ?US_SWITCH_SPARSE
`?<Jumptable for ZDNwkMgr_event_loop>_0`:
        DATA
        DATA16
        DATA
        DATA16
        DATA
        DATA16
        DW        0
        DATA
        DATA16
        DATA
        DATA16
        DATA
        DATA16
        DW        2
        DATA
        DATA16
        DATA
        DATA16
        DATA
        DATA16
        DW        56
        DATA
        DATA16
        DATA
        DATA16
        DATA
        DATA16
        DW        ??ZDNwkMgr_event_loop_6
        DATA
        DATA16
        DATA
        DATA16
        DATA
        DATA16
        DW        32789
        DATA
        DATA16
        DATA
        DATA16
        DATA
        DATA16
        DW        ??ZDNwkMgr_event_loop_7
        DATA
        DATA16
        DATA
        DATA16
        DW        ??CrossCallReturnLabel_31
        CODE
??ZDNwkMgr_event_loop_7:
        ; Setup parameters for call to function ZDNwkMgr_ProcessServerDiscRsp
        MOV     R2,?V0 + 0
        MOV     R3,?V0 + 1
        LCALL   ??ZDNwkMgr_ProcessServerDiscRsp?relay
        SJMP    ??CrossCallReturnLabel_31
??ZDNwkMgr_event_loop_6:
        ; Setup parameters for call to function ZDNwkMgr_ProcessMgmtNwkUpdateReq
        MOV     R2,?V0 + 0
        MOV     R3,?V0 + 1
        LCALL   ??ZDNwkMgr_ProcessMgmtNwkUpdateReq?relay
        SJMP    ??CrossCallReturnLabel_31
??ZDNwkMgr_event_loop_4:
        MOV     DPTR,#ZDNwkMgr_NumUpdateNotifySent
        MOVX    A,@DPTR
        CLR     C
        SUBB    A,#0x4
        JNC     ??CrossCallReturnLabel_31
        ; Setup parameters for call to function NLME_EDScanRequest
        MOV     DPTR,#_NIB + 42
        MOVX    A,@DPTR
        MOV     R1,A
        MOV     DPTR,#__Constant_7fff800
        LCALL   ?XLOAD_R2345
        LCALL   ??NLME_EDScanRequest?relay
        MOV     A,R1
        JNZ     ??CrossCallReturnLabel_31
        MOV     DPL,?V0 + 0
        MOV     DPH,?V0 + 1
        LCALL   ?Subroutine17 & 0xFFFF
??CrossCallReturnLabel_43:
        MOV     DPTR,#ZDNwkMgr_TotalTransmissions
        LCALL   ??Subroutine21_0 & 0xFFFF
??CrossCallReturnLabel_32:
        MOV     DPL,?V0 + 0
        MOV     DPH,?V0 + 1
        INC     DPTR
        INC     DPTR
        LCALL   ?Subroutine17 & 0xFFFF
??CrossCallReturnLabel_44:
        MOV     DPTR,#ZDNwkMgr_TxFailures
        LCALL   ??Subroutine21_0 & 0xFFFF
??CrossCallReturnLabel_33:
        MOV     DPTR,#ZDNwkMgr_MgmtNwkUpdateReq + 5
        MOV     A,#-0x1
??ZDNwkMgr_event_loop_8:
        MOVX    @DPTR,A
        LJMP    ??CrossCallReturnLabel_31 & 0xFFFF
??ZDNwkMgr_event_loop_5:
        MOV     DPTR,#ZDNwkMgr_MgmtNwkUpdateReq + 5
        MOVX    A,@DPTR
        CPL     A
        JZ      $+5
        LJMP    ??ZDNwkMgr_event_loop_2 & 0xFFFF
        ; Setup parameters for call to function ZDNwkMgr_CheckForChannelInterference
        MOV     R2,?V0 + 0
        MOV     R3,?V0 + 1
        LCALL   ??ZDNwkMgr_CheckForChannelInterference?relay
        MOV     DPTR,#ZDNwkMgr_MgmtNwkUpdateReq + 5
        CLR     A
        SJMP    ??ZDNwkMgr_event_loop_8
//  266     }
//  267     
//  268     // Return unprocessed events
//  269     return (events ^ SYS_EVENT_MSG);
??ZDNwkMgr_event_loop_3:
        MOV     A,R6
        MOV     R2,A
        MOV     A,R7
        XRL     A,#0x80
??ZDNwkMgr_event_loop_9:
        MOV     R3,A
        SJMP    ??ZDNwkMgr_event_loop_10
//  270   }
//  271 
//  272   if ( events & ZDNWKMGR_CHANNEL_CHANGE_EVT )
??ZDNwkMgr_event_loop_0:
        MOV     A,R6
        MOV     C,0xE0 /* A   */.0
        JNC     ??ZDNwkMgr_event_loop_11
//  273   {       
//  274     // Switch channel
//  275     _NIB.nwkLogicalChannel = ZDNwkMgr_NewChannel;
        MOV     DPTR,#ZDNwkMgr_NewChannel
        MOVX    A,@DPTR
        MOV     DPTR,#_NIB + 22
        MOVX    @DPTR,A
//  276     ZMacSetReq( ZMacChannel, &ZDNwkMgr_NewChannel );
        ; Setup parameters for call to function ZMacSetReq
        MOV     R2,#ZDNwkMgr_NewChannel & 0xff
        MOV     R3,#(ZDNwkMgr_NewChannel >> 8) & 0xff
        MOV     R1,#-0x1f
        LCALL   ??ZMacSetReq?relay
//  277  
//  278     // Our Channel has been changed -- notify to save info into NV
//  279     ZDApp_NwkStateUpdateCB();
        ; Setup parameters for call to function ZDApp_NwkStateUpdateCB
        LCALL   ??ZDApp_NwkStateUpdateCB?relay
//  280     
//  281     // Reset the total transmit count and the transmit failure counters
//  282     _NIB.nwkTotalTransmissions = 0;
        LCALL   ?Subroutine4 & 0xFFFF
//  283     nwkTransmissionFailures( TRUE );
//  284     
//  285     return ( events ^ ZDNWKMGR_CHANNEL_CHANGE_EVT );
??CrossCallReturnLabel_0:
        MOV     A,R6
        XRL     A,#0x1
??ZDNwkMgr_event_loop_12:
        MOV     R2,A
        MOV     A,R7
        SJMP    ??ZDNwkMgr_event_loop_9
//  286   }
//  287 
//  288   if ( events & ZDNWKMGR_UPDATE_NOTIFY_EVT )
??ZDNwkMgr_event_loop_11:
        ANL     A,#0x2
        JZ      ??ZDNwkMgr_event_loop_13
//  289   {
//  290     // Update the Update Notify timer
//  291     if ( ZDNwkMgr_UpdateNotifyTimer > 0 )
        MOV     DPTR,#ZDNwkMgr_UpdateNotifyTimer
        LCALL   ??Subroutine22_0 & 0xFFFF
??CrossCallReturnLabel_39:
        JZ      ??ZDNwkMgr_event_loop_14
//  292     {
//  293       ZDNwkMgr_UpdateNotifyTimer--;
        MOV     DPTR,#ZDNwkMgr_UpdateNotifyTimer
        MOVX    A,@DPTR
        ADD     A,#-0x1
        MOVX    @DPTR,A
        INC     DPTR
        MOVX    A,@DPTR
        ADDC    A,#-0x1
        MOVX    @DPTR,A
//  294       osal_start_timerEx( ZDNwkMgr_TaskID, ZDNWKMGR_UPDATE_NOTIFY_EVT, ONE_MINUTE );
        ; Setup parameters for call to function osal_start_timerEx
        MOV     R4,#0x60
        MOV     R5,#-0x16
        MOV     R2,#0x2
        LCALL   ?Subroutine8 & 0xFFFF
//  295     }
??CrossCallReturnLabel_28:
        SJMP    ??ZDNwkMgr_event_loop_15
//  296     else
//  297     {
//  298       ZDNwkMgr_NumUpdateNotifySent = 0;
??ZDNwkMgr_event_loop_14:
        MOV     DPTR,#ZDNwkMgr_NumUpdateNotifySent
        CLR     A
        MOVX    @DPTR,A
//  299     }
//  300     
//  301     return ( events ^ ZDNWKMGR_UPDATE_NOTIFY_EVT );
??ZDNwkMgr_event_loop_15:
        MOV     A,R6
        XRL     A,#0x2
        SJMP    ??ZDNwkMgr_event_loop_12
//  302   }
//  303   
//  304 #if defined ( NWK_MANAGER )
//  305   if ( events & ZDNWKMGR_UPDATE_REQUEST_EVT )
//  306   {
//  307     // Update the Update Request timer
//  308     if ( ZDNwkMgr_UpdateRequestTimer > 0 )
//  309     {
//  310       ZDNwkMgr_UpdateRequestTimer--;
//  311       osal_start_timerEx( ZDNwkMgr_TaskID, ZDNWKMGR_UPDATE_REQUEST_EVT, ONE_MINUTE );
//  312     }
//  313     
//  314     return ( events ^ ZDNWKMGR_UPDATE_REQUEST_EVT );
//  315   }
//  316 #endif // NWK_MANAGER
//  317   
//  318   if ( events & ZDNWKMGR_SCAN_REQUEST_EVT )
??ZDNwkMgr_event_loop_13:
        MOV     A,R6
        ANL     A,#0x8
        JZ      ??ZDNwkMgr_event_loop_16
//  319   {  
//  320     if ( ZDNwkMgr_MgmtNwkUpdateReq.scanCount > 0 )
        MOV     DPTR,#ZDNwkMgr_MgmtNwkUpdateReq + 5
        MOVX    A,@DPTR
        JZ      ??ZDNwkMgr_event_loop_17
//  321     {
//  322       if (  NLME_EDScanRequest( ZDNwkMgr_MgmtNwkUpdateReq.channelMask, 
//  323                                 ZDNwkMgr_MgmtNwkUpdateReq.scanDuration ) == ZSuccess )
        ; Setup parameters for call to function NLME_EDScanRequest
        MOV     DPTR,#ZDNwkMgr_MgmtNwkUpdateReq + 4
        MOVX    A,@DPTR
        MOV     R1,A
        MOV     DPTR,#ZDNwkMgr_MgmtNwkUpdateReq
        LCALL   ?XLOAD_R2345
        LCALL   ??NLME_EDScanRequest?relay
        MOV     A,R1
        JNZ     ??ZDNwkMgr_event_loop_17
//  324       {
//  325         ZDNwkMgr_MgmtNwkUpdateReq.scanCount--;
        MOV     DPTR,#ZDNwkMgr_MgmtNwkUpdateReq + 5
        MOVX    A,@DPTR
        DEC     A
        MOVX    @DPTR,A
//  326       }
//  327     }
//  328       
//  329     return ( events ^ ZDNWKMGR_SCAN_REQUEST_EVT );
??ZDNwkMgr_event_loop_17:
        MOV     A,R6
        XRL     A,#0x8
        SJMP    ??ZDNwkMgr_event_loop_12
//  330   }
//  331   
//  332   // Discard or make more handlers
//  333   return 0;
??ZDNwkMgr_event_loop_16:
        MOV     R2,#0x0
        MOV     R3,#0x0
??ZDNwkMgr_event_loop_10:
        MOV     R7,#0x6
        LJMP    ?BANKED_LEAVE_XDATA
        CFI EndBlock cfiBlock2
//  334 }

        RSEG BANKED_CODE:CODE:NOROOT(0)
?Subroutine8:
        CFI Block cfiCond3 Using cfiCommon0
        CFI NoFunction
        CFI Conditional ??CrossCallReturnLabel_31
        CFI R6 load(1, XDATA, add(CFA_XSP16, literal(-14)))
        CFI VB load(1, XDATA, add(CFA_XSP16, literal(-13)))
        CFI V0 load(1, XDATA, add(CFA_XSP16, literal(-12)))
        CFI V1 load(1, XDATA, add(CFA_XSP16, literal(-11)))
        CFI V2 load(1, XDATA, add(CFA_XSP16, literal(-10)))
        CFI V3 load(1, XDATA, add(CFA_XSP16, literal(-9)))
        CFI V4 load(1, XDATA, add(CFA_XSP16, literal(-8)))
        CFI V5 load(1, XDATA, add(CFA_XSP16, literal(-7)))
        CFI R7 load(1, XDATA, add(CFA_XSP16, literal(-6)))
        CFI ?RET_LOW load(1, XDATA, add(CFA_XSP16, literal(-5)))
        CFI ?RET_HIGH load(1, XDATA, add(CFA_XSP16, literal(-4)))
        CFI ?BRET_EXT load(1, XDATA, add(CFA_XSP16, literal(-3)))
        CFI DPL0 load(1, XDATA, add(CFA_XSP16, literal(-2)))
        CFI DPH0 load(1, XDATA, add(CFA_XSP16, literal(-1)))
        CFI CFA_SP SP+0
        CFI CFA_XSP16 add(XSP16, 14)
        CFI Block cfiCond4 Using cfiCommon0
        CFI (cfiCond4) NoFunction
        CFI (cfiCond4) Conditional ??CrossCallReturnLabel_28
        CFI (cfiCond4) R6 load(1, XDATA, add(CFA_XSP16, literal(-14)))
        CFI (cfiCond4) VB load(1, XDATA, add(CFA_XSP16, literal(-13)))
        CFI (cfiCond4) V0 load(1, XDATA, add(CFA_XSP16, literal(-12)))
        CFI (cfiCond4) V1 load(1, XDATA, add(CFA_XSP16, literal(-11)))
        CFI (cfiCond4) V2 load(1, XDATA, add(CFA_XSP16, literal(-10)))
        CFI (cfiCond4) V3 load(1, XDATA, add(CFA_XSP16, literal(-9)))
        CFI (cfiCond4) V4 load(1, XDATA, add(CFA_XSP16, literal(-8)))
        CFI (cfiCond4) V5 load(1, XDATA, add(CFA_XSP16, literal(-7)))
        CFI (cfiCond4) R7 load(1, XDATA, add(CFA_XSP16, literal(-6)))
        CFI (cfiCond4) ?RET_LOW load(1, XDATA, add(CFA_XSP16, literal(-5)))
        CFI (cfiCond4) ?RET_HIGH load(1, XDATA, add(CFA_XSP16, literal(-4)))
        CFI (cfiCond4) ?BRET_EXT load(1, XDATA, add(CFA_XSP16, literal(-3)))
        CFI (cfiCond4) DPL0 load(1, XDATA, add(CFA_XSP16, literal(-2)))
        CFI (cfiCond4) DPH0 load(1, XDATA, add(CFA_XSP16, literal(-1)))
        CFI (cfiCond4) CFA_SP SP+0
        CFI (cfiCond4) CFA_XSP16 add(XSP16, 14)
        CFI Block cfiCond5 Using cfiCommon0
        CFI (cfiCond5) NoFunction
        CFI (cfiCond5) Conditional ??CrossCallReturnLabel_29
        CFI (cfiCond5) R6 load(1, XDATA, add(CFA_XSP16, literal(-12)))
        CFI (cfiCond5) VB load(1, XDATA, add(CFA_XSP16, literal(-11)))
        CFI (cfiCond5) V0 load(1, XDATA, add(CFA_XSP16, literal(-10)))
        CFI (cfiCond5) V1 load(1, XDATA, add(CFA_XSP16, literal(-9)))
        CFI (cfiCond5) V2 load(1, XDATA, add(CFA_XSP16, literal(-8)))
        CFI (cfiCond5) V3 load(1, XDATA, add(CFA_XSP16, literal(-7)))
        CFI (cfiCond5) R7 load(1, XDATA, add(CFA_XSP16, literal(-6)))
        CFI (cfiCond5) ?RET_LOW load(1, XDATA, add(CFA_XSP16, literal(-5)))
        CFI (cfiCond5) ?RET_HIGH load(1, XDATA, add(CFA_XSP16, literal(-4)))
        CFI (cfiCond5) ?BRET_EXT load(1, XDATA, add(CFA_XSP16, literal(-3)))
        CFI (cfiCond5) DPL0 load(1, XDATA, add(CFA_XSP16, literal(-2)))
        CFI (cfiCond5) DPH0 load(1, XDATA, add(CFA_XSP16, literal(-1)))
        CFI (cfiCond5) CFA_SP SP+0
        CFI (cfiCond5) CFA_XSP16 add(XSP16, 21)
        CFI Block cfiPicker6 Using cfiCommon1
        CFI (cfiPicker6) NoFunction
        CFI (cfiPicker6) Picker
        MOV     R3,#0x0
        CFI EndBlock cfiCond3
        CFI EndBlock cfiCond4
        CFI EndBlock cfiCond5
        CFI EndBlock cfiPicker6
        REQUIRE ??Subroutine19_0
        ; // Fall through to label ??Subroutine19_0

        RSEG BANKED_CODE:CODE:NOROOT(0)
??Subroutine19_0:
        CFI Block cfiCond7 Using cfiCommon0
        CFI NoFunction
        CFI Conditional ??CrossCallReturnLabel_30
        CFI R6 load(1, XDATA, add(CFA_XSP16, literal(-12)))
        CFI VB load(1, XDATA, add(CFA_XSP16, literal(-11)))
        CFI V0 load(1, XDATA, add(CFA_XSP16, literal(-10)))
        CFI V1 load(1, XDATA, add(CFA_XSP16, literal(-9)))
        CFI V2 load(1, XDATA, add(CFA_XSP16, literal(-8)))
        CFI V3 load(1, XDATA, add(CFA_XSP16, literal(-7)))
        CFI R7 load(1, XDATA, add(CFA_XSP16, literal(-6)))
        CFI ?RET_LOW load(1, XDATA, add(CFA_XSP16, literal(-5)))
        CFI ?RET_HIGH load(1, XDATA, add(CFA_XSP16, literal(-4)))
        CFI ?BRET_EXT load(1, XDATA, add(CFA_XSP16, literal(-3)))
        CFI DPL0 load(1, XDATA, add(CFA_XSP16, literal(-2)))
        CFI DPH0 load(1, XDATA, add(CFA_XSP16, literal(-1)))
        CFI CFA_SP SP+0
        CFI CFA_XSP16 add(XSP16, 12)
        CFI Block cfiCond8 Using cfiCommon0
        CFI (cfiCond8) NoFunction
        CFI (cfiCond8) Conditional ??CrossCallReturnLabel_31
        CFI (cfiCond8) R6 load(1, XDATA, add(CFA_XSP16, literal(-14)))
        CFI (cfiCond8) VB load(1, XDATA, add(CFA_XSP16, literal(-13)))
        CFI (cfiCond8) V0 load(1, XDATA, add(CFA_XSP16, literal(-12)))
        CFI (cfiCond8) V1 load(1, XDATA, add(CFA_XSP16, literal(-11)))
        CFI (cfiCond8) V2 load(1, XDATA, add(CFA_XSP16, literal(-10)))
        CFI (cfiCond8) V3 load(1, XDATA, add(CFA_XSP16, literal(-9)))
        CFI (cfiCond8) V4 load(1, XDATA, add(CFA_XSP16, literal(-8)))
        CFI (cfiCond8) V5 load(1, XDATA, add(CFA_XSP16, literal(-7)))
        CFI (cfiCond8) R7 load(1, XDATA, add(CFA_XSP16, literal(-6)))
        CFI (cfiCond8) ?RET_LOW load(1, XDATA, add(CFA_XSP16, literal(-5)))
        CFI (cfiCond8) ?RET_HIGH load(1, XDATA, add(CFA_XSP16, literal(-4)))
        CFI (cfiCond8) ?BRET_EXT load(1, XDATA, add(CFA_XSP16, literal(-3)))
        CFI (cfiCond8) DPL0 load(1, XDATA, add(CFA_XSP16, literal(-2)))
        CFI (cfiCond8) DPH0 load(1, XDATA, add(CFA_XSP16, literal(-1)))
        CFI (cfiCond8) CFA_SP SP+0
        CFI (cfiCond8) CFA_XSP16 add(XSP16, 14)
        CFI Block cfiCond9 Using cfiCommon0
        CFI (cfiCond9) NoFunction
        CFI (cfiCond9) Conditional ??CrossCallReturnLabel_28
        CFI (cfiCond9) R6 load(1, XDATA, add(CFA_XSP16, literal(-14)))
        CFI (cfiCond9) VB load(1, XDATA, add(CFA_XSP16, literal(-13)))
        CFI (cfiCond9) V0 load(1, XDATA, add(CFA_XSP16, literal(-12)))
        CFI (cfiCond9) V1 load(1, XDATA, add(CFA_XSP16, literal(-11)))
        CFI (cfiCond9) V2 load(1, XDATA, add(CFA_XSP16, literal(-10)))
        CFI (cfiCond9) V3 load(1, XDATA, add(CFA_XSP16, literal(-9)))
        CFI (cfiCond9) V4 load(1, XDATA, add(CFA_XSP16, literal(-8)))
        CFI (cfiCond9) V5 load(1, XDATA, add(CFA_XSP16, literal(-7)))
        CFI (cfiCond9) R7 load(1, XDATA, add(CFA_XSP16, literal(-6)))
        CFI (cfiCond9) ?RET_LOW load(1, XDATA, add(CFA_XSP16, literal(-5)))
        CFI (cfiCond9) ?RET_HIGH load(1, XDATA, add(CFA_XSP16, literal(-4)))
        CFI (cfiCond9) ?BRET_EXT load(1, XDATA, add(CFA_XSP16, literal(-3)))
        CFI (cfiCond9) DPL0 load(1, XDATA, add(CFA_XSP16, literal(-2)))
        CFI (cfiCond9) DPH0 load(1, XDATA, add(CFA_XSP16, literal(-1)))
        CFI (cfiCond9) CFA_SP SP+0
        CFI (cfiCond9) CFA_XSP16 add(XSP16, 14)
        CFI Block cfiCond10 Using cfiCommon0
        CFI (cfiCond10) NoFunction
        CFI (cfiCond10) Conditional ??CrossCallReturnLabel_29
        CFI (cfiCond10) R6 load(1, XDATA, add(CFA_XSP16, literal(-12)))
        CFI (cfiCond10) VB load(1, XDATA, add(CFA_XSP16, literal(-11)))
        CFI (cfiCond10) V0 load(1, XDATA, add(CFA_XSP16, literal(-10)))
        CFI (cfiCond10) V1 load(1, XDATA, add(CFA_XSP16, literal(-9)))
        CFI (cfiCond10) V2 load(1, XDATA, add(CFA_XSP16, literal(-8)))
        CFI (cfiCond10) V3 load(1, XDATA, add(CFA_XSP16, literal(-7)))
        CFI (cfiCond10) R7 load(1, XDATA, add(CFA_XSP16, literal(-6)))
        CFI (cfiCond10) ?RET_LOW load(1, XDATA, add(CFA_XSP16, literal(-5)))
        CFI (cfiCond10) ?RET_HIGH load(1, XDATA, add(CFA_XSP16, literal(-4)))
        CFI (cfiCond10) ?BRET_EXT load(1, XDATA, add(CFA_XSP16, literal(-3)))
        CFI (cfiCond10) DPL0 load(1, XDATA, add(CFA_XSP16, literal(-2)))
        CFI (cfiCond10) DPH0 load(1, XDATA, add(CFA_XSP16, literal(-1)))
        CFI (cfiCond10) CFA_SP SP+0
        CFI (cfiCond10) CFA_XSP16 add(XSP16, 21)
        CFI Block cfiPicker11 Using cfiCommon1
        CFI (cfiPicker11) NoFunction
        CFI (cfiPicker11) Picker
        MOV     DPTR,#ZDNwkMgr_TaskID
        MOVX    A,@DPTR
        MOV     R1,A
        LCALL   ??osal_start_timerEx?relay
        RET
        CFI EndBlock cfiCond7
        CFI EndBlock cfiCond8
        CFI EndBlock cfiCond9
        CFI EndBlock cfiCond10
        CFI EndBlock cfiPicker11
//  335 
//  336 /*********************************************************************
//  337  * @fn      ZDNwkMgr_ProcessMsgCBs
//  338  *
//  339  * @brief   Process the incoming messages.
//  340  *
//  341  * @param   msgPtr - message to process
//  342  *
//  343  * @return  TRUE if message to be freed. FALSE otherwise.
//  344  */
//  345 static void ZDNwkMgr_ProcessMsgCBs( zdoIncomingMsg_t *inMsg )
//  346 {
//  347   switch ( inMsg->clusterID )
//  348   {   
//  349     case Mgmt_NWK_Update_req:
//  350       ZDNwkMgr_ProcessMgmtNwkUpdateReq( inMsg );
//  351       break;    
//  352 #if defined ( NWK_MANAGER )  
//  353     case Mgmt_NWK_Update_notify:
//  354       ZDNwkMgr_ProcessMgmtNwkUpdateNotify( inMsg );
//  355       break;
//  356 #endif // NWK_MANAGER
//  357     case Server_Discovery_rsp:
//  358       ZDNwkMgr_ProcessServerDiscRsp( inMsg );
//  359       break;
//  360       
//  361     default:
//  362       // Unknown message
//  363       break;
//  364   }
//  365 }
//  366 
//  367 /*********************************************************************
//  368  * Frequency Agility Routines
//  369  */
//  370 #if defined ( NWK_MANAGER )
//  371 /*********************************************************************
//  372  * @fn          ZDNwkMgr_ProcessMgmtNwkUpdateNotify
//  373  *
//  374  * @brief       This function processes the incoming Management
//  375  *              Network Update notify.
//  376  *
//  377  * @param       pUpdateNotify - notify message
//  378  *
//  379  * @return      TRUE if message to be freed. FALSE otherwise.
//  380  */
//  381 static void ZDNwkMgr_ProcessMgmtNwkUpdateNotify( zdoIncomingMsg_t *inMsg )
//  382 {
//  383   if ( zgNwkMgrMode == ZDNWKMGR_ENABLE )
//  384   {
//  385     ZDO_MgmtNwkUpdateNotify_t *pNotify = ZDO_ParseMgmtNwkUpdateNotify( inMsg ); 
//  386     if ( pNotify )
//  387     {
//  388       ZDNwkMgr_CheckForChannelChange( pNotify );
//  389 
//  390       osal_mem_free( pNotify );
//  391     }
//  392   }
//  393 }
//  394 
//  395 /*********************************************************************
//  396  * @fn          ZDNwkMgr_CheckForChannelChange
//  397  *
//  398  * @brief       This function processes the incoming Management Network
//  399  *              Update notify and starts an Update Request if a channel
//  400  *              change is needed.
//  401  *
//  402  * @param       pUpdateNotify - notify message
//  403  *
//  404  * @return      none
//  405  */
//  406 static void ZDNwkMgr_CheckForChannelChange( ZDO_MgmtNwkUpdateNotify_t *pNotify )
//  407 {
//  408   uint8  i;
//  409   uint16 failureRate;
//  410   uint8  lowestEnergyIndex;
//  411   uint8  lowestEnergyValue = 0xFF;
//  412       
//  413   // If any device has more than 50% transmission failures, a channel
//  414   // change should be considered
//  415   failureRate = ( pNotify->transmissionFailures * 100 ) / pNotify->totalTransmissions;
//  416   if ( failureRate < ZDNWKMGR_CC_TX_FAILURE )
//  417   {
//  418 #if defined ( LCD_SUPPORTED )
//  419     HalLcdWriteString( (char*)NwkMgrStr_1, HAL_LCD_LINE_1 );
//  420     HalLcdWriteStringValueValue( ": ", failureRate, 10, ZDNWKMGR_CC_TX_FAILURE, 10, HAL_LCD_LINE_2 );
//  421 #endif
//  422     return;
//  423   }
//  424 
//  425   // If the current failure rate is higher than the last failure rate,
//  426   // a channel change should be considered
//  427   if ( failureRate < ZDNwkMgr_LastChannelFailureRate )
//  428   {
//  429 #if defined ( LCD_SUPPORTED )
//  430     HalLcdWriteString( (char*)NwkMgrStr_2, HAL_LCD_LINE_1 );
//  431     HalLcdWriteStringValueValue( ": ", failureRate, 10, 
//  432                                  ZDNwkMgr_LastChannelFailureRate, 10, HAL_LCD_LINE_2 );
//  433 #endif
//  434     return;
//  435   }
//  436   
//  437   // Select a single channel based on the Mgmt_NWK_Update_notify based on
//  438   // the lowest energy. This is the proposed new channel. 
//  439   for ( i = 0; i < pNotify->listCount; i++ )
//  440   {
//  441     if ( pNotify->energyValues[i] < lowestEnergyValue )
//  442     {
//  443       lowestEnergyIndex = i;
//  444       lowestEnergyValue = pNotify->energyValues[i];
//  445     }
//  446   }
//  447       
//  448   // If this new channel does not have an energy level below an acceptable
//  449   // threshold, a channel change should not be done.
//  450   if ( lowestEnergyValue > ZDNWKMGR_ACCEPTABLE_ENERGY_LEVEL )
//  451   {
//  452 #if defined ( LCD_SUPPORTED )
//  453     HalLcdWriteString( (char*)NwkMgrStr_3, HAL_LCD_LINE_1 );
//  454     HalLcdWriteStringValueValue( ": ", lowestEnergyValue, 10, 
//  455                                  ZDNWKMGR_ACCEPTABLE_ENERGY_LEVEL, 10, HAL_LCD_LINE_2 );
//  456 #endif
//  457     return;
//  458   }
//  459 
//  460   // Channel change should be done -- find out the new active channel
//  461   for ( i = 0; i < ED_SCAN_MAXCHANNELS; i++ )
//  462   {
//  463     if ( ( (uint32)1 << i ) & pNotify->scannedChannels )
//  464     {
//  465       if ( lowestEnergyIndex == 0 )
//  466         break;
//  467       lowestEnergyIndex--;
//  468     }
//  469   }
//  470   
//  471   if ( ( _NIB.nwkLogicalChannel != i ) && ( ZDNwkMgr_UpdateRequestTimer == 0 ) )
//  472   {
//  473     uint32 channelMask;
//  474     zAddrType_t dstAddr;
//  475     
//  476     // The new channel
//  477     ZDNwkMgr_NewChannel = i;
//  478         
//  479     // Prior to changing channels, the network manager should store the 
//  480     // energy scan value as the last energy scan value and the failure 
//  481     // rate from the existing channel as the last failure rate.  These 
//  482     // values are useful to allow comparison of the failure rate and energy
//  483     // level on the previous channel to evaluate if the network is causing
//  484     // its own interference.
//  485     ZDNwkMgr_LastChannelEnergy = lowestEnergyValue;
//  486     ZDNwkMgr_LastChannelFailureRate = failureRate;
//  487        
//  488     // The network manager should broadcast a Mgmt_NWK_Update_req notifying
//  489     // devices of the new channel.  The broadcast shall be to all routers 
//  490     // and coordinator.
//  491     dstAddr.addrMode = AddrBroadcast;
//  492     dstAddr.addr.shortAddr = NWK_BROADCAST_SHORTADDR_DEVRXON;
//  493     channelMask = (uint32)1 << i;
//  494         
//  495     // Increment the nwkUpdateId parameter and set the updateID in the beacon
//  496     NLME_SetUpdateID(_NIB.nwkUpdateId + 1); 
//  497     
//  498     ZDP_MgmtNwkUpdateReq( &dstAddr, channelMask, 0xfe, 0, _NIB.nwkUpdateId, 0 );
//  499         
//  500     // The network manager shall set a timer based on the value of 
//  501     // apsChannelTimer upon issue of a Mgmt_NWK_Update_req that changes 
//  502     // channels and shall not issue another such command until this 
//  503     // timer expires.  
//  504     ZDNwkMgr_UpdateRequestTimer = ZDNWKMGR_UPDATE_REQUEST_TIMER;
//  505     osal_start_timerEx( ZDNwkMgr_TaskID, ZDNWKMGR_UPDATE_REQUEST_EVT, ONE_MINUTE );
//  506                   
//  507     // Upon receipt of a Mgmt_NWK_Update_req with a change of channels, 
//  508     // the local network manager shall set a timer equal to the 
//  509     // nwkNetworkBroadcastDeliveryTime and shall switch channels upon 
//  510     // expiration of this timer.  NOTE: since we won't recevied our own
//  511     // broadcasted Update Request, we start the channel change timer here.  
//  512     osal_start_timerEx( ZDNwkMgr_TaskID, ZDNWKMGR_CHANNEL_CHANGE_EVT, 
//  513                         ZDNWKMGR_BCAST_DELIVERY_TIME );
//  514   }
//  515 }
//  516 #endif  // NWK_MANAGER
//  517 
//  518 /*********************************************************************
//  519  * @fn          ZDNwkMgr_ProcessMgmtNwkUpdateReq
//  520  *
//  521  * @brief       This function processes the incoming Management
//  522  *              Network Update request and starts the request (if needed).
//  523  *
//  524  * @param       Request message
//  525  *
//  526  * @return      none
//  527  */

        RSEG BANKED_CODE:CODE:NOROOT(0)
//  528 static void ZDNwkMgr_ProcessMgmtNwkUpdateReq( zdoIncomingMsg_t *inMsg )
ZDNwkMgr_ProcessMgmtNwkUpdateReq:
        CFI Block cfiBlock12 Using cfiCommon0
        CFI Function ZDNwkMgr_ProcessMgmtNwkUpdateReq
        CODE
//  529 {
        FUNCALL ZDNwkMgr_ProcessMgmtNwkUpdateReq, ZDO_ParseMgmtNwkUpdateReq
        LOCFRAME ISTACK, 0, STACK
        LOCFRAME PSTACK, 0, STACK
        LOCFRAME XSTACK, 21, STACK
        LOCFRAME IOVERLAY, 0, STATIC
        LOCFRAME DOVERLAY, 0, STATIC
        ARGFRAME ISTACK, 0, STACK
        ARGFRAME PSTACK, 0, STACK
        ARGFRAME XSTACK, 21, STACK
        ARGFRAME IOVERLAY, 0, STATIC
        ARGFRAME DOVERLAY, 0, STATIC
        FUNCALL ZDNwkMgr_ProcessMgmtNwkUpdateReq, NLME_EDScanRequest
        LOCFRAME ISTACK, 0, STACK
        LOCFRAME PSTACK, 0, STACK
        LOCFRAME XSTACK, 21, STACK
        LOCFRAME IOVERLAY, 0, STATIC
        LOCFRAME DOVERLAY, 0, STATIC
        ARGFRAME ISTACK, 0, STACK
        ARGFRAME PSTACK, 0, STACK
        ARGFRAME XSTACK, 21, STACK
        ARGFRAME IOVERLAY, 0, STATIC
        ARGFRAME DOVERLAY, 0, STATIC
        FUNCALL ZDNwkMgr_ProcessMgmtNwkUpdateReq, NLME_SetUpdateID
        LOCFRAME ISTACK, 0, STACK
        LOCFRAME PSTACK, 0, STACK
        LOCFRAME XSTACK, 21, STACK
        LOCFRAME IOVERLAY, 0, STATIC
        LOCFRAME DOVERLAY, 0, STATIC
        ARGFRAME ISTACK, 0, STACK
        ARGFRAME PSTACK, 0, STACK
        ARGFRAME XSTACK, 21, STACK
        ARGFRAME IOVERLAY, 0, STATIC
        ARGFRAME DOVERLAY, 0, STATIC
        FUNCALL ZDNwkMgr_ProcessMgmtNwkUpdateReq, osal_start_timerEx
        LOCFRAME ISTACK, 0, STACK
        LOCFRAME PSTACK, 0, STACK
        LOCFRAME XSTACK, 21, STACK
        LOCFRAME IOVERLAY, 0, STATIC
        LOCFRAME DOVERLAY, 0, STATIC
        ARGFRAME ISTACK, 0, STACK
        ARGFRAME PSTACK, 0, STACK
        ARGFRAME XSTACK, 21, STACK
        ARGFRAME IOVERLAY, 0, STATIC
        ARGFRAME DOVERLAY, 0, STATIC
        FUNCALL ZDNwkMgr_ProcessMgmtNwkUpdateReq, NLME_SetUpdateID
        LOCFRAME ISTACK, 0, STACK
        LOCFRAME PSTACK, 0, STACK
        LOCFRAME XSTACK, 21, STACK
        LOCFRAME IOVERLAY, 0, STATIC
        LOCFRAME DOVERLAY, 0, STATIC
        ARGFRAME ISTACK, 0, STACK
        ARGFRAME PSTACK, 0, STACK
        ARGFRAME XSTACK, 21, STACK
        ARGFRAME IOVERLAY, 0, STATIC
        ARGFRAME DOVERLAY, 0, STATIC
        FUNCALL ZDNwkMgr_ProcessMgmtNwkUpdateReq, ZDApp_NwkStateUpdateCB
        LOCFRAME ISTACK, 0, STACK
        LOCFRAME PSTACK, 0, STACK
        LOCFRAME XSTACK, 21, STACK
        LOCFRAME IOVERLAY, 0, STATIC
        LOCFRAME DOVERLAY, 0, STATIC
        ARGFRAME ISTACK, 0, STACK
        ARGFRAME PSTACK, 0, STACK
        ARGFRAME XSTACK, 21, STACK
        ARGFRAME IOVERLAY, 0, STATIC
        ARGFRAME DOVERLAY, 0, STATIC
        FUNCALL ZDNwkMgr_ProcessMgmtNwkUpdateReq, ZDNwkMgr_SetNwkManagerAddr
        LOCFRAME ISTACK, 0, STACK
        LOCFRAME PSTACK, 0, STACK
        LOCFRAME XSTACK, 21, STACK
        LOCFRAME IOVERLAY, 0, STATIC
        LOCFRAME DOVERLAY, 0, STATIC
        ARGFRAME ISTACK, 0, STACK
        ARGFRAME PSTACK, 0, STACK
        ARGFRAME XSTACK, 21, STACK
        ARGFRAME IOVERLAY, 0, STATIC
        ARGFRAME DOVERLAY, 0, STATIC
        FUNCALL ZDNwkMgr_ProcessMgmtNwkUpdateReq, ZDP_MgmtNwkUpdateNotify
        LOCFRAME ISTACK, 0, STACK
        LOCFRAME PSTACK, 0, STACK
        LOCFRAME XSTACK, 33, STACK
        LOCFRAME IOVERLAY, 0, STATIC
        LOCFRAME DOVERLAY, 0, STATIC
        ARGFRAME ISTACK, 0, STACK
        ARGFRAME PSTACK, 0, STACK
        ARGFRAME XSTACK, 33, STACK
        ARGFRAME IOVERLAY, 0, STATIC
        ARGFRAME DOVERLAY, 0, STATIC
        MOV     A,#-0xc
        LCALL   ?BANKED_ENTER_XDATA
        CFI DPH0 load(1, XDATA, add(CFA_XSP16, literal(-1)))
        CFI DPL0 load(1, XDATA, add(CFA_XSP16, literal(-2)))
        CFI ?BRET_EXT load(1, XDATA, add(CFA_XSP16, literal(-3)))
        CFI ?RET_HIGH load(1, XDATA, add(CFA_XSP16, literal(-4)))
        CFI ?RET_LOW load(1, XDATA, add(CFA_XSP16, literal(-5)))
        CFI R7 load(1, XDATA, add(CFA_XSP16, literal(-6)))
        CFI V3 load(1, XDATA, add(CFA_XSP16, literal(-7)))
        CFI V2 load(1, XDATA, add(CFA_XSP16, literal(-8)))
        CFI V1 load(1, XDATA, add(CFA_XSP16, literal(-9)))
        CFI V0 load(1, XDATA, add(CFA_XSP16, literal(-10)))
        CFI VB load(1, XDATA, add(CFA_XSP16, literal(-11)))
        CFI R6 load(1, XDATA, add(CFA_XSP16, literal(-12)))
        CFI CFA_SP SP+0
        CFI CFA_XSP16 add(XSP16, 12)
        ; Saved register size: 12
        ; Auto size: 9
        MOV     A,#-0x9
        LCALL   ?ALLOC_XSTACK8
        CFI CFA_XSP16 add(XSP16, 21)
        MOV     A,R2
        MOV     R6,A
        MOV     A,R3
        MOV     R7,A
//  530   ZDO_MgmtNwkUpdateReq_t Req;
//  531   
//  532   ZDO_ParseMgmtNwkUpdateReq( inMsg, &Req );
        ; Setup parameters for call to function ZDO_ParseMgmtNwkUpdateReq
        MOV     DPL,?XSP + 0
        MOV     DPH,?XSP + 1
        MOV     R4,DPL
        MOV     R5,DPH
        LCALL   ??ZDO_ParseMgmtNwkUpdateReq?relay
//  533    
//  534   if ( Req.scanDuration <= 0x05 )
        MOV     A,#0x4
        LCALL   ?XSTACK_DISP0_8
        MOVX    A,@DPTR
        MOV     R1,A
        MOV     A,R6
        ADD     A,#0x2
        MOV     ?V0 + 0,A
        MOV     A,R7
        ADDC    A,#0x0
        MOV     ?V0 + 1,A
        MOV     A,R6
        ADD     A,#0xf
        MOV     ?V0 + 2,A
        MOV     A,R7
        ADDC    A,#0x0
        MOV     ?V0 + 3,A
        MOV     A,R1
        CLR     C
        SUBB    A,#0x6
        JNC     ??ZDNwkMgr_ProcessMgmtNwkUpdateReq_0
//  535   {
//  536     // Request is to scan over channelMask. The result will be reported by Confirm   
//  537     if ( ( !inMsg->wasBroadcast )                     && 
//  538          ( Req.scanCount >  ZDNWKMGR_MIN_SCAN_COUNT ) && 
//  539          ( Req.scanCount <= ZDNWKMGR_MAX_SCAN_COUNT ) )
        LCALL   ?Subroutine16 & 0xFFFF
??CrossCallReturnLabel_24:
        JZ      $+5
        LJMP    ??ZDNwkMgr_ProcessMgmtNwkUpdateReq_1 & 0xFFFF
        MOV     A,#0x5
        LCALL   ?XSTACK_DISP0_8
        MOVX    A,@DPTR
        DEC     A
        CLR     C
        SUBB    A,#0x5
        JC      $+5
        LJMP    ??ZDNwkMgr_ProcessMgmtNwkUpdateReq_1 & 0xFFFF
//  540     {
//  541       if ( NLME_EDScanRequest( Req.channelMask, Req.scanDuration ) == ZSuccess )
        ; Setup parameters for call to function NLME_EDScanRequest
        MOV     DPL,?XSP + 0
        MOV     DPH,?XSP + 1
        LCALL   ?XLOAD_R2345
        LCALL   ??NLME_EDScanRequest?relay
        MOV     A,R1
        JZ      $+5
        LJMP    ??ZDNwkMgr_ProcessMgmtNwkUpdateReq_1 & 0xFFFF
//  542       {
//  543         // Save off the information to be used for the notify
//  544         ZDNwkMgr_MgmtNwkUpdateNotifyTransSeq            = inMsg->TransSeq;
        MOV     DPL,?V0 + 2
        MOV     DPH,?V0 + 3
        MOVX    A,@DPTR
        MOV     DPTR,#ZDNwkMgr_MgmtNwkUpdateNotifyTransSeq
        MOVX    @DPTR,A
//  545         ZDNwkMgr_MgmtNwkUpdateNotifyAddr.addr.shortAddr = inMsg->srcAddr.addr.shortAddr;
        LCALL   ?Subroutine3 & 0xFFFF
//  546         
//  547         Req.scanCount--;
??CrossCallReturnLabel_37:
        MOV     A,#0x5
        LCALL   ?XSTACK_DISP0_8
        MOVX    A,@DPTR
        DEC     A
        MOVX    @DPTR,A
//  548         
//  549         // Save off scan info for the subsequent scans
//  550         ZDNwkMgr_MgmtNwkUpdateReq = Req;
        MOV     DPL,?XSP + 0
        MOV     DPH,?XSP + 1
        MOV     R4,#ZDNwkMgr_MgmtNwkUpdateReq & 0xff
        MOV     R5,#(ZDNwkMgr_MgmtNwkUpdateReq >> 8) & 0xff
        MOV     A,#0x9
        LCALL   ?MOVE_LONG8_XDATA_XDATA
        LJMP    ??ZDNwkMgr_ProcessMgmtNwkUpdateReq_1 & 0xFFFF
//  551       }
//  552     }
//  553   }
//  554   else if ( Req.scanDuration == 0xFE )
??ZDNwkMgr_ProcessMgmtNwkUpdateReq_0:
        MOV     A,#-0x2
        XRL     A,R1
        JNZ     ??ZDNwkMgr_ProcessMgmtNwkUpdateReq_2
//  555   {
//  556     // Request is to change Channel. The command provide a new active
//  557     // channel as a single channel in the channelMask.
//  558     if ( Req.nwkUpdateId > _NIB.nwkUpdateId )
        MOV     A,#0x6
        LCALL   ?XSTACK_DISP0_8
        LCALL   ?Subroutine12 & 0xFFFF
??CrossCallReturnLabel_12:
        JC      $+5
        LJMP    ??ZDNwkMgr_ProcessMgmtNwkUpdateReq_1 & 0xFFFF
//  559     {
//  560       uint8 i;
//  561       
//  562       // Set update ID in the Beacon
//  563       NLME_SetUpdateID(Req.nwkUpdateId); 
        ; Setup parameters for call to function NLME_SetUpdateID
        LCALL   ??NLME_SetUpdateID?relay
//  564       
//  565       // Find out the new active channel
//  566       for ( i = 0; i < ED_SCAN_MAXCHANNELS; i++ )
        MOV     R1,#0x0
//  567       {
//  568         if ( ( (uint32)1 << i ) & Req.channelMask )
??ZDNwkMgr_ProcessMgmtNwkUpdateReq_3:
        MOV     ?V0 + 0,#0x1
        MOV     ?V0 + 1,#0x0
        MOV     ?V0 + 2,#0x0
        MOV     ?V0 + 3,#0x0
        MOV     A,R1
        MOV     R0,#?V0 + 0
        LCALL   ?L_SHL
        MOV     DPL,?XSP + 0
        MOV     DPH,?XSP + 1
        MOV     R0,#?V0 + 0
        LCALL   ?L_AND_X
        LCALL   ?Subroutine14 & 0xFFFF
//  569         {
//  570           break;
//  571         }
//  572       }
??CrossCallReturnLabel_16:
        JNZ     ??ZDNwkMgr_ProcessMgmtNwkUpdateReq_4
        INC     R1
        MOV     A,R1
        CLR     C
        SUBB    A,#0x1b
        JC      ??ZDNwkMgr_ProcessMgmtNwkUpdateReq_3
//  573 
//  574       if ( _NIB.nwkLogicalChannel != i )
??ZDNwkMgr_ProcessMgmtNwkUpdateReq_4:
        MOV     DPTR,#_NIB + 22
        MOVX    A,@DPTR
        XRL     A,R1
        JNZ     $+5
        LJMP    ??ZDNwkMgr_ProcessMgmtNwkUpdateReq_1 & 0xFFFF
//  575       {
//  576         ZDNwkMgr_NewChannel = i;
        MOV     A,R1
        MOV     DPTR,#ZDNwkMgr_NewChannel
        MOVX    @DPTR,A
//  577           
//  578         // Upon receipt of a Mgmt_NWK_Update_req with a change of channels, 
//  579         // the local network manager shall set a timer equal to the 
//  580         // nwkNetworkBroadcastDeliveryTime and shall switch channels upon 
//  581         // expiration of this timer.  Each node shall also increment the 
//  582         // nwkUpdateId parameter and also reset the total transmit count 
//  583         // and the transmit failure counters.  
//  584         osal_start_timerEx( ZDNwkMgr_TaskID, ZDNWKMGR_CHANNEL_CHANGE_EVT, 
//  585                             ZDNWKMGR_BCAST_DELIVERY_TIME );
        ; Setup parameters for call to function osal_start_timerEx
        MOV     DPTR,#_NIB + 7
        MOVX    A,@DPTR
        MOV     B,#0x64
        MUL     AB
        MOV     R4,A
        MOV     R5,B
        MOV     R2,#0x1
        LCALL   ?Subroutine8 & 0xFFFF
//  586       }
//  587     }
//  588   }
??CrossCallReturnLabel_29:
        LJMP    ??ZDNwkMgr_ProcessMgmtNwkUpdateReq_1 & 0xFFFF
//  589   else if ( Req.scanDuration == 0xFF )
??ZDNwkMgr_ProcessMgmtNwkUpdateReq_2:
        MOV     A,#-0x1
        XRL     A,R1
        JNZ     ??ZDNwkMgr_ProcessMgmtNwkUpdateReq_5
//  590   {
//  591     // Request is to change apsChannelMask and nwkManagerAddr
//  592     if ( Req.nwkUpdateId > _NIB.nwkUpdateId )
        MOV     A,#0x6
        LCALL   ?XSTACK_DISP0_8
        LCALL   ?Subroutine12 & 0xFFFF
??CrossCallReturnLabel_13:
        JC      $+5
        LJMP    ??ZDNwkMgr_ProcessMgmtNwkUpdateReq_1 & 0xFFFF
//  593     {
//  594       NLME_SetUpdateID(Req.nwkUpdateId); // Set the updateID in the beacon
        ; Setup parameters for call to function NLME_SetUpdateID
        LCALL   ??NLME_SetUpdateID?relay
//  595        
//  596       if ( ( Req.channelMask != 0 ) && ( _NIB.channelList != Req.channelMask ) )
        MOV     DPL,?XSP + 0
        MOV     DPH,?XSP + 1
        MOV     R0,#?V0 + 0
        LCALL   ?L_MOV_X
        LCALL   ?Subroutine14 & 0xFFFF
??CrossCallReturnLabel_17:
        JZ      ??ZDNwkMgr_ProcessMgmtNwkUpdateReq_6
        MOV     DPL,?XSP + 0
        MOV     DPH,?XSP + 1
        MOV     R0,#?V0 + 0
        LCALL   ?L_MOV_X
        MOV     DPH,#((_NIB + 36) >> 8) & 0xff
        MOV     DPL,#(_NIB + 36) & 0xff
        MOV     R0,#?V0 + 0
        LCALL   ?L_EQ_X
        JZ      ??ZDNwkMgr_ProcessMgmtNwkUpdateReq_6
//  597       {
//  598         _NIB.channelList = Req.channelMask;
        MOV     DPL,?XSP + 0
        MOV     DPH,?XSP + 1
        LCALL   ?XLOAD_R2345
        MOV     DPTR,#_NIB + 36
        LCALL   ?XSTORE_R2345
//  599       
//  600         // Our Channel List has been changed -- notify to save info into NV
//  601         ZDApp_NwkStateUpdateCB();
        ; Setup parameters for call to function ZDApp_NwkStateUpdateCB
        LCALL   ??ZDApp_NwkStateUpdateCB?relay
//  602       }
//  603     
//  604       ZDNwkMgr_SetNwkManagerAddr( Req.nwkManagerAddr );
??ZDNwkMgr_ProcessMgmtNwkUpdateReq_6:
        ; Setup parameters for call to function ZDNwkMgr_SetNwkManagerAddr
        MOV     A,#0x7
        LCALL   ?XSTACK_DISP0_8
        LCALL   ?Subroutine11 & 0xFFFF
//  605     }
//  606   }
??CrossCallReturnLabel_10:
        SJMP    ??ZDNwkMgr_ProcessMgmtNwkUpdateReq_1
//  607   else // 0x06-0xFD
//  608   {
//  609     // Request is invalid
//  610     if ( !inMsg->wasBroadcast )
??ZDNwkMgr_ProcessMgmtNwkUpdateReq_5:
        LCALL   ?Subroutine16 & 0xFFFF
??CrossCallReturnLabel_25:
        JNZ     ??ZDNwkMgr_ProcessMgmtNwkUpdateReq_1
//  611     {
//  612       ZDNwkMgr_MgmtNwkUpdateNotifyAddr.addr.shortAddr = inMsg->srcAddr.addr.shortAddr;
        LCALL   ?Subroutine3 & 0xFFFF
//  613       ZDP_MgmtNwkUpdateNotify( inMsg->TransSeq, &ZDNwkMgr_MgmtNwkUpdateNotifyAddr,
//  614                                ZDP_INVALID_REQTYPE, 0, 0, 0, 0, NULL, AF_TX_OPTIONS_NONE, false );
??CrossCallReturnLabel_38:
        ; Setup parameters for call to function ZDP_MgmtNwkUpdateNotify
        MOV     ?V0 + 0,#0x0
        MOV     R0,#?V0 + 0
        LCALL   ?PUSH_XSTACK_I_ONE
        CFI CFA_XSP16 add(XSP16, 22)
        MOV     R0,#?V0 + 0
        LCALL   ?PUSH_XSTACK_I_ONE
        CFI CFA_XSP16 add(XSP16, 23)
        CLR     A
        MOV     ?V0 + 1,A
        MOV     R0,#?V0 + 0
        LCALL   ?PUSH_XSTACK_I_TWO
        CFI CFA_XSP16 add(XSP16, 25)
        MOV     R0,#?V0 + 0
        LCALL   ?PUSH_XSTACK_I_TWO
        CFI CFA_XSP16 add(XSP16, 27)
        MOV     R0,#?V0 + 0
        LCALL   ?PUSH_XSTACK_I_TWO
        CFI CFA_XSP16 add(XSP16, 29)
        MOV     DPTR,#__Constant_0
        LCALL   ?PUSH_XSTACK8_X_FOUR
        CFI CFA_XSP16 add(XSP16, 33)
        MOV     R5,#0x0
        MOV     R4,#-0x80
        MOV     R2,#ZDNwkMgr_MgmtNwkUpdateNotifyAddr & 0xff
        MOV     R3,#(ZDNwkMgr_MgmtNwkUpdateNotifyAddr >> 8) & 0xff
        MOV     DPL,?V0 + 2
        MOV     DPH,?V0 + 3
        MOVX    A,@DPTR
        MOV     R1,A
        LCALL   ??ZDP_MgmtNwkUpdateNotify?relay
        MOV     A,#0xc
        LCALL   ?DEALLOC_XSTACK8
        CFI CFA_XSP16 add(XSP16, 21)
//  615     }
//  616   }
//  617 }
??ZDNwkMgr_ProcessMgmtNwkUpdateReq_1:
        MOV     A,#0x9
        LCALL   ?DEALLOC_XSTACK8
        CFI EndBlock cfiBlock12
        REQUIRE ?Subroutine1
        ; // Fall through to label ?Subroutine1

        RSEG BANKED_CODE:CODE:NOROOT(0)
?Subroutine1:
        CFI Block cfiBlock13 Using cfiCommon0
        CFI NoFunction
        CFI CFA_SP SP+0
        CFI CFA_XSP16 add(XSP16, 12)
        CFI VB load(1, XDATA, add(CFA_XSP16, literal(-11)))
        CFI DPL0 load(1, XDATA, add(CFA_XSP16, literal(-2)))
        CFI DPH0 load(1, XDATA, add(CFA_XSP16, literal(-1)))
        CFI R6 load(1, XDATA, add(CFA_XSP16, literal(-12)))
        CFI R7 load(1, XDATA, add(CFA_XSP16, literal(-6)))
        CFI V0 load(1, XDATA, add(CFA_XSP16, literal(-10)))
        CFI V1 load(1, XDATA, add(CFA_XSP16, literal(-9)))
        CFI V2 load(1, XDATA, add(CFA_XSP16, literal(-8)))
        CFI V3 load(1, XDATA, add(CFA_XSP16, literal(-7)))
        CFI ?BRET_EXT load(1, XDATA, add(CFA_XSP16, literal(-3)))
        CFI ?RET_HIGH load(1, XDATA, add(CFA_XSP16, literal(-4)))
        CFI ?RET_LOW load(1, XDATA, add(CFA_XSP16, literal(-5)))
        MOV     R7,#0x4
        LJMP    ?BANKED_LEAVE_XDATA
        CFI EndBlock cfiBlock13

        RSEG BANKED_CODE:CODE:NOROOT(0)
?Subroutine16:
        CFI Block cfiCond14 Using cfiCommon0
        CFI NoFunction
        CFI Conditional ??CrossCallReturnLabel_24
        CFI R6 load(1, XDATA, add(CFA_XSP16, literal(-12)))
        CFI VB load(1, XDATA, add(CFA_XSP16, literal(-11)))
        CFI V0 load(1, XDATA, add(CFA_XSP16, literal(-10)))
        CFI V1 load(1, XDATA, add(CFA_XSP16, literal(-9)))
        CFI V2 load(1, XDATA, add(CFA_XSP16, literal(-8)))
        CFI V3 load(1, XDATA, add(CFA_XSP16, literal(-7)))
        CFI R7 load(1, XDATA, add(CFA_XSP16, literal(-6)))
        CFI ?RET_LOW load(1, XDATA, add(CFA_XSP16, literal(-5)))
        CFI ?RET_HIGH load(1, XDATA, add(CFA_XSP16, literal(-4)))
        CFI ?BRET_EXT load(1, XDATA, add(CFA_XSP16, literal(-3)))
        CFI DPL0 load(1, XDATA, add(CFA_XSP16, literal(-2)))
        CFI DPH0 load(1, XDATA, add(CFA_XSP16, literal(-1)))
        CFI CFA_SP SP+0
        CFI CFA_XSP16 add(XSP16, 21)
        CFI Block cfiCond15 Using cfiCommon0
        CFI (cfiCond15) NoFunction
        CFI (cfiCond15) Conditional ??CrossCallReturnLabel_25
        CFI (cfiCond15) R6 load(1, XDATA, add(CFA_XSP16, literal(-12)))
        CFI (cfiCond15) VB load(1, XDATA, add(CFA_XSP16, literal(-11)))
        CFI (cfiCond15) V0 load(1, XDATA, add(CFA_XSP16, literal(-10)))
        CFI (cfiCond15) V1 load(1, XDATA, add(CFA_XSP16, literal(-9)))
        CFI (cfiCond15) V2 load(1, XDATA, add(CFA_XSP16, literal(-8)))
        CFI (cfiCond15) V3 load(1, XDATA, add(CFA_XSP16, literal(-7)))
        CFI (cfiCond15) R7 load(1, XDATA, add(CFA_XSP16, literal(-6)))
        CFI (cfiCond15) ?RET_LOW load(1, XDATA, add(CFA_XSP16, literal(-5)))
        CFI (cfiCond15) ?RET_HIGH load(1, XDATA, add(CFA_XSP16, literal(-4)))
        CFI (cfiCond15) ?BRET_EXT load(1, XDATA, add(CFA_XSP16, literal(-3)))
        CFI (cfiCond15) DPL0 load(1, XDATA, add(CFA_XSP16, literal(-2)))
        CFI (cfiCond15) DPH0 load(1, XDATA, add(CFA_XSP16, literal(-1)))
        CFI (cfiCond15) CFA_SP SP+0
        CFI (cfiCond15) CFA_XSP16 add(XSP16, 21)
        CFI Block cfiPicker16 Using cfiCommon1
        CFI (cfiPicker16) NoFunction
        CFI (cfiPicker16) Picker
        MOV     A,R6
        ADD     A,#0xb
        MOV     DPL,A
        MOV     A,R7
        ADDC    A,#0x0
        MOV     DPH,A
        MOVX    A,@DPTR
        RET
        CFI EndBlock cfiCond14
        CFI EndBlock cfiCond15
        CFI EndBlock cfiPicker16

        RSEG BANKED_CODE:CODE:NOROOT(0)
?Subroutine12:
        CFI Block cfiCond17 Using cfiCommon0
        CFI NoFunction
        CFI Conditional ??CrossCallReturnLabel_12
        CFI R6 load(1, XDATA, add(CFA_XSP16, literal(-12)))
        CFI VB load(1, XDATA, add(CFA_XSP16, literal(-11)))
        CFI V0 load(1, XDATA, add(CFA_XSP16, literal(-10)))
        CFI V1 load(1, XDATA, add(CFA_XSP16, literal(-9)))
        CFI V2 load(1, XDATA, add(CFA_XSP16, literal(-8)))
        CFI V3 load(1, XDATA, add(CFA_XSP16, literal(-7)))
        CFI R7 load(1, XDATA, add(CFA_XSP16, literal(-6)))
        CFI ?RET_LOW load(1, XDATA, add(CFA_XSP16, literal(-5)))
        CFI ?RET_HIGH load(1, XDATA, add(CFA_XSP16, literal(-4)))
        CFI ?BRET_EXT load(1, XDATA, add(CFA_XSP16, literal(-3)))
        CFI DPL0 load(1, XDATA, add(CFA_XSP16, literal(-2)))
        CFI DPH0 load(1, XDATA, add(CFA_XSP16, literal(-1)))
        CFI CFA_SP SP+0
        CFI CFA_XSP16 add(XSP16, 21)
        CFI Block cfiCond18 Using cfiCommon0
        CFI (cfiCond18) NoFunction
        CFI (cfiCond18) Conditional ??CrossCallReturnLabel_13
        CFI (cfiCond18) R6 load(1, XDATA, add(CFA_XSP16, literal(-12)))
        CFI (cfiCond18) VB load(1, XDATA, add(CFA_XSP16, literal(-11)))
        CFI (cfiCond18) V0 load(1, XDATA, add(CFA_XSP16, literal(-10)))
        CFI (cfiCond18) V1 load(1, XDATA, add(CFA_XSP16, literal(-9)))
        CFI (cfiCond18) V2 load(1, XDATA, add(CFA_XSP16, literal(-8)))
        CFI (cfiCond18) V3 load(1, XDATA, add(CFA_XSP16, literal(-7)))
        CFI (cfiCond18) R7 load(1, XDATA, add(CFA_XSP16, literal(-6)))
        CFI (cfiCond18) ?RET_LOW load(1, XDATA, add(CFA_XSP16, literal(-5)))
        CFI (cfiCond18) ?RET_HIGH load(1, XDATA, add(CFA_XSP16, literal(-4)))
        CFI (cfiCond18) ?BRET_EXT load(1, XDATA, add(CFA_XSP16, literal(-3)))
        CFI (cfiCond18) DPL0 load(1, XDATA, add(CFA_XSP16, literal(-2)))
        CFI (cfiCond18) DPH0 load(1, XDATA, add(CFA_XSP16, literal(-1)))
        CFI (cfiCond18) CFA_SP SP+0
        CFI (cfiCond18) CFA_XSP16 add(XSP16, 21)
        CFI Block cfiPicker19 Using cfiCommon1
        CFI (cfiPicker19) NoFunction
        CFI (cfiPicker19) Picker
        MOVX    A,@DPTR
        MOV     R1,A
        MOV     DPTR,#_NIB + 109
        MOVX    A,@DPTR
        CLR     C
        SUBB    A,R1
        RET
        CFI EndBlock cfiCond17
        CFI EndBlock cfiCond18
        CFI EndBlock cfiPicker19
//  618 
//  619 /*********************************************************************
//  620  * @fn      ZDNwkMgr_ProcessServerDiscRsp
//  621  *
//  622  * @brief   Process the incoming System Server Discovery Response
//  623  *
//  624  * @param   pRsp - Structure containing Server Discovery response
//  625  *
//  626  * @return  none
//  627  */

        RSEG BANKED_CODE:CODE:NOROOT(0)
//  628 void ZDNwkMgr_ProcessServerDiscRsp( zdoIncomingMsg_t *inMsg )
ZDNwkMgr_ProcessServerDiscRsp:
        CFI Block cfiBlock20 Using cfiCommon0
        CFI Function ZDNwkMgr_ProcessServerDiscRsp
        CODE
//  629 {
        FUNCALL ZDNwkMgr_ProcessServerDiscRsp, ZDO_ParseServerDiscRsp
        LOCFRAME ISTACK, 0, STACK
        LOCFRAME PSTACK, 0, STACK
        LOCFRAME XSTACK, 12, STACK
        LOCFRAME IOVERLAY, 0, STATIC
        LOCFRAME DOVERLAY, 0, STATIC
        ARGFRAME ISTACK, 0, STACK
        ARGFRAME PSTACK, 0, STACK
        ARGFRAME XSTACK, 12, STACK
        ARGFRAME IOVERLAY, 0, STATIC
        ARGFRAME DOVERLAY, 0, STATIC
        FUNCALL ZDNwkMgr_ProcessServerDiscRsp, ZDNwkMgr_SetNwkManagerAddr
        LOCFRAME ISTACK, 0, STACK
        LOCFRAME PSTACK, 0, STACK
        LOCFRAME XSTACK, 12, STACK
        LOCFRAME IOVERLAY, 0, STATIC
        LOCFRAME DOVERLAY, 0, STATIC
        ARGFRAME ISTACK, 0, STACK
        ARGFRAME PSTACK, 0, STACK
        ARGFRAME XSTACK, 12, STACK
        ARGFRAME IOVERLAY, 0, STATIC
        ARGFRAME DOVERLAY, 0, STATIC
        MOV     A,#-0x9
        LCALL   ?BANKED_ENTER_XDATA
        CFI DPH0 load(1, XDATA, add(CFA_XSP16, literal(-1)))
        CFI DPL0 load(1, XDATA, add(CFA_XSP16, literal(-2)))
        CFI ?BRET_EXT load(1, XDATA, add(CFA_XSP16, literal(-3)))
        CFI ?RET_HIGH load(1, XDATA, add(CFA_XSP16, literal(-4)))
        CFI ?RET_LOW load(1, XDATA, add(CFA_XSP16, literal(-5)))
        CFI R7 load(1, XDATA, add(CFA_XSP16, literal(-6)))
        CFI V0 load(1, XDATA, add(CFA_XSP16, literal(-7)))
        CFI VB load(1, XDATA, add(CFA_XSP16, literal(-8)))
        CFI R6 load(1, XDATA, add(CFA_XSP16, literal(-9)))
        CFI CFA_SP SP+0
        CFI CFA_XSP16 add(XSP16, 9)
        ; Saved register size: 9
        ; Auto size: 3
        MOV     A,#-0x3
        LCALL   ?ALLOC_XSTACK8
        CFI CFA_XSP16 add(XSP16, 12)
        MOV     A,R2
        MOV     R6,A
        MOV     A,R3
        MOV     R7,A
//  630   ZDO_ServerDiscRsp_t Rsp;
//  631   
//  632   ZDO_ParseServerDiscRsp( inMsg, &Rsp );
        ; Setup parameters for call to function ZDO_ParseServerDiscRsp
        MOV     DPL,?XSP + 0
        MOV     DPH,?XSP + 1
        MOV     R4,DPL
        MOV     R5,DPH
        LCALL   ??ZDO_ParseServerDiscRsp?relay
//  633   
//  634   if ( Rsp.status == ZSuccess )
        MOV     DPL,?XSP + 0
        MOV     DPH,?XSP + 1
        MOVX    A,@DPTR
        JNZ     ??CrossCallReturnLabel_11
//  635   {
//  636     // Is the Network Manager bit set in the response?
//  637     if ( Rsp.serverMask & NETWORK_MANAGER )
        MOV     A,#0x1
        LCALL   ?XSTACK_DISP0_8
        MOVX    A,@DPTR
        ANL     A,#0x40
        JZ      ??CrossCallReturnLabel_11
//  638     {
//  639       // Set the Remote Device's NWK Address as the Network Manager Address
//  640       ZDNwkMgr_SetNwkManagerAddr( inMsg->srcAddr.addr.shortAddr );
        ; Setup parameters for call to function ZDNwkMgr_SetNwkManagerAddr
        MOV     DPL,R6
        MOV     DPH,R7
        INC     DPTR
        INC     DPTR
        LCALL   ?Subroutine11 & 0xFFFF
//  641     }
//  642   }
//  643 }
??CrossCallReturnLabel_11:
        MOV     A,#0x3
        LCALL   ?DEALLOC_XSTACK8
        CFI CFA_XSP16 add(XSP16, 9)
        LJMP    ?Subroutine0 & 0xFFFF
        CFI EndBlock cfiBlock20

        RSEG BANKED_CODE:CODE:NOROOT(0)
?Subroutine11:
        CFI Block cfiCond21 Using cfiCommon0
        CFI NoFunction
        CFI Conditional ??CrossCallReturnLabel_10
        CFI R6 load(1, XDATA, add(CFA_XSP16, literal(-12)))
        CFI VB load(1, XDATA, add(CFA_XSP16, literal(-11)))
        CFI V0 load(1, XDATA, add(CFA_XSP16, literal(-10)))
        CFI V1 load(1, XDATA, add(CFA_XSP16, literal(-9)))
        CFI V2 load(1, XDATA, add(CFA_XSP16, literal(-8)))
        CFI V3 load(1, XDATA, add(CFA_XSP16, literal(-7)))
        CFI R7 load(1, XDATA, add(CFA_XSP16, literal(-6)))
        CFI ?RET_LOW load(1, XDATA, add(CFA_XSP16, literal(-5)))
        CFI ?RET_HIGH load(1, XDATA, add(CFA_XSP16, literal(-4)))
        CFI ?BRET_EXT load(1, XDATA, add(CFA_XSP16, literal(-3)))
        CFI DPL0 load(1, XDATA, add(CFA_XSP16, literal(-2)))
        CFI DPH0 load(1, XDATA, add(CFA_XSP16, literal(-1)))
        CFI CFA_SP SP+0
        CFI CFA_XSP16 add(XSP16, 21)
        CFI Block cfiCond22 Using cfiCommon0
        CFI (cfiCond22) NoFunction
        CFI (cfiCond22) Conditional ??CrossCallReturnLabel_11
        CFI (cfiCond22) R6 load(1, XDATA, add(CFA_XSP16, literal(-9)))
        CFI (cfiCond22) VB load(1, XDATA, add(CFA_XSP16, literal(-8)))
        CFI (cfiCond22) V0 load(1, XDATA, add(CFA_XSP16, literal(-7)))
        CFI (cfiCond22) R7 load(1, XDATA, add(CFA_XSP16, literal(-6)))
        CFI (cfiCond22) ?RET_LOW load(1, XDATA, add(CFA_XSP16, literal(-5)))
        CFI (cfiCond22) ?RET_HIGH load(1, XDATA, add(CFA_XSP16, literal(-4)))
        CFI (cfiCond22) ?BRET_EXT load(1, XDATA, add(CFA_XSP16, literal(-3)))
        CFI (cfiCond22) DPL0 load(1, XDATA, add(CFA_XSP16, literal(-2)))
        CFI (cfiCond22) DPH0 load(1, XDATA, add(CFA_XSP16, literal(-1)))
        CFI (cfiCond22) CFA_SP SP+0
        CFI (cfiCond22) CFA_XSP16 add(XSP16, 12)
        CFI Block cfiPicker23 Using cfiCommon1
        CFI (cfiPicker23) NoFunction
        CFI (cfiPicker23) Picker
        MOVX    A,@DPTR
        MOV     R2,A
        INC     DPTR
        MOVX    A,@DPTR
        MOV     R3,A
        LCALL   ??ZDNwkMgr_SetNwkManagerAddr?relay
        RET
        CFI EndBlock cfiCond21
        CFI EndBlock cfiCond22
        CFI EndBlock cfiPicker23
//  644 
//  645 /*********************************************************************
//  646  * @fn          ZDNwkMgr_ProcessChannelInterference
//  647  *
//  648  * @brief       This function processes the incoming Channel Interference
//  649  *              detection message and sends out a notify (if needed).
//  650  *
//  651  * @param       pChannelInterference - interference message
//  652  *
//  653  * @return      none
//  654  */
//  655 static void ZDNwkMgr_ProcessChannelInterference( ZDNwkMgr_ChanInterference_t *pChanInterference )
//  656 {
//  657   // To avoid a device with communication problems from constantly 
//  658   // sending reports to the network manager, the device should not 
//  659   // send a Mgmt_NWK_Update_notify more than 4 times per hour.
//  660   if ( ZDNwkMgr_NumUpdateNotifySent < 4 )
//  661   {
//  662     // Conduct an energy scan on all channels.
//  663     if ( NLME_EDScanRequest( MAX_CHANNELS_24GHZ, _NIB.scanDuration ) == ZSuccess )
//  664     {
//  665       // Save the counters for the Update Notify message to be sent
//  666       ZDNwkMgr_TotalTransmissions = pChanInterference->totalTransmissions;
//  667       ZDNwkMgr_TxFailures = pChanInterference->txFailures;
//  668 
//  669       // Mark scan as channel inetrference check
//  670       ZDNwkMgr_MgmtNwkUpdateReq.scanCount = 0xFF;
//  671     }
//  672   }
//  673 }
//  674 
//  675 /*********************************************************************
//  676  * @fn          ZDNwkMgr_ProcessEDScanConfirm
//  677  *
//  678  * @brief       This function processes the incoming ED Scan Confirm
//  679  *              message and sends out a notify (if needed).
//  680  *
//  681  * @param       pEDScanConfirm - SD Scan Confirmation message
//  682  *
//  683  * @return      none
//  684  */
//  685 static void ZDNwkMgr_ProcessEDScanConfirm( ZDNwkMgr_EDScanConfirm_t *pEDScanConfirm )
//  686 { 
//  687   if ( ZDNwkMgr_MgmtNwkUpdateReq.scanCount == 0xFF )
//  688   {
//  689     // Confirm to scan all channels for channel interference check
//  690     ZDNwkMgr_CheckForChannelInterference( pEDScanConfirm ); 
//  691     
//  692     ZDNwkMgr_MgmtNwkUpdateReq.scanCount = 0;
//  693   }
//  694   else
//  695   {
//  696     // Confirm to the requested scan
//  697     uint16 txFailures = nwkTransmissionFailures( FALSE );
//  698     
//  699     ZDNwkMgr_BuildAndSendUpdateNotify( ZDNwkMgr_MgmtNwkUpdateNotifyTransSeq,
//  700                                        &ZDNwkMgr_MgmtNwkUpdateNotifyAddr, 
//  701                                        _NIB.nwkTotalTransmissions, txFailures, 
//  702                                        pEDScanConfirm, AF_TX_OPTIONS_NONE );
//  703     // More scans needed?
//  704     if ( ZDNwkMgr_MgmtNwkUpdateReq.scanCount > 0 )
//  705     {
//  706       osal_start_timerEx( ZDNwkMgr_TaskID, ZDNWKMGR_SCAN_REQUEST_EVT, 50 );
//  707     }
//  708   }
//  709 }
//  710 
//  711 /*********************************************************************
//  712  * @fn          ZDNwkMgr_CheckForChannelInterference
//  713  *
//  714  * @brief       This function processes the incoming ED Scan Confirm
//  715  *              message and sends out an Update Notify (if needed).
//  716  *
//  717  * @param       pEDScanConfirm - SD Scan Confirmation message
//  718  *
//  719  * @return      none
//  720  */

        RSEG BANKED_CODE:CODE:NOROOT(0)
//  721 static void ZDNwkMgr_CheckForChannelInterference( ZDNwkMgr_EDScanConfirm_t *pEDScanConfirm )
ZDNwkMgr_CheckForChannelInterference:
        CFI Block cfiBlock24 Using cfiCommon0
        CFI Function ZDNwkMgr_CheckForChannelInterference
        CODE
//  722 {
        FUNCALL ZDNwkMgr_CheckForChannelInterference, ZDNwkMgr_BuildAndSendUpdateNotify
        LOCFRAME ISTACK, 0, STACK
        LOCFRAME PSTACK, 0, STACK
        LOCFRAME XSTACK, 17, STACK
        LOCFRAME IOVERLAY, 0, STATIC
        LOCFRAME DOVERLAY, 0, STATIC
        ARGFRAME ISTACK, 0, STACK
        ARGFRAME PSTACK, 0, STACK
        ARGFRAME XSTACK, 17, STACK
        ARGFRAME IOVERLAY, 0, STATIC
        ARGFRAME DOVERLAY, 0, STATIC
        FUNCALL ZDNwkMgr_CheckForChannelInterference, osal_start_timerEx
        LOCFRAME ISTACK, 0, STACK
        LOCFRAME PSTACK, 0, STACK
        LOCFRAME XSTACK, 12, STACK
        LOCFRAME IOVERLAY, 0, STATIC
        LOCFRAME DOVERLAY, 0, STATIC
        ARGFRAME ISTACK, 0, STACK
        ARGFRAME PSTACK, 0, STACK
        ARGFRAME XSTACK, 12, STACK
        ARGFRAME IOVERLAY, 0, STATIC
        ARGFRAME DOVERLAY, 0, STATIC
        FUNCALL ZDNwkMgr_CheckForChannelInterference, HalLcdWriteString
        LOCFRAME ISTACK, 0, STACK
        LOCFRAME PSTACK, 0, STACK
        LOCFRAME XSTACK, 12, STACK
        LOCFRAME IOVERLAY, 0, STATIC
        LOCFRAME DOVERLAY, 0, STATIC
        ARGFRAME ISTACK, 0, STACK
        ARGFRAME PSTACK, 0, STACK
        ARGFRAME XSTACK, 12, STACK
        ARGFRAME IOVERLAY, 0, STATIC
        ARGFRAME DOVERLAY, 0, STATIC
        FUNCALL ZDNwkMgr_CheckForChannelInterference, HalLcdWriteStringValueValue
        LOCFRAME ISTACK, 0, STACK
        LOCFRAME PSTACK, 0, STACK
        LOCFRAME XSTACK, 16, STACK
        LOCFRAME IOVERLAY, 0, STATIC
        LOCFRAME DOVERLAY, 0, STATIC
        ARGFRAME ISTACK, 0, STACK
        ARGFRAME PSTACK, 0, STACK
        ARGFRAME XSTACK, 16, STACK
        ARGFRAME IOVERLAY, 0, STATIC
        ARGFRAME DOVERLAY, 0, STATIC
        MOV     A,#-0xc
        LCALL   ?BANKED_ENTER_XDATA
        CFI DPH0 load(1, XDATA, add(CFA_XSP16, literal(-1)))
        CFI DPL0 load(1, XDATA, add(CFA_XSP16, literal(-2)))
        CFI ?BRET_EXT load(1, XDATA, add(CFA_XSP16, literal(-3)))
        CFI ?RET_HIGH load(1, XDATA, add(CFA_XSP16, literal(-4)))
        CFI ?RET_LOW load(1, XDATA, add(CFA_XSP16, literal(-5)))
        CFI R7 load(1, XDATA, add(CFA_XSP16, literal(-6)))
        CFI V3 load(1, XDATA, add(CFA_XSP16, literal(-7)))
        CFI V2 load(1, XDATA, add(CFA_XSP16, literal(-8)))
        CFI V1 load(1, XDATA, add(CFA_XSP16, literal(-9)))
        CFI V0 load(1, XDATA, add(CFA_XSP16, literal(-10)))
        CFI VB load(1, XDATA, add(CFA_XSP16, literal(-11)))
        CFI R6 load(1, XDATA, add(CFA_XSP16, literal(-12)))
        CFI CFA_SP SP+0
        CFI CFA_XSP16 add(XSP16, 12)
        ; Saved register size: 12
        ; Auto size: 0
//  723   uint8 i;
//  724   uint8 channelEnergy = 0;
        MOV     R6,#0x0
//  725   uint8 energyIncreased = FALSE;
//  726     
//  727   // Get the current channel energy
//  728   if ( ( (uint32)1 << _NIB.nwkLogicalChannel ) & pEDScanConfirm->scannedChannels )
        MOV     DPTR,#_NIB + 22
        MOVX    A,@DPTR
        MOV     R7,A
        MOV     A,R2
        ADD     A,#0x3
        MOV     R0,A
        MOV     A,R3
        ADDC    A,#0x0
        MOV     R1,A
        MOV     A,R0
        MOV     R4,A
        MOV     A,R1
        MOV     R5,A
        MOV     ?V0 + 0,#0x1
        MOV     ?V0 + 1,R6
        MOV     ?V0 + 2,R6
        MOV     ?V0 + 3,R6
        MOV     A,R7
        MOV     R0,#?V0 + 0
        LCALL   ?L_SHL
        MOV     DPL,R4
        MOV     DPH,R5
        MOV     R0,#?V0 + 0
        LCALL   ?L_AND_X
        LCALL   ?Subroutine14 & 0xFFFF
??CrossCallReturnLabel_18:
        JZ      ??ZDNwkMgr_CheckForChannelInterference_0
//  729   {
//  730     channelEnergy = pEDScanConfirm->energyDetectList[_NIB.nwkLogicalChannel];
        MOV     ?V0 + 0,R7
        LCALL   ?Subroutine15 & 0xFFFF
//  731   }
??CrossCallReturnLabel_22:
        MOV     R6,A
//  732     
//  733   // If this energy scan does not indicate higher energy on the current 
//  734   // channel then other channels, no action is taken. The device should 
//  735   // continue to operate as normal and the message counters are not reset.
//  736   for ( i = 0; i < ED_SCAN_MAXCHANNELS; i++ )
??ZDNwkMgr_CheckForChannelInterference_0:
        MOV     R1,#0x0
//  737   {
//  738     if ( ( ( (uint32)1 << i ) & pEDScanConfirm->scannedChannels ) && 
//  739          ( channelEnergy > pEDScanConfirm->energyDetectList[i] ) )
??ZDNwkMgr_CheckForChannelInterference_1:
        MOV     ?V0 + 0,#0x1
        MOV     ?V0 + 1,#0x0
        MOV     ?V0 + 2,#0x0
        MOV     ?V0 + 3,#0x0
        MOV     A,R1
        MOV     R0,#?V0 + 0
        LCALL   ?L_SHL
        MOV     DPL,R4
        MOV     DPH,R5
        MOV     R0,#?V0 + 0
        LCALL   ?L_AND_X
        LCALL   ?Subroutine14 & 0xFFFF
??CrossCallReturnLabel_19:
        JZ      ??ZDNwkMgr_CheckForChannelInterference_2
        MOV     ?V0 + 0,R1
        LCALL   ?Subroutine15 & 0xFFFF
??CrossCallReturnLabel_23:
        CLR     C
        SUBB    A,R6
        JNC     ??ZDNwkMgr_CheckForChannelInterference_2
//  740     {
//  741       energyIncreased = TRUE;
//  742       break;
//  743     }
//  744   }
//  745     
//  746   // If the energy scan does indicate increased energy on the channel
//  747   // in use, a Mgmt_NWK_Update_notify should be sent to the Network 
//  748   // Manager to indicate interference is present.
//  749   if ( energyIncreased )
//  750   {
//  751     // Send a Management Network Update notify to the Network Manager
//  752     ZDNwkMgr_MgmtNwkUpdateNotifyAddr.addr.shortAddr = _NIB.nwkManagerAddr;
        MOV     DPTR,#_NIB + 105
        LCALL   ??Subroutine20_0 & 0xFFFF
//  753     ZDNwkMgr_BuildAndSendUpdateNotify( 0, &ZDNwkMgr_MgmtNwkUpdateNotifyAddr, 
//  754                                        ZDNwkMgr_TotalTransmissions, ZDNwkMgr_TxFailures,
//  755                                        pEDScanConfirm, AF_MSG_ACK_REQUEST );
??CrossCallReturnLabel_36:
        ; Setup parameters for call to function ZDNwkMgr_BuildAndSendUpdateNotify
        MOV     ?V0 + 0,#0x10
        MOV     R0,#?V0 + 0
        LCALL   ?PUSH_XSTACK_I_ONE
        CFI CFA_XSP16 add(XSP16, 13)
        MOV     ?V0 + 0,R2
        MOV     ?V0 + 1,R3
        MOV     R0,#?V0 + 0
        LCALL   ?PUSH_XSTACK_I_TWO
        CFI CFA_XSP16 add(XSP16, 15)
        MOV     DPTR,#ZDNwkMgr_TxFailures
        LCALL   ?PUSH_XSTACK8_X_TWO
        CFI CFA_XSP16 add(XSP16, 17)
        MOV     DPTR,#ZDNwkMgr_TotalTransmissions
        LCALL   ?Subroutine10 & 0xFFFF
??CrossCallReturnLabel_9:
        MOV     R1,#0x0
        LCALL   ??ZDNwkMgr_BuildAndSendUpdateNotify?relay
        MOV     A,#0x5
        LCALL   ?DEALLOC_XSTACK8
        CFI CFA_XSP16 add(XSP16, 12)
//  756     ZDNwkMgr_WaitingForNotifyConfirm = TRUE; // Confirm will clear the counters
        MOV     DPTR,#ZDNwkMgr_WaitingForNotifyConfirm
        MOV     A,#0x1
        MOVX    @DPTR,A
//  757       
//  758     if ( ZDNwkMgr_NumUpdateNotifySent == 0 )
        MOV     DPTR,#ZDNwkMgr_NumUpdateNotifySent
        MOVX    A,@DPTR
        JNZ     ??CrossCallReturnLabel_30
//  759     {
//  760       // First notify message sent within this hour. Start the Update Notify timer.
//  761       ZDNwkMgr_UpdateNotifyTimer = ZDNWKMGR_UPDATE_NOTIFY_TIMER;
        MOV     DPTR,#ZDNwkMgr_UpdateNotifyTimer
        MOV     A,#0x3c
        MOVX    @DPTR,A
        INC     DPTR
        CLR     A
        MOVX    @DPTR,A
//  762       osal_start_timerEx( ZDNwkMgr_TaskID, ZDNWKMGR_UPDATE_NOTIFY_EVT, ONE_MINUTE );
        ; Setup parameters for call to function osal_start_timerEx
        MOV     R4,#0x60
        MOV     R5,#-0x16
        MOV     R2,#0x2
        MOV     R3,A
        LCALL   ??Subroutine19_0 & 0xFFFF
//  763     }
//  764     
//  765     ZDNwkMgr_NumUpdateNotifySent++;
??CrossCallReturnLabel_30:
        MOV     DPTR,#ZDNwkMgr_NumUpdateNotifySent
        MOVX    A,@DPTR
        INC     A
        MOVX    @DPTR,A
        SJMP    ??ZDNwkMgr_CheckForChannelInterference_3
//  766   }
??ZDNwkMgr_CheckForChannelInterference_2:
        INC     R1
        MOV     A,R1
        CLR     C
        SUBB    A,#0x1b
        JNC     $+5
        LJMP    ??ZDNwkMgr_CheckForChannelInterference_1 & 0xFFFF
//  767 #if defined ( LCD_SUPPORTED )
//  768   else
//  769   {
//  770     HalLcdWriteString( (char*)NwkMgrStr_4, HAL_LCD_LINE_1 );
        ; Setup parameters for call to function HalLcdWriteString
        MOV     R1,#0x1
        MOV     R2,#NwkMgrStr_4 & 0xff
        MOV     R3,#(NwkMgrStr_4 >> 8) & 0xff
        LCALL   ??HalLcdWriteString?relay
//  771     HalLcdWriteStringValueValue( ": ", _NIB.nwkLogicalChannel, 10, channelEnergy, 10, HAL_LCD_LINE_2 );
        ; Setup parameters for call to function HalLcdWriteStringValueValue
        MOV     ?V0 + 0,#0x2
        MOV     R0,#?V0 + 0
        LCALL   ?PUSH_XSTACK_I_ONE
        CFI CFA_XSP16 add(XSP16, 13)
        MOV     ?V0 + 0,#0xa
        MOV     R0,#?V0 + 0
        LCALL   ?PUSH_XSTACK_I_ONE
        CFI CFA_XSP16 add(XSP16, 14)
        MOV     ?V0 + 0,R6
        MOV     ?V0 + 1,#0x0
        MOV     R0,#?V0 + 0
        LCALL   ?PUSH_XSTACK_I_TWO
        CFI CFA_XSP16 add(XSP16, 16)
        MOV     R1,#0xa
        MOV     DPTR,#_NIB + 22
        MOVX    A,@DPTR
        MOV     R4,A
        MOV     R5,#0x0
        MOV     R2,#`?<Constant ": ">` & 0xff
        MOV     R3,#(`?<Constant ": ">` >> 8) & 0xff
        LCALL   ??HalLcdWriteStringValueValue?relay
        MOV     A,#0x4
        LCALL   ?DEALLOC_XSTACK8
        CFI CFA_XSP16 add(XSP16, 12)
//  772   }
//  773 #endif
//  774 }
??ZDNwkMgr_CheckForChannelInterference_3:
        LJMP    ?Subroutine1 & 0xFFFF
        CFI EndBlock cfiBlock24

        RSEG BANKED_CODE:CODE:NOROOT(0)
?Subroutine15:
        CFI Block cfiCond25 Using cfiCommon0
        CFI NoFunction
        CFI Conditional ??CrossCallReturnLabel_22
        CFI R6 load(1, XDATA, add(CFA_XSP16, literal(-12)))
        CFI VB load(1, XDATA, add(CFA_XSP16, literal(-11)))
        CFI V0 load(1, XDATA, add(CFA_XSP16, literal(-10)))
        CFI V1 load(1, XDATA, add(CFA_XSP16, literal(-9)))
        CFI V2 load(1, XDATA, add(CFA_XSP16, literal(-8)))
        CFI V3 load(1, XDATA, add(CFA_XSP16, literal(-7)))
        CFI R7 load(1, XDATA, add(CFA_XSP16, literal(-6)))
        CFI ?RET_LOW load(1, XDATA, add(CFA_XSP16, literal(-5)))
        CFI ?RET_HIGH load(1, XDATA, add(CFA_XSP16, literal(-4)))
        CFI ?BRET_EXT load(1, XDATA, add(CFA_XSP16, literal(-3)))
        CFI DPL0 load(1, XDATA, add(CFA_XSP16, literal(-2)))
        CFI DPH0 load(1, XDATA, add(CFA_XSP16, literal(-1)))
        CFI CFA_SP SP+0
        CFI CFA_XSP16 add(XSP16, 12)
        CFI Block cfiCond26 Using cfiCommon0
        CFI (cfiCond26) NoFunction
        CFI (cfiCond26) Conditional ??CrossCallReturnLabel_23
        CFI (cfiCond26) R6 load(1, XDATA, add(CFA_XSP16, literal(-12)))
        CFI (cfiCond26) VB load(1, XDATA, add(CFA_XSP16, literal(-11)))
        CFI (cfiCond26) V0 load(1, XDATA, add(CFA_XSP16, literal(-10)))
        CFI (cfiCond26) V1 load(1, XDATA, add(CFA_XSP16, literal(-9)))
        CFI (cfiCond26) V2 load(1, XDATA, add(CFA_XSP16, literal(-8)))
        CFI (cfiCond26) V3 load(1, XDATA, add(CFA_XSP16, literal(-7)))
        CFI (cfiCond26) R7 load(1, XDATA, add(CFA_XSP16, literal(-6)))
        CFI (cfiCond26) ?RET_LOW load(1, XDATA, add(CFA_XSP16, literal(-5)))
        CFI (cfiCond26) ?RET_HIGH load(1, XDATA, add(CFA_XSP16, literal(-4)))
        CFI (cfiCond26) ?BRET_EXT load(1, XDATA, add(CFA_XSP16, literal(-3)))
        CFI (cfiCond26) DPL0 load(1, XDATA, add(CFA_XSP16, literal(-2)))
        CFI (cfiCond26) DPH0 load(1, XDATA, add(CFA_XSP16, literal(-1)))
        CFI (cfiCond26) CFA_SP SP+0
        CFI (cfiCond26) CFA_XSP16 add(XSP16, 12)
        CFI Block cfiPicker27 Using cfiCommon1
        CFI (cfiPicker27) NoFunction
        CFI (cfiPicker27) Picker
        MOV     A,R2
        ADD     A,?V0 + 0
        MOV     DPL,A
        MOV     A,R3
        ADDC    A,#0x0
        MOV     DPH,A
        INC     DPTR
        INC     DPTR
        INC     DPTR
        INC     DPTR
        INC     DPTR
        INC     DPTR
        INC     DPTR
        MOVX    A,@DPTR
        RET
        CFI EndBlock cfiCond25
        CFI EndBlock cfiCond26
        CFI EndBlock cfiPicker27

        RSEG BANKED_CODE:CODE:NOROOT(0)
?Subroutine14:
        CFI Block cfiCond28 Using cfiCommon0
        CFI NoFunction
        CFI Conditional ??CrossCallReturnLabel_16
        CFI R6 load(1, XDATA, add(CFA_XSP16, literal(-12)))
        CFI VB load(1, XDATA, add(CFA_XSP16, literal(-11)))
        CFI V0 load(1, XDATA, add(CFA_XSP16, literal(-10)))
        CFI V1 load(1, XDATA, add(CFA_XSP16, literal(-9)))
        CFI V2 load(1, XDATA, add(CFA_XSP16, literal(-8)))
        CFI V3 load(1, XDATA, add(CFA_XSP16, literal(-7)))
        CFI R7 load(1, XDATA, add(CFA_XSP16, literal(-6)))
        CFI ?RET_LOW load(1, XDATA, add(CFA_XSP16, literal(-5)))
        CFI ?RET_HIGH load(1, XDATA, add(CFA_XSP16, literal(-4)))
        CFI ?BRET_EXT load(1, XDATA, add(CFA_XSP16, literal(-3)))
        CFI DPL0 load(1, XDATA, add(CFA_XSP16, literal(-2)))
        CFI DPH0 load(1, XDATA, add(CFA_XSP16, literal(-1)))
        CFI CFA_SP SP+0
        CFI CFA_XSP16 add(XSP16, 21)
        CFI Block cfiCond29 Using cfiCommon0
        CFI (cfiCond29) NoFunction
        CFI (cfiCond29) Conditional ??CrossCallReturnLabel_17
        CFI (cfiCond29) R6 load(1, XDATA, add(CFA_XSP16, literal(-12)))
        CFI (cfiCond29) VB load(1, XDATA, add(CFA_XSP16, literal(-11)))
        CFI (cfiCond29) V0 load(1, XDATA, add(CFA_XSP16, literal(-10)))
        CFI (cfiCond29) V1 load(1, XDATA, add(CFA_XSP16, literal(-9)))
        CFI (cfiCond29) V2 load(1, XDATA, add(CFA_XSP16, literal(-8)))
        CFI (cfiCond29) V3 load(1, XDATA, add(CFA_XSP16, literal(-7)))
        CFI (cfiCond29) R7 load(1, XDATA, add(CFA_XSP16, literal(-6)))
        CFI (cfiCond29) ?RET_LOW load(1, XDATA, add(CFA_XSP16, literal(-5)))
        CFI (cfiCond29) ?RET_HIGH load(1, XDATA, add(CFA_XSP16, literal(-4)))
        CFI (cfiCond29) ?BRET_EXT load(1, XDATA, add(CFA_XSP16, literal(-3)))
        CFI (cfiCond29) DPL0 load(1, XDATA, add(CFA_XSP16, literal(-2)))
        CFI (cfiCond29) DPH0 load(1, XDATA, add(CFA_XSP16, literal(-1)))
        CFI (cfiCond29) CFA_SP SP+0
        CFI (cfiCond29) CFA_XSP16 add(XSP16, 21)
        CFI Block cfiCond30 Using cfiCommon0
        CFI (cfiCond30) NoFunction
        CFI (cfiCond30) Conditional ??CrossCallReturnLabel_18
        CFI (cfiCond30) R6 load(1, XDATA, add(CFA_XSP16, literal(-12)))
        CFI (cfiCond30) VB load(1, XDATA, add(CFA_XSP16, literal(-11)))
        CFI (cfiCond30) V0 load(1, XDATA, add(CFA_XSP16, literal(-10)))
        CFI (cfiCond30) V1 load(1, XDATA, add(CFA_XSP16, literal(-9)))
        CFI (cfiCond30) V2 load(1, XDATA, add(CFA_XSP16, literal(-8)))
        CFI (cfiCond30) V3 load(1, XDATA, add(CFA_XSP16, literal(-7)))
        CFI (cfiCond30) R7 load(1, XDATA, add(CFA_XSP16, literal(-6)))
        CFI (cfiCond30) ?RET_LOW load(1, XDATA, add(CFA_XSP16, literal(-5)))
        CFI (cfiCond30) ?RET_HIGH load(1, XDATA, add(CFA_XSP16, literal(-4)))
        CFI (cfiCond30) ?BRET_EXT load(1, XDATA, add(CFA_XSP16, literal(-3)))
        CFI (cfiCond30) DPL0 load(1, XDATA, add(CFA_XSP16, literal(-2)))
        CFI (cfiCond30) DPH0 load(1, XDATA, add(CFA_XSP16, literal(-1)))
        CFI (cfiCond30) CFA_SP SP+0
        CFI (cfiCond30) CFA_XSP16 add(XSP16, 12)
        CFI Block cfiCond31 Using cfiCommon0
        CFI (cfiCond31) NoFunction
        CFI (cfiCond31) Conditional ??CrossCallReturnLabel_19
        CFI (cfiCond31) R6 load(1, XDATA, add(CFA_XSP16, literal(-12)))
        CFI (cfiCond31) VB load(1, XDATA, add(CFA_XSP16, literal(-11)))
        CFI (cfiCond31) V0 load(1, XDATA, add(CFA_XSP16, literal(-10)))
        CFI (cfiCond31) V1 load(1, XDATA, add(CFA_XSP16, literal(-9)))
        CFI (cfiCond31) V2 load(1, XDATA, add(CFA_XSP16, literal(-8)))
        CFI (cfiCond31) V3 load(1, XDATA, add(CFA_XSP16, literal(-7)))
        CFI (cfiCond31) R7 load(1, XDATA, add(CFA_XSP16, literal(-6)))
        CFI (cfiCond31) ?RET_LOW load(1, XDATA, add(CFA_XSP16, literal(-5)))
        CFI (cfiCond31) ?RET_HIGH load(1, XDATA, add(CFA_XSP16, literal(-4)))
        CFI (cfiCond31) ?BRET_EXT load(1, XDATA, add(CFA_XSP16, literal(-3)))
        CFI (cfiCond31) DPL0 load(1, XDATA, add(CFA_XSP16, literal(-2)))
        CFI (cfiCond31) DPH0 load(1, XDATA, add(CFA_XSP16, literal(-1)))
        CFI (cfiCond31) CFA_SP SP+0
        CFI (cfiCond31) CFA_XSP16 add(XSP16, 12)
        CFI Block cfiCond32 Using cfiCommon0
        CFI (cfiCond32) NoFunction
        CFI (cfiCond32) Conditional ??CrossCallReturnLabel_20
        CFI (cfiCond32) R6 load(1, XDATA, add(CFA_XSP16, literal(-16)))
        CFI (cfiCond32) VB load(1, XDATA, add(CFA_XSP16, literal(-15)))
        CFI (cfiCond32) V0 load(1, XDATA, add(CFA_XSP16, literal(-14)))
        CFI (cfiCond32) V1 load(1, XDATA, add(CFA_XSP16, literal(-13)))
        CFI (cfiCond32) V2 load(1, XDATA, add(CFA_XSP16, literal(-12)))
        CFI (cfiCond32) V3 load(1, XDATA, add(CFA_XSP16, literal(-11)))
        CFI (cfiCond32) V4 load(1, XDATA, add(CFA_XSP16, literal(-10)))
        CFI (cfiCond32) V5 load(1, XDATA, add(CFA_XSP16, literal(-9)))
        CFI (cfiCond32) V6 load(1, XDATA, add(CFA_XSP16, literal(-8)))
        CFI (cfiCond32) V7 load(1, XDATA, add(CFA_XSP16, literal(-7)))
        CFI (cfiCond32) R7 load(1, XDATA, add(CFA_XSP16, literal(-6)))
        CFI (cfiCond32) ?RET_LOW load(1, XDATA, add(CFA_XSP16, literal(-5)))
        CFI (cfiCond32) ?RET_HIGH load(1, XDATA, add(CFA_XSP16, literal(-4)))
        CFI (cfiCond32) ?BRET_EXT load(1, XDATA, add(CFA_XSP16, literal(-3)))
        CFI (cfiCond32) DPL0 load(1, XDATA, add(CFA_XSP16, literal(-2)))
        CFI (cfiCond32) DPH0 load(1, XDATA, add(CFA_XSP16, literal(-1)))
        CFI (cfiCond32) CFA_SP SP+0
        CFI (cfiCond32) CFA_XSP16 add(XSP16, 23)
        CFI Block cfiCond33 Using cfiCommon0
        CFI (cfiCond33) NoFunction
        CFI (cfiCond33) Conditional ??CrossCallReturnLabel_21
        CFI (cfiCond33) R6 load(1, XDATA, add(CFA_XSP16, literal(-16)))
        CFI (cfiCond33) VB load(1, XDATA, add(CFA_XSP16, literal(-15)))
        CFI (cfiCond33) V0 load(1, XDATA, add(CFA_XSP16, literal(-14)))
        CFI (cfiCond33) V1 load(1, XDATA, add(CFA_XSP16, literal(-13)))
        CFI (cfiCond33) V2 load(1, XDATA, add(CFA_XSP16, literal(-12)))
        CFI (cfiCond33) V3 load(1, XDATA, add(CFA_XSP16, literal(-11)))
        CFI (cfiCond33) V4 load(1, XDATA, add(CFA_XSP16, literal(-10)))
        CFI (cfiCond33) V5 load(1, XDATA, add(CFA_XSP16, literal(-9)))
        CFI (cfiCond33) V6 load(1, XDATA, add(CFA_XSP16, literal(-8)))
        CFI (cfiCond33) V7 load(1, XDATA, add(CFA_XSP16, literal(-7)))
        CFI (cfiCond33) R7 load(1, XDATA, add(CFA_XSP16, literal(-6)))
        CFI (cfiCond33) ?RET_LOW load(1, XDATA, add(CFA_XSP16, literal(-5)))
        CFI (cfiCond33) ?RET_HIGH load(1, XDATA, add(CFA_XSP16, literal(-4)))
        CFI (cfiCond33) ?BRET_EXT load(1, XDATA, add(CFA_XSP16, literal(-3)))
        CFI (cfiCond33) DPL0 load(1, XDATA, add(CFA_XSP16, literal(-2)))
        CFI (cfiCond33) DPH0 load(1, XDATA, add(CFA_XSP16, literal(-1)))
        CFI (cfiCond33) CFA_SP SP+0
        CFI (cfiCond33) CFA_XSP16 add(XSP16, 23)
        CFI Block cfiPicker34 Using cfiCommon1
        CFI (cfiPicker34) NoFunction
        CFI (cfiPicker34) Picker
        MOV     A,?V0 + 0
        ORL     A,?V0 + 1
        ORL     A,?V0 + 2
        ORL     A,?V0 + 3
        RET
        CFI EndBlock cfiCond28
        CFI EndBlock cfiCond29
        CFI EndBlock cfiCond30
        CFI EndBlock cfiCond31
        CFI EndBlock cfiCond32
        CFI EndBlock cfiCond33
        CFI EndBlock cfiPicker34

        RSEG BANKED_CODE:CODE:NOROOT(0)
?Subroutine10:
        CFI Block cfiCond35 Using cfiCommon0
        CFI NoFunction
        CFI Conditional ??CrossCallReturnLabel_8
        CFI R6 load(1, XDATA, add(CFA_XSP16, literal(-14)))
        CFI VB load(1, XDATA, add(CFA_XSP16, literal(-13)))
        CFI V0 load(1, XDATA, add(CFA_XSP16, literal(-12)))
        CFI V1 load(1, XDATA, add(CFA_XSP16, literal(-11)))
        CFI V2 load(1, XDATA, add(CFA_XSP16, literal(-10)))
        CFI V3 load(1, XDATA, add(CFA_XSP16, literal(-9)))
        CFI V4 load(1, XDATA, add(CFA_XSP16, literal(-8)))
        CFI V5 load(1, XDATA, add(CFA_XSP16, literal(-7)))
        CFI R7 load(1, XDATA, add(CFA_XSP16, literal(-6)))
        CFI ?RET_LOW load(1, XDATA, add(CFA_XSP16, literal(-5)))
        CFI ?RET_HIGH load(1, XDATA, add(CFA_XSP16, literal(-4)))
        CFI ?BRET_EXT load(1, XDATA, add(CFA_XSP16, literal(-3)))
        CFI DPL0 load(1, XDATA, add(CFA_XSP16, literal(-2)))
        CFI DPH0 load(1, XDATA, add(CFA_XSP16, literal(-1)))
        CFI CFA_SP SP+0
        CFI CFA_XSP16 add(XSP16, 19)
        CFI Block cfiCond36 Using cfiCommon0
        CFI (cfiCond36) NoFunction
        CFI (cfiCond36) Conditional ??CrossCallReturnLabel_9
        CFI (cfiCond36) R6 load(1, XDATA, add(CFA_XSP16, literal(-12)))
        CFI (cfiCond36) VB load(1, XDATA, add(CFA_XSP16, literal(-11)))
        CFI (cfiCond36) V0 load(1, XDATA, add(CFA_XSP16, literal(-10)))
        CFI (cfiCond36) V1 load(1, XDATA, add(CFA_XSP16, literal(-9)))
        CFI (cfiCond36) V2 load(1, XDATA, add(CFA_XSP16, literal(-8)))
        CFI (cfiCond36) V3 load(1, XDATA, add(CFA_XSP16, literal(-7)))
        CFI (cfiCond36) R7 load(1, XDATA, add(CFA_XSP16, literal(-6)))
        CFI (cfiCond36) ?RET_LOW load(1, XDATA, add(CFA_XSP16, literal(-5)))
        CFI (cfiCond36) ?RET_HIGH load(1, XDATA, add(CFA_XSP16, literal(-4)))
        CFI (cfiCond36) ?BRET_EXT load(1, XDATA, add(CFA_XSP16, literal(-3)))
        CFI (cfiCond36) DPL0 load(1, XDATA, add(CFA_XSP16, literal(-2)))
        CFI (cfiCond36) DPH0 load(1, XDATA, add(CFA_XSP16, literal(-1)))
        CFI (cfiCond36) CFA_SP SP+0
        CFI (cfiCond36) CFA_XSP16 add(XSP16, 17)
        CFI Block cfiPicker37 Using cfiCommon1
        CFI (cfiPicker37) NoFunction
        CFI (cfiPicker37) Picker
        MOVX    A,@DPTR
        MOV     R4,A
        INC     DPTR
        MOVX    A,@DPTR
        MOV     R5,A
        MOV     R2,#ZDNwkMgr_MgmtNwkUpdateNotifyAddr & 0xff
        MOV     R3,#(ZDNwkMgr_MgmtNwkUpdateNotifyAddr >> 8) & 0xff
        RET
        CFI EndBlock cfiCond35
        CFI EndBlock cfiCond36
        CFI EndBlock cfiPicker37

        RSEG BANKED_CODE:CODE:NOROOT(0)
?Subroutine3:
        CFI Block cfiCond38 Using cfiCommon0
        CFI NoFunction
        CFI Conditional ??CrossCallReturnLabel_37
        CFI R6 load(1, XDATA, add(CFA_XSP16, literal(-12)))
        CFI VB load(1, XDATA, add(CFA_XSP16, literal(-11)))
        CFI V0 load(1, XDATA, add(CFA_XSP16, literal(-10)))
        CFI V1 load(1, XDATA, add(CFA_XSP16, literal(-9)))
        CFI V2 load(1, XDATA, add(CFA_XSP16, literal(-8)))
        CFI V3 load(1, XDATA, add(CFA_XSP16, literal(-7)))
        CFI R7 load(1, XDATA, add(CFA_XSP16, literal(-6)))
        CFI ?RET_LOW load(1, XDATA, add(CFA_XSP16, literal(-5)))
        CFI ?RET_HIGH load(1, XDATA, add(CFA_XSP16, literal(-4)))
        CFI ?BRET_EXT load(1, XDATA, add(CFA_XSP16, literal(-3)))
        CFI DPL0 load(1, XDATA, add(CFA_XSP16, literal(-2)))
        CFI DPH0 load(1, XDATA, add(CFA_XSP16, literal(-1)))
        CFI CFA_SP SP+0
        CFI CFA_XSP16 add(XSP16, 21)
        CFI Block cfiCond39 Using cfiCommon0
        CFI (cfiCond39) NoFunction
        CFI (cfiCond39) Conditional ??CrossCallReturnLabel_38
        CFI (cfiCond39) R6 load(1, XDATA, add(CFA_XSP16, literal(-12)))
        CFI (cfiCond39) VB load(1, XDATA, add(CFA_XSP16, literal(-11)))
        CFI (cfiCond39) V0 load(1, XDATA, add(CFA_XSP16, literal(-10)))
        CFI (cfiCond39) V1 load(1, XDATA, add(CFA_XSP16, literal(-9)))
        CFI (cfiCond39) V2 load(1, XDATA, add(CFA_XSP16, literal(-8)))
        CFI (cfiCond39) V3 load(1, XDATA, add(CFA_XSP16, literal(-7)))
        CFI (cfiCond39) R7 load(1, XDATA, add(CFA_XSP16, literal(-6)))
        CFI (cfiCond39) ?RET_LOW load(1, XDATA, add(CFA_XSP16, literal(-5)))
        CFI (cfiCond39) ?RET_HIGH load(1, XDATA, add(CFA_XSP16, literal(-4)))
        CFI (cfiCond39) ?BRET_EXT load(1, XDATA, add(CFA_XSP16, literal(-3)))
        CFI (cfiCond39) DPL0 load(1, XDATA, add(CFA_XSP16, literal(-2)))
        CFI (cfiCond39) DPH0 load(1, XDATA, add(CFA_XSP16, literal(-1)))
        CFI (cfiCond39) CFA_SP SP+0
        CFI (cfiCond39) CFA_XSP16 add(XSP16, 21)
        CFI Block cfiPicker40 Using cfiCommon1
        CFI (cfiPicker40) NoFunction
        CFI (cfiPicker40) Picker
        MOV     DPL,?V0 + 0
        MOV     DPH,?V0 + 1
        CFI EndBlock cfiCond38
        CFI EndBlock cfiCond39
        CFI EndBlock cfiPicker40
        REQUIRE ??Subroutine20_0
        ; // Fall through to label ??Subroutine20_0

        RSEG BANKED_CODE:CODE:NOROOT(0)
??Subroutine20_0:
        CFI Block cfiCond41 Using cfiCommon0
        CFI NoFunction
        CFI Conditional ??CrossCallReturnLabel_36
        CFI R6 load(1, XDATA, add(CFA_XSP16, literal(-12)))
        CFI VB load(1, XDATA, add(CFA_XSP16, literal(-11)))
        CFI V0 load(1, XDATA, add(CFA_XSP16, literal(-10)))
        CFI V1 load(1, XDATA, add(CFA_XSP16, literal(-9)))
        CFI V2 load(1, XDATA, add(CFA_XSP16, literal(-8)))
        CFI V3 load(1, XDATA, add(CFA_XSP16, literal(-7)))
        CFI R7 load(1, XDATA, add(CFA_XSP16, literal(-6)))
        CFI ?RET_LOW load(1, XDATA, add(CFA_XSP16, literal(-5)))
        CFI ?RET_HIGH load(1, XDATA, add(CFA_XSP16, literal(-4)))
        CFI ?BRET_EXT load(1, XDATA, add(CFA_XSP16, literal(-3)))
        CFI DPL0 load(1, XDATA, add(CFA_XSP16, literal(-2)))
        CFI DPH0 load(1, XDATA, add(CFA_XSP16, literal(-1)))
        CFI CFA_SP SP+0
        CFI CFA_XSP16 add(XSP16, 12)
        CFI Block cfiCond42 Using cfiCommon0
        CFI (cfiCond42) NoFunction
        CFI (cfiCond42) Conditional ??CrossCallReturnLabel_37
        CFI (cfiCond42) R6 load(1, XDATA, add(CFA_XSP16, literal(-12)))
        CFI (cfiCond42) VB load(1, XDATA, add(CFA_XSP16, literal(-11)))
        CFI (cfiCond42) V0 load(1, XDATA, add(CFA_XSP16, literal(-10)))
        CFI (cfiCond42) V1 load(1, XDATA, add(CFA_XSP16, literal(-9)))
        CFI (cfiCond42) V2 load(1, XDATA, add(CFA_XSP16, literal(-8)))
        CFI (cfiCond42) V3 load(1, XDATA, add(CFA_XSP16, literal(-7)))
        CFI (cfiCond42) R7 load(1, XDATA, add(CFA_XSP16, literal(-6)))
        CFI (cfiCond42) ?RET_LOW load(1, XDATA, add(CFA_XSP16, literal(-5)))
        CFI (cfiCond42) ?RET_HIGH load(1, XDATA, add(CFA_XSP16, literal(-4)))
        CFI (cfiCond42) ?BRET_EXT load(1, XDATA, add(CFA_XSP16, literal(-3)))
        CFI (cfiCond42) DPL0 load(1, XDATA, add(CFA_XSP16, literal(-2)))
        CFI (cfiCond42) DPH0 load(1, XDATA, add(CFA_XSP16, literal(-1)))
        CFI (cfiCond42) CFA_SP SP+0
        CFI (cfiCond42) CFA_XSP16 add(XSP16, 21)
        CFI Block cfiCond43 Using cfiCommon0
        CFI (cfiCond43) NoFunction
        CFI (cfiCond43) Conditional ??CrossCallReturnLabel_38
        CFI (cfiCond43) R6 load(1, XDATA, add(CFA_XSP16, literal(-12)))
        CFI (cfiCond43) VB load(1, XDATA, add(CFA_XSP16, literal(-11)))
        CFI (cfiCond43) V0 load(1, XDATA, add(CFA_XSP16, literal(-10)))
        CFI (cfiCond43) V1 load(1, XDATA, add(CFA_XSP16, literal(-9)))
        CFI (cfiCond43) V2 load(1, XDATA, add(CFA_XSP16, literal(-8)))
        CFI (cfiCond43) V3 load(1, XDATA, add(CFA_XSP16, literal(-7)))
        CFI (cfiCond43) R7 load(1, XDATA, add(CFA_XSP16, literal(-6)))
        CFI (cfiCond43) ?RET_LOW load(1, XDATA, add(CFA_XSP16, literal(-5)))
        CFI (cfiCond43) ?RET_HIGH load(1, XDATA, add(CFA_XSP16, literal(-4)))
        CFI (cfiCond43) ?BRET_EXT load(1, XDATA, add(CFA_XSP16, literal(-3)))
        CFI (cfiCond43) DPL0 load(1, XDATA, add(CFA_XSP16, literal(-2)))
        CFI (cfiCond43) DPH0 load(1, XDATA, add(CFA_XSP16, literal(-1)))
        CFI (cfiCond43) CFA_SP SP+0
        CFI (cfiCond43) CFA_XSP16 add(XSP16, 21)
        CFI Block cfiPicker44 Using cfiCommon1
        CFI (cfiPicker44) NoFunction
        CFI (cfiPicker44) Picker
        LCALL   ??Subroutine23_0 & 0xFFFF
??CrossCallReturnLabel_45:
        MOV     DPTR,#ZDNwkMgr_MgmtNwkUpdateNotifyAddr
        CFI EndBlock cfiCond41
        CFI EndBlock cfiCond42
        CFI EndBlock cfiCond43
        CFI EndBlock cfiPicker44
        REQUIRE ??Subroutine21_0
        ; // Fall through to label ??Subroutine21_0

        RSEG BANKED_CODE:CODE:NOROOT(0)
??Subroutine21_0:
        CFI Block cfiCond45 Using cfiCommon0
        CFI NoFunction
        CFI Conditional ??CrossCallReturnLabel_32
        CFI R6 load(1, XDATA, add(CFA_XSP16, literal(-14)))
        CFI VB load(1, XDATA, add(CFA_XSP16, literal(-13)))
        CFI V0 load(1, XDATA, add(CFA_XSP16, literal(-12)))
        CFI V1 load(1, XDATA, add(CFA_XSP16, literal(-11)))
        CFI V2 load(1, XDATA, add(CFA_XSP16, literal(-10)))
        CFI V3 load(1, XDATA, add(CFA_XSP16, literal(-9)))
        CFI V4 load(1, XDATA, add(CFA_XSP16, literal(-8)))
        CFI V5 load(1, XDATA, add(CFA_XSP16, literal(-7)))
        CFI R7 load(1, XDATA, add(CFA_XSP16, literal(-6)))
        CFI ?RET_LOW load(1, XDATA, add(CFA_XSP16, literal(-5)))
        CFI ?RET_HIGH load(1, XDATA, add(CFA_XSP16, literal(-4)))
        CFI ?BRET_EXT load(1, XDATA, add(CFA_XSP16, literal(-3)))
        CFI DPL0 load(1, XDATA, add(CFA_XSP16, literal(-2)))
        CFI DPH0 load(1, XDATA, add(CFA_XSP16, literal(-1)))
        CFI CFA_SP SP+0
        CFI CFA_XSP16 add(XSP16, 14)
        CFI Block cfiCond46 Using cfiCommon0
        CFI (cfiCond46) NoFunction
        CFI (cfiCond46) Conditional ??CrossCallReturnLabel_33
        CFI (cfiCond46) R6 load(1, XDATA, add(CFA_XSP16, literal(-14)))
        CFI (cfiCond46) VB load(1, XDATA, add(CFA_XSP16, literal(-13)))
        CFI (cfiCond46) V0 load(1, XDATA, add(CFA_XSP16, literal(-12)))
        CFI (cfiCond46) V1 load(1, XDATA, add(CFA_XSP16, literal(-11)))
        CFI (cfiCond46) V2 load(1, XDATA, add(CFA_XSP16, literal(-10)))
        CFI (cfiCond46) V3 load(1, XDATA, add(CFA_XSP16, literal(-9)))
        CFI (cfiCond46) V4 load(1, XDATA, add(CFA_XSP16, literal(-8)))
        CFI (cfiCond46) V5 load(1, XDATA, add(CFA_XSP16, literal(-7)))
        CFI (cfiCond46) R7 load(1, XDATA, add(CFA_XSP16, literal(-6)))
        CFI (cfiCond46) ?RET_LOW load(1, XDATA, add(CFA_XSP16, literal(-5)))
        CFI (cfiCond46) ?RET_HIGH load(1, XDATA, add(CFA_XSP16, literal(-4)))
        CFI (cfiCond46) ?BRET_EXT load(1, XDATA, add(CFA_XSP16, literal(-3)))
        CFI (cfiCond46) DPL0 load(1, XDATA, add(CFA_XSP16, literal(-2)))
        CFI (cfiCond46) DPH0 load(1, XDATA, add(CFA_XSP16, literal(-1)))
        CFI (cfiCond46) CFA_SP SP+0
        CFI (cfiCond46) CFA_XSP16 add(XSP16, 14)
        CFI Block cfiCond47 Using cfiCommon0
        CFI (cfiCond47) NoFunction
        CFI (cfiCond47) Conditional ??CrossCallReturnLabel_34
        CFI (cfiCond47) R6 load(1, XDATA, add(CFA_XSP16, literal(-10)))
        CFI (cfiCond47) VB load(1, XDATA, add(CFA_XSP16, literal(-9)))
        CFI (cfiCond47) V0 load(1, XDATA, add(CFA_XSP16, literal(-8)))
        CFI (cfiCond47) V1 load(1, XDATA, add(CFA_XSP16, literal(-7)))
        CFI (cfiCond47) R7 load(1, XDATA, add(CFA_XSP16, literal(-6)))
        CFI (cfiCond47) ?RET_LOW load(1, XDATA, add(CFA_XSP16, literal(-5)))
        CFI (cfiCond47) ?RET_HIGH load(1, XDATA, add(CFA_XSP16, literal(-4)))
        CFI (cfiCond47) ?BRET_EXT load(1, XDATA, add(CFA_XSP16, literal(-3)))
        CFI (cfiCond47) DPL0 load(1, XDATA, add(CFA_XSP16, literal(-2)))
        CFI (cfiCond47) DPH0 load(1, XDATA, add(CFA_XSP16, literal(-1)))
        CFI (cfiCond47) CFA_SP SP+0
        CFI (cfiCond47) CFA_XSP16 add(XSP16, 10)
        CFI Block cfiCond48 Using cfiCommon0
        CFI (cfiCond48) NoFunction
        CFI (cfiCond48) Conditional ??CrossCallReturnLabel_35
        CFI (cfiCond48) R6 load(1, XDATA, add(CFA_XSP16, literal(-10)))
        CFI (cfiCond48) VB load(1, XDATA, add(CFA_XSP16, literal(-9)))
        CFI (cfiCond48) V0 load(1, XDATA, add(CFA_XSP16, literal(-8)))
        CFI (cfiCond48) V1 load(1, XDATA, add(CFA_XSP16, literal(-7)))
        CFI (cfiCond48) R7 load(1, XDATA, add(CFA_XSP16, literal(-6)))
        CFI (cfiCond48) ?RET_LOW load(1, XDATA, add(CFA_XSP16, literal(-5)))
        CFI (cfiCond48) ?RET_HIGH load(1, XDATA, add(CFA_XSP16, literal(-4)))
        CFI (cfiCond48) ?BRET_EXT load(1, XDATA, add(CFA_XSP16, literal(-3)))
        CFI (cfiCond48) DPL0 load(1, XDATA, add(CFA_XSP16, literal(-2)))
        CFI (cfiCond48) DPH0 load(1, XDATA, add(CFA_XSP16, literal(-1)))
        CFI (cfiCond48) CFA_SP SP+0
        CFI (cfiCond48) CFA_XSP16 add(XSP16, 10)
        CFI Block cfiCond49 Using cfiCommon0
        CFI (cfiCond49) NoFunction
        CFI (cfiCond49) Conditional ??CrossCallReturnLabel_36
        CFI (cfiCond49) R6 load(1, XDATA, add(CFA_XSP16, literal(-12)))
        CFI (cfiCond49) VB load(1, XDATA, add(CFA_XSP16, literal(-11)))
        CFI (cfiCond49) V0 load(1, XDATA, add(CFA_XSP16, literal(-10)))
        CFI (cfiCond49) V1 load(1, XDATA, add(CFA_XSP16, literal(-9)))
        CFI (cfiCond49) V2 load(1, XDATA, add(CFA_XSP16, literal(-8)))
        CFI (cfiCond49) V3 load(1, XDATA, add(CFA_XSP16, literal(-7)))
        CFI (cfiCond49) R7 load(1, XDATA, add(CFA_XSP16, literal(-6)))
        CFI (cfiCond49) ?RET_LOW load(1, XDATA, add(CFA_XSP16, literal(-5)))
        CFI (cfiCond49) ?RET_HIGH load(1, XDATA, add(CFA_XSP16, literal(-4)))
        CFI (cfiCond49) ?BRET_EXT load(1, XDATA, add(CFA_XSP16, literal(-3)))
        CFI (cfiCond49) DPL0 load(1, XDATA, add(CFA_XSP16, literal(-2)))
        CFI (cfiCond49) DPH0 load(1, XDATA, add(CFA_XSP16, literal(-1)))
        CFI (cfiCond49) CFA_SP SP+0
        CFI (cfiCond49) CFA_XSP16 add(XSP16, 12)
        CFI Block cfiCond50 Using cfiCommon0
        CFI (cfiCond50) NoFunction
        CFI (cfiCond50) Conditional ??CrossCallReturnLabel_37
        CFI (cfiCond50) R6 load(1, XDATA, add(CFA_XSP16, literal(-12)))
        CFI (cfiCond50) VB load(1, XDATA, add(CFA_XSP16, literal(-11)))
        CFI (cfiCond50) V0 load(1, XDATA, add(CFA_XSP16, literal(-10)))
        CFI (cfiCond50) V1 load(1, XDATA, add(CFA_XSP16, literal(-9)))
        CFI (cfiCond50) V2 load(1, XDATA, add(CFA_XSP16, literal(-8)))
        CFI (cfiCond50) V3 load(1, XDATA, add(CFA_XSP16, literal(-7)))
        CFI (cfiCond50) R7 load(1, XDATA, add(CFA_XSP16, literal(-6)))
        CFI (cfiCond50) ?RET_LOW load(1, XDATA, add(CFA_XSP16, literal(-5)))
        CFI (cfiCond50) ?RET_HIGH load(1, XDATA, add(CFA_XSP16, literal(-4)))
        CFI (cfiCond50) ?BRET_EXT load(1, XDATA, add(CFA_XSP16, literal(-3)))
        CFI (cfiCond50) DPL0 load(1, XDATA, add(CFA_XSP16, literal(-2)))
        CFI (cfiCond50) DPH0 load(1, XDATA, add(CFA_XSP16, literal(-1)))
        CFI (cfiCond50) CFA_SP SP+0
        CFI (cfiCond50) CFA_XSP16 add(XSP16, 21)
        CFI Block cfiCond51 Using cfiCommon0
        CFI (cfiCond51) NoFunction
        CFI (cfiCond51) Conditional ??CrossCallReturnLabel_38
        CFI (cfiCond51) R6 load(1, XDATA, add(CFA_XSP16, literal(-12)))
        CFI (cfiCond51) VB load(1, XDATA, add(CFA_XSP16, literal(-11)))
        CFI (cfiCond51) V0 load(1, XDATA, add(CFA_XSP16, literal(-10)))
        CFI (cfiCond51) V1 load(1, XDATA, add(CFA_XSP16, literal(-9)))
        CFI (cfiCond51) V2 load(1, XDATA, add(CFA_XSP16, literal(-8)))
        CFI (cfiCond51) V3 load(1, XDATA, add(CFA_XSP16, literal(-7)))
        CFI (cfiCond51) R7 load(1, XDATA, add(CFA_XSP16, literal(-6)))
        CFI (cfiCond51) ?RET_LOW load(1, XDATA, add(CFA_XSP16, literal(-5)))
        CFI (cfiCond51) ?RET_HIGH load(1, XDATA, add(CFA_XSP16, literal(-4)))
        CFI (cfiCond51) ?BRET_EXT load(1, XDATA, add(CFA_XSP16, literal(-3)))
        CFI (cfiCond51) DPL0 load(1, XDATA, add(CFA_XSP16, literal(-2)))
        CFI (cfiCond51) DPH0 load(1, XDATA, add(CFA_XSP16, literal(-1)))
        CFI (cfiCond51) CFA_SP SP+0
        CFI (cfiCond51) CFA_XSP16 add(XSP16, 21)
        CFI Block cfiPicker52 Using cfiCommon1
        CFI (cfiPicker52) NoFunction
        CFI (cfiPicker52) Picker
        MOV     A,R0
        MOVX    @DPTR,A
        INC     DPTR
        MOV     A,R1
        MOVX    @DPTR,A
        RET
        CFI EndBlock cfiCond45
        CFI EndBlock cfiCond46
        CFI EndBlock cfiCond47
        CFI EndBlock cfiCond48
        CFI EndBlock cfiCond49
        CFI EndBlock cfiCond50
        CFI EndBlock cfiCond51
        CFI EndBlock cfiPicker52
//  775 
//  776 /*********************************************************************
//  777  * @fn          ZDNwkMgr_BuildAndSendUpdateNotify
//  778  *
//  779  * @brief       This builds and send a Mgmt_NWK_Update_notify message. This
//  780  *              function sends a unicast message.
//  781  *
//  782  * @param       TransSeq - transaction sequence number
//  783  * @param       dstAddr - destination address of the message
//  784  * @param       pEDScanConfirm - update notify info
//  785  *
//  786  * @return      afStatus_t
//  787  */

        RSEG BANKED_CODE:CODE:NOROOT(0)
//  788 static void ZDNwkMgr_BuildAndSendUpdateNotify( uint8 TransSeq, zAddrType_t *dstAddr,
ZDNwkMgr_BuildAndSendUpdateNotify:
        CFI Block cfiBlock53 Using cfiCommon0
        CFI Function ZDNwkMgr_BuildAndSendUpdateNotify
        CODE
//  789                                                uint16 totalTransmissions, uint16 txFailures,
//  790                                                ZDNwkMgr_EDScanConfirm_t *pEDScanConfirm,
//  791                                                uint8 txOptions )
//  792 {
        FUNCALL ZDNwkMgr_BuildAndSendUpdateNotify, osal_mem_alloc
        LOCFRAME ISTACK, 0, STACK
        LOCFRAME PSTACK, 0, STACK
        LOCFRAME XSTACK, 23, STACK
        LOCFRAME IOVERLAY, 0, STATIC
        LOCFRAME DOVERLAY, 0, STATIC
        ARGFRAME ISTACK, 0, STACK
        ARGFRAME PSTACK, 0, STACK
        ARGFRAME XSTACK, 23, STACK
        ARGFRAME IOVERLAY, 0, STATIC
        ARGFRAME DOVERLAY, 0, STATIC
        FUNCALL ZDNwkMgr_BuildAndSendUpdateNotify, ZDP_MgmtNwkUpdateNotify
        LOCFRAME ISTACK, 0, STACK
        LOCFRAME PSTACK, 0, STACK
        LOCFRAME XSTACK, 35, STACK
        LOCFRAME IOVERLAY, 0, STATIC
        LOCFRAME DOVERLAY, 0, STATIC
        ARGFRAME ISTACK, 0, STACK
        ARGFRAME PSTACK, 0, STACK
        ARGFRAME XSTACK, 35, STACK
        ARGFRAME IOVERLAY, 0, STATIC
        ARGFRAME DOVERLAY, 0, STATIC
        FUNCALL ZDNwkMgr_BuildAndSendUpdateNotify, osal_mem_free
        LOCFRAME ISTACK, 0, STACK
        LOCFRAME PSTACK, 0, STACK
        LOCFRAME XSTACK, 23, STACK
        LOCFRAME IOVERLAY, 0, STATIC
        LOCFRAME DOVERLAY, 0, STATIC
        ARGFRAME ISTACK, 0, STACK
        ARGFRAME PSTACK, 0, STACK
        ARGFRAME XSTACK, 23, STACK
        ARGFRAME IOVERLAY, 0, STATIC
        ARGFRAME DOVERLAY, 0, STATIC
        MOV     A,#-0x10
        LCALL   ?BANKED_ENTER_XDATA
        CFI DPH0 load(1, XDATA, add(CFA_XSP16, literal(-1)))
        CFI DPL0 load(1, XDATA, add(CFA_XSP16, literal(-2)))
        CFI ?BRET_EXT load(1, XDATA, add(CFA_XSP16, literal(-3)))
        CFI ?RET_HIGH load(1, XDATA, add(CFA_XSP16, literal(-4)))
        CFI ?RET_LOW load(1, XDATA, add(CFA_XSP16, literal(-5)))
        CFI R7 load(1, XDATA, add(CFA_XSP16, literal(-6)))
        CFI V7 load(1, XDATA, add(CFA_XSP16, literal(-7)))
        CFI V6 load(1, XDATA, add(CFA_XSP16, literal(-8)))
        CFI V5 load(1, XDATA, add(CFA_XSP16, literal(-9)))
        CFI V4 load(1, XDATA, add(CFA_XSP16, literal(-10)))
        CFI V3 load(1, XDATA, add(CFA_XSP16, literal(-11)))
        CFI V2 load(1, XDATA, add(CFA_XSP16, literal(-12)))
        CFI V1 load(1, XDATA, add(CFA_XSP16, literal(-13)))
        CFI V0 load(1, XDATA, add(CFA_XSP16, literal(-14)))
        CFI VB load(1, XDATA, add(CFA_XSP16, literal(-15)))
        CFI R6 load(1, XDATA, add(CFA_XSP16, literal(-16)))
        CFI CFA_SP SP+0
        CFI CFA_XSP16 add(XSP16, 16)
        ; Saved register size: 16
        ; Auto size: 7
        MOV     A,#-0x7
        LCALL   ?ALLOC_XSTACK8
        CFI CFA_XSP16 add(XSP16, 23)
        MOV     A,#0x4
        LCALL   ?XSTACK_DISP0_8
        MOV     A,R1
        MOVX    @DPTR,A
        MOV     A,#0x5
        LCALL   ?XSTACK_DISP0_8
        MOV     A,R2
        MOVX    @DPTR,A
        INC     DPTR
        MOV     A,R3
        MOVX    @DPTR,A
        MOV     ?V0 + 4,R4
        MOV     ?V0 + 5,R5
        MOV     A,#0x17
        LCALL   ?XSTACK_DISP0_8
        MOVX    A,@DPTR
        MOV     R6,A
        INC     DPTR
        MOVX    A,@DPTR
        MOV     R7,A
        MOV     A,#0x1b
        LCALL   ?XSTACK_DISP0_8
        MOVX    A,@DPTR
        MOV     ?V0 + 7,A
//  793   uint8 i;
//  794   uint8 listCount = 0;
        MOV     ?V0 + 6,#0x0
//  795   uint8 *energyValues = NULL;
        MOV     DPL,?XSP + 0
        MOV     DPH,?XSP + 1
        CLR     A
        MOVX    @DPTR,A
        INC     DPTR
        MOVX    @DPTR,A
//  796   
//  797   // Count number of energy detects
//  798   for ( i = 0; i < ED_SCAN_MAXCHANNELS; i++ )
        MOV     R1,A
        MOV     A,#0x19
        LCALL   ?XSTACK_DISP0_8
        MOVX    A,@DPTR
        ADD     A,#0x3
        MOV     R2,A
        INC     DPTR
        MOVX    A,@DPTR
        ADDC    A,#0x0
        MOV     R3,A
        MOV     A,#0x2
        LCALL   ?XSTACK_DISP0_8
        MOV     A,R2
        MOVX    @DPTR,A
        INC     DPTR
        MOV     A,R3
        MOVX    @DPTR,A
//  799   {
//  800     if ( ( (uint32)1 << i ) & pEDScanConfirm->scannedChannels )
??ZDNwkMgr_BuildAndSendUpdateNotify_0:
        MOV     ?V0 + 0,#0x1
        MOV     ?V0 + 1,#0x0
        MOV     ?V0 + 2,#0x0
        MOV     ?V0 + 3,#0x0
        MOV     A,R1
        MOV     R0,#?V0 + 0
        LCALL   ?L_SHL
        MOV     A,#0x2
        LCALL   ?XSTACK_DISP0_8
        LCALL   ?Subroutine9 & 0xFFFF
??CrossCallReturnLabel_6:
        LCALL   ?L_AND_X
        LCALL   ?Subroutine14 & 0xFFFF
??CrossCallReturnLabel_20:
        JZ      ??ZDNwkMgr_BuildAndSendUpdateNotify_1
//  801       listCount++;
        INC     ?V0 + 6
//  802   }
??ZDNwkMgr_BuildAndSendUpdateNotify_1:
        INC     R1
        MOV     A,R1
        CLR     C
        SUBB    A,#0x1b
        JC      ??ZDNwkMgr_BuildAndSendUpdateNotify_0
//  803   
//  804   if ( listCount > 0 )
        MOV     A,?V0 + 6
        JZ      ??ZDNwkMgr_BuildAndSendUpdateNotify_2
//  805   {
//  806     energyValues = (uint8 *)osal_mem_alloc( listCount );
        ; Setup parameters for call to function osal_mem_alloc
        MOV     R2,A
        MOV     R3,#0x0
        LCALL   ??osal_mem_alloc?relay
        MOV     DPL,?XSP + 0
        MOV     DPH,?XSP + 1
        MOV     A,R2
        MOVX    @DPTR,A
        INC     DPTR
        MOV     A,R3
        MOVX    @DPTR,A
//  807     if ( energyValues )
        LCALL   ?Subroutine5 & 0xFFFF
??CrossCallReturnLabel_40:
        JZ      ??ZDNwkMgr_BuildAndSendUpdateNotify_2
//  808     {
//  809       uint8 j = 0;
        MOV     R2,#0x0
//  810 
//  811       for ( i = 0; i < ED_SCAN_MAXCHANNELS; i++ )
        MOV     R1,#0x0
//  812       {
//  813         if ( ( (uint32)1 << i ) & pEDScanConfirm->scannedChannels )
??ZDNwkMgr_BuildAndSendUpdateNotify_3:
        MOV     ?V0 + 0,#0x1
        MOV     ?V0 + 1,#0x0
        MOV     ?V0 + 2,#0x0
        MOV     ?V0 + 3,#0x0
        MOV     A,R1
        MOV     R0,#?V0 + 0
        LCALL   ?L_SHL
        MOV     A,#0x2
        LCALL   ?XSTACK_DISP0_8
        LCALL   ?Subroutine9 & 0xFFFF
??CrossCallReturnLabel_7:
        LCALL   ?L_AND_X
        LCALL   ?Subroutine14 & 0xFFFF
??CrossCallReturnLabel_21:
        JZ      ??ZDNwkMgr_BuildAndSendUpdateNotify_4
//  814           energyValues[j++] = pEDScanConfirm->energyDetectList[i];
        MOV     A,R1
        MOV     R4,A
        MOV     A,#0x19
        LCALL   ?XSTACK_DISP0_8
        LCALL   ?Subroutine7 & 0xFFFF
//  815       }
??CrossCallReturnLabel_4:
        INC     DPTR
        INC     DPTR
        INC     DPTR
        INC     DPTR
        INC     DPTR
        INC     DPTR
        INC     DPTR
        MOVX    A,@DPTR
        PUSH    A
        CFI CFA_SP SP+-1
        MOV     A,R2
        MOV     R4,A
        MOV     DPL,?XSP + 0
        MOV     DPH,?XSP + 1
        LCALL   ?Subroutine7 & 0xFFFF
??CrossCallReturnLabel_5:
        POP     A
        CFI CFA_SP SP+0
        MOVX    @DPTR,A
        INC     R2
??ZDNwkMgr_BuildAndSendUpdateNotify_4:
        INC     R1
        MOV     A,R1
        CLR     C
        SUBB    A,#0x1b
        JC      ??ZDNwkMgr_BuildAndSendUpdateNotify_3
//  816     }
//  817   }
//  818     
//  819   // Send a Management Network Update notify back
//  820   ZDP_MgmtNwkUpdateNotify( TransSeq, dstAddr, pEDScanConfirm->status, 
//  821                            pEDScanConfirm->scannedChannels,
//  822                            totalTransmissions, txFailures,
//  823                            listCount, energyValues, txOptions, false );
??ZDNwkMgr_BuildAndSendUpdateNotify_2:
        ; Setup parameters for call to function ZDP_MgmtNwkUpdateNotify
        MOV     ?V0 + 0,#0x0
        MOV     R0,#?V0 + 0
        LCALL   ?PUSH_XSTACK_I_ONE
        CFI CFA_XSP16 add(XSP16, 24)
        MOV     A,?V0 + 7
        MOV     ?V0 + 0,A
        MOV     R0,#?V0 + 0
        LCALL   ?PUSH_XSTACK_I_ONE
        CFI CFA_XSP16 add(XSP16, 25)
        MOV     A,#0x2
        LCALL   ?XSTACK_DISP0_8
        LCALL   ?PUSH_XSTACK8_X_TWO
        CFI CFA_XSP16 add(XSP16, 27)
        MOV     ?V0 + 0,R6
        MOV     ?V0 + 1,R7
        MOV     R0,#?V0 + 0
        LCALL   ?PUSH_XSTACK_I_TWO
        CFI CFA_XSP16 add(XSP16, 29)
        MOV     R0,#?V0 + 4
        LCALL   ?PUSH_XSTACK_I_TWO
        CFI CFA_XSP16 add(XSP16, 31)
        MOV     A,#0xa
        LCALL   ?XSTACK_DISP0_8
        LCALL   ?Subroutine13 & 0xFFFF
??CrossCallReturnLabel_14:
        LCALL   ?PUSH_XSTACK8_X_FOUR
        CFI CFA_XSP16 add(XSP16, 35)
        MOV     R5,?V0 + 6
        MOV     A,#0x25
        LCALL   ?XSTACK_DISP0_8
        LCALL   ?Subroutine13 & 0xFFFF
??CrossCallReturnLabel_15:
        INC     DPTR
        INC     DPTR
        MOVX    A,@DPTR
        MOV     R4,A
        MOV     A,#0x11
        LCALL   ?XSTACK_DISP0_8
        MOVX    A,@DPTR
        MOV     R2,A
        INC     DPTR
        MOVX    A,@DPTR
        MOV     R3,A
        MOV     A,#0x10
        LCALL   ?XSTACK_DISP0_8
        MOVX    A,@DPTR
        MOV     R1,A
        LCALL   ??ZDP_MgmtNwkUpdateNotify?relay
        MOV     A,#0xc
        LCALL   ?DEALLOC_XSTACK8
        CFI CFA_XSP16 add(XSP16, 23)
//  824   if ( energyValues )
        LCALL   ?Subroutine5 & 0xFFFF
??CrossCallReturnLabel_41:
        JZ      ??ZDNwkMgr_BuildAndSendUpdateNotify_5
//  825     osal_mem_free( energyValues );
        ; Setup parameters for call to function osal_mem_free
        MOV     DPL,?XSP + 0
        MOV     DPH,?XSP + 1
        MOVX    A,@DPTR
        MOV     R2,A
        INC     DPTR
        MOVX    A,@DPTR
        MOV     R3,A
        LCALL   ??osal_mem_free?relay
//  826 }
??ZDNwkMgr_BuildAndSendUpdateNotify_5:
        MOV     A,#0x7
        LCALL   ?DEALLOC_XSTACK8
        CFI CFA_XSP16 add(XSP16, 16)
        MOV     R7,#0x8
        LJMP    ?BANKED_LEAVE_XDATA
        CFI EndBlock cfiBlock53

        RSEG BANKED_CODE:CODE:NOROOT(0)
?Subroutine13:
        CFI Block cfiCond54 Using cfiCommon0
        CFI NoFunction
        CFI Conditional ??CrossCallReturnLabel_14
        CFI R6 load(1, XDATA, add(CFA_XSP16, literal(-16)))
        CFI VB load(1, XDATA, add(CFA_XSP16, literal(-15)))
        CFI V0 load(1, XDATA, add(CFA_XSP16, literal(-14)))
        CFI V1 load(1, XDATA, add(CFA_XSP16, literal(-13)))
        CFI V2 load(1, XDATA, add(CFA_XSP16, literal(-12)))
        CFI V3 load(1, XDATA, add(CFA_XSP16, literal(-11)))
        CFI V4 load(1, XDATA, add(CFA_XSP16, literal(-10)))
        CFI V5 load(1, XDATA, add(CFA_XSP16, literal(-9)))
        CFI V6 load(1, XDATA, add(CFA_XSP16, literal(-8)))
        CFI V7 load(1, XDATA, add(CFA_XSP16, literal(-7)))
        CFI R7 load(1, XDATA, add(CFA_XSP16, literal(-6)))
        CFI ?RET_LOW load(1, XDATA, add(CFA_XSP16, literal(-5)))
        CFI ?RET_HIGH load(1, XDATA, add(CFA_XSP16, literal(-4)))
        CFI ?BRET_EXT load(1, XDATA, add(CFA_XSP16, literal(-3)))
        CFI DPL0 load(1, XDATA, add(CFA_XSP16, literal(-2)))
        CFI DPH0 load(1, XDATA, add(CFA_XSP16, literal(-1)))
        CFI CFA_SP SP+0
        CFI CFA_XSP16 add(XSP16, 31)
        CFI Block cfiCond55 Using cfiCommon0
        CFI (cfiCond55) NoFunction
        CFI (cfiCond55) Conditional ??CrossCallReturnLabel_15
        CFI (cfiCond55) R6 load(1, XDATA, add(CFA_XSP16, literal(-16)))
        CFI (cfiCond55) VB load(1, XDATA, add(CFA_XSP16, literal(-15)))
        CFI (cfiCond55) V0 load(1, XDATA, add(CFA_XSP16, literal(-14)))
        CFI (cfiCond55) V1 load(1, XDATA, add(CFA_XSP16, literal(-13)))
        CFI (cfiCond55) V2 load(1, XDATA, add(CFA_XSP16, literal(-12)))
        CFI (cfiCond55) V3 load(1, XDATA, add(CFA_XSP16, literal(-11)))
        CFI (cfiCond55) V4 load(1, XDATA, add(CFA_XSP16, literal(-10)))
        CFI (cfiCond55) V5 load(1, XDATA, add(CFA_XSP16, literal(-9)))
        CFI (cfiCond55) V6 load(1, XDATA, add(CFA_XSP16, literal(-8)))
        CFI (cfiCond55) V7 load(1, XDATA, add(CFA_XSP16, literal(-7)))
        CFI (cfiCond55) R7 load(1, XDATA, add(CFA_XSP16, literal(-6)))
        CFI (cfiCond55) ?RET_LOW load(1, XDATA, add(CFA_XSP16, literal(-5)))
        CFI (cfiCond55) ?RET_HIGH load(1, XDATA, add(CFA_XSP16, literal(-4)))
        CFI (cfiCond55) ?BRET_EXT load(1, XDATA, add(CFA_XSP16, literal(-3)))
        CFI (cfiCond55) DPL0 load(1, XDATA, add(CFA_XSP16, literal(-2)))
        CFI (cfiCond55) DPH0 load(1, XDATA, add(CFA_XSP16, literal(-1)))
        CFI (cfiCond55) CFA_SP SP+0
        CFI (cfiCond55) CFA_XSP16 add(XSP16, 35)
        CFI Block cfiPicker56 Using cfiCommon1
        CFI (cfiPicker56) NoFunction
        CFI (cfiPicker56) Picker
        LCALL   ?Subroutine18 & 0xFFFF
??CrossCallReturnLabel_27:
        RET
        CFI EndBlock cfiCond54
        CFI EndBlock cfiCond55
        CFI EndBlock cfiPicker56

        RSEG BANKED_CODE:CODE:NOROOT(0)
?Subroutine18:
        CFI Block cfiCond57 Using cfiCommon0
        CFI NoFunction
        CFI Conditional ??CrossCallReturnLabel_27, ??CrossCallReturnLabel_14
        CFI R6 load(1, XDATA, add(CFA_XSP16, literal(-16)))
        CFI VB load(1, XDATA, add(CFA_XSP16, literal(-15)))
        CFI V0 load(1, XDATA, add(CFA_XSP16, literal(-14)))
        CFI V1 load(1, XDATA, add(CFA_XSP16, literal(-13)))
        CFI V2 load(1, XDATA, add(CFA_XSP16, literal(-12)))
        CFI V3 load(1, XDATA, add(CFA_XSP16, literal(-11)))
        CFI V4 load(1, XDATA, add(CFA_XSP16, literal(-10)))
        CFI V5 load(1, XDATA, add(CFA_XSP16, literal(-9)))
        CFI V6 load(1, XDATA, add(CFA_XSP16, literal(-8)))
        CFI V7 load(1, XDATA, add(CFA_XSP16, literal(-7)))
        CFI R7 load(1, XDATA, add(CFA_XSP16, literal(-6)))
        CFI ?RET_LOW load(1, XDATA, add(CFA_XSP16, literal(-5)))
        CFI ?RET_HIGH load(1, XDATA, add(CFA_XSP16, literal(-4)))
        CFI ?BRET_EXT load(1, XDATA, add(CFA_XSP16, literal(-3)))
        CFI DPL0 load(1, XDATA, add(CFA_XSP16, literal(-2)))
        CFI DPH0 load(1, XDATA, add(CFA_XSP16, literal(-1)))
        CFI CFA_SP SP+0
        CFI CFA_XSP16 add(XSP16, 31)
        CFI Block cfiCond58 Using cfiCommon0
        CFI (cfiCond58) NoFunction
        CFI (cfiCond58) Conditional ??CrossCallReturnLabel_27, ??CrossCallReturnLabel_15
        CFI (cfiCond58) R6 load(1, XDATA, add(CFA_XSP16, literal(-16)))
        CFI (cfiCond58) VB load(1, XDATA, add(CFA_XSP16, literal(-15)))
        CFI (cfiCond58) V0 load(1, XDATA, add(CFA_XSP16, literal(-14)))
        CFI (cfiCond58) V1 load(1, XDATA, add(CFA_XSP16, literal(-13)))
        CFI (cfiCond58) V2 load(1, XDATA, add(CFA_XSP16, literal(-12)))
        CFI (cfiCond58) V3 load(1, XDATA, add(CFA_XSP16, literal(-11)))
        CFI (cfiCond58) V4 load(1, XDATA, add(CFA_XSP16, literal(-10)))
        CFI (cfiCond58) V5 load(1, XDATA, add(CFA_XSP16, literal(-9)))
        CFI (cfiCond58) V6 load(1, XDATA, add(CFA_XSP16, literal(-8)))
        CFI (cfiCond58) V7 load(1, XDATA, add(CFA_XSP16, literal(-7)))
        CFI (cfiCond58) R7 load(1, XDATA, add(CFA_XSP16, literal(-6)))
        CFI (cfiCond58) ?RET_LOW load(1, XDATA, add(CFA_XSP16, literal(-5)))
        CFI (cfiCond58) ?RET_HIGH load(1, XDATA, add(CFA_XSP16, literal(-4)))
        CFI (cfiCond58) ?BRET_EXT load(1, XDATA, add(CFA_XSP16, literal(-3)))
        CFI (cfiCond58) DPL0 load(1, XDATA, add(CFA_XSP16, literal(-2)))
        CFI (cfiCond58) DPH0 load(1, XDATA, add(CFA_XSP16, literal(-1)))
        CFI (cfiCond58) CFA_SP SP+0
        CFI (cfiCond58) CFA_XSP16 add(XSP16, 35)
        CFI Block cfiCond59 Using cfiCommon0
        CFI (cfiCond59) NoFunction
        CFI (cfiCond59) Conditional ??CrossCallReturnLabel_26, ??CrossCallReturnLabel_6
        CFI (cfiCond59) R6 load(1, XDATA, add(CFA_XSP16, literal(-16)))
        CFI (cfiCond59) VB load(1, XDATA, add(CFA_XSP16, literal(-15)))
        CFI (cfiCond59) V0 load(1, XDATA, add(CFA_XSP16, literal(-14)))
        CFI (cfiCond59) V1 load(1, XDATA, add(CFA_XSP16, literal(-13)))
        CFI (cfiCond59) V2 load(1, XDATA, add(CFA_XSP16, literal(-12)))
        CFI (cfiCond59) V3 load(1, XDATA, add(CFA_XSP16, literal(-11)))
        CFI (cfiCond59) V4 load(1, XDATA, add(CFA_XSP16, literal(-10)))
        CFI (cfiCond59) V5 load(1, XDATA, add(CFA_XSP16, literal(-9)))
        CFI (cfiCond59) V6 load(1, XDATA, add(CFA_XSP16, literal(-8)))
        CFI (cfiCond59) V7 load(1, XDATA, add(CFA_XSP16, literal(-7)))
        CFI (cfiCond59) R7 load(1, XDATA, add(CFA_XSP16, literal(-6)))
        CFI (cfiCond59) ?RET_LOW load(1, XDATA, add(CFA_XSP16, literal(-5)))
        CFI (cfiCond59) ?RET_HIGH load(1, XDATA, add(CFA_XSP16, literal(-4)))
        CFI (cfiCond59) ?BRET_EXT load(1, XDATA, add(CFA_XSP16, literal(-3)))
        CFI (cfiCond59) DPL0 load(1, XDATA, add(CFA_XSP16, literal(-2)))
        CFI (cfiCond59) DPH0 load(1, XDATA, add(CFA_XSP16, literal(-1)))
        CFI (cfiCond59) CFA_SP SP+0
        CFI (cfiCond59) CFA_XSP16 add(XSP16, 23)
        CFI Block cfiCond60 Using cfiCommon0
        CFI (cfiCond60) NoFunction
        CFI (cfiCond60) Conditional ??CrossCallReturnLabel_26, ??CrossCallReturnLabel_7
        CFI (cfiCond60) R6 load(1, XDATA, add(CFA_XSP16, literal(-16)))
        CFI (cfiCond60) VB load(1, XDATA, add(CFA_XSP16, literal(-15)))
        CFI (cfiCond60) V0 load(1, XDATA, add(CFA_XSP16, literal(-14)))
        CFI (cfiCond60) V1 load(1, XDATA, add(CFA_XSP16, literal(-13)))
        CFI (cfiCond60) V2 load(1, XDATA, add(CFA_XSP16, literal(-12)))
        CFI (cfiCond60) V3 load(1, XDATA, add(CFA_XSP16, literal(-11)))
        CFI (cfiCond60) V4 load(1, XDATA, add(CFA_XSP16, literal(-10)))
        CFI (cfiCond60) V5 load(1, XDATA, add(CFA_XSP16, literal(-9)))
        CFI (cfiCond60) V6 load(1, XDATA, add(CFA_XSP16, literal(-8)))
        CFI (cfiCond60) V7 load(1, XDATA, add(CFA_XSP16, literal(-7)))
        CFI (cfiCond60) R7 load(1, XDATA, add(CFA_XSP16, literal(-6)))
        CFI (cfiCond60) ?RET_LOW load(1, XDATA, add(CFA_XSP16, literal(-5)))
        CFI (cfiCond60) ?RET_HIGH load(1, XDATA, add(CFA_XSP16, literal(-4)))
        CFI (cfiCond60) ?BRET_EXT load(1, XDATA, add(CFA_XSP16, literal(-3)))
        CFI (cfiCond60) DPL0 load(1, XDATA, add(CFA_XSP16, literal(-2)))
        CFI (cfiCond60) DPH0 load(1, XDATA, add(CFA_XSP16, literal(-1)))
        CFI (cfiCond60) CFA_SP SP+0
        CFI (cfiCond60) CFA_XSP16 add(XSP16, 23)
        CFI Block cfiPicker61 Using cfiCommon1
        CFI (cfiPicker61) NoFunction
        CFI (cfiPicker61) Picker
        MOVX    A,@DPTR
        MOV     R0,A
        INC     DPTR
        MOVX    A,@DPTR
        MOV     DPH,A
        MOV     DPL,R0
        RET
        CFI EndBlock cfiCond57
        CFI EndBlock cfiCond58
        CFI EndBlock cfiCond59
        CFI EndBlock cfiCond60
        CFI EndBlock cfiPicker61

        RSEG BANKED_CODE:CODE:NOROOT(0)
?Subroutine9:
        CFI Block cfiCond62 Using cfiCommon0
        CFI NoFunction
        CFI Conditional ??CrossCallReturnLabel_6
        CFI R6 load(1, XDATA, add(CFA_XSP16, literal(-16)))
        CFI VB load(1, XDATA, add(CFA_XSP16, literal(-15)))
        CFI V0 load(1, XDATA, add(CFA_XSP16, literal(-14)))
        CFI V1 load(1, XDATA, add(CFA_XSP16, literal(-13)))
        CFI V2 load(1, XDATA, add(CFA_XSP16, literal(-12)))
        CFI V3 load(1, XDATA, add(CFA_XSP16, literal(-11)))
        CFI V4 load(1, XDATA, add(CFA_XSP16, literal(-10)))
        CFI V5 load(1, XDATA, add(CFA_XSP16, literal(-9)))
        CFI V6 load(1, XDATA, add(CFA_XSP16, literal(-8)))
        CFI V7 load(1, XDATA, add(CFA_XSP16, literal(-7)))
        CFI R7 load(1, XDATA, add(CFA_XSP16, literal(-6)))
        CFI ?RET_LOW load(1, XDATA, add(CFA_XSP16, literal(-5)))
        CFI ?RET_HIGH load(1, XDATA, add(CFA_XSP16, literal(-4)))
        CFI ?BRET_EXT load(1, XDATA, add(CFA_XSP16, literal(-3)))
        CFI DPL0 load(1, XDATA, add(CFA_XSP16, literal(-2)))
        CFI DPH0 load(1, XDATA, add(CFA_XSP16, literal(-1)))
        CFI CFA_SP SP+0
        CFI CFA_XSP16 add(XSP16, 23)
        CFI Block cfiCond63 Using cfiCommon0
        CFI (cfiCond63) NoFunction
        CFI (cfiCond63) Conditional ??CrossCallReturnLabel_7
        CFI (cfiCond63) R6 load(1, XDATA, add(CFA_XSP16, literal(-16)))
        CFI (cfiCond63) VB load(1, XDATA, add(CFA_XSP16, literal(-15)))
        CFI (cfiCond63) V0 load(1, XDATA, add(CFA_XSP16, literal(-14)))
        CFI (cfiCond63) V1 load(1, XDATA, add(CFA_XSP16, literal(-13)))
        CFI (cfiCond63) V2 load(1, XDATA, add(CFA_XSP16, literal(-12)))
        CFI (cfiCond63) V3 load(1, XDATA, add(CFA_XSP16, literal(-11)))
        CFI (cfiCond63) V4 load(1, XDATA, add(CFA_XSP16, literal(-10)))
        CFI (cfiCond63) V5 load(1, XDATA, add(CFA_XSP16, literal(-9)))
        CFI (cfiCond63) V6 load(1, XDATA, add(CFA_XSP16, literal(-8)))
        CFI (cfiCond63) V7 load(1, XDATA, add(CFA_XSP16, literal(-7)))
        CFI (cfiCond63) R7 load(1, XDATA, add(CFA_XSP16, literal(-6)))
        CFI (cfiCond63) ?RET_LOW load(1, XDATA, add(CFA_XSP16, literal(-5)))
        CFI (cfiCond63) ?RET_HIGH load(1, XDATA, add(CFA_XSP16, literal(-4)))
        CFI (cfiCond63) ?BRET_EXT load(1, XDATA, add(CFA_XSP16, literal(-3)))
        CFI (cfiCond63) DPL0 load(1, XDATA, add(CFA_XSP16, literal(-2)))
        CFI (cfiCond63) DPH0 load(1, XDATA, add(CFA_XSP16, literal(-1)))
        CFI (cfiCond63) CFA_SP SP+0
        CFI (cfiCond63) CFA_XSP16 add(XSP16, 23)
        CFI Block cfiPicker64 Using cfiCommon1
        CFI (cfiPicker64) NoFunction
        CFI (cfiPicker64) Picker
        LCALL   ?Subroutine18 & 0xFFFF
??CrossCallReturnLabel_26:
        MOV     R0,#?V0 + 0
        RET
        CFI EndBlock cfiCond62
        CFI EndBlock cfiCond63
        CFI EndBlock cfiPicker64

        RSEG BANKED_CODE:CODE:NOROOT(0)
?Subroutine7:
        CFI Block cfiCond65 Using cfiCommon0
        CFI NoFunction
        CFI Conditional ??CrossCallReturnLabel_4
        CFI R6 load(1, XDATA, add(CFA_XSP16, literal(-16)))
        CFI VB load(1, XDATA, add(CFA_XSP16, literal(-15)))
        CFI V0 load(1, XDATA, add(CFA_XSP16, literal(-14)))
        CFI V1 load(1, XDATA, add(CFA_XSP16, literal(-13)))
        CFI V2 load(1, XDATA, add(CFA_XSP16, literal(-12)))
        CFI V3 load(1, XDATA, add(CFA_XSP16, literal(-11)))
        CFI V4 load(1, XDATA, add(CFA_XSP16, literal(-10)))
        CFI V5 load(1, XDATA, add(CFA_XSP16, literal(-9)))
        CFI V6 load(1, XDATA, add(CFA_XSP16, literal(-8)))
        CFI V7 load(1, XDATA, add(CFA_XSP16, literal(-7)))
        CFI R7 load(1, XDATA, add(CFA_XSP16, literal(-6)))
        CFI ?RET_LOW load(1, XDATA, add(CFA_XSP16, literal(-5)))
        CFI ?RET_HIGH load(1, XDATA, add(CFA_XSP16, literal(-4)))
        CFI ?BRET_EXT load(1, XDATA, add(CFA_XSP16, literal(-3)))
        CFI DPL0 load(1, XDATA, add(CFA_XSP16, literal(-2)))
        CFI DPH0 load(1, XDATA, add(CFA_XSP16, literal(-1)))
        CFI CFA_SP SP+0
        CFI CFA_XSP16 add(XSP16, 23)
        CFI Block cfiCond66 Using cfiCommon0
        CFI (cfiCond66) NoFunction
        CFI (cfiCond66) Conditional ??CrossCallReturnLabel_5
        CFI (cfiCond66) R6 load(1, XDATA, add(CFA_XSP16, literal(-16)))
        CFI (cfiCond66) VB load(1, XDATA, add(CFA_XSP16, literal(-15)))
        CFI (cfiCond66) V0 load(1, XDATA, add(CFA_XSP16, literal(-14)))
        CFI (cfiCond66) V1 load(1, XDATA, add(CFA_XSP16, literal(-13)))
        CFI (cfiCond66) V2 load(1, XDATA, add(CFA_XSP16, literal(-12)))
        CFI (cfiCond66) V3 load(1, XDATA, add(CFA_XSP16, literal(-11)))
        CFI (cfiCond66) V4 load(1, XDATA, add(CFA_XSP16, literal(-10)))
        CFI (cfiCond66) V5 load(1, XDATA, add(CFA_XSP16, literal(-9)))
        CFI (cfiCond66) V6 load(1, XDATA, add(CFA_XSP16, literal(-8)))
        CFI (cfiCond66) V7 load(1, XDATA, add(CFA_XSP16, literal(-7)))
        CFI (cfiCond66) R7 load(1, XDATA, add(CFA_XSP16, literal(-6)))
        CFI (cfiCond66) ?RET_LOW load(1, XDATA, add(CFA_XSP16, literal(-5)))
        CFI (cfiCond66) ?RET_HIGH load(1, XDATA, add(CFA_XSP16, literal(-4)))
        CFI (cfiCond66) ?BRET_EXT load(1, XDATA, add(CFA_XSP16, literal(-3)))
        CFI (cfiCond66) DPL0 load(1, XDATA, add(CFA_XSP16, literal(-2)))
        CFI (cfiCond66) DPH0 load(1, XDATA, add(CFA_XSP16, literal(-1)))
        CFI (cfiCond66) CFA_SP SP+-1
        CFI (cfiCond66) CFA_XSP16 add(XSP16, 23)
        CFI Block cfiPicker67 Using cfiCommon1
        CFI (cfiPicker67) NoFunction
        CFI (cfiPicker67) Picker
        MOVX    A,@DPTR
        ADD     A,R4
        MOV     R0,A
        INC     DPTR
        MOVX    A,@DPTR
        ADDC    A,#0x0
        MOV     DPL,R0
        MOV     DPH,A
        RET
        CFI EndBlock cfiCond65
        CFI EndBlock cfiCond66
        CFI EndBlock cfiPicker67

        RSEG BANKED_CODE:CODE:NOROOT(0)
?Subroutine5:
        CFI Block cfiCond68 Using cfiCommon0
        CFI NoFunction
        CFI Conditional ??CrossCallReturnLabel_40
        CFI R6 load(1, XDATA, add(CFA_XSP16, literal(-16)))
        CFI VB load(1, XDATA, add(CFA_XSP16, literal(-15)))
        CFI V0 load(1, XDATA, add(CFA_XSP16, literal(-14)))
        CFI V1 load(1, XDATA, add(CFA_XSP16, literal(-13)))
        CFI V2 load(1, XDATA, add(CFA_XSP16, literal(-12)))
        CFI V3 load(1, XDATA, add(CFA_XSP16, literal(-11)))
        CFI V4 load(1, XDATA, add(CFA_XSP16, literal(-10)))
        CFI V5 load(1, XDATA, add(CFA_XSP16, literal(-9)))
        CFI V6 load(1, XDATA, add(CFA_XSP16, literal(-8)))
        CFI V7 load(1, XDATA, add(CFA_XSP16, literal(-7)))
        CFI R7 load(1, XDATA, add(CFA_XSP16, literal(-6)))
        CFI ?RET_LOW load(1, XDATA, add(CFA_XSP16, literal(-5)))
        CFI ?RET_HIGH load(1, XDATA, add(CFA_XSP16, literal(-4)))
        CFI ?BRET_EXT load(1, XDATA, add(CFA_XSP16, literal(-3)))
        CFI DPL0 load(1, XDATA, add(CFA_XSP16, literal(-2)))
        CFI DPH0 load(1, XDATA, add(CFA_XSP16, literal(-1)))
        CFI CFA_SP SP+0
        CFI CFA_XSP16 add(XSP16, 23)
        CFI Block cfiCond69 Using cfiCommon0
        CFI (cfiCond69) NoFunction
        CFI (cfiCond69) Conditional ??CrossCallReturnLabel_41
        CFI (cfiCond69) R6 load(1, XDATA, add(CFA_XSP16, literal(-16)))
        CFI (cfiCond69) VB load(1, XDATA, add(CFA_XSP16, literal(-15)))
        CFI (cfiCond69) V0 load(1, XDATA, add(CFA_XSP16, literal(-14)))
        CFI (cfiCond69) V1 load(1, XDATA, add(CFA_XSP16, literal(-13)))
        CFI (cfiCond69) V2 load(1, XDATA, add(CFA_XSP16, literal(-12)))
        CFI (cfiCond69) V3 load(1, XDATA, add(CFA_XSP16, literal(-11)))
        CFI (cfiCond69) V4 load(1, XDATA, add(CFA_XSP16, literal(-10)))
        CFI (cfiCond69) V5 load(1, XDATA, add(CFA_XSP16, literal(-9)))
        CFI (cfiCond69) V6 load(1, XDATA, add(CFA_XSP16, literal(-8)))
        CFI (cfiCond69) V7 load(1, XDATA, add(CFA_XSP16, literal(-7)))
        CFI (cfiCond69) R7 load(1, XDATA, add(CFA_XSP16, literal(-6)))
        CFI (cfiCond69) ?RET_LOW load(1, XDATA, add(CFA_XSP16, literal(-5)))
        CFI (cfiCond69) ?RET_HIGH load(1, XDATA, add(CFA_XSP16, literal(-4)))
        CFI (cfiCond69) ?BRET_EXT load(1, XDATA, add(CFA_XSP16, literal(-3)))
        CFI (cfiCond69) DPL0 load(1, XDATA, add(CFA_XSP16, literal(-2)))
        CFI (cfiCond69) DPH0 load(1, XDATA, add(CFA_XSP16, literal(-1)))
        CFI (cfiCond69) CFA_SP SP+0
        CFI (cfiCond69) CFA_XSP16 add(XSP16, 23)
        CFI Block cfiPicker70 Using cfiCommon1
        CFI (cfiPicker70) NoFunction
        CFI (cfiPicker70) Picker
        MOV     DPL,?XSP + 0
        MOV     DPH,?XSP + 1
        CFI EndBlock cfiCond68
        CFI EndBlock cfiCond69
        CFI EndBlock cfiPicker70
        REQUIRE ??Subroutine22_0
        ; // Fall through to label ??Subroutine22_0

        RSEG BANKED_CODE:CODE:NOROOT(0)
??Subroutine22_0:
        CFI Block cfiCond71 Using cfiCommon0
        CFI NoFunction
        CFI Conditional ??CrossCallReturnLabel_39
        CFI R6 load(1, XDATA, add(CFA_XSP16, literal(-14)))
        CFI VB load(1, XDATA, add(CFA_XSP16, literal(-13)))
        CFI V0 load(1, XDATA, add(CFA_XSP16, literal(-12)))
        CFI V1 load(1, XDATA, add(CFA_XSP16, literal(-11)))
        CFI V2 load(1, XDATA, add(CFA_XSP16, literal(-10)))
        CFI V3 load(1, XDATA, add(CFA_XSP16, literal(-9)))
        CFI V4 load(1, XDATA, add(CFA_XSP16, literal(-8)))
        CFI V5 load(1, XDATA, add(CFA_XSP16, literal(-7)))
        CFI R7 load(1, XDATA, add(CFA_XSP16, literal(-6)))
        CFI ?RET_LOW load(1, XDATA, add(CFA_XSP16, literal(-5)))
        CFI ?RET_HIGH load(1, XDATA, add(CFA_XSP16, literal(-4)))
        CFI ?BRET_EXT load(1, XDATA, add(CFA_XSP16, literal(-3)))
        CFI DPL0 load(1, XDATA, add(CFA_XSP16, literal(-2)))
        CFI DPH0 load(1, XDATA, add(CFA_XSP16, literal(-1)))
        CFI CFA_SP SP+0
        CFI CFA_XSP16 add(XSP16, 14)
        CFI Block cfiCond72 Using cfiCommon0
        CFI (cfiCond72) NoFunction
        CFI (cfiCond72) Conditional ??CrossCallReturnLabel_40
        CFI (cfiCond72) R6 load(1, XDATA, add(CFA_XSP16, literal(-16)))
        CFI (cfiCond72) VB load(1, XDATA, add(CFA_XSP16, literal(-15)))
        CFI (cfiCond72) V0 load(1, XDATA, add(CFA_XSP16, literal(-14)))
        CFI (cfiCond72) V1 load(1, XDATA, add(CFA_XSP16, literal(-13)))
        CFI (cfiCond72) V2 load(1, XDATA, add(CFA_XSP16, literal(-12)))
        CFI (cfiCond72) V3 load(1, XDATA, add(CFA_XSP16, literal(-11)))
        CFI (cfiCond72) V4 load(1, XDATA, add(CFA_XSP16, literal(-10)))
        CFI (cfiCond72) V5 load(1, XDATA, add(CFA_XSP16, literal(-9)))
        CFI (cfiCond72) V6 load(1, XDATA, add(CFA_XSP16, literal(-8)))
        CFI (cfiCond72) V7 load(1, XDATA, add(CFA_XSP16, literal(-7)))
        CFI (cfiCond72) R7 load(1, XDATA, add(CFA_XSP16, literal(-6)))
        CFI (cfiCond72) ?RET_LOW load(1, XDATA, add(CFA_XSP16, literal(-5)))
        CFI (cfiCond72) ?RET_HIGH load(1, XDATA, add(CFA_XSP16, literal(-4)))
        CFI (cfiCond72) ?BRET_EXT load(1, XDATA, add(CFA_XSP16, literal(-3)))
        CFI (cfiCond72) DPL0 load(1, XDATA, add(CFA_XSP16, literal(-2)))
        CFI (cfiCond72) DPH0 load(1, XDATA, add(CFA_XSP16, literal(-1)))
        CFI (cfiCond72) CFA_SP SP+0
        CFI (cfiCond72) CFA_XSP16 add(XSP16, 23)
        CFI Block cfiCond73 Using cfiCommon0
        CFI (cfiCond73) NoFunction
        CFI (cfiCond73) Conditional ??CrossCallReturnLabel_41
        CFI (cfiCond73) R6 load(1, XDATA, add(CFA_XSP16, literal(-16)))
        CFI (cfiCond73) VB load(1, XDATA, add(CFA_XSP16, literal(-15)))
        CFI (cfiCond73) V0 load(1, XDATA, add(CFA_XSP16, literal(-14)))
        CFI (cfiCond73) V1 load(1, XDATA, add(CFA_XSP16, literal(-13)))
        CFI (cfiCond73) V2 load(1, XDATA, add(CFA_XSP16, literal(-12)))
        CFI (cfiCond73) V3 load(1, XDATA, add(CFA_XSP16, literal(-11)))
        CFI (cfiCond73) V4 load(1, XDATA, add(CFA_XSP16, literal(-10)))
        CFI (cfiCond73) V5 load(1, XDATA, add(CFA_XSP16, literal(-9)))
        CFI (cfiCond73) V6 load(1, XDATA, add(CFA_XSP16, literal(-8)))
        CFI (cfiCond73) V7 load(1, XDATA, add(CFA_XSP16, literal(-7)))
        CFI (cfiCond73) R7 load(1, XDATA, add(CFA_XSP16, literal(-6)))
        CFI (cfiCond73) ?RET_LOW load(1, XDATA, add(CFA_XSP16, literal(-5)))
        CFI (cfiCond73) ?RET_HIGH load(1, XDATA, add(CFA_XSP16, literal(-4)))
        CFI (cfiCond73) ?BRET_EXT load(1, XDATA, add(CFA_XSP16, literal(-3)))
        CFI (cfiCond73) DPL0 load(1, XDATA, add(CFA_XSP16, literal(-2)))
        CFI (cfiCond73) DPH0 load(1, XDATA, add(CFA_XSP16, literal(-1)))
        CFI (cfiCond73) CFA_SP SP+0
        CFI (cfiCond73) CFA_XSP16 add(XSP16, 23)
        CFI Block cfiPicker74 Using cfiCommon1
        CFI (cfiPicker74) NoFunction
        CFI (cfiPicker74) Picker
        LCALL   ??Subroutine23_0 & 0xFFFF
??CrossCallReturnLabel_46:
        MOV     A,R0
        ORL     A,R1
        RET
        CFI EndBlock cfiCond71
        CFI EndBlock cfiCond72
        CFI EndBlock cfiCond73
        CFI EndBlock cfiPicker74
//  827 
//  828 #if defined ( NWK_MANAGER )
//  829 /*********************************************************************
//  830  * @fn      NwkMgr_SetNwkManager
//  831  *
//  832  * @brief   Set the local device as the Network Manager
//  833  *
//  834  * @param   none
//  835  *
//  836  * @return  none
//  837  */
//  838 void NwkMgr_SetNwkManager( void )
//  839 {
//  840   if ( zgNwkMgrMode == ZDNWKMGR_ENABLE )
//  841   {
//  842     // We're the Network Manager. Set our address as the Network Manager Address
//  843     ZDNwkMgr_SetNwkManagerAddr( _NIB.nwkDevAddress );
//  844     
//  845     // Set the Network Manager bit of the Server Mask
//  846     ZDO_Config_Node_Descriptor.ServerMask |= NETWORK_MANAGER;
//  847   }
//  848 }
//  849 #endif // NWK_MANAGER
//  850 
//  851 /*********************************************************************
//  852  * @fn      ZDApp_SetNwkManagerAddr()
//  853  *
//  854  * @brief   Sets the nwkManagerAddr in NIB.
//  855  *
//  856  * @param   nwkManagerAddr
//  857  *
//  858  * @return  none
//  859  */

        RSEG BANKED_CODE:CODE:NOROOT(0)
//  860 void ZDNwkMgr_SetNwkManagerAddr( uint16 nwkManagerAddr )
ZDNwkMgr_SetNwkManagerAddr:
        CFI Block cfiBlock75 Using cfiCommon0
        CFI Function ZDNwkMgr_SetNwkManagerAddr
        CODE
//  861 {
        FUNCALL ZDNwkMgr_SetNwkManagerAddr, ZDApp_NwkStateUpdateCB
        LOCFRAME ISTACK, 2, STACK
        LOCFRAME PSTACK, 0, STACK
        LOCFRAME XSTACK, 0, STACK
        LOCFRAME IOVERLAY, 0, STATIC
        LOCFRAME DOVERLAY, 0, STATIC
        ARGFRAME ISTACK, 2, STACK
        ARGFRAME PSTACK, 0, STACK
        ARGFRAME XSTACK, 0, STACK
        ARGFRAME IOVERLAY, 0, STATIC
        ARGFRAME DOVERLAY, 0, STATIC
        PUSH    DPL
        CFI DPL0 Frame(CFA_SP, 4)
        CFI CFA_SP SP+-4
        PUSH    DPH
        CFI DPH0 Frame(CFA_SP, 5)
        CFI CFA_SP SP+-5
        ; Saved register size: 2
        ; Auto size: 0
//  862   if ( _NIB.nwkManagerAddr != nwkManagerAddr )
        MOV     DPTR,#_NIB + 105
        MOVX    A,@DPTR
        XRL     A,R2
        JNZ     ??ZDNwkMgr_SetNwkManagerAddr_0
        INC     DPTR
        MOVX    A,@DPTR
        XRL     A,R3
??ZDNwkMgr_SetNwkManagerAddr_0:
        JZ      ??ZDNwkMgr_SetNwkManagerAddr_1
//  863   {
//  864     // Update the Network Manager Address
//  865     _NIB.nwkManagerAddr = nwkManagerAddr;
        MOV     DPTR,#_NIB + 105
        MOV     A,R2
        MOVX    @DPTR,A
        INC     DPTR
        MOV     A,R3
        MOVX    @DPTR,A
//  866   
//  867     // Our Network Manger Address has been changed -- notify to save info into NV
//  868     ZDApp_NwkStateUpdateCB();
        ; Setup parameters for call to function ZDApp_NwkStateUpdateCB
        LCALL   ??ZDApp_NwkStateUpdateCB?relay
        CFI EndBlock cfiBlock75
//  869   }
//  870 }
??ZDNwkMgr_SetNwkManagerAddr_1:
        REQUIRE ?Subroutine2
        ; // Fall through to label ?Subroutine2

        RSEG BANKED_CODE:CODE:NOROOT(0)
?Subroutine2:
        CFI Block cfiBlock76 Using cfiCommon0
        CFI NoFunction
        CFI CFA_SP SP+-5
        CFI DPL0 Frame(CFA_SP, 4)
        CFI DPH0 Frame(CFA_SP, 5)
        POP     DPH
        CFI CFA_SP SP+-4
        CFI DPH0 SameValue
        POP     DPL
        CFI CFA_SP SP+-3
        CFI DPL0 SameValue
        LJMP    ?BRET
        CFI EndBlock cfiBlock76
//  871 
//  872 /*********************************************************************
//  873  * @fn          ZDNwkMgr_ReportChannelInterference
//  874  *
//  875  * @brief       This function builds a Channel Interference detection
//  876  *              message and then forwards it to the Network Manager.
//  877  *
//  878  * @param       chanInterference
//  879  *
//  880  * @return      none
//  881  */

        RSEG BANKED_CODE:CODE:NOROOT(0)
//  882 void ZDNwkMgr_ReportChannelInterference(  NLME_ChanInterference_t *chanInterference  )
ZDNwkMgr_ReportChannelInterference:
        CFI Block cfiBlock77 Using cfiCommon0
        CFI Function ZDNwkMgr_ReportChannelInterference
        CODE
//  883 {
        FUNCALL ZDNwkMgr_ReportChannelInterference, osal_msg_allocate
        LOCFRAME ISTACK, 0, STACK
        LOCFRAME PSTACK, 0, STACK
        LOCFRAME XSTACK, 10, STACK
        LOCFRAME IOVERLAY, 0, STATIC
        LOCFRAME DOVERLAY, 0, STATIC
        ARGFRAME ISTACK, 0, STACK
        ARGFRAME PSTACK, 0, STACK
        ARGFRAME XSTACK, 10, STACK
        ARGFRAME IOVERLAY, 0, STATIC
        ARGFRAME DOVERLAY, 0, STATIC
        FUNCALL ZDNwkMgr_ReportChannelInterference, osal_msg_send
        LOCFRAME ISTACK, 0, STACK
        LOCFRAME PSTACK, 0, STACK
        LOCFRAME XSTACK, 10, STACK
        LOCFRAME IOVERLAY, 0, STATIC
        LOCFRAME DOVERLAY, 0, STATIC
        ARGFRAME ISTACK, 0, STACK
        ARGFRAME PSTACK, 0, STACK
        ARGFRAME XSTACK, 10, STACK
        ARGFRAME IOVERLAY, 0, STATIC
        ARGFRAME DOVERLAY, 0, STATIC
        MOV     A,#-0xa
        LCALL   ?BANKED_ENTER_XDATA
        CFI DPH0 load(1, XDATA, add(CFA_XSP16, literal(-1)))
        CFI DPL0 load(1, XDATA, add(CFA_XSP16, literal(-2)))
        CFI ?BRET_EXT load(1, XDATA, add(CFA_XSP16, literal(-3)))
        CFI ?RET_HIGH load(1, XDATA, add(CFA_XSP16, literal(-4)))
        CFI ?RET_LOW load(1, XDATA, add(CFA_XSP16, literal(-5)))
        CFI R7 load(1, XDATA, add(CFA_XSP16, literal(-6)))
        CFI V1 load(1, XDATA, add(CFA_XSP16, literal(-7)))
        CFI V0 load(1, XDATA, add(CFA_XSP16, literal(-8)))
        CFI VB load(1, XDATA, add(CFA_XSP16, literal(-9)))
        CFI R6 load(1, XDATA, add(CFA_XSP16, literal(-10)))
        CFI CFA_SP SP+0
        CFI CFA_XSP16 add(XSP16, 10)
        ; Saved register size: 10
        ; Auto size: 0
        MOV     A,R2
        MOV     R6,A
        MOV     A,R3
        MOV     R7,A
//  884   ZDNwkMgr_ChanInterference_t *pChanInterference;
//  885 
//  886   // Send Channel Interference message to the Network Manager task
//  887   pChanInterference = (ZDNwkMgr_ChanInterference_t *)osal_msg_allocate( sizeof( ZDNwkMgr_ChanInterference_t ) );
        ; Setup parameters for call to function osal_msg_allocate
        MOV     R2,#0x6
        MOV     R3,#0x0
        LCALL   ??osal_msg_allocate?relay
//  888   if ( pChanInterference )
        MOV     A,R2
        ORL     A,R3
        JZ      ??ZDNwkMgr_ReportChannelInterference_0
//  889   {
//  890     pChanInterference->hdr.event = NM_CHANNEL_INTERFERE;
        MOV     DPL,R2
        MOV     DPH,R3
        MOV     A,#0x31
        MOVX    @DPTR,A
//  891       
//  892     // Build the structure
//  893     pChanInterference->totalTransmissions = chanInterference->totalTransmissions;
        MOV     DPL,R6
        MOV     DPH,R7
        LCALL   ?Subroutine6 & 0xFFFF
??CrossCallReturnLabel_2:
        LCALL   ??Subroutine21_0 & 0xFFFF
//  894     pChanInterference->txFailures = chanInterference->txFailures;
??CrossCallReturnLabel_34:
        MOV     DPL,R6
        MOV     DPH,R7
        INC     DPTR
        INC     DPTR
        LCALL   ?Subroutine6 & 0xFFFF
??CrossCallReturnLabel_3:
        INC     DPTR
        INC     DPTR
        LCALL   ??Subroutine21_0 & 0xFFFF
//  895               
//  896     osal_msg_send( ZDNwkMgr_TaskID, (uint8 *)pChanInterference );
??CrossCallReturnLabel_35:
        ; Setup parameters for call to function osal_msg_send
        MOV     DPTR,#ZDNwkMgr_TaskID
        MOVX    A,@DPTR
        MOV     R1,A
        LCALL   ??osal_msg_send?relay
//  897   }
//  898 }
??ZDNwkMgr_ReportChannelInterference_0:
        MOV     R7,#0x2
        LJMP    ?BANKED_LEAVE_XDATA
        CFI EndBlock cfiBlock77

        RSEG BANKED_CODE:CODE:NOROOT(0)
?Subroutine6:
        CFI Block cfiCond78 Using cfiCommon0
        CFI NoFunction
        CFI Conditional ??CrossCallReturnLabel_2
        CFI R6 load(1, XDATA, add(CFA_XSP16, literal(-10)))
        CFI VB load(1, XDATA, add(CFA_XSP16, literal(-9)))
        CFI V0 load(1, XDATA, add(CFA_XSP16, literal(-8)))
        CFI V1 load(1, XDATA, add(CFA_XSP16, literal(-7)))
        CFI R7 load(1, XDATA, add(CFA_XSP16, literal(-6)))
        CFI ?RET_LOW load(1, XDATA, add(CFA_XSP16, literal(-5)))
        CFI ?RET_HIGH load(1, XDATA, add(CFA_XSP16, literal(-4)))
        CFI ?BRET_EXT load(1, XDATA, add(CFA_XSP16, literal(-3)))
        CFI DPL0 load(1, XDATA, add(CFA_XSP16, literal(-2)))
        CFI DPH0 load(1, XDATA, add(CFA_XSP16, literal(-1)))
        CFI CFA_SP SP+0
        CFI CFA_XSP16 add(XSP16, 10)
        CFI Block cfiCond79 Using cfiCommon0
        CFI (cfiCond79) NoFunction
        CFI (cfiCond79) Conditional ??CrossCallReturnLabel_3
        CFI (cfiCond79) R6 load(1, XDATA, add(CFA_XSP16, literal(-10)))
        CFI (cfiCond79) VB load(1, XDATA, add(CFA_XSP16, literal(-9)))
        CFI (cfiCond79) V0 load(1, XDATA, add(CFA_XSP16, literal(-8)))
        CFI (cfiCond79) V1 load(1, XDATA, add(CFA_XSP16, literal(-7)))
        CFI (cfiCond79) R7 load(1, XDATA, add(CFA_XSP16, literal(-6)))
        CFI (cfiCond79) ?RET_LOW load(1, XDATA, add(CFA_XSP16, literal(-5)))
        CFI (cfiCond79) ?RET_HIGH load(1, XDATA, add(CFA_XSP16, literal(-4)))
        CFI (cfiCond79) ?BRET_EXT load(1, XDATA, add(CFA_XSP16, literal(-3)))
        CFI (cfiCond79) DPL0 load(1, XDATA, add(CFA_XSP16, literal(-2)))
        CFI (cfiCond79) DPH0 load(1, XDATA, add(CFA_XSP16, literal(-1)))
        CFI (cfiCond79) CFA_SP SP+0
        CFI (cfiCond79) CFA_XSP16 add(XSP16, 10)
        CFI Block cfiPicker80 Using cfiCommon1
        CFI (cfiPicker80) NoFunction
        CFI (cfiPicker80) Picker
        LCALL   ??Subroutine23_0 & 0xFFFF
??CrossCallReturnLabel_42:
        MOV     DPL,R2
        MOV     DPH,R3
        INC     DPTR
        INC     DPTR
        RET
        CFI EndBlock cfiCond78
        CFI EndBlock cfiCond79
        CFI EndBlock cfiPicker80

        RSEG BANKED_CODE:CODE:NOROOT(0)
?Subroutine17:
        CFI Block cfiCond81 Using cfiCommon0
        CFI NoFunction
        CFI Conditional ??CrossCallReturnLabel_43
        CFI R6 load(1, XDATA, add(CFA_XSP16, literal(-14)))
        CFI VB load(1, XDATA, add(CFA_XSP16, literal(-13)))
        CFI V0 load(1, XDATA, add(CFA_XSP16, literal(-12)))
        CFI V1 load(1, XDATA, add(CFA_XSP16, literal(-11)))
        CFI V2 load(1, XDATA, add(CFA_XSP16, literal(-10)))
        CFI V3 load(1, XDATA, add(CFA_XSP16, literal(-9)))
        CFI V4 load(1, XDATA, add(CFA_XSP16, literal(-8)))
        CFI V5 load(1, XDATA, add(CFA_XSP16, literal(-7)))
        CFI R7 load(1, XDATA, add(CFA_XSP16, literal(-6)))
        CFI ?RET_LOW load(1, XDATA, add(CFA_XSP16, literal(-5)))
        CFI ?RET_HIGH load(1, XDATA, add(CFA_XSP16, literal(-4)))
        CFI ?BRET_EXT load(1, XDATA, add(CFA_XSP16, literal(-3)))
        CFI DPL0 load(1, XDATA, add(CFA_XSP16, literal(-2)))
        CFI DPH0 load(1, XDATA, add(CFA_XSP16, literal(-1)))
        CFI CFA_SP SP+0
        CFI CFA_XSP16 add(XSP16, 14)
        CFI Block cfiCond82 Using cfiCommon0
        CFI (cfiCond82) NoFunction
        CFI (cfiCond82) Conditional ??CrossCallReturnLabel_44
        CFI (cfiCond82) R6 load(1, XDATA, add(CFA_XSP16, literal(-14)))
        CFI (cfiCond82) VB load(1, XDATA, add(CFA_XSP16, literal(-13)))
        CFI (cfiCond82) V0 load(1, XDATA, add(CFA_XSP16, literal(-12)))
        CFI (cfiCond82) V1 load(1, XDATA, add(CFA_XSP16, literal(-11)))
        CFI (cfiCond82) V2 load(1, XDATA, add(CFA_XSP16, literal(-10)))
        CFI (cfiCond82) V3 load(1, XDATA, add(CFA_XSP16, literal(-9)))
        CFI (cfiCond82) V4 load(1, XDATA, add(CFA_XSP16, literal(-8)))
        CFI (cfiCond82) V5 load(1, XDATA, add(CFA_XSP16, literal(-7)))
        CFI (cfiCond82) R7 load(1, XDATA, add(CFA_XSP16, literal(-6)))
        CFI (cfiCond82) ?RET_LOW load(1, XDATA, add(CFA_XSP16, literal(-5)))
        CFI (cfiCond82) ?RET_HIGH load(1, XDATA, add(CFA_XSP16, literal(-4)))
        CFI (cfiCond82) ?BRET_EXT load(1, XDATA, add(CFA_XSP16, literal(-3)))
        CFI (cfiCond82) DPL0 load(1, XDATA, add(CFA_XSP16, literal(-2)))
        CFI (cfiCond82) DPH0 load(1, XDATA, add(CFA_XSP16, literal(-1)))
        CFI (cfiCond82) CFA_SP SP+0
        CFI (cfiCond82) CFA_XSP16 add(XSP16, 14)
        CFI Block cfiPicker83 Using cfiCommon1
        CFI (cfiPicker83) NoFunction
        CFI (cfiPicker83) Picker
        INC     DPTR
        INC     DPTR
        CFI EndBlock cfiCond81
        CFI EndBlock cfiCond82
        CFI EndBlock cfiPicker83
        REQUIRE ??Subroutine23_0
        ; // Fall through to label ??Subroutine23_0

        RSEG BANKED_CODE:CODE:NOROOT(0)
??Subroutine23_0:
        CFI Block cfiCond84 Using cfiCommon0
        CFI NoFunction
        CFI Conditional ??CrossCallReturnLabel_45, ??CrossCallReturnLabel_37
        CFI R6 load(1, XDATA, add(CFA_XSP16, literal(-12)))
        CFI VB load(1, XDATA, add(CFA_XSP16, literal(-11)))
        CFI V0 load(1, XDATA, add(CFA_XSP16, literal(-10)))
        CFI V1 load(1, XDATA, add(CFA_XSP16, literal(-9)))
        CFI V2 load(1, XDATA, add(CFA_XSP16, literal(-8)))
        CFI V3 load(1, XDATA, add(CFA_XSP16, literal(-7)))
        CFI R7 load(1, XDATA, add(CFA_XSP16, literal(-6)))
        CFI ?RET_LOW load(1, XDATA, add(CFA_XSP16, literal(-5)))
        CFI ?RET_HIGH load(1, XDATA, add(CFA_XSP16, literal(-4)))
        CFI ?BRET_EXT load(1, XDATA, add(CFA_XSP16, literal(-3)))
        CFI DPL0 load(1, XDATA, add(CFA_XSP16, literal(-2)))
        CFI DPH0 load(1, XDATA, add(CFA_XSP16, literal(-1)))
        CFI CFA_SP SP+0
        CFI CFA_XSP16 add(XSP16, 21)
        CFI Block cfiCond85 Using cfiCommon0
        CFI (cfiCond85) NoFunction
        CFI (cfiCond85) Conditional ??CrossCallReturnLabel_45, ??CrossCallReturnLabel_38
        CFI (cfiCond85) R6 load(1, XDATA, add(CFA_XSP16, literal(-12)))
        CFI (cfiCond85) VB load(1, XDATA, add(CFA_XSP16, literal(-11)))
        CFI (cfiCond85) V0 load(1, XDATA, add(CFA_XSP16, literal(-10)))
        CFI (cfiCond85) V1 load(1, XDATA, add(CFA_XSP16, literal(-9)))
        CFI (cfiCond85) V2 load(1, XDATA, add(CFA_XSP16, literal(-8)))
        CFI (cfiCond85) V3 load(1, XDATA, add(CFA_XSP16, literal(-7)))
        CFI (cfiCond85) R7 load(1, XDATA, add(CFA_XSP16, literal(-6)))
        CFI (cfiCond85) ?RET_LOW load(1, XDATA, add(CFA_XSP16, literal(-5)))
        CFI (cfiCond85) ?RET_HIGH load(1, XDATA, add(CFA_XSP16, literal(-4)))
        CFI (cfiCond85) ?BRET_EXT load(1, XDATA, add(CFA_XSP16, literal(-3)))
        CFI (cfiCond85) DPL0 load(1, XDATA, add(CFA_XSP16, literal(-2)))
        CFI (cfiCond85) DPH0 load(1, XDATA, add(CFA_XSP16, literal(-1)))
        CFI (cfiCond85) CFA_SP SP+0
        CFI (cfiCond85) CFA_XSP16 add(XSP16, 21)
        CFI Block cfiCond86 Using cfiCommon0
        CFI (cfiCond86) NoFunction
        CFI (cfiCond86) Conditional ??CrossCallReturnLabel_45, ??CrossCallReturnLabel_36
        CFI (cfiCond86) R6 load(1, XDATA, add(CFA_XSP16, literal(-12)))
        CFI (cfiCond86) VB load(1, XDATA, add(CFA_XSP16, literal(-11)))
        CFI (cfiCond86) V0 load(1, XDATA, add(CFA_XSP16, literal(-10)))
        CFI (cfiCond86) V1 load(1, XDATA, add(CFA_XSP16, literal(-9)))
        CFI (cfiCond86) V2 load(1, XDATA, add(CFA_XSP16, literal(-8)))
        CFI (cfiCond86) V3 load(1, XDATA, add(CFA_XSP16, literal(-7)))
        CFI (cfiCond86) R7 load(1, XDATA, add(CFA_XSP16, literal(-6)))
        CFI (cfiCond86) ?RET_LOW load(1, XDATA, add(CFA_XSP16, literal(-5)))
        CFI (cfiCond86) ?RET_HIGH load(1, XDATA, add(CFA_XSP16, literal(-4)))
        CFI (cfiCond86) ?BRET_EXT load(1, XDATA, add(CFA_XSP16, literal(-3)))
        CFI (cfiCond86) DPL0 load(1, XDATA, add(CFA_XSP16, literal(-2)))
        CFI (cfiCond86) DPH0 load(1, XDATA, add(CFA_XSP16, literal(-1)))
        CFI (cfiCond86) CFA_SP SP+0
        CFI (cfiCond86) CFA_XSP16 add(XSP16, 12)
        CFI Block cfiCond87 Using cfiCommon0
        CFI (cfiCond87) NoFunction
        CFI (cfiCond87) Conditional ??CrossCallReturnLabel_46, ??CrossCallReturnLabel_40
        CFI (cfiCond87) R6 load(1, XDATA, add(CFA_XSP16, literal(-16)))
        CFI (cfiCond87) VB load(1, XDATA, add(CFA_XSP16, literal(-15)))
        CFI (cfiCond87) V0 load(1, XDATA, add(CFA_XSP16, literal(-14)))
        CFI (cfiCond87) V1 load(1, XDATA, add(CFA_XSP16, literal(-13)))
        CFI (cfiCond87) V2 load(1, XDATA, add(CFA_XSP16, literal(-12)))
        CFI (cfiCond87) V3 load(1, XDATA, add(CFA_XSP16, literal(-11)))
        CFI (cfiCond87) V4 load(1, XDATA, add(CFA_XSP16, literal(-10)))
        CFI (cfiCond87) V5 load(1, XDATA, add(CFA_XSP16, literal(-9)))
        CFI (cfiCond87) V6 load(1, XDATA, add(CFA_XSP16, literal(-8)))
        CFI (cfiCond87) V7 load(1, XDATA, add(CFA_XSP16, literal(-7)))
        CFI (cfiCond87) R7 load(1, XDATA, add(CFA_XSP16, literal(-6)))
        CFI (cfiCond87) ?RET_LOW load(1, XDATA, add(CFA_XSP16, literal(-5)))
        CFI (cfiCond87) ?RET_HIGH load(1, XDATA, add(CFA_XSP16, literal(-4)))
        CFI (cfiCond87) ?BRET_EXT load(1, XDATA, add(CFA_XSP16, literal(-3)))
        CFI (cfiCond87) DPL0 load(1, XDATA, add(CFA_XSP16, literal(-2)))
        CFI (cfiCond87) DPH0 load(1, XDATA, add(CFA_XSP16, literal(-1)))
        CFI (cfiCond87) CFA_SP SP+0
        CFI (cfiCond87) CFA_XSP16 add(XSP16, 23)
        CFI Block cfiCond88 Using cfiCommon0
        CFI (cfiCond88) NoFunction
        CFI (cfiCond88) Conditional ??CrossCallReturnLabel_46, ??CrossCallReturnLabel_41
        CFI (cfiCond88) R6 load(1, XDATA, add(CFA_XSP16, literal(-16)))
        CFI (cfiCond88) VB load(1, XDATA, add(CFA_XSP16, literal(-15)))
        CFI (cfiCond88) V0 load(1, XDATA, add(CFA_XSP16, literal(-14)))
        CFI (cfiCond88) V1 load(1, XDATA, add(CFA_XSP16, literal(-13)))
        CFI (cfiCond88) V2 load(1, XDATA, add(CFA_XSP16, literal(-12)))
        CFI (cfiCond88) V3 load(1, XDATA, add(CFA_XSP16, literal(-11)))
        CFI (cfiCond88) V4 load(1, XDATA, add(CFA_XSP16, literal(-10)))
        CFI (cfiCond88) V5 load(1, XDATA, add(CFA_XSP16, literal(-9)))
        CFI (cfiCond88) V6 load(1, XDATA, add(CFA_XSP16, literal(-8)))
        CFI (cfiCond88) V7 load(1, XDATA, add(CFA_XSP16, literal(-7)))
        CFI (cfiCond88) R7 load(1, XDATA, add(CFA_XSP16, literal(-6)))
        CFI (cfiCond88) ?RET_LOW load(1, XDATA, add(CFA_XSP16, literal(-5)))
        CFI (cfiCond88) ?RET_HIGH load(1, XDATA, add(CFA_XSP16, literal(-4)))
        CFI (cfiCond88) ?BRET_EXT load(1, XDATA, add(CFA_XSP16, literal(-3)))
        CFI (cfiCond88) DPL0 load(1, XDATA, add(CFA_XSP16, literal(-2)))
        CFI (cfiCond88) DPH0 load(1, XDATA, add(CFA_XSP16, literal(-1)))
        CFI (cfiCond88) CFA_SP SP+0
        CFI (cfiCond88) CFA_XSP16 add(XSP16, 23)
        CFI Block cfiCond89 Using cfiCommon0
        CFI (cfiCond89) NoFunction
        CFI (cfiCond89) Conditional ??CrossCallReturnLabel_46, ??CrossCallReturnLabel_39
        CFI (cfiCond89) R6 load(1, XDATA, add(CFA_XSP16, literal(-14)))
        CFI (cfiCond89) VB load(1, XDATA, add(CFA_XSP16, literal(-13)))
        CFI (cfiCond89) V0 load(1, XDATA, add(CFA_XSP16, literal(-12)))
        CFI (cfiCond89) V1 load(1, XDATA, add(CFA_XSP16, literal(-11)))
        CFI (cfiCond89) V2 load(1, XDATA, add(CFA_XSP16, literal(-10)))
        CFI (cfiCond89) V3 load(1, XDATA, add(CFA_XSP16, literal(-9)))
        CFI (cfiCond89) V4 load(1, XDATA, add(CFA_XSP16, literal(-8)))
        CFI (cfiCond89) V5 load(1, XDATA, add(CFA_XSP16, literal(-7)))
        CFI (cfiCond89) R7 load(1, XDATA, add(CFA_XSP16, literal(-6)))
        CFI (cfiCond89) ?RET_LOW load(1, XDATA, add(CFA_XSP16, literal(-5)))
        CFI (cfiCond89) ?RET_HIGH load(1, XDATA, add(CFA_XSP16, literal(-4)))
        CFI (cfiCond89) ?BRET_EXT load(1, XDATA, add(CFA_XSP16, literal(-3)))
        CFI (cfiCond89) DPL0 load(1, XDATA, add(CFA_XSP16, literal(-2)))
        CFI (cfiCond89) DPH0 load(1, XDATA, add(CFA_XSP16, literal(-1)))
        CFI (cfiCond89) CFA_SP SP+0
        CFI (cfiCond89) CFA_XSP16 add(XSP16, 14)
        CFI Block cfiCond90 Using cfiCommon0
        CFI (cfiCond90) NoFunction
        CFI (cfiCond90) Conditional ??CrossCallReturnLabel_42, ??CrossCallReturnLabel_2
        CFI (cfiCond90) R6 load(1, XDATA, add(CFA_XSP16, literal(-10)))
        CFI (cfiCond90) VB load(1, XDATA, add(CFA_XSP16, literal(-9)))
        CFI (cfiCond90) V0 load(1, XDATA, add(CFA_XSP16, literal(-8)))
        CFI (cfiCond90) V1 load(1, XDATA, add(CFA_XSP16, literal(-7)))
        CFI (cfiCond90) R7 load(1, XDATA, add(CFA_XSP16, literal(-6)))
        CFI (cfiCond90) ?RET_LOW load(1, XDATA, add(CFA_XSP16, literal(-5)))
        CFI (cfiCond90) ?RET_HIGH load(1, XDATA, add(CFA_XSP16, literal(-4)))
        CFI (cfiCond90) ?BRET_EXT load(1, XDATA, add(CFA_XSP16, literal(-3)))
        CFI (cfiCond90) DPL0 load(1, XDATA, add(CFA_XSP16, literal(-2)))
        CFI (cfiCond90) DPH0 load(1, XDATA, add(CFA_XSP16, literal(-1)))
        CFI (cfiCond90) CFA_SP SP+0
        CFI (cfiCond90) CFA_XSP16 add(XSP16, 10)
        CFI Block cfiCond91 Using cfiCommon0
        CFI (cfiCond91) NoFunction
        CFI (cfiCond91) Conditional ??CrossCallReturnLabel_42, ??CrossCallReturnLabel_3
        CFI (cfiCond91) R6 load(1, XDATA, add(CFA_XSP16, literal(-10)))
        CFI (cfiCond91) VB load(1, XDATA, add(CFA_XSP16, literal(-9)))
        CFI (cfiCond91) V0 load(1, XDATA, add(CFA_XSP16, literal(-8)))
        CFI (cfiCond91) V1 load(1, XDATA, add(CFA_XSP16, literal(-7)))
        CFI (cfiCond91) R7 load(1, XDATA, add(CFA_XSP16, literal(-6)))
        CFI (cfiCond91) ?RET_LOW load(1, XDATA, add(CFA_XSP16, literal(-5)))
        CFI (cfiCond91) ?RET_HIGH load(1, XDATA, add(CFA_XSP16, literal(-4)))
        CFI (cfiCond91) ?BRET_EXT load(1, XDATA, add(CFA_XSP16, literal(-3)))
        CFI (cfiCond91) DPL0 load(1, XDATA, add(CFA_XSP16, literal(-2)))
        CFI (cfiCond91) DPH0 load(1, XDATA, add(CFA_XSP16, literal(-1)))
        CFI (cfiCond91) CFA_SP SP+0
        CFI (cfiCond91) CFA_XSP16 add(XSP16, 10)
        CFI Block cfiCond92 Using cfiCommon0
        CFI (cfiCond92) NoFunction
        CFI (cfiCond92) Conditional ??CrossCallReturnLabel_43
        CFI (cfiCond92) R6 load(1, XDATA, add(CFA_XSP16, literal(-14)))
        CFI (cfiCond92) VB load(1, XDATA, add(CFA_XSP16, literal(-13)))
        CFI (cfiCond92) V0 load(1, XDATA, add(CFA_XSP16, literal(-12)))
        CFI (cfiCond92) V1 load(1, XDATA, add(CFA_XSP16, literal(-11)))
        CFI (cfiCond92) V2 load(1, XDATA, add(CFA_XSP16, literal(-10)))
        CFI (cfiCond92) V3 load(1, XDATA, add(CFA_XSP16, literal(-9)))
        CFI (cfiCond92) V4 load(1, XDATA, add(CFA_XSP16, literal(-8)))
        CFI (cfiCond92) V5 load(1, XDATA, add(CFA_XSP16, literal(-7)))
        CFI (cfiCond92) R7 load(1, XDATA, add(CFA_XSP16, literal(-6)))
        CFI (cfiCond92) ?RET_LOW load(1, XDATA, add(CFA_XSP16, literal(-5)))
        CFI (cfiCond92) ?RET_HIGH load(1, XDATA, add(CFA_XSP16, literal(-4)))
        CFI (cfiCond92) ?BRET_EXT load(1, XDATA, add(CFA_XSP16, literal(-3)))
        CFI (cfiCond92) DPL0 load(1, XDATA, add(CFA_XSP16, literal(-2)))
        CFI (cfiCond92) DPH0 load(1, XDATA, add(CFA_XSP16, literal(-1)))
        CFI (cfiCond92) CFA_SP SP+0
        CFI (cfiCond92) CFA_XSP16 add(XSP16, 14)
        CFI Block cfiCond93 Using cfiCommon0
        CFI (cfiCond93) NoFunction
        CFI (cfiCond93) Conditional ??CrossCallReturnLabel_44
        CFI (cfiCond93) R6 load(1, XDATA, add(CFA_XSP16, literal(-14)))
        CFI (cfiCond93) VB load(1, XDATA, add(CFA_XSP16, literal(-13)))
        CFI (cfiCond93) V0 load(1, XDATA, add(CFA_XSP16, literal(-12)))
        CFI (cfiCond93) V1 load(1, XDATA, add(CFA_XSP16, literal(-11)))
        CFI (cfiCond93) V2 load(1, XDATA, add(CFA_XSP16, literal(-10)))
        CFI (cfiCond93) V3 load(1, XDATA, add(CFA_XSP16, literal(-9)))
        CFI (cfiCond93) V4 load(1, XDATA, add(CFA_XSP16, literal(-8)))
        CFI (cfiCond93) V5 load(1, XDATA, add(CFA_XSP16, literal(-7)))
        CFI (cfiCond93) R7 load(1, XDATA, add(CFA_XSP16, literal(-6)))
        CFI (cfiCond93) ?RET_LOW load(1, XDATA, add(CFA_XSP16, literal(-5)))
        CFI (cfiCond93) ?RET_HIGH load(1, XDATA, add(CFA_XSP16, literal(-4)))
        CFI (cfiCond93) ?BRET_EXT load(1, XDATA, add(CFA_XSP16, literal(-3)))
        CFI (cfiCond93) DPL0 load(1, XDATA, add(CFA_XSP16, literal(-2)))
        CFI (cfiCond93) DPH0 load(1, XDATA, add(CFA_XSP16, literal(-1)))
        CFI (cfiCond93) CFA_SP SP+0
        CFI (cfiCond93) CFA_XSP16 add(XSP16, 14)
        CFI Block cfiPicker94 Using cfiCommon1
        CFI (cfiPicker94) NoFunction
        CFI (cfiPicker94) Picker
        MOVX    A,@DPTR
        MOV     R0,A
        INC     DPTR
        MOVX    A,@DPTR
        MOV     R1,A
        RET
        CFI EndBlock cfiCond84
        CFI EndBlock cfiCond85
        CFI EndBlock cfiCond86
        CFI EndBlock cfiCond87
        CFI EndBlock cfiCond88
        CFI EndBlock cfiCond89
        CFI EndBlock cfiCond90
        CFI EndBlock cfiCond91
        CFI EndBlock cfiCond92
        CFI EndBlock cfiCond93
        CFI EndBlock cfiPicker94
//  899 
//  900 /*********************************************************************
//  901  * @fn          ZDNwkMgr_EDScanConfirmCB
//  902  *
//  903  * @brief       Handle Energy Scan confirm callback
//  904  *
//  905  * @param       scannedChannels  - scanned channels
//  906  * @param       energyDetectList - measured energy for channels
//  907  *
//  908  * @return      none
//  909  */

        RSEG BANKED_CODE:CODE:NOROOT(0)
//  910 void ZDNwkMgr_EDScanConfirmCB( NLME_EDScanConfirm_t *EDScanConfirm )
ZDNwkMgr_EDScanConfirmCB:
        CFI Block cfiBlock95 Using cfiCommon0
        CFI Function ZDNwkMgr_EDScanConfirmCB
        CODE
//  911 {
        FUNCALL ZDNwkMgr_EDScanConfirmCB, osal_msg_allocate
        LOCFRAME ISTACK, 0, STACK
        LOCFRAME PSTACK, 0, STACK
        LOCFRAME XSTACK, 12, STACK
        LOCFRAME IOVERLAY, 0, STATIC
        LOCFRAME DOVERLAY, 0, STATIC
        ARGFRAME ISTACK, 0, STACK
        ARGFRAME PSTACK, 0, STACK
        ARGFRAME XSTACK, 12, STACK
        ARGFRAME IOVERLAY, 0, STATIC
        ARGFRAME DOVERLAY, 0, STATIC
        FUNCALL ZDNwkMgr_EDScanConfirmCB, osal_memcpy
        LOCFRAME ISTACK, 0, STACK
        LOCFRAME PSTACK, 0, STACK
        LOCFRAME XSTACK, 15, STACK
        LOCFRAME IOVERLAY, 0, STATIC
        LOCFRAME DOVERLAY, 0, STATIC
        ARGFRAME ISTACK, 0, STACK
        ARGFRAME PSTACK, 0, STACK
        ARGFRAME XSTACK, 15, STACK
        ARGFRAME IOVERLAY, 0, STATIC
        ARGFRAME DOVERLAY, 0, STATIC
        FUNCALL ZDNwkMgr_EDScanConfirmCB, osal_msg_send
        LOCFRAME ISTACK, 0, STACK
        LOCFRAME PSTACK, 0, STACK
        LOCFRAME XSTACK, 12, STACK
        LOCFRAME IOVERLAY, 0, STATIC
        LOCFRAME DOVERLAY, 0, STATIC
        ARGFRAME ISTACK, 0, STACK
        ARGFRAME PSTACK, 0, STACK
        ARGFRAME XSTACK, 12, STACK
        ARGFRAME IOVERLAY, 0, STATIC
        ARGFRAME DOVERLAY, 0, STATIC
        MOV     A,#-0xc
        LCALL   ?BANKED_ENTER_XDATA
        CFI DPH0 load(1, XDATA, add(CFA_XSP16, literal(-1)))
        CFI DPL0 load(1, XDATA, add(CFA_XSP16, literal(-2)))
        CFI ?BRET_EXT load(1, XDATA, add(CFA_XSP16, literal(-3)))
        CFI ?RET_HIGH load(1, XDATA, add(CFA_XSP16, literal(-4)))
        CFI ?RET_LOW load(1, XDATA, add(CFA_XSP16, literal(-5)))
        CFI R7 load(1, XDATA, add(CFA_XSP16, literal(-6)))
        CFI V3 load(1, XDATA, add(CFA_XSP16, literal(-7)))
        CFI V2 load(1, XDATA, add(CFA_XSP16, literal(-8)))
        CFI V1 load(1, XDATA, add(CFA_XSP16, literal(-9)))
        CFI V0 load(1, XDATA, add(CFA_XSP16, literal(-10)))
        CFI VB load(1, XDATA, add(CFA_XSP16, literal(-11)))
        CFI R6 load(1, XDATA, add(CFA_XSP16, literal(-12)))
        CFI CFA_SP SP+0
        CFI CFA_XSP16 add(XSP16, 12)
        ; Saved register size: 12
        ; Auto size: 0
        MOV     ?V0 + 0,R2
        MOV     ?V0 + 1,R3
//  912   ZDNwkMgr_EDScanConfirm_t *pEDScanConfirm;
//  913 
//  914   // Send ED Confirm to the Network Manager task
//  915   pEDScanConfirm = (ZDNwkMgr_EDScanConfirm_t *)osal_msg_allocate( sizeof( ZDNwkMgr_EDScanConfirm_t ) );
        ; Setup parameters for call to function osal_msg_allocate
        MOV     R2,#0x22
        MOV     R3,#0x0
        LCALL   ??osal_msg_allocate?relay
        MOV     ?V0 + 2,R2
        MOV     ?V0 + 3,R3
        MOV     R6,?V0 + 2
        MOV     R7,?V0 + 3
//  916   if ( pEDScanConfirm )
        MOV     A,R6
        ORL     A,R7
        JZ      ??ZDNwkMgr_EDScanConfirmCB_0
//  917   {
//  918     pEDScanConfirm->hdr.event = NM_ED_SCAN_CONFIRM;
        MOV     DPL,R6
        MOV     DPH,R7
        MOV     A,#0x32
        MOVX    @DPTR,A
//  919       
//  920     // Build the structure
//  921     pEDScanConfirm->status = EDScanConfirm->status;
        MOV     DPL,?V0 + 0
        MOV     DPH,?V0 + 1
        MOVX    A,@DPTR
        MOV     DPL,R6
        MOV     DPH,R7
        INC     DPTR
        INC     DPTR
        MOVX    @DPTR,A
//  922     pEDScanConfirm->scannedChannels = EDScanConfirm->scannedChannels;
        MOV     DPL,?V0 + 0
        MOV     DPH,?V0 + 1
        INC     DPTR
        LCALL   ?XLOAD_R2345
        MOV     DPL,R6
        MOV     DPH,R7
        INC     DPTR
        INC     DPTR
        INC     DPTR
        LCALL   ?XSTORE_R2345
//  923     osal_memcpy( pEDScanConfirm->energyDetectList, EDScanConfirm->energyDetectList, ED_SCAN_MAXCHANNELS );
        ; Setup parameters for call to function osal_memcpy
        MOV     DPL,?V0 + 0
        MOV     DPH,?V0 + 1
        INC     DPTR
        INC     DPTR
        INC     DPTR
        INC     DPTR
        INC     DPTR
        MOVX    A,@DPTR
        MOV     ?V0 + 0,A
        INC     DPTR
        MOVX    A,@DPTR
        MOV     ?V0 + 1,A
        MOV     ?V0 + 2,#0x0
        MOV     R0,#?V0 + 0
        LCALL   ?PUSH_XSTACK_I_THREE
        CFI CFA_XSP16 add(XSP16, 15)
        MOV     R4,#0x1b
        MOV     R5,#0x0
        MOV     A,R6
        ADD     A,#0x7
        MOV     R2,A
        MOV     A,R7
        ADDC    A,#0x0
        MOV     R3,A
        LCALL   ??osal_memcpy?relay
        MOV     A,#0x3
        LCALL   ?DEALLOC_XSTACK8
        CFI CFA_XSP16 add(XSP16, 12)
//  924       
//  925     osal_msg_send( ZDNwkMgr_TaskID, (uint8 *)pEDScanConfirm );
        ; Setup parameters for call to function osal_msg_send
        MOV     A,R6
        MOV     R2,A
        MOV     A,R7
        MOV     R3,A
        MOV     DPTR,#ZDNwkMgr_TaskID
        MOVX    A,@DPTR
        MOV     R1,A
        LCALL   ??osal_msg_send?relay
//  926   }
//  927 }
??ZDNwkMgr_EDScanConfirmCB_0:
        LJMP    ?Subroutine1 & 0xFFFF
        CFI EndBlock cfiBlock95
//  928 
//  929 /*********************************************************************
//  930  * @fn      ZDNwkMgr_ProcessDataConfirm
//  931  *
//  932  * @brief   Process received Confirmation for Mgmt NWK Update Notify message
//  933  *
//  934  * @param   none
//  935  *
//  936  * @return  none
//  937  */

        RSEG BANKED_CODE:CODE:NOROOT(0)
//  938 void ZDNwkMgr_ProcessDataConfirm( afDataConfirm_t *afDataConfirm )
ZDNwkMgr_ProcessDataConfirm:
        CFI Block cfiBlock96 Using cfiCommon0
        CFI Function ZDNwkMgr_ProcessDataConfirm
        CODE
//  939 {
        FUNCALL ZDNwkMgr_ProcessDataConfirm, nwkTransmissionFailures
        LOCFRAME ISTACK, 2, STACK
        LOCFRAME PSTACK, 0, STACK
        LOCFRAME XSTACK, 0, STACK
        LOCFRAME IOVERLAY, 0, STATIC
        LOCFRAME DOVERLAY, 0, STATIC
        ARGFRAME ISTACK, 2, STACK
        ARGFRAME PSTACK, 0, STACK
        ARGFRAME XSTACK, 0, STACK
        ARGFRAME IOVERLAY, 0, STATIC
        ARGFRAME DOVERLAY, 0, STATIC
        PUSH    DPL
        CFI DPL0 Frame(CFA_SP, 4)
        CFI CFA_SP SP+-4
        PUSH    DPH
        CFI DPH0 Frame(CFA_SP, 5)
        CFI CFA_SP SP+-5
        ; Saved register size: 2
        ; Auto size: 0
//  940   if (   ZDNwkMgr_WaitingForNotifyConfirm  && 
//  941        ( afDataConfirm->transID == 0 )     && 
//  942        ( afDataConfirm->hdr.status == ZSuccess ) )
        MOV     DPTR,#ZDNwkMgr_WaitingForNotifyConfirm
        MOVX    A,@DPTR
        JZ      ??ZDNwkMgr_ProcessDataConfirm_0
        MOV     DPL,R2
        MOV     DPH,R3
        INC     DPTR
        INC     DPTR
        INC     DPTR
        MOVX    A,@DPTR
        JNZ     ??ZDNwkMgr_ProcessDataConfirm_0
        MOV     DPL,R2
        MOV     DPH,R3
        INC     DPTR
        MOVX    A,@DPTR
        JNZ     ??ZDNwkMgr_ProcessDataConfirm_0
//  943   {
//  944     // The Mgmt NWK Update Notify was sent as an APS Unicast with  
//  945     // acknowledgement and once the acknowledgment is received the 
//  946     // total transmit and transmit failure counters are reset to zero.  
//  947     _NIB.nwkTotalTransmissions = 0;
        LCALL   ?Subroutine4 & 0xFFFF
//  948     nwkTransmissionFailures( TRUE );
//  949     
//  950     ZDNwkMgr_WaitingForNotifyConfirm = FALSE;
??CrossCallReturnLabel_1:
        MOV     DPTR,#ZDNwkMgr_WaitingForNotifyConfirm
        CLR     A
        MOVX    @DPTR,A
//  951   }
//  952 }
??ZDNwkMgr_ProcessDataConfirm_0:
        LJMP    ?Subroutine2 & 0xFFFF
        CFI EndBlock cfiBlock96

        RSEG BANKED_CODE:CODE:NOROOT(0)
?Subroutine4:
        CFI Block cfiCond97 Using cfiCommon0
        CFI NoFunction
        CFI Conditional ??CrossCallReturnLabel_0
        CFI R6 load(1, XDATA, add(CFA_XSP16, literal(-14)))
        CFI VB load(1, XDATA, add(CFA_XSP16, literal(-13)))
        CFI V0 load(1, XDATA, add(CFA_XSP16, literal(-12)))
        CFI V1 load(1, XDATA, add(CFA_XSP16, literal(-11)))
        CFI V2 load(1, XDATA, add(CFA_XSP16, literal(-10)))
        CFI V3 load(1, XDATA, add(CFA_XSP16, literal(-9)))
        CFI V4 load(1, XDATA, add(CFA_XSP16, literal(-8)))
        CFI V5 load(1, XDATA, add(CFA_XSP16, literal(-7)))
        CFI R7 load(1, XDATA, add(CFA_XSP16, literal(-6)))
        CFI ?RET_LOW load(1, XDATA, add(CFA_XSP16, literal(-5)))
        CFI ?RET_HIGH load(1, XDATA, add(CFA_XSP16, literal(-4)))
        CFI ?BRET_EXT load(1, XDATA, add(CFA_XSP16, literal(-3)))
        CFI DPL0 load(1, XDATA, add(CFA_XSP16, literal(-2)))
        CFI DPH0 load(1, XDATA, add(CFA_XSP16, literal(-1)))
        CFI CFA_SP SP+0
        CFI CFA_XSP16 add(XSP16, 14)
        CFI Block cfiCond98 Using cfiCommon0
        CFI (cfiCond98) NoFunction
        CFI (cfiCond98) Conditional ??CrossCallReturnLabel_1
        CFI (cfiCond98) DPL0 Frame(CFA_SP, 4)
        CFI (cfiCond98) DPH0 Frame(CFA_SP, 5)
        CFI (cfiCond98) CFA_SP SP+-5
        CFI Block cfiPicker99 Using cfiCommon1
        CFI (cfiPicker99) NoFunction
        CFI (cfiPicker99) Picker
        MOV     DPTR,#_NIB + 107
        CLR     A
        MOVX    @DPTR,A
        INC     DPTR
        MOVX    @DPTR,A
        ; Setup parameters for call to function nwkTransmissionFailures
        ; Setup parameters for call to function nwkTransmissionFailures
        MOV     R1,#0x1
        LCALL   ??nwkTransmissionFailures?relay
        RET
        CFI EndBlock cfiCond97
        CFI EndBlock cfiCond98
        CFI EndBlock cfiPicker99

        RSEG BANK_RELAYS:CODE:REORDER:NOROOT(0)
??ZDNwkMgr_Init?relay:
        LCALL   ?BDISPATCH
        DATA
        DC24    ZDNwkMgr_Init

        RSEG BANK_RELAYS:CODE:REORDER:NOROOT(0)
??ZDNwkMgr_event_loop?relay:
        LCALL   ?BDISPATCH
        DATA
        DC24    ZDNwkMgr_event_loop

        RSEG BANK_RELAYS:CODE:REORDER:NOROOT(0)
??ZDNwkMgr_ProcessMgmtNwkUpdateReq?relay:
        LCALL   ?BDISPATCH
        DATA
        DC24    ZDNwkMgr_ProcessMgmtNwkUpdateReq

        RSEG BANK_RELAYS:CODE:REORDER:NOROOT(0)
??ZDNwkMgr_ProcessServerDiscRsp?relay:
        LCALL   ?BDISPATCH
        DATA
        DC24    ZDNwkMgr_ProcessServerDiscRsp

        RSEG BANK_RELAYS:CODE:REORDER:NOROOT(0)
??ZDNwkMgr_CheckForChannelInterference?relay:
        LCALL   ?BDISPATCH
        DATA
        DC24    ZDNwkMgr_CheckForChannelInterference

        RSEG BANK_RELAYS:CODE:REORDER:NOROOT(0)
??ZDNwkMgr_BuildAndSendUpdateNotify?relay:
        LCALL   ?BDISPATCH
        DATA
        DC24    ZDNwkMgr_BuildAndSendUpdateNotify

        RSEG BANK_RELAYS:CODE:REORDER:NOROOT(0)
??ZDNwkMgr_SetNwkManagerAddr?relay:
        LCALL   ?BDISPATCH
        DATA
        DC24    ZDNwkMgr_SetNwkManagerAddr

        RSEG BANK_RELAYS:CODE:REORDER:NOROOT(0)
??ZDNwkMgr_ReportChannelInterference?relay:
        LCALL   ?BDISPATCH
        DATA
        DC24    ZDNwkMgr_ReportChannelInterference

        RSEG BANK_RELAYS:CODE:REORDER:NOROOT(0)
??ZDNwkMgr_EDScanConfirmCB?relay:
        LCALL   ?BDISPATCH
        DATA
        DC24    ZDNwkMgr_EDScanConfirmCB

        RSEG BANK_RELAYS:CODE:REORDER:NOROOT(0)
??ZDNwkMgr_ProcessDataConfirm?relay:
        LCALL   ?BDISPATCH
        DATA
        DC24    ZDNwkMgr_ProcessDataConfirm

        RSEG XDATA_ROM_C:CONST:REORDER:NOROOT(0)
        DATA8
`?<Constant ": ">`:
        DB ": "

        RSEG XDATA_ROM_C:CONST:REORDER:NOROOT(0)
        DATA32
__Constant_7fff800:
        DD 134215680

        RSEG XDATA_ROM_C:CONST:REORDER:NOROOT(0)
        DATA32
__Constant_0:
        DD 0

        END
//  953 
//  954 /*********************************************************************
//  955  * PAN ID Conflict Routines
//  956  */
//  957 #if defined ( NWK_MANAGER )
//  958 /*********************************************************************
//  959  * @fn          ZDNwkMgr_NetworkReportCB
//  960  *
//  961  * @brief       Handle the Network Report Command
//  962  *
//  963  * @param       srcAddr     - Source Address of the message.
//  964  * @param       status      - ZSuccess.
//  965  * @param       serverMask  - Bit mask of services matching the req serverMask.
//  966  * @param       securityUse -
//  967  *
//  968  * @return      none
//  969  */
//  970 void ZDNwkMgr_NetworkReportCB( ZDNwkMgr_NetworkReport_t *pReport )
//  971 { 
//  972   // Send Network Report message to the Network Manager task
//  973   osal_msg_send( ZDNwkMgr_TaskID, (uint8 *)pReport );
//  974 }
//  975 
//  976 /*********************************************************************
//  977  * @fn          ZDNwkMgr_NetworkUpdateCB
//  978  *
//  979  * @brief       Handle the Network Update Command
//  980  *
//  981  * @param       srcAddr     - Source Address of the message.
//  982  * @param       status      - ZSuccess.
//  983  * @param       serverMask  - Bit mask of services matching the req serverMask.
//  984  * @param       securityUse -
//  985  *
//  986  * @return      none
//  987  */
//  988 void ZDNwkMgr_NetworkUpdateCB( ZDNwkMgr_NetworkUpdate_t *pUpdate )
//  989 {
//  990   // Send Network Update message to the Network Manager task
//  991   osal_msg_send( ZDNwkMgr_TaskID, (uint8 *)pUpdate );
//  992 }
//  993 
//  994 /*********************************************************************
//  995  * @fn      ZDNwkMgr_ProcessNetworkReport
//  996  *
//  997  * @brief   Process the incoming Network Report message
//  998  *
//  999  * @param   pNetworkReport - Structure containing Network Report message
// 1000  *
// 1001  * @return  none
// 1002  */
// 1003 void ZDNwkMgr_ProcessNetworkReport( ZDNwkMgr_NetworkReport_t *pNetworkReport )
// 1004 {
// 1005   uint8 i;
// 1006   uint16 newPID;
// 1007   uint8 unique = TRUE;
// 1008 
// 1009   if ( pNetworkReport->reportType == NWKREPORT_PANID_CONFLICT )
// 1010   {
// 1011     if ( ZDNwkMgr_PanIdUpdateInProgress == FALSE )
// 1012     {
// 1013       do
// 1014       {
// 1015         // select a new PAN ID
// 1016         newPID = (uint16)osal_rand();
// 1017       
// 1018         // Make sure that the chosen PAN ID is not already in use in the
// 1019         // local neighborhood and also not contained within the Report 
// 1020         // Information field of the Network Report Command frame
// 1021         for ( i = 0; i < pNetworkReport->reportInfoCnt; i++ )
// 1022         {
// 1023           if ( pNetworkReport->panIDs[i] == newPID )
// 1024           {
// 1025             unique = FALSE;
// 1026             break;
// 1027           }
// 1028         }
// 1029       } while ( !unique );
// 1030          
// 1031       // Send out a Network Update command.
// 1032       NLME_SendNetworkUpdate( NWK_BROADCAST_SHORTADDR, NWKUPDATE_PANID_UPDATE,
// 1033                               _NIB.extendedPANID, _NIB.nwkUpdateId+1, newPID );
// 1034     
// 1035       ZDNwkMgr_PanIdUpdateInProgress = TRUE;
// 1036     }
// 1037   }
// 1038 }
// 1039 
// 1040 /*********************************************************************
// 1041  * @fn      ZDNwkMgr_ProcessNetworkUpdate
// 1042  *
// 1043  * @brief   Process the incoming Network Update message
// 1044  *
// 1045  * @param   pNetworkReport - Structure containing Network Update message
// 1046  *
// 1047  * @return  none
// 1048  */
// 1049 void ZDNwkMgr_ProcessNetworkUpdate( ZDNwkMgr_NetworkUpdate_t *pNetworkUpdate )
// 1050 {
// 1051   if ( pNetworkUpdate->updateType == NWKUPDATE_PANID_UPDATE )
// 1052   { 
// 1053     // Our PAN ID has been changed -- notify to save info into NV
// 1054     ZDApp_NwkStateUpdateCB();
// 1055     
// 1056     ZDNwkMgr_PanIdUpdateInProgress = FALSE;
// 1057   }
// 1058 }
// 1059 #endif // NWK_MANAGER
// 1060 
// 1061 
// 1062 /*********************************************************************
// 1063 *********************************************************************/
// 
// 2 003 bytes in segment BANKED_CODE
//    60 bytes in segment BANK_RELAYS
//    77 bytes in segment XDATA_ROM_C
//    39 bytes in segment XDATA_Z
// 
// 2 063 bytes of CODE  memory
//    69 bytes of CONST memory (+ 8 bytes shared)
//    39 bytes of XDATA memory
//
//Errors: none
//Warnings: none
